Archive member included to satisfy reference by file (symbol)

arch/arm/lib/lib.a(lib1funcs.o)
                              arch/arm/mach-sunxi/built-in.o (__aeabi_uidiv)
arch/arm/lib/lib.a(div0.o)    arch/arm/lib/lib.a(lib1funcs.o) (__div0)

Discarded input sections

 .data          0x0000000000000000        0x0 arch/arm/cpu/armv7/start.o
 .bss           0x0000000000000000        0x0 arch/arm/cpu/armv7/start.o
 .text.mmu_page_table_flush
                0x0000000000000000       0x1e arch/arm/cpu/armv7/built-in.o
 .text.v7_outer_cache_inval_range
                0x0000000000000000        0x2 arch/arm/cpu/armv7/built-in.o
 .text.invalidate_dcache_range
                0x0000000000000000       0x42 arch/arm/cpu/armv7/built-in.o
 .text.v7_arch_cp15_set_l2aux_ctrl
                0x0000000000000000        0x6 arch/arm/cpu/armv7/built-in.o
 .text.v7_arch_cp15_set_acr
                0x0000000000000000        0x6 arch/arm/cpu/armv7/built-in.o
 .text.sdelay   0x0000000000000000        0x6 arch/arm/cpu/armv7/built-in.o
 .text.wait_on_value
                0x0000000000000000       0x1e arch/arm/cpu/armv7/built-in.o
 .text.s_init   0x0000000000000000        0x4 arch/arm/cpu/armv7/built-in.o
 .text.protect_secure_section
                0x0000000000000000        0x2 arch/arm/cpu/armv7/built-in.o
 .text.smp_kick_all_cpus
                0x0000000000000000       0x18 arch/arm/cpu/armv7/built-in.o
 .data          0x0000000000000000        0x0 arch/arm/cpu/armv7/built-in.o
 .bss           0x0000000000000000        0x0 arch/arm/cpu/armv7/built-in.o
 .text.enable_caches
                0x0000000000000000        0xc arch/arm/lib/built-in.o
 .text.invalidate_dcache_range
                0x0000000000000000        0x2 arch/arm/lib/built-in.o
 .text.flush_dcache_range
                0x0000000000000000        0x2 arch/arm/lib/built-in.o
 .text.flush_dcache_all
                0x0000000000000000        0xa arch/arm/lib/built-in.o
 .text.invalidate_l2_cache
                0x0000000000000000        0xc arch/arm/lib/built-in.o
 .text.arm_init_before_mmu
                0x0000000000000000        0x2 arch/arm/lib/built-in.o
 .text.mmu_page_table_flush
                0x0000000000000000        0x2 arch/arm/lib/built-in.o
 .text.mmu_set_region_dcache_behaviour
                0x0000000000000000       0x4c arch/arm/lib/built-in.o
 .text.icache_status
                0x0000000000000000       0x1c arch/arm/lib/built-in.o
 .rodata.enable_caches.str1.1
                0x0000000000000000       0x1d arch/arm/lib/built-in.o
 .data          0x0000000000000000        0x0 arch/arm/lib/built-in.o
 .bss           0x0000000000000000        0x0 arch/arm/lib/built-in.o
 .text          0x0000000000000000        0x0 arch/arm/mach-sunxi/built-in.o
 .text.gtbus_init
                0x0000000000000000        0x2 arch/arm/mach-sunxi/built-in.o
 .text.clock_twi_onoff
                0x0000000000000000       0x4c arch/arm/mach-sunxi/built-in.o
 .text.mctl_await_completion
                0x0000000000000000       0x34 arch/arm/mach-sunxi/built-in.o
 .text.mctl_mem_matches
                0x0000000000000000       0x34 arch/arm/mach-sunxi/built-in.o
 .text.sunxi_gpio_get_cfgpin
                0x0000000000000000       0x20 arch/arm/mach-sunxi/built-in.o
 .text.prcm_apb0_disable
                0x0000000000000000       0x1c arch/arm/mach-sunxi/built-in.o
 .text.clock_set_pll5
                0x0000000000000000       0xa0 arch/arm/mach-sunxi/built-in.o
 .text.clock_set_pll11
                0x0000000000000000       0x4c arch/arm/mach-sunxi/built-in.o
 .text.clock_get_pll3
                0x0000000000000000       0x2c arch/arm/mach-sunxi/built-in.o
 .text.clock_get_mipi_pll
                0x0000000000000000       0x40 arch/arm/mach-sunxi/built-in.o
 .rodata.mctl_await_completion.str1.1
                0x0000000000000000       0x1b arch/arm/mach-sunxi/built-in.o
 .data          0x0000000000000000       0x18 arch/arm/mach-sunxi/built-in.o
 .bss           0x0000000000000000        0x0 arch/arm/mach-sunxi/built-in.o
 .text          0x0000000000000000        0x0 board/sunxi/built-in.o
 .data          0x0000000000000000        0x0 board/sunxi/built-in.o
 .bss           0x0000000000000000        0x0 board/sunxi/built-in.o
 .text          0x0000000000000000        0x0 cmd/built-in.o
 .text.allow_unaligned
                0x0000000000000000        0x2 cmd/built-in.o
 .text.bootz_setup
                0x0000000000000000       0x14 cmd/built-in.o
 .text.sunxi_name_to_gpio
                0x0000000000000000        0x8 cmd/built-in.o
 .rodata.bootz_setup.str1.1
                0x0000000000000000       0x34 cmd/built-in.o
 .data          0x0000000000000000        0x0 cmd/built-in.o
 .bss           0x0000000000000000        0x0 cmd/built-in.o
 .text          0x0000000000000000        0x0 common/built-in.o
 .text.hash_finish_crc32
                0x0000000000000000       0x1c common/built-in.o
 .text.hash_update_crc32
                0x0000000000000000       0x14 common/built-in.o
 .text.hash_init_crc32
                0x0000000000000000       0x14 common/built-in.o
 .text.hash_lookup_algo
                0x0000000000000000       0x1c common/built-in.o
 .text.hash_progressive_lookup_algo
                0x0000000000000000       0x20 common/built-in.o
 .text.hash_parse_string
                0x0000000000000000       0x3c common/built-in.o
 .text.hash_block
                0x0000000000000000       0x3e common/built-in.o
 .text.unset_local_var
                0x0000000000000000       0x5c common/built-in.o
 .text.red_led_off
                0x0000000000000000        0x2 common/built-in.o
 .text.green_led_on
                0x0000000000000000        0x2 common/built-in.o
 .text.green_led_off
                0x0000000000000000        0x2 common/built-in.o
 .text.yellow_led_on
                0x0000000000000000        0x2 common/built-in.o
 .text.yellow_led_off
                0x0000000000000000        0x2 common/built-in.o
 .text.blue_led_on
                0x0000000000000000        0x2 common/built-in.o
 .text.blue_led_off
                0x0000000000000000        0x2 common/built-in.o
 .text.board_get_usable_ram_top
                0x0000000000000000       0x12 common/built-in.o
 .text.arch_reserve_stacks
                0x0000000000000000        0x4 common/built-in.o
 .text.board_flash_wp_on
                0x0000000000000000        0x4 common/built-in.o
 .text.fixup_cpu
                0x0000000000000000        0x4 common/built-in.o
 .text.board_quiesce_devices
                0x0000000000000000        0x2 common/built-in.o
 .text.fdt_read_prop
                0x0000000000000000       0x3c common/built-in.o
 .text.fdt_getprop_u32_default_node
                0x0000000000000000       0x24 common/built-in.o
 .text.fdt_getprop_u32_default
                0x0000000000000000       0x24 common/built-in.o
 .text.do_fixup_by_path_u32
                0x0000000000000000       0x1a common/built-in.o
 .text.do_fixup_by_prop
                0x0000000000000000       0x5e common/built-in.o
 .text.do_fixup_by_prop_u32
                0x0000000000000000       0x22 common/built-in.o
 .text.do_fixup_by_compat
                0x0000000000000000       0x50 common/built-in.o
 .text.do_fixup_by_compat_u32
                0x0000000000000000       0x1a common/built-in.o
 .text.fdt_record_loadable
                0x0000000000000000       0xec common/built-in.o
 .text.fdt_increase_size
                0x0000000000000000        0xc common/built-in.o
 .text.fdt_del_node_and_alias
                0x0000000000000000       0x30 common/built-in.o
 .text.fdt_node_offset_by_compat_reg
                0x0000000000000000       0x5c common/built-in.o
 .text.fdt_alloc_phandle
                0x0000000000000000       0x36 common/built-in.o
 .text.fdt_set_phandle
                0x0000000000000000       0x38 common/built-in.o
 .text.fdt_create_phandle
                0x0000000000000000       0x40 common/built-in.o
 .text.fdt_set_node_status
                0x0000000000000000       0x90 common/built-in.o
 .text.fdt_set_status_by_alias
                0x0000000000000000       0x1c common/built-in.o
 .text.fdt_add_edid
                0x0000000000000000       0x78 common/built-in.o
 .text.fdt_verify_alias_address
                0x0000000000000000       0x88 common/built-in.o
 .text.fdt_get_base_address
                0x0000000000000000       0x28 common/built-in.o
 .text.fdt_read_range
                0x0000000000000000       0xd0 common/built-in.o
 .text.fdt_fixup_display
                0x0000000000000000       0x84 common/built-in.o
 .text.mdio_alloc
                0x0000000000000000       0x1c common/built-in.o
 .text.mdio_free
                0x0000000000000000        0x4 common/built-in.o
 .text.mdio_register
                0x0000000000000000       0x4c common/built-in.o
 .text.mdio_register_seq
                0x0000000000000000       0x24 common/built-in.o
 .text.mdio_unregister
                0x0000000000000000       0x24 common/built-in.o
 .text.mdio_list_devices
                0x0000000000000000       0x78 common/built-in.o
 .text.mdio_get_current_dev
                0x0000000000000000        0xc common/built-in.o
 .text.mdio_phydev_for_ethname
                0x0000000000000000       0x50 common/built-in.o
 .text.miiphy_reset
                0x0000000000000000       0x74 common/built-in.o
 .text.usb_submit_int_msg
                0x0000000000000000        0x4 common/built-in.o
 .text.usb_get_report
                0x0000000000000000       0x3a common/built-in.o
 .text.usb_get_class_descriptor
                0x0000000000000000       0x3a common/built-in.o
 .text.usb_find_usb2_hub_address_port
                0x0000000000000000       0x4c common/built-in.o
 .text.usb_hub_probe
                0x0000000000000000       0x3a common/built-in.o
 .text.iomux_printdevs
                0x0000000000000000       0x40 common/built-in.o
 .text.snip     0x0000000000000000       0x3c common/built-in.o
 .text.edid_check_info
                0x0000000000000000       0x38 common/built-in.o
 .text.edid_check_checksum
                0x0000000000000000       0x1e common/built-in.o
 .text.edid_get_ranges
                0x0000000000000000       0x60 common/built-in.o
 .text.edid_get_timing
                0x0000000000000000      0x204 common/built-in.o
 .text.edid_print_info
                0x0000000000000000      0x4a4 common/built-in.o
 .text.splash_screen_prepare
                0x0000000000000000        0x4 common/built-in.o
 .text.menu_default_choice
                0x0000000000000000       0x12 common/built-in.o
 .text.overwrite_console
                0x0000000000000000        0x4 common/built-in.o
 .text.cli_simple_parse_line
                0x0000000000000000       0x50 common/built-in.o
 .text.cli_simple_run_command
                0x0000000000000000       0xd0 common/built-in.o
 .text.cli_simple_loop
                0x0000000000000000       0x58 common/built-in.o
 .text.cli_simple_run_command_list
                0x0000000000000000       0x3a common/built-in.o
 .text.fgetc    0x0000000000000000       0x28 common/built-in.o
 .text.ftstc    0x0000000000000000        0xe common/built-in.o
 .text.fputc    0x0000000000000000        0xa common/built-in.o
 .text.confirm_yesno
                0x0000000000000000       0x84 common/built-in.o
 .text.console_announce_r
                0x0000000000000000        0x4 common/built-in.o
 .text.valloc   0x0000000000000000        0xa common/built-in.o
 .text.pvalloc  0x0000000000000000       0x14 common/built-in.o
 .text.cfree    0x0000000000000000        0x4 common/built-in.o
 .text.malloc_usable_size
                0x0000000000000000       0x30 common/built-in.o
 .text.mallopt  0x0000000000000000       0x30 common/built-in.o
 .text.memalign_simple
                0x0000000000000000       0x32 common/built-in.o
 .text.genimg_get_short_name
                0x0000000000000000       0x14 common/built-in.o
 .text.genimg_get_cat_name
                0x0000000000000000       0x38 common/built-in.o
 .text.genimg_get_cat_short_name
                0x0000000000000000       0x38 common/built-in.o
 .text.genimg_get_cat_count
                0x0000000000000000       0x10 common/built-in.o
 .text.genimg_get_cat_desc
                0x0000000000000000       0x10 common/built-in.o
 .text.genimg_get_type_short_name
                0x0000000000000000        0xc common/built-in.o
 .text.genimg_get_comp_short_name
                0x0000000000000000        0xc common/built-in.o
 .text.genimg_get_os_short_name
                0x0000000000000000        0xc common/built-in.o
 .text.genimg_get_arch_short_name
                0x0000000000000000        0xc common/built-in.o
 .text.get_table_entry_id
                0x0000000000000000       0x26 common/built-in.o
 .text.genimg_get_os_id
                0x0000000000000000       0x14 common/built-in.o
 .text.genimg_get_arch_id
                0x0000000000000000       0x14 common/built-in.o
 .text.genimg_get_type_id
                0x0000000000000000       0x14 common/built-in.o
 .text.genimg_get_comp_id
                0x0000000000000000       0x14 common/built-in.o
 .text.android_image_get_second
                0x0000000000000000       0xe8 common/built-in.o
 .text.arch_fixup_fdt
                0x0000000000000000        0x4 common/built-in.o
 .text.stdio_deregister
                0x0000000000000000       0x1a common/built-in.o
 .text.stdio_init
                0x0000000000000000        0xe common/built-in.o
 .text.run_command_repeatable
                0x0000000000000000       0x12 common/built-in.o
 .rodata        0x0000000000000000        0x9 common/built-in.o
 .rodata.__func__.9050
                0x0000000000000000       0x14 common/built-in.o
 .rodata.fdt_add_edid.str1.1
                0x0000000000000000       0x3b common/built-in.o
 .rodata.fdt_create_phandle.str1.1
                0x0000000000000000       0x1a common/built-in.o
 .rodata.fdt_fixup_display.str1.1
                0x0000000000000000       0x1c common/built-in.o
 .rodata.fdt_read_range.str1.1
                0x0000000000000000        0xf common/built-in.o
 .rodata.fdt_record_loadable.str1.1
                0x0000000000000000       0x2e common/built-in.o
 .rodata.fdt_set_phandle.str1.1
                0x0000000000000000       0x16 common/built-in.o
 .rodata.fdt_verify_alias_address.str1.1
                0x0000000000000000       0xcc common/built-in.o
 .rodata.mdio_phydev_for_ethname.str1.1
                0x0000000000000000       0x1c common/built-in.o
 .rodata.mdio_register.str1.1
                0x0000000000000000       0x2c common/built-in.o
 .rodata.mdio_register_seq.str1.1
                0x0000000000000000        0x6 common/built-in.o
 .rodata.miiphy_reset.str1.1
                0x0000000000000000       0x15 common/built-in.o
 .rodata.usb_find_usb2_hub_address_port.str1.1
                0x0000000000000000       0x36 common/built-in.o
 .rodata.iomux_printdevs.str1.1
                0x0000000000000000        0x6 common/built-in.o
 .rodata.CSWTCH.20
                0x0000000000000000        0x8 common/built-in.o
 .rodata.edid_print_info.str1.1
                0x0000000000000000      0x487 common/built-in.o
 .rodata.cli_simple_loop.str1.1
                0x0000000000000000       0x11 common/built-in.o
 .rodata.cli_simple_parse_line.str1.1
                0x0000000000000000       0x1f common/built-in.o
 .rodata.cli_simple_run_command.str1.1
                0x0000000000000000       0x16 common/built-in.o
 .rodata.confirm_yesno.str1.1
                0x0000000000000000       0x10 common/built-in.o
 .rodata.genimg_get_arch_id.str1.1
                0x0000000000000000        0x4 common/built-in.o
 .rodata.genimg_get_comp_id.str1.1
                0x0000000000000000        0xc common/built-in.o
 .rodata.genimg_get_os_id.str1.1
                0x0000000000000000        0x3 common/built-in.o
 .rodata.genimg_get_short_name.str1.1
                0x0000000000000000        0x8 common/built-in.o
 .rodata.genimg_get_type_id.str1.1
                0x0000000000000000        0x6 common/built-in.o
 .rodata.table_info
                0x0000000000000000       0x30 common/built-in.o
 .rodata.unknown_str.8748
                0x0000000000000000        0x9 common/built-in.o
 .rodata.android_image_get_second.str1.1
                0x0000000000000000       0x19 common/built-in.o
 .data          0x0000000000000000        0x0 common/built-in.o
 .data.hash_algo
                0x0000000000000000       0x1c common/built-in.o
 .bss           0x0000000000000000        0x0 common/built-in.o
 .bss.lastcommand.7407
                0x0000000000000000      0x401 common/built-in.o
 .bss.msg.8749  0x0000000000000000       0x1e common/built-in.o
 .bss.save_addr
                0x0000000000000000        0x4 common/built-in.o
 .bss.save_size
                0x0000000000000000        0x4 common/built-in.o
 .text          0x0000000000000000        0x0 disk/built-in.o
 .text.is_valid_dos_buf
                0x0000000000000000       0x10 disk/built-in.o
 .text.write_mbr_partition
                0x0000000000000000       0x44 disk/built-in.o
 .text.is_valid_gpt_buf
                0x0000000000000000       0x4e disk/built-in.o
 .text.write_mbr_and_gpt_partitions
                0x0000000000000000      0x2f8 disk/built-in.o
 .rodata.__func__.7368
                0x0000000000000000       0x14 disk/built-in.o
 .rodata.write_mbr_partition.str1.1
                0x0000000000000000       0x2d disk/built-in.o
 .rodata.__func__.8726
                0x0000000000000000       0x1d disk/built-in.o
 .rodata.write_mbr_and_gpt_partitions.str1.1
                0x0000000000000000       0x7c disk/built-in.o
 .data          0x0000000000000000        0x0 disk/built-in.o
 .bss           0x0000000000000000        0x0 disk/built-in.o
 .text          0x0000000000000000        0x0 drivers/built-in.o
 .text._device_find_global_by_ofnode
                0x0000000000000000       0x2e drivers/built-in.o
 .text.device_bind_ofnode
                0x0000000000000000       0x16 drivers/built-in.o
 .text.device_find_child_by_seq
                0x0000000000000000       0x3a drivers/built-in.o
 .text.device_get_child_by_seq
                0x0000000000000000       0x32 drivers/built-in.o
 .text.device_find_child_by_of_offset
                0x0000000000000000       0x2e drivers/built-in.o
 .text.device_get_child_by_of_offset
                0x0000000000000000       0x20 drivers/built-in.o
 .text.device_find_global_by_ofnode
                0x0000000000000000       0x1e drivers/built-in.o
 .text.device_get_global_by_ofnode
                0x0000000000000000       0x24 drivers/built-in.o
 .text.dev_get_parent
                0x0000000000000000        0x4 drivers/built-in.o
 .text.dev_get_driver_ops
                0x0000000000000000        0x8 drivers/built-in.o
 .text.dev_get_uclass_name
                0x0000000000000000        0xa drivers/built-in.o
 .text.device_has_children
                0x0000000000000000        0xe drivers/built-in.o
 .text.device_set_name_alloced
                0x0000000000000000        0xa drivers/built-in.o
 .text.device_set_name
                0x0000000000000000       0x20 drivers/built-in.o
 .text.device_is_compatible
                0x0000000000000000       0x10 drivers/built-in.o
 .text.of_machine_is_compatible
                0x0000000000000000       0x18 drivers/built-in.o
 .text.devfdt_get_addr_size_index
                0x0000000000000000       0x2c drivers/built-in.o
 .text.devfdt_remap_addr_index
                0x0000000000000000       0x10 drivers/built-in.o
 .text.devfdt_remap_addr
                0x0000000000000000        0x6 drivers/built-in.o
 .text.devfdt_map_physmem
                0x0000000000000000       0x10 drivers/built-in.o
 .text.dm_fixup_for_gd_move
                0x0000000000000000       0x14 drivers/built-in.o
 .text.dm_set_translation_offset
                0x0000000000000000       0x10 drivers/built-in.o
 .text.dm_uninit
                0x0000000000000000       0x18 drivers/built-in.o
 .text.uclass_destroy
                0x0000000000000000       0x52 drivers/built-in.o
 .text.uclass_get_name
                0x0000000000000000       0x1a drivers/built-in.o
 .text.uclass_get_by_name
                0x0000000000000000       0x2a drivers/built-in.o
 .text.uclass_find_device_by_name
                0x0000000000000000       0x50 drivers/built-in.o
 .text.uclass_get_device_by_driver
                0x0000000000000000       0x40 drivers/built-in.o
 .text.uclass_get_device_by_name
                0x0000000000000000       0x1c drivers/built-in.o
 .text.uclass_get_device_by_phandle_id
                0x0000000000000000       0x4c drivers/built-in.o
 .text.uclass_get_device_by_phandle
                0x0000000000000000       0x66 drivers/built-in.o
 .text.uclass_first_device_err
                0x0000000000000000       0x16 drivers/built-in.o
 .text.list_count_items
                0x0000000000000000       0x14 drivers/built-in.o
 .text.simple_bus_translate
                0x0000000000000000       0x20 drivers/built-in.o
 .text.ofnode_read_fmap_entry
                0x0000000000000000       0x80 drivers/built-in.o
 .text.ofnode_decode_region
                0x0000000000000000       0x2c drivers/built-in.o
 .text.ofnode_decode_memory_region
                0x0000000000000000       0xac drivers/built-in.o
 .text.ofnode_read_s32_default
                0x0000000000000000       0x12 drivers/built-in.o
 .text.ofnode_read_u64
                0x0000000000000000       0x34 drivers/built-in.o
 .text.ofnode_read_u64_default
                0x0000000000000000       0x14 drivers/built-in.o
 .text.ofnode_read_string
                0x0000000000000000       0x30 drivers/built-in.o
 .text.ofnode_find_subnode
                0x0000000000000000       0x12 drivers/built-in.o
 .text.ofnode_first_subnode
                0x0000000000000000       0x10 drivers/built-in.o
 .text.ofnode_next_subnode
                0x0000000000000000       0x10 drivers/built-in.o
 .text.ofnode_get_by_phandle
                0x0000000000000000       0x10 drivers/built-in.o
 .text.ofnode_read_size
                0x0000000000000000       0x20 drivers/built-in.o
 .text.decode_timing_property
                0x0000000000000000       0x3e drivers/built-in.o
 .text.ofnode_get_addr_index
                0x0000000000000000       0x10 drivers/built-in.o
 .text.ofnode_get_addr
                0x0000000000000000        0x6 drivers/built-in.o
 .text.ofnode_read_string_index
                0x0000000000000000       0x2c drivers/built-in.o
 .text.ofnode_read_string_count
                0x0000000000000000        0xe drivers/built-in.o
 .text.ofnode_count_phandle_with_args
                0x0000000000000000       0x24 drivers/built-in.o
 .text.ofnode_get_chosen_prop
                0x0000000000000000       0x18 drivers/built-in.o
 .text.ofnode_get_chosen_node
                0x0000000000000000       0x16 drivers/built-in.o
 .text.ofnode_read_bool
                0x0000000000000000       0x10 drivers/built-in.o
 .text.ofnode_decode_display_timing
                0x0000000000000000      0x1d0 drivers/built-in.o
 .text.ofnode_is_available
                0x0000000000000000       0x16 drivers/built-in.o
 .text.ofnode_get_addr_size
                0x0000000000000000       0x14 drivers/built-in.o
 .text.ofnode_read_u8_array_ptr
                0x0000000000000000       0x14 drivers/built-in.o
 .text.ofnode_read_pci_addr
                0x0000000000000000       0x68 drivers/built-in.o
 .text.ofnode_read_pci_vendev
                0x0000000000000000       0x90 drivers/built-in.o
 .text.ofnode_read_addr_cells
                0x0000000000000000        0xc drivers/built-in.o
 .text.ofnode_read_size_cells
                0x0000000000000000        0xc drivers/built-in.o
 .text.ofnode_read_simple_addr_cells
                0x0000000000000000        0x4 drivers/built-in.o
 .text.ofnode_read_simple_size_cells
                0x0000000000000000        0x4 drivers/built-in.o
 .text.ofnode_pre_reloc
                0x0000000000000000       0x34 drivers/built-in.o
 .text.ofnode_read_resource
                0x0000000000000000       0x40 drivers/built-in.o
 .text.ofnode_read_resource_byname
                0x0000000000000000       0x24 drivers/built-in.o
 .text.ofnode_translate_address
                0x0000000000000000        0xe drivers/built-in.o
 .text.ofnode_device_is_compatible
                0x0000000000000000       0x18 drivers/built-in.o
 .text.ofnode_by_compatible
                0x0000000000000000       0x12 drivers/built-in.o
 .text.ofnode_by_prop_value
                0x0000000000000000       0x18 drivers/built-in.o
 .text.generic_phy_reset
                0x0000000000000000       0x10 drivers/built-in.o
 .text.blk_select_hwpart_devnum
                0x0000000000000000       0x2a drivers/built-in.o
 .text.fastboot_get_progress_callback
                0x0000000000000000        0xc drivers/built-in.o
 .text.fastboot_set_progress_callback
                0x0000000000000000        0xc drivers/built-in.o
 .text.rtc_to_tm
                0x0000000000000000      0x154 drivers/built-in.o
 .text.video_position_cursor
                0x0000000000000000       0x38 drivers/built-in.o
 .text.video_get_pixel_width
                0x0000000000000000        0xc drivers/built-in.o
 .text.video_get_pixel_height
                0x0000000000000000        0xc drivers/built-in.o
 .text.video_get_screen_rows
                0x0000000000000000       0x10 drivers/built-in.o
 .text.video_get_screen_columns
                0x0000000000000000       0x10 drivers/built-in.o
 .text.lcdc_tcon1_mode_set
                0x0000000000000000      0x108 drivers/built-in.o
 .text.tvencoder_mode_set
                0x0000000000000000      0x1d8 drivers/built-in.o
 .text.tvencoder_enable
                0x0000000000000000        0xa drivers/built-in.o
 .text.video_get_params
                0x0000000000000000      0x344 drivers/built-in.o
 .text.video_edid_dtd_to_ctfb_res_modes
                0x0000000000000000      0x188 drivers/built-in.o
 .text._input_send_keycodes
                0x0000000000000000      0x2c0 drivers/built-in.o
 .text.input_send_keycodes
                0x0000000000000000        0x6 drivers/built-in.o
 .text.input_add_keycode
                0x0000000000000000       0x58 drivers/built-in.o
 .text.input_add_table
                0x0000000000000000       0x28 drivers/built-in.o
 .text.input_set_delays
                0x0000000000000000        0xa drivers/built-in.o
 .text.input_allow_repeats
                0x0000000000000000        0x6 drivers/built-in.o
 .text.input_leds_changed
                0x0000000000000000        0xe drivers/built-in.o
 .text.input_add_tables
                0x0000000000000000       0x4c drivers/built-in.o
 .text.input_stdio_register
                0x0000000000000000       0x34 drivers/built-in.o
 .text.create_keymap
                0x0000000000000000       0x58 drivers/built-in.o
 .text.key_matrix_decode
                0x0000000000000000       0x96 drivers/built-in.o
 .text.key_matrix_decode_fdt
                0x0000000000000000       0x70 drivers/built-in.o
 .text.key_matrix_init
                0x0000000000000000       0x20 drivers/built-in.o
 .rodata.ofnode_decode_memory_region.str1.1
                0x0000000000000000       0x29 drivers/built-in.o
 .rodata.ofnode_read_fmap_entry.str1.1
                0x0000000000000000       0x1b drivers/built-in.o
 .rodata.ofnode_decode_display_timing.str1.1
                0x0000000000000000       0xca drivers/built-in.o
 .rodata.ofnode_get_chosen_prop.str1.1
                0x0000000000000000        0x8 drivers/built-in.o
 .rodata.ofnode_pre_reloc.str1.1
                0x0000000000000000       0x30 drivers/built-in.o
 .rodata.ofnode_read_pci_vendev.str1.1
                0x0000000000000000       0x1c drivers/built-in.o
 .rodata.ofnode_read_resource.str1.1
                0x0000000000000000        0x4 drivers/built-in.o
 .rodata.ofnode_read_resource_byname.str1.1
                0x0000000000000000        0xa drivers/built-in.o
 .rodata.rtc_days_in_month
                0x0000000000000000        0xc drivers/built-in.o
 .rodata.composite_video_modes
                0x0000000000000000       0x68 drivers/built-in.o
 .rodata.vesa_modes
                0x0000000000000000       0xe4 drivers/built-in.o
 .rodata.video_get_params.str1.1
                0x0000000000000000       0x5d drivers/built-in.o
 .rodata.input_stdio_register.str1.1
                0x0000000000000000        0x6 drivers/built-in.o
 .rodata.kbd_plain_xlate
                0x0000000000000000       0x64 drivers/built-in.o
 .rodata.kbd_plain_xlate_german
                0x0000000000000000       0x84 drivers/built-in.o
 .rodata.kbd_to_ansi364
                0x0000000000000000       0x20 drivers/built-in.o
 .rodata.key_matrix_decode_fdt.str1.1
                0x0000000000000000       0x1d drivers/built-in.o
 .data          0x0000000000000000        0x0 drivers/built-in.o
 .data.kbd_ctrl_xlate
                0x0000000000000000       0x64 drivers/built-in.o
 .data.kbd_entry
                0x0000000000000000       0x8c drivers/built-in.o
 .data.kbd_right_alt_xlate_german
                0x0000000000000000       0x58 drivers/built-in.o
 .data.kbd_shift_xlate
                0x0000000000000000       0x64 drivers/built-in.o
 .data.kbd_shift_xlate_german
                0x0000000000000000       0x84 drivers/built-in.o
 .bss           0x0000000000000000        0x0 drivers/built-in.o
 .text          0x0000000000000000        0x0 drivers/gpio/built-in.o
 .text.gpio_xlate_offs_flags
                0x0000000000000000       0x26 drivers/gpio/built-in.o
 .text.dm_gpio_requestf
                0x0000000000000000       0x2a drivers/gpio/built-in.o
 .text.gpio_requestf
                0x0000000000000000       0x2a drivers/gpio/built-in.o
 .text.dm_gpio_get_open_drain
                0x0000000000000000       0x2c drivers/gpio/built-in.o
 .text.dm_gpio_set_open_drain
                0x0000000000000000       0x2c drivers/gpio/built-in.o
 .text.dm_gpio_set_dir_flags
                0x0000000000000000       0x58 drivers/gpio/built-in.o
 .text.gpio_request_tail
                0x0000000000000000       0x88 drivers/gpio/built-in.o
 .text.dm_gpio_set_dir
                0x0000000000000000        0x6 drivers/gpio/built-in.o
 .text.gpio_claim_vector
                0x0000000000000000       0x52 drivers/gpio/built-in.o
 .text.gpio_get_values_as_int
                0x0000000000000000       0x2c drivers/gpio/built-in.o
 .text.dm_gpio_get_values_as_int
                0x0000000000000000       0x32 drivers/gpio/built-in.o
 .text.gpio_request_by_name_nodev
                0x0000000000000000       0x44 drivers/gpio/built-in.o
 .text.gpio_request_by_name
                0x0000000000000000       0x44 drivers/gpio/built-in.o
 .text.gpio_get_list_count
                0x0000000000000000       0x28 drivers/gpio/built-in.o
 .text.dm_gpio_free
                0x0000000000000000        0xa drivers/gpio/built-in.o
 .text.gpio_free_list
                0x0000000000000000       0x28 drivers/gpio/built-in.o
 .text.gpio_free_list_nodev
                0x0000000000000000        0xa drivers/gpio/built-in.o
 .text.gpio_request_list_by_name_nodev
                0x0000000000000000       0x6c drivers/gpio/built-in.o
 .text.gpio_request_list_by_name
                0x0000000000000000        0x6 drivers/gpio/built-in.o
 .text.gpio_get_number
                0x0000000000000000       0x14 drivers/gpio/built-in.o
 .text.sunxi_name_to_gpio_bank
                0x0000000000000000       0x24 drivers/gpio/built-in.o
 .rodata.dm_gpio_get_open_drain.str1.1
                0x0000000000000000        0xf drivers/gpio/built-in.o
 .rodata.dm_gpio_set_dir_flags.str1.1
                0x0000000000000000        0x8 drivers/gpio/built-in.o
 .rodata.dm_gpio_set_open_drain.str1.1
                0x0000000000000000        0xf drivers/gpio/built-in.o
 .rodata.gpio_request_by_name_nodev.str1.1
                0x0000000000000000        0xc drivers/gpio/built-in.o
 .rodata.gpio_request_tail.str1.1
                0x0000000000000000        0xe drivers/gpio/built-in.o
 .data          0x0000000000000000        0x0 drivers/gpio/built-in.o
 .bss           0x0000000000000000        0x0 drivers/gpio/built-in.o
 .text          0x0000000000000000        0x0 drivers/power/built-in.o
 .text.axp_set_dcdc1
                0x0000000000000000       0x58 drivers/power/built-in.o
 .text.axp_set_dcdc2
                0x0000000000000000       0x4c drivers/power/built-in.o
 .text.axp_set_dcdc3
                0x0000000000000000       0x4c drivers/power/built-in.o
 .text.axp_set_dcdc4
                0x0000000000000000       0x4c drivers/power/built-in.o
 .text.axp_set_dcdc5
                0x0000000000000000       0x4c drivers/power/built-in.o
 .text.axp_set_aldo1
                0x0000000000000000       0x4c drivers/power/built-in.o
 .text.axp_set_aldo2
                0x0000000000000000       0x4c drivers/power/built-in.o
 .text.axp_set_aldo3
                0x0000000000000000       0x4c drivers/power/built-in.o
 .text.axp_set_dldo
                0x0000000000000000       0x60 drivers/power/built-in.o
 .text.axp_set_eldo
                0x0000000000000000       0x60 drivers/power/built-in.o
 .text.axp_init
                0x0000000000000000       0x40 drivers/power/built-in.o
 .data          0x0000000000000000        0x0 drivers/power/built-in.o
 .bss           0x0000000000000000        0x0 drivers/power/built-in.o
 .text          0x0000000000000000        0x0 drivers/serial/built-in.o
 .text.serial_setconfig
                0x0000000000000000       0x1e drivers/serial/built-in.o
 .text.ns16550_calc_divisor
                0x0000000000000000       0x10 drivers/serial/built-in.o
 .text.NS16550_reinit
                0x0000000000000000       0x38 drivers/serial/built-in.o
 .text.NS16550_putc
                0x0000000000000000       0x1e drivers/serial/built-in.o
 .text.NS16550_getc
                0x0000000000000000       0x1c drivers/serial/built-in.o
 .text.NS16550_tstc
                0x0000000000000000       0x10 drivers/serial/built-in.o
 .data          0x0000000000000000        0x0 drivers/serial/built-in.o
 .bss           0x0000000000000000        0x0 drivers/serial/built-in.o
 .text          0x0000000000000000        0x0 drivers/spi/built-in.o
 .text.spi_set_wordlen
                0x0000000000000000       0x20 drivers/spi/built-in.o
 .text.spi_do_alloc_slave
                0x0000000000000000       0x30 drivers/spi/built-in.o
 .rodata.spi_set_wordlen.str1.1
                0x0000000000000000       0x19 drivers/spi/built-in.o
 .data          0x0000000000000000        0x0 drivers/spi/built-in.o
 .bss           0x0000000000000000        0x0 drivers/spi/built-in.o
 .comment       0x0000000000000000       0x76 drivers/spi/built-in.o
 .debug_aranges
                0x0000000000000000       0x28 drivers/spi/built-in.o
 .debug_info    0x0000000000000000      0xc5f drivers/spi/built-in.o
 .debug_abbrev  0x0000000000000000      0x26d drivers/spi/built-in.o
 .debug_line    0x0000000000000000      0x22a drivers/spi/built-in.o
 .debug_frame   0x0000000000000000       0x48 drivers/spi/built-in.o
 .debug_str     0x0000000000000000      0xa44 drivers/spi/built-in.o
 .debug_loc     0x0000000000000000      0x133 drivers/spi/built-in.o
 .debug_ranges  0x0000000000000000       0x18 drivers/spi/built-in.o
 .ARM.attributes
                0x0000000000000000       0x2d drivers/spi/built-in.o
 .text          0x0000000000000000        0x0 drivers/usb/common/built-in.o
 .text.usb_get_dr_mode
                0x0000000000000000       0x48 drivers/usb/common/built-in.o
 .text.usb_get_maximum_speed
                0x0000000000000000       0x48 drivers/usb/common/built-in.o
 .rodata.speed_names
                0x0000000000000000       0x18 drivers/usb/common/built-in.o
 .rodata.str1.1
                0x0000000000000000       0x52 drivers/usb/common/built-in.o
 .rodata.usb_dr_modes
                0x0000000000000000       0x10 drivers/usb/common/built-in.o
 .rodata.usb_get_dr_mode.str1.1
                0x0000000000000000       0x1f drivers/usb/common/built-in.o
 .rodata.usb_get_maximum_speed.str1.1
                0x0000000000000000       0x2b drivers/usb/common/built-in.o
 .data          0x0000000000000000        0x0 drivers/usb/common/built-in.o
 .bss           0x0000000000000000        0x0 drivers/usb/common/built-in.o
 .comment       0x0000000000000000       0x76 drivers/usb/common/built-in.o
 .debug_aranges
                0x0000000000000000       0x28 drivers/usb/common/built-in.o
 .debug_info    0x0000000000000000     0x1199 drivers/usb/common/built-in.o
 .debug_abbrev  0x0000000000000000      0x2c3 drivers/usb/common/built-in.o
 .debug_line    0x0000000000000000      0x2c2 drivers/usb/common/built-in.o
 .debug_frame   0x0000000000000000       0x48 drivers/usb/common/built-in.o
 .debug_str     0x0000000000000000     0x1146 drivers/usb/common/built-in.o
 .debug_loc     0x0000000000000000      0x164 drivers/usb/common/built-in.o
 .debug_ranges  0x0000000000000000       0x18 drivers/usb/common/built-in.o
 .ARM.attributes
                0x0000000000000000       0x2d drivers/usb/common/built-in.o
 .text          0x0000000000000000        0x0 drivers/usb/gadget/built-in.o
 .text.usb_function_deactivate
                0x0000000000000000       0x2a drivers/usb/gadget/built-in.o
 .text.usb_function_activate
                0x0000000000000000       0x2a drivers/usb/gadget/built-in.o
 .text.usb_string_ids_tab
                0x0000000000000000       0x28 drivers/usb/gadget/built-in.o
 .text.usb_string_ids_n
                0x0000000000000000       0x1c drivers/usb/gadget/built-in.o
 .text.board_usb_init
                0x0000000000000000        0x4 drivers/usb/gadget/built-in.o
 .text.board_usb_cleanup
                0x0000000000000000        0x4 drivers/usb/gadget/built-in.o
 .text.g_dnl_board_usb_cable_connected
                0x0000000000000000        0x6 drivers/usb/gadget/built-in.o
 .text.bulk_in_complete
                0x0000000000000000       0x22 drivers/usb/gadget/built-in.o
 .text.bulk_out_complete
                0x0000000000000000       0x22 drivers/usb/gadget/built-in.o
 .text.store_cdrom_address
                0x0000000000000000       0x50 drivers/usb/gadget/built-in.o
 .text.fsg_set_halt.isra.7
                0x0000000000000000        0x8 drivers/usb/gadget/built-in.o
 .text.start_transfer.isra.9
                0x0000000000000000       0x20 drivers/usb/gadget/built-in.o
 .text.halt_bulk_in_endpoint.isra.14
                0x0000000000000000       0x1e drivers/usb/gadget/built-in.o
 .text.sleep_thread.isra.17
                0x0000000000000000       0x94 drivers/usb/gadget/built-in.o
 .text.do_read  0x0000000000000000      0x1a4 drivers/usb/gadget/built-in.o
 .text.do_write
                0x0000000000000000      0x25c drivers/usb/gadget/built-in.o
 .text.send_status
                0x0000000000000000       0xb4 drivers/usb/gadget/built-in.o
 .text.check_command.isra.19
                0x0000000000000000      0x108 drivers/usb/gadget/built-in.o
 .text.do_mode_sense.isra.21
                0x0000000000000000       0xf0 drivers/usb/gadget/built-in.o
 .text.do_set_interface
                0x0000000000000000      0x188 drivers/usb/gadget/built-in.o
 .text.fsg_main_thread
                0x0000000000000000      0xd44 drivers/usb/gadget/built-in.o
 .text.fsg_init
                0x0000000000000000       0x14 drivers/usb/gadget/built-in.o
 .rodata.check_command.isra.19.str1.1
                0x0000000000000000        0x9 drivers/usb/gadget/built-in.o
 .rodata.dirletter.8832
                0x0000000000000000        0x4 drivers/usb/gadget/built-in.o
 .rodata.do_write.str1.1
                0x0000000000000000       0x18 drivers/usb/gadget/built-in.o
 .rodata.fsg_main_thread.str1.1
                0x0000000000000000        0xe drivers/usb/gadget/built-in.o
 .rodata.sleep_thread.isra.17.str1.1
                0x0000000000000000        0xc drivers/usb/gadget/built-in.o
 .rodata.vendor_id.8683
                0x0000000000000000        0x9 drivers/usb/gadget/built-in.o
 .data          0x0000000000000000        0x0 drivers/usb/gadget/built-in.o
 .bss           0x0000000000000000        0x0 drivers/usb/gadget/built-in.o
 .bss.state.8589
                0x0000000000000000        0x4 drivers/usb/gadget/built-in.o
 .bss.unknown.8845
                0x0000000000000000       0x10 drivers/usb/gadget/built-in.o
 .text          0x0000000000000000        0x0 drivers/usb/host/built-in.o
 .text.usb_setup_ehci_gadget
                0x0000000000000000       0x42 drivers/usb/host/built-in.o
 .text.usb_detect_change
                0x0000000000000000       0x68 drivers/usb/host/built-in.o
 .data          0x0000000000000000        0x0 drivers/usb/host/built-in.o
 .bss           0x0000000000000000        0x0 drivers/usb/host/built-in.o
 .text          0x0000000000000000        0x0 drivers/usb/musb-new/built-in.o
 .text.musb_gadget_cleanup
                0x0000000000000000        0x2 drivers/usb/musb-new/built-in.o
 .text.musb_g_resume
                0x0000000000000000        0x2 drivers/usb/musb-new/built-in.o
 .text.musb_g_suspend
                0x0000000000000000        0x2 drivers/usb/musb-new/built-in.o
 .text.musb_g_wakeup
                0x0000000000000000        0x2 drivers/usb/musb-new/built-in.o
 .text.musb_g_disconnect
                0x0000000000000000       0x38 drivers/usb/musb-new/built-in.o
 .text.musb_g_reset
                0x0000000000000000       0x68 drivers/usb/musb-new/built-in.o
 .text.dfu_usb_get_reset
                0x0000000000000000       0x10 drivers/usb/musb-new/built-in.o
 .data          0x0000000000000000        0x0 drivers/usb/musb-new/built-in.o
 .bss           0x0000000000000000        0x0 drivers/usb/musb-new/built-in.o
 .text          0x0000000000000000        0x0 env/built-in.o
 .text.env_import
                0x0000000000000000       0x84 env/built-in.o
 .text.env_export
                0x0000000000000000       0x54 env/built-in.o
 .text.env_save
                0x0000000000000000       0x58 env/built-in.o
 .text.env_flags_parse_varaccess_from_binflags
                0x0000000000000000       0x30 env/built-in.o
 .rodata.env_export.str1.1
                0x0000000000000000       0x27 env/built-in.o
 .rodata.env_import.str1.1
                0x0000000000000000       0x3d env/built-in.o
 .rodata.env_save.str1.1
                0x0000000000000000       0x2a env/built-in.o
 .rodata.env_flags_parse_varaccess_from_binflags.str1.1
                0x0000000000000000       0x2c env/built-in.o
 .data          0x0000000000000000        0x0 env/built-in.o
 .bss           0x0000000000000000        0x0 env/built-in.o
 .text          0x0000000000000000        0x0 fs/built-in.o
 .text.fs_get_type_name
                0x0000000000000000       0x14 fs/built-in.o
 .text.fs_uuid  0x0000000000000000       0x1c fs/built-in.o
 .text.do_fs_uuid
                0x0000000000000000       0x58 fs/built-in.o
 .text.fat_register_device
                0x0000000000000000       0x54 fs/built-in.o
 .text.file_fat_read
                0x0000000000000000       0x22 fs/built-in.o
 .rodata.fat_register_device.str1.1
                0x0000000000000000       0x2b fs/built-in.o
 .data          0x0000000000000000        0x0 fs/built-in.o
 .bss           0x0000000000000000        0x0 fs/built-in.o
 .bss.ext4fs_symlinknest
                0x0000000000000000        0x4 fs/built-in.o
 .bss.g_parent_inode
                0x0000000000000000        0x4 fs/built-in.o
 .text          0x0000000000000000        0x0 lib/built-in.o
 .text.indent_string
                0x0000000000000000       0x20 lib/built-in.o
 .text.__efi_nesting
                0x0000000000000000        0xc lib/built-in.o
 .text.__efi_nesting_inc
                0x0000000000000000       0x10 lib/built-in.o
 .text.__efi_nesting_dec
                0x0000000000000000       0x10 lib/built-in.o
 .text.efi_dp_from_dev
                0x0000000000000000       0x28 lib/built-in.o
 .text.invalidate_icache_all
                0x0000000000000000        0x2 lib/built-in.o
 .text.efi_add_runtime_mmio
                0x0000000000000000       0x78 lib/built-in.o
 .text.u16_strnlen
                0x0000000000000000       0x14 lib/built-in.o
 .text.crc7     0x0000000000000000       0x1c lib/built-in.o
 .text.crc8     0x0000000000000000       0x2e lib/built-in.o
 .text.lmb_dump_all
                0x0000000000000000        0x2 lib/built-in.o
 .text.lmb_is_reserved
                0x0000000000000000       0x28 lib/built-in.o
 .text.arch_lmb_reserve
                0x0000000000000000        0x2 lib/built-in.o
 .text.ldiv     0x0000000000000000       0x24 lib/built-in.o
 .text.rc4_encode
                0x0000000000000000       0x92 lib/built-in.o
 .text.inflateInit_
                0x0000000000000000        0xa lib/built-in.o
 .text.fdt_nop_property
                0x0000000000000000       0x2a lib/built-in.o
 .text.fdt_nop_node
                0x0000000000000000       0x30 lib/built-in.o
 .text.fdt_sw_check_header_
                0x0000000000000000       0x14 lib/built-in.o
 .text.fdt_grab_space_
                0x0000000000000000       0x2e lib/built-in.o
 .text.fdt_create
                0x0000000000000000       0x40 lib/built-in.o
 .text.fdt_resize
                0x0000000000000000       0x76 lib/built-in.o
 .text.fdt_add_reservemap_entry
                0x0000000000000000       0x56 lib/built-in.o
 .text.fdt_finish_reservemap
                0x0000000000000000       0x14 lib/built-in.o
 .text.fdt_begin_node
                0x0000000000000000       0x42 lib/built-in.o
 .text.fdt_end_node
                0x0000000000000000       0x26 lib/built-in.o
 .text.fdt_property_placeholder
                0x0000000000000000       0x9c lib/built-in.o
 .text.fdt_property
                0x0000000000000000       0x22 lib/built-in.o
 .text.fdt_finish
                0x0000000000000000       0x94 lib/built-in.o
 .text.fdt_pack
                0x0000000000000000       0x34 lib/built-in.o
 .text.fdt_create_empty_tree
                0x0000000000000000       0x44 lib/built-in.o
 .text.fdt_node_offset_by_prop_value
                0x0000000000000000       0x56 lib/built-in.o
 .text.fdt_stringlist_count
                0x0000000000000000       0x38 lib/built-in.o
 .text.fdt_stringlist_get
                0x0000000000000000       0x60 lib/built-in.o
 .text.fdt_add_region
                0x0000000000000000       0x58 lib/built-in.o
 .text.fdt_find_regions
                0x0000000000000000      0x234 lib/built-in.o
 .text.fdt_add_alias_regions
                0x0000000000000000      0x120 lib/built-in.o
 .text.fdt_next_region
                0x0000000000000000      0x33a lib/built-in.o
 .text.fdt_first_region
                0x0000000000000000       0x3a lib/built-in.o
 .text.fdtdec_get_uint
                0x0000000000000000       0x1c lib/built-in.o
 .text.fdtdec_get_compatible
                0x0000000000000000        0xc lib/built-in.o
 .text.fdtdec_get_uint64
                0x0000000000000000       0x24 lib/built-in.o
 .text.get_next_memory_node
                0x0000000000000000       0x38 lib/built-in.o
 .text.fdtdec_lookup
                0x0000000000000000       0x28 lib/built-in.o
 .text.fdtdec_next_compatible
                0x0000000000000000       0x10 lib/built-in.o
 .text.fdtdec_next_compatible_subnode
                0x0000000000000000       0x40 lib/built-in.o
 .text.fdtdec_next_alias
                0x0000000000000000       0x60 lib/built-in.o
 .text.fdtdec_add_aliases_for_id
                0x0000000000000000      0x16c lib/built-in.o
 .text.fdtdec_find_aliases_for_id
                0x0000000000000000       0x2a lib/built-in.o
 .text.fdtdec_check_fdt
                0x0000000000000000        0xa lib/built-in.o
 .text.fdtdec_lookup_phandle
                0x0000000000000000       0x20 lib/built-in.o
 .text.decode_timing_property
                0x0000000000000000       0x48 lib/built-in.o
 .text.fdtdec_get_int_array_count
                0x0000000000000000       0x38 lib/built-in.o
 .text.fdtdec_locate_array
                0x0000000000000000       0x18 lib/built-in.o
 .text.fdtdec_get_bool
                0x0000000000000000       0x14 lib/built-in.o
 .text.fdtdec_get_child_count
                0x0000000000000000       0x1e lib/built-in.o
 .text.fdtdec_get_byte_array
                0x0000000000000000       0x22 lib/built-in.o
 .text.fdtdec_locate_byte_array
                0x0000000000000000       0x16 lib/built-in.o
 .text.fdtdec_get_config_bool
                0x0000000000000000       0x2c lib/built-in.o
 .text.fdtdec_decode_region
                0x0000000000000000       0x2c lib/built-in.o
 .text.fdtdec_get_number
                0x0000000000000000       0x1e lib/built-in.o
 .text.fdtdec_get_addr_size_fixed
                0x0000000000000000       0x78 lib/built-in.o
 .text.fdtdec_get_addr_size_auto_parent
                0x0000000000000000       0x46 lib/built-in.o
 .text.fdtdec_get_addr_size_auto_noparent
                0x0000000000000000       0x34 lib/built-in.o
 .text.fdtdec_get_addr_size
                0x0000000000000000       0x1e lib/built-in.o
 .text.fdtdec_get_addr
                0x0000000000000000        0x6 lib/built-in.o
 .text.fdt_get_resource
                0x0000000000000000       0x8c lib/built-in.o
 .text.fdt_get_named_resource
                0x0000000000000000       0x2c lib/built-in.o
 .text.fdtdec_decode_memory_region
                0x0000000000000000       0xb8 lib/built-in.o
 .text.fdtdec_decode_display_timing
                0x0000000000000000      0x1e8 lib/built-in.o
 .text.fdtdec_setup_mem_size_base
                0x0000000000000000       0x48 lib/built-in.o
 .text.fdtdec_setup_memory_banksize
                0x0000000000000000       0x78 lib/built-in.o
 .text.fdtdec_decode_ram_size
                0x0000000000000000      0x14c lib/built-in.o
 .text.print_freq
                0x0000000000000000      0x124 lib/built-in.o
 .text.crc32_wd_buf
                0x0000000000000000       0x22 lib/built-in.o
 .text.div_s64_rem
                0x0000000000000000       0x8c lib/built-in.o
 .text.div64_u64_rem
                0x0000000000000000      0x120 lib/built-in.o
 .text.div64_u64
                0x0000000000000000      0x104 lib/built-in.o
 .text.div64_s64
                0x0000000000000000       0x30 lib/built-in.o
 .text.iter_div_u64_rem
                0x0000000000000000       0x22 lib/built-in.o
 .text.copy_from_user
                0x0000000000000000        0xa lib/built-in.o
 .text.get_mem  0x0000000000000000       0x10 lib/built-in.o
 .text.kmem_cache_alloc
                0x0000000000000000        0xe lib/built-in.o
 .text.membuff_purge
                0x0000000000000000        0x8 lib/built-in.o
 .text.membuff_putraw
                0x0000000000000000       0x68 lib/built-in.o
 .text.membuff_putbyte
                0x0000000000000000       0x1c lib/built-in.o
 .text.membuff_getraw
                0x0000000000000000       0x50 lib/built-in.o
 .text.membuff_getbyte
                0x0000000000000000       0x22 lib/built-in.o
 .text.membuff_peekbyte
                0x0000000000000000       0x20 lib/built-in.o
 .text.membuff_get
                0x0000000000000000       0x46 lib/built-in.o
 .text.membuff_put
                0x0000000000000000       0x3e lib/built-in.o
 .text.membuff_isempty
                0x0000000000000000        0xc lib/built-in.o
 .text.membuff_avail
                0x0000000000000000       0x34 lib/built-in.o
 .text.membuff_size
                0x0000000000000000        0x8 lib/built-in.o
 .text.membuff_makecontig
                0x0000000000000000       0x44 lib/built-in.o
 .text.membuff_free
                0x0000000000000000       0x1a lib/built-in.o
 .text.membuff_readline
                0x0000000000000000       0x68 lib/built-in.o
 .text.membuff_extend_by
                0x0000000000000000       0x76 lib/built-in.o
 .text.membuff_init
                0x0000000000000000        0xc lib/built-in.o
 .text.membuff_new
                0x0000000000000000       0x22 lib/built-in.o
 .text.membuff_uninit
                0x0000000000000000        0xc lib/built-in.o
 .text.membuff_dispose
                0x0000000000000000       0x14 lib/built-in.o
 .text.strchrnul
                0x0000000000000000       0x14 lib/built-in.o
 .text.strcspn  0x0000000000000000       0x20 lib/built-in.o
 .text.strspn   0x0000000000000000       0x20 lib/built-in.o
 .text.strtok   0x0000000000000000       0x40 lib/built-in.o
 .text.strswab  0x0000000000000000       0x26 lib/built-in.o
 .text.memchr_inv
                0x0000000000000000       0x94 lib/built-in.o
 .text.table_compute_checksum
                0x0000000000000000       0x18 lib/built-in.o
 .text.get_ticks
                0x0000000000000000       0x26 lib/built-in.o
 .text.timer_init
                0x0000000000000000        0x4 lib/built-in.o
 .text.get_timer
                0x0000000000000000       0x10 lib/built-in.o
 .text.__udelay
                0x0000000000000000       0xa4 lib/built-in.o
 .text.print_hex_dump
                0x0000000000000000        0x2 lib/built-in.o
 .text.print_hex_dump_bytes
                0x0000000000000000        0x2 lib/built-in.o
 .text.srand    0x0000000000000000        0xc lib/built-in.o
 .text.__assert_fail
                0x0000000000000000       0x10 lib/built-in.o
 .text.scnprintf
                0x0000000000000000       0x1a lib/built-in.o
 .text.print_grouped_ull
                0x0000000000000000       0x5c lib/built-in.o
 .text.str2off  0x0000000000000000       0x24 lib/built-in.o
 .text.str2long
                0x0000000000000000       0x22 lib/built-in.o
 .text.strmhz   0x0000000000000000       0x4c lib/built-in.o
 .rodata.efi_guid_event_group_memory_map_change
                0x0000000000000000       0x10 lib/built-in.o
 .rodata.efi_guid_event_group_ready_to_boot
                0x0000000000000000       0x10 lib/built-in.o
 .rodata.efi_guid_event_group_virtual_address_change
                0x0000000000000000       0x10 lib/built-in.o
 .rodata.indent_string.str1.1
                0x0000000000000000       0x15 lib/built-in.o
 .rodata.crc7_syndrome_table
                0x0000000000000000      0x100 lib/built-in.o
 .rodata.z_errmsg
                0x0000000000000000       0x28 lib/built-in.o
 .rodata.fdt_create_empty_tree.str1.1
                0x0000000000000000        0x1 lib/built-in.o
 .rodata.fdt_add_alias_regions.str1.1
                0x0000000000000000        0x8 lib/built-in.o
 .rodata.compat_names
                0x0000000000000000       0xa8 lib/built-in.o
 .rodata.fdtdec_decode_display_timing.str1.1
                0x0000000000000000       0xca lib/built-in.o
 .rodata.fdtdec_decode_memory_region.str1.1
                0x0000000000000000       0x25 lib/built-in.o
 .rodata.fdtdec_decode_ram_size.str1.1
                0x0000000000000000       0x21 lib/built-in.o
 .rodata.fdtdec_next_alias.str1.1
                0x0000000000000000        0x7 lib/built-in.o
 .rodata.get_next_memory_node.str1.1
                0x0000000000000000       0x13 lib/built-in.o
 .rodata.names.7524
                0x0000000000000000        0x3 lib/built-in.o
 .rodata.hex_asc_upper
                0x0000000000000000       0x11 lib/built-in.o
 .rodata.__assert_fail.str1.1
                0x0000000000000000       0x22 lib/built-in.o
 .rodata.print_grouped_ull.str1.1
                0x0000000000000000        0xb lib/built-in.o
 .rodata.strmhz.str1.1
                0x0000000000000000        0xb lib/built-in.o
 .data          0x0000000000000000        0x0 lib/built-in.o
 .data.cur      0x0000000000000000        0x4 lib/built-in.o
 .data.current  0x0000000000000000        0x4 lib/built-in.o
 .bss           0x0000000000000000        0x0 lib/built-in.o
 .bss.nesting_level
                0x0000000000000000        0x4 lib/built-in.o
 .bss.___strtok
                0x0000000000000000        0x4 lib/built-in.o
 .text          0x0000000000000000        0x0 net/built-in.o
 .text.add_ip_checksums
                0x0000000000000000       0x2c net/built-in.o
 .text.eth_init_state_only
                0x0000000000000000       0x1e net/built-in.o
 .text.net_get_udp_handler
                0x0000000000000000        0xc net/built-in.o
 .text.net_set_arp_handler
                0x0000000000000000       0x18 net/built-in.o
 .text.random_port
                0x0000000000000000       0x12 net/built-in.o
 .text.vlan_to_string
                0x0000000000000000       0x34 net/built-in.o
 .text.env_get_vlan
                0x0000000000000000        0xe net/built-in.o
 .rodata.vlan_to_string.str1.1
                0x0000000000000000        0x8 net/built-in.o
 .data          0x0000000000000000        0x0 net/built-in.o
 .data.tftp_timeout_ms
                0x0000000000000000        0x4 net/built-in.o
 .bss           0x0000000000000000        0x0 net/built-in.o
 .text          0x0000000000000000        0x0 test/dm/built-in.o
 .data          0x0000000000000000        0x0 test/dm/built-in.o
 .bss           0x0000000000000000        0x0 test/dm/built-in.o
 .text          0x0000000000000000        0x0 arch/arm/lib/eabi_compat.o
 .data          0x0000000000000000        0x0 arch/arm/lib/eabi_compat.o
 .bss           0x0000000000000000        0x0 arch/arm/lib/eabi_compat.o
 .text.raise    0x0000000000000000       0x14 arch/arm/lib/eabi_compat.o
 .text.__aeabi_unwind_cpp_pr0
                0x0000000000000000        0x2 arch/arm/lib/eabi_compat.o
 .text.__aeabi_unwind_cpp_pr1
                0x0000000000000000        0x2 arch/arm/lib/eabi_compat.o
 .text.__aeabi_memcpy
                0x0000000000000000        0x4 arch/arm/lib/eabi_compat.o
 .text.__aeabi_memset
                0x0000000000000000        0xa arch/arm/lib/eabi_compat.o
 .rodata.raise.str1.1
                0x0000000000000000       0x1b arch/arm/lib/eabi_compat.o
 .debug_info    0x0000000000000000      0xb38 arch/arm/lib/eabi_compat.o
 .debug_abbrev  0x0000000000000000      0x28a arch/arm/lib/eabi_compat.o
 .debug_loc     0x0000000000000000      0x12a arch/arm/lib/eabi_compat.o
 .debug_aranges
                0x0000000000000000       0x38 arch/arm/lib/eabi_compat.o
 .debug_ranges  0x0000000000000000       0x28 arch/arm/lib/eabi_compat.o
 .debug_line    0x0000000000000000      0x1c0 arch/arm/lib/eabi_compat.o
 .debug_str     0x0000000000000000      0x975 arch/arm/lib/eabi_compat.o
 .comment       0x0000000000000000       0x76 arch/arm/lib/eabi_compat.o
 .debug_frame   0x0000000000000000       0x68 arch/arm/lib/eabi_compat.o
 .ARM.attributes
                0x0000000000000000       0x2d arch/arm/lib/eabi_compat.o
 .text          0x0000000000000000        0x0 arch/arm/lib/lib.a(lib1funcs.o)
 .data          0x0000000000000000        0x0 arch/arm/lib/lib.a(lib1funcs.o)
 .bss           0x0000000000000000        0x0 arch/arm/lib/lib.a(lib1funcs.o)
 .text.__umodsi3
                0x0000000000000000       0xa0 arch/arm/lib/lib.a(lib1funcs.o)
 .text.__modsi3
                0x0000000000000000       0xb8 arch/arm/lib/lib.a(lib1funcs.o)
 .text          0x0000000000000000        0x0 arch/arm/lib/lib.a(div0.o)
 .data          0x0000000000000000        0x0 arch/arm/lib/lib.a(div0.o)
 .bss           0x0000000000000000        0x0 arch/arm/lib/lib.a(div0.o)

Memory Configuration

Name             Origin             Length             Attributes
*default*        0x0000000000000000 0xffffffffffffffff

Linker script and memory map

Address of section .text set to 0x4a000000
                0x0000000000000000                . = 0x0
                0x0000000000000000                . = ALIGN (0x4)

.text           0x000000004a000000      0x3ac
 *(.__image_copy_start)
 .__image_copy_start
                0x000000004a000000        0x0 arch/arm/lib/built-in.o
                0x000000004a000000                __image_copy_start
 *(.vectors)
 .vectors       0x000000004a000000      0x2e8 arch/arm/lib/built-in.o
                0x000000004a000000                _start
                0x000000004a000020                _undefined_instruction
                0x000000004a000024                _software_interrupt
                0x000000004a000028                _prefetch_abort
                0x000000004a00002c                _data_abort
                0x000000004a000030                _not_used
                0x000000004a000034                _irq
                0x000000004a000038                _fiq
                0x000000004a000040                IRQ_STACK_START_IN
 arch/arm/cpu/armv7/start.o(.text*)
 .text          0x000000004a0002e8       0xc4 arch/arm/cpu/armv7/start.o
                0x000000004a0002e8                reset
                0x000000004a0002ec                save_boot_params_ret
                0x000000004a0002fc                switch_to_hypervisor_ret
                0x000000004a000338                c_runtime_cpu_setup
                0x000000004a000348                save_boot_params
                0x000000004a00034c                switch_to_hypervisor
                0x000000004a000350                cpu_init_cp15
                0x000000004a0003a4                cpu_init_crit

.glue_7         0x000000004a0003ac        0x0
 .glue_7        0x000000004a0003ac        0x0 linker stubs

.glue_7t        0x000000004a0003ac        0x0
 .glue_7t       0x000000004a0003ac        0x0 linker stubs

.vfp11_veneer   0x000000004a0003ac        0x0
 .vfp11_veneer  0x000000004a0003ac        0x0 linker stubs

.v4_bx          0x000000004a0003ac        0x0
 .v4_bx         0x000000004a0003ac        0x0 linker stubs

.iplt           0x000000004a0003ac        0x0
 .iplt          0x000000004a0003ac        0x0 arch/arm/cpu/armv7/start.o

.__efi_runtime_start
                0x000000004a0003ac        0x0
 *(.__efi_runtime_start)
 .__efi_runtime_start
                0x000000004a0003ac        0x0 arch/arm/lib/built-in.o

.efi_runtime    0x000000004a0003b0      0x6f8
 *(.text.efi_runtime*)
 .text.efi_runtime
                0x000000004a0003b0       0xec lib/built-in.o
                0x000000004a0003b0                efi_reset_system
                0x000000004a0003b2                efi_get_time
                0x000000004a0003d4                efi_update_capsule
                0x000000004a0003dc                efi_query_capsule_caps
                0x000000004a0003e4                efi_query_variable_info
                0x000000004a0003ec                efi_update_table_header_crc32
                0x000000004a000400                crc32_no_comp
                0x000000004a000490                crc32
 .text.efi_runtime_relocate
                0x000000004a00049c       0xd0 lib/built-in.o
                0x000000004a00049c                efi_runtime_relocate
 *(.rodata.efi_runtime*)
 .rodata.efi_runtime_detach_list
                0x000000004a00056c       0x50 lib/built-in.o
 .rodata.efi_runtime_relocate.str1.1
                0x000000004a0005bc       0x34 lib/built-in.o
 *(.data.efi_runtime*)
 .data.efi_runtime
                0x000000004a0005f0      0x4b0 lib/built-in.o
                0x000000004a0005f0                systab
                0x000000004a000650                efi_runtime_services
 .data.efi_runtime_mmio
                0x000000004a000aa0        0x8 lib/built-in.o
                0x000000004a000aa0                efi_runtime_mmio

.__efi_runtime_stop
                0x000000004a000aa8        0x0
 *(.__efi_runtime_stop)
 .__efi_runtime_stop
                0x000000004a000aa8        0x0 arch/arm/lib/built-in.o

.text_rest      0x000000004a000ac0    0x307cc
 *(.text*)
 .text          0x000000004a000ac0      0x168 arch/arm/cpu/armv7/built-in.o
                0x000000004a000ac0                __v7_flush_dcache_all
                0x000000004a000b5c                v7_flush_dcache_all
                0x000000004a000b6c                __v7_invalidate_dcache_all
                0x000000004a000c08                v7_invalidate_dcache_all
                0x000000004a000c18                allow_unaligned
 .text.invalidate_icache_all
                0x000000004a000c28       0x14 arch/arm/cpu/armv7/built-in.o
                0x000000004a000c28                invalidate_icache_all
 .text.v7_outer_cache_enable
                0x000000004a000c3c        0x2 arch/arm/cpu/armv7/built-in.o
                0x000000004a000c3c                v7_outer_cache_enable
 .text.v7_outer_cache_disable
                0x000000004a000c3e        0x2 arch/arm/cpu/armv7/built-in.o
                0x000000004a000c3e                v7_outer_cache_disable
 .text.v7_outer_cache_flush_all
                0x000000004a000c40        0x2 arch/arm/cpu/armv7/built-in.o
                0x000000004a000c40                v7_outer_cache_flush_all
 .text.flush_dcache_all
                0x000000004a000c42        0xe arch/arm/cpu/armv7/built-in.o
                0x000000004a000c42                flush_dcache_all
 .text.v7_outer_cache_inval_all
                0x000000004a000c50        0x2 arch/arm/cpu/armv7/built-in.o
                0x000000004a000c50                v7_outer_cache_inval_all
 .text.invalidate_dcache_all
                0x000000004a000c52        0xe arch/arm/cpu/armv7/built-in.o
                0x000000004a000c52                invalidate_dcache_all
 .text.arm_init_before_mmu
                0x000000004a000c60       0x22 arch/arm/cpu/armv7/built-in.o
                0x000000004a000c60                arm_init_before_mmu
 .text.v7_outer_cache_flush_range
                0x000000004a000c82        0x2 arch/arm/cpu/armv7/built-in.o
                0x000000004a000c82                v7_outer_cache_flush_range
 .text.flush_dcache_range
                0x000000004a000c84       0x38 arch/arm/cpu/armv7/built-in.o
                0x000000004a000c84                flush_dcache_range
 .text.cpu_cache_initialization
                0x000000004a000cbc        0x2 arch/arm/cpu/armv7/built-in.o
                0x000000004a000cbc                cpu_cache_initialization
 .text.cleanup_before_linux_select
                0x000000004a000cbe       0x3e arch/arm/cpu/armv7/built-in.o
                0x000000004a000cbe                cleanup_before_linux_select
 .text.cleanup_before_linux
                0x000000004a000cfc        0x6 arch/arm/cpu/armv7/built-in.o
                0x000000004a000cfc                cleanup_before_linux
 *fill*         0x000000004a000d02        0x2 
 .text.lowlevel_init
                0x000000004a000d04       0x24 arch/arm/cpu/armv7/built-in.o
                0x000000004a000d04                lowlevel_init
 .text.get_gicd_base_address
                0x000000004a000d28       0x2c arch/arm/cpu/armv7/built-in.o
 .text.psci_board_init
                0x000000004a000d54        0x2 arch/arm/cpu/armv7/built-in.o
                0x000000004a000d54                psci_board_init
 *fill*         0x000000004a000d56        0x2 
 .text.armv7_init_nonsec
                0x000000004a000d58       0x64 arch/arm/cpu/armv7/built-in.o
                0x000000004a000d58                armv7_init_nonsec
 .text.armv7_apply_memory_carveout
                0x000000004a000dbc        0x4 arch/arm/cpu/armv7/built-in.o
                0x000000004a000dbc                armv7_apply_memory_carveout
 .text.psci_update_dt
                0x000000004a000dc0       0x38 arch/arm/cpu/armv7/built-in.o
                0x000000004a000dc0                psci_update_dt
 .text.timer_init
                0x000000004a000df8       0x1c arch/arm/cpu/armv7/built-in.o
                0x000000004a000df8                timer_init
 .text.get_timer_masked
                0x000000004a000e14       0x58 arch/arm/cpu/armv7/built-in.o
                0x000000004a000e14                get_timer_masked
 .text.get_timer
                0x000000004a000e6c        0xc arch/arm/cpu/armv7/built-in.o
                0x000000004a000e6c                get_timer
 .text.__udelay
                0x000000004a000e78       0x34 arch/arm/cpu/armv7/built-in.o
                0x000000004a000e78                __udelay
 .text.get_ticks
                0x000000004a000eac        0xa arch/arm/cpu/armv7/built-in.o
                0x000000004a000eac                get_ticks
 .text.get_tbclk
                0x000000004a000eb6        0x6 arch/arm/cpu/armv7/built-in.o
                0x000000004a000eb6                get_tbclk
 *fill*         0x000000004a000ebc        0x4 
 .text          0x000000004a000ec0      0x420 arch/arm/lib/built-in.o
                0x000000004a000ec0                _main
                0x000000004a000f60                memset
                0x000000004a001000                memcpy
 .text.setjmp   0x000000004a0012e0       0x10 arch/arm/lib/built-in.o
                0x000000004a0012e0                setjmp
 .text.longjmp  0x000000004a0012f0       0x1c arch/arm/lib/built-in.o
                0x000000004a0012f0                longjmp
 .text.relocate_vectors
                0x000000004a00130c       0x70 arch/arm/lib/built-in.o
                0x000000004a00130c                relocate_vectors
                0x000000004a001318                relocate_code
 .text.arch_fixup_fdt
                0x000000004a00137c       0x38 arch/arm/lib/built-in.o
                0x000000004a00137c                arch_fixup_fdt
 .text.setup_initrd_tag.isra.1
                0x000000004a0013b4       0x2c arch/arm/lib/built-in.o
 .text.arch_lmb_reserve
                0x000000004a0013e0       0x2a arch/arm/lib/built-in.o
                0x000000004a0013e0                arch_lmb_reserve
 .text.board_quiesce_devices
                0x000000004a00140a        0x2 arch/arm/lib/built-in.o
                0x000000004a00140a                board_quiesce_devices
 .text.setup_board_tags
                0x000000004a00140c        0x2 arch/arm/lib/built-in.o
                0x000000004a00140c                setup_board_tags
 *fill*         0x000000004a00140e        0x2 
 .text.boot_prep_linux
                0x000000004a001410      0x120 arch/arm/lib/built-in.o
 .text.armv7_boot_nonsec_default
                0x000000004a001530        0x4 arch/arm/lib/built-in.o
                0x000000004a001530                armv7_boot_nonsec_default
 .text.armv7_boot_nonsec
                0x000000004a001534       0x40 arch/arm/lib/built-in.o
                0x000000004a001534                armv7_boot_nonsec
 .text.boot_jump_linux
                0x000000004a001574       0xa4 arch/arm/lib/built-in.o
 .text.do_bootm_linux
                0x000000004a001618       0x44 arch/arm/lib/built-in.o
                0x000000004a001618                do_bootm_linux
 .text.boot_prep_vxworks
                0x000000004a00165c       0x30 arch/arm/lib/built-in.o
                0x000000004a00165c                boot_prep_vxworks
 .text.boot_jump_vxworks
                0x000000004a00168c        0x6 arch/arm/lib/built-in.o
                0x000000004a00168c                boot_jump_vxworks
 *fill*         0x000000004a001692        0x2 
 .text.bootz_setup
                0x000000004a001694       0x6c arch/arm/lib/built-in.o
                0x000000004a001694                bootz_setup
 .text.arch_reserve_stacks
                0x000000004a001700       0x16 arch/arm/lib/built-in.o
                0x000000004a001700                arch_reserve_stacks
 *fill*         0x000000004a001716        0x2 
 .text.interrupt_init
                0x000000004a001718       0x14 arch/arm/lib/built-in.o
                0x000000004a001718                interrupt_init
 .text.enable_interrupts
                0x000000004a00172c        0x2 arch/arm/lib/built-in.o
                0x000000004a00172c                enable_interrupts
 .text.disable_interrupts
                0x000000004a00172e        0x4 arch/arm/lib/built-in.o
                0x000000004a00172e                disable_interrupts
 *fill*         0x000000004a001732        0x2 
 .text.bad_mode
                0x000000004a001734        0xc arch/arm/lib/built-in.o
                0x000000004a001734                bad_mode
 .text.show_regs
                0x000000004a001740      0x14c arch/arm/lib/built-in.o
                0x000000004a001740                show_regs
 .text.do_undefined_instruction
                0x000000004a00188c       0x28 arch/arm/lib/built-in.o
                0x000000004a00188c                do_undefined_instruction
 .text.do_software_interrupt
                0x000000004a0018b4       0x28 arch/arm/lib/built-in.o
                0x000000004a0018b4                do_software_interrupt
 .text.do_prefetch_abort
                0x000000004a0018dc       0x28 arch/arm/lib/built-in.o
                0x000000004a0018dc                do_prefetch_abort
 .text.do_data_abort
                0x000000004a001904       0x28 arch/arm/lib/built-in.o
                0x000000004a001904                do_data_abort
 .text.do_not_used
                0x000000004a00192c       0x28 arch/arm/lib/built-in.o
                0x000000004a00192c                do_not_used
 .text.do_fiq   0x000000004a001954       0x28 arch/arm/lib/built-in.o
                0x000000004a001954                do_fiq
 .text.do_irq   0x000000004a00197c       0x28 arch/arm/lib/built-in.o
                0x000000004a00197c                do_irq
 .text.reset_misc
                0x000000004a0019a4        0x2 arch/arm/lib/built-in.o
                0x000000004a0019a4                reset_misc
 *fill*         0x000000004a0019a6        0x2 
 .text.do_reset
                0x000000004a0019a8       0x28 arch/arm/lib/built-in.o
                0x000000004a0019a8                do_reset
 .text.flush_cache
                0x000000004a0019d0        0x6 arch/arm/lib/built-in.o
                0x000000004a0019d0                flush_cache
 *fill*         0x000000004a0019d6        0x2 
 .text.check_cache_range
                0x000000004a0019d8       0x20 arch/arm/lib/built-in.o
                0x000000004a0019d8                check_cache_range
 .text.cache_disable
                0x000000004a0019f8       0x62 arch/arm/lib/built-in.o
 .text.arm_init_domains
                0x000000004a001a5a        0x2 arch/arm/lib/built-in.o
                0x000000004a001a5a                arm_init_domains
 .text.set_section_dcache
                0x000000004a001a5c       0x1a arch/arm/lib/built-in.o
                0x000000004a001a5c                set_section_dcache
 .text.dram_bank_mmu_setup
                0x000000004a001a76       0x2c arch/arm/lib/built-in.o
                0x000000004a001a76                dram_bank_mmu_setup
 *fill*         0x000000004a001aa2        0x2 
 .text.cache_enable
                0x000000004a001aa4      0x120 arch/arm/lib/built-in.o
 .text.icache_enable
                0x000000004a001bc4        0x8 arch/arm/lib/built-in.o
                0x000000004a001bc4                icache_enable
 .text.icache_disable
                0x000000004a001bcc        0x8 arch/arm/lib/built-in.o
                0x000000004a001bcc                icache_disable
 .text.dcache_enable
                0x000000004a001bd4        0x6 arch/arm/lib/built-in.o
                0x000000004a001bd4                dcache_enable
 .text.dcache_disable
                0x000000004a001bda        0x6 arch/arm/lib/built-in.o
                0x000000004a001bda                dcache_disable
 .text.dcache_status
                0x000000004a001be0       0x1c arch/arm/lib/built-in.o
                0x000000004a001be0                dcache_status
 .text.fdt_psci
                0x000000004a001bfc      0x1a4 arch/arm/lib/built-in.o
                0x000000004a001bfc                fdt_psci
 .text.s_init   0x000000004a001da0       0x70 arch/arm/mach-sunxi/built-in.o
                0x000000004a001da0                s_init
 .text.sunxi_get_boot_device
                0x000000004a001e10       0x38 arch/arm/mach-sunxi/built-in.o
                0x000000004a001e10                sunxi_get_boot_device
 .text.reset_cpu
                0x000000004a001e48       0x20 arch/arm/mach-sunxi/built-in.o
                0x000000004a001e48                reset_cpu
 .text.enable_caches
                0x000000004a001e68        0x4 arch/arm/mach-sunxi/built-in.o
                0x000000004a001e68                enable_caches
 .text.clock_init_sec
                0x000000004a001e6c        0x4 arch/arm/mach-sunxi/built-in.o
                0x000000004a001e6e                clock_init_sec
 .text.clock_init
                0x000000004a001e70        0xe arch/arm/mach-sunxi/built-in.o
                0x000000004a001e70                clock_init
 *fill*         0x000000004a001e7e        0x2 
 .text.sunxi_get_sram_id
                0x000000004a001e80       0x20 arch/arm/mach-sunxi/built-in.o
                0x000000004a001e80                sunxi_get_sram_id
 .text.print_cpuinfo
                0x000000004a001ea0       0x18 arch/arm/mach-sunxi/built-in.o
                0x000000004a001ea0                print_cpuinfo
 .text.sunxi_get_sid
                0x000000004a001eb8        0x4 arch/arm/mach-sunxi/built-in.o
                0x000000004a001eb8                sunxi_get_sid
 .text.sunxi_gpio_set_cfgbank
                0x000000004a001ebc       0x22 arch/arm/mach-sunxi/built-in.o
                0x000000004a001ebc                sunxi_gpio_set_cfgbank
 *fill*         0x000000004a001ede        0x2 
 .text.sunxi_gpio_set_cfgpin
                0x000000004a001ee0       0x28 arch/arm/mach-sunxi/built-in.o
                0x000000004a001ee0                sunxi_gpio_set_cfgpin
 .text.sunxi_gpio_get_cfgbank
                0x000000004a001f08       0x1a arch/arm/mach-sunxi/built-in.o
                0x000000004a001f08                sunxi_gpio_get_cfgbank
 *fill*         0x000000004a001f22        0x2 
 .text.sunxi_gpio_set_drv
                0x000000004a001f24       0x48 arch/arm/mach-sunxi/built-in.o
                0x000000004a001f24                sunxi_gpio_set_drv
 .text.sunxi_gpio_set_pull
                0x000000004a001f6c       0x48 arch/arm/mach-sunxi/built-in.o
                0x000000004a001f6c                sunxi_gpio_set_pull
 .text.prcm_apb0_enable
                0x000000004a001fb4       0x18 arch/arm/mach-sunxi/built-in.o
                0x000000004a001fb4                prcm_apb0_enable
 .text.pmic_bus_init
                0x000000004a001fcc       0x24 arch/arm/mach-sunxi/built-in.o
                0x000000004a001fcc                pmic_bus_init
 .text.pmic_bus_read
                0x000000004a001ff0        0xa arch/arm/mach-sunxi/built-in.o
                0x000000004a001ff0                pmic_bus_read
 .text.pmic_bus_write
                0x000000004a001ffa        0xa arch/arm/mach-sunxi/built-in.o
                0x000000004a001ffa                pmic_bus_write
 .text.pmic_bus_setbits
                0x000000004a002004       0x24 arch/arm/mach-sunxi/built-in.o
                0x000000004a002004                pmic_bus_setbits
 .text.pmic_bus_clrbits
                0x000000004a002028       0x26 arch/arm/mach-sunxi/built-in.o
                0x000000004a002028                pmic_bus_clrbits
 *fill*         0x000000004a00204e        0x2 
 .text.rsb_await_trans
                0x000000004a002050       0x4c arch/arm/mach-sunxi/built-in.o
 .text.rsb_do_trans
                0x000000004a00209c       0x14 arch/arm/mach-sunxi/built-in.o
 .text.rsb_init
                0x000000004a0020b0       0x9c arch/arm/mach-sunxi/built-in.o
                0x000000004a0020b0                rsb_init
 .text.rsb_set_device_address
                0x000000004a00214c       0x20 arch/arm/mach-sunxi/built-in.o
                0x000000004a00214c                rsb_set_device_address
 .text.rsb_write
                0x000000004a00216c       0x2c arch/arm/mach-sunxi/built-in.o
                0x000000004a00216c                rsb_write
 .text.rsb_read
                0x000000004a002198       0x38 arch/arm/mach-sunxi/built-in.o
                0x000000004a002198                rsb_read
 .text.clock_init_uart
                0x000000004a0021d0        0x6 arch/arm/mach-sunxi/built-in.o
                0x000000004a0021d0                clock_init_uart
 *fill*         0x000000004a0021d6        0x2 
 .text.clock_set_pll3
                0x000000004a0021d8       0x38 arch/arm/mach-sunxi/built-in.o
                0x000000004a0021d8                clock_set_pll3
 .text.clock_get_pll6
                0x000000004a002210       0x24 arch/arm/mach-sunxi/built-in.o
                0x000000004a002210                clock_get_pll6
 .text.clock_set_de_mod_clock
                0x000000004a002234       0x30 arch/arm/mach-sunxi/built-in.o
                0x000000004a002234                clock_set_de_mod_clock
 .text.setup_environment
                0x000000004a002264       0xd8 board/sunxi/built-in.o
 .text.i2c_init_board
                0x000000004a00233c        0x2 board/sunxi/built-in.o
                0x000000004a00233c                i2c_init_board
 *fill*         0x000000004a00233e        0x2 
 .text.board_init
                0x000000004a002340       0x80 board/sunxi/built-in.o
                0x000000004a002340                board_init
 .text.dram_init
                0x000000004a0023c0       0x16 board/sunxi/built-in.o
                0x000000004a0023c0                dram_init
 *fill*         0x000000004a0023d6        0x2 
 .text.g_dnl_board_usb_cable_connected
                0x000000004a0023d8       0x78 board/sunxi/built-in.o
                0x000000004a0023d8                g_dnl_board_usb_cable_connected
 .text.get_board_serial
                0x000000004a002450       0x24 board/sunxi/built-in.o
                0x000000004a002450                get_board_serial
 .text.misc_init_r
                0x000000004a002474       0xb4 board/sunxi/built-in.o
                0x000000004a002474                misc_init_r
 .text.ft_board_setup
                0x000000004a002528       0x12 board/sunxi/built-in.o
                0x000000004a002528                ft_board_setup
 .text.do_go_exec
                0x000000004a00253a        0x8 cmd/built-in.o
                0x000000004a00253a                do_go_exec
 *fill*         0x000000004a002542        0x2 
 .text.do_go    0x000000004a002544       0x4c cmd/built-in.o
 .text.do_bootm
                0x000000004a002590       0xa0 cmd/built-in.o
                0x000000004a002590                do_bootm
 .text.do_bootd
                0x000000004a002630       0x18 cmd/built-in.o
                0x000000004a002630                do_bootd
 .text.image_info
                0x000000004a002648       0xa4 cmd/built-in.o
 .text.do_iminfo
                0x000000004a0026ec       0x3c cmd/built-in.o
 .text.bootm_maybe_autostart
                0x000000004a002728       0x4c cmd/built-in.o
                0x000000004a002728                bootm_maybe_autostart
 .text.do_help  0x000000004a002774       0x2c cmd/built-in.o
 .text.do_version
                0x000000004a0027a0       0x30 cmd/built-in.o
 .text.blk_common_cmd
                0x000000004a0027d0      0x1f0 cmd/built-in.o
                0x000000004a0027d0                blk_common_cmd
 .text.source   0x000000004a0029c0       0x90 cmd/built-in.o
                0x000000004a0029c0                source
 .text.do_source
                0x000000004a002a50       0x30 cmd/built-in.o
 .text.print_num
                0x000000004a002a80       0x10 cmd/built-in.o
 .text.do_bdinfo
                0x000000004a002a90       0xd4 cmd/built-in.o
 .text.efi_do_enter
                0x000000004a002b64       0x28 cmd/built-in.o
 .text.efi_install_fdt
                0x000000004a002b8c      0x174 cmd/built-in.o
 .text.efi_run_in_hyp
                0x000000004a002d00       0x24 cmd/built-in.o
 .text.do_bootefi_exec
                0x000000004a002d24      0x1b4 cmd/built-in.o
 .text.efi_init_obj_list
                0x000000004a002ed8       0x48 cmd/built-in.o
                0x000000004a002ed8                efi_init_obj_list
 .text.do_bootefi
                0x000000004a002f20       0xf0 cmd/built-in.o
 .text.efi_set_bootdev
                0x000000004a003010       0xac cmd/built-in.o
                0x000000004a003010                efi_set_bootdev
 .text.do_bootz
                0x000000004a0030bc       0x9c cmd/built-in.o
                0x000000004a0030bc                do_bootz
 .text.do_coninfo
                0x000000004a003158       0x88 cmd/built-in.o
 .text.do_echo  0x000000004a0031e0       0x74 cmd/built-in.o
 .text.load_elf_image_phdr
                0x000000004a003254       0xba cmd/built-in.o
 *fill*         0x000000004a00330e        0x2 
 .text.valid_elf_image
                0x000000004a003310       0x30 cmd/built-in.o
                0x000000004a003310                valid_elf_image
 .text.do_bootelf
                0x000000004a003340      0x1a8 cmd/built-in.o
                0x000000004a003340                do_bootelf
 .text.do_bootvx
                0x000000004a0034e8      0x234 cmd/built-in.o
                0x000000004a0034e8                do_bootvx
 .text.do_exit  0x000000004a00371c       0x20 cmd/built-in.o
 .text.do_ext4_size
                0x000000004a00373c        0xe cmd/built-in.o
                0x000000004a00373c                do_ext4_size
 .text.do_ext4_load
                0x000000004a00374a        0xe cmd/built-in.o
                0x000000004a00374a                do_ext4_load
 .text.do_ext4_ls
                0x000000004a003758        0xe cmd/built-in.o
                0x000000004a003758                do_ext4_ls
 .text.do_ext2load
                0x000000004a003766        0xe cmd/built-in.o
                0x000000004a003766                do_ext2load
 .text.do_ext2ls
                0x000000004a003774        0xe cmd/built-in.o
 .text.do_fat_size
                0x000000004a003782        0xe cmd/built-in.o
                0x000000004a003782                do_fat_size
 .text.do_fat_fsload
                0x000000004a003790        0xe cmd/built-in.o
                0x000000004a003790                do_fat_fsload
 .text.do_fat_ls
                0x000000004a00379e        0xe cmd/built-in.o
 .text.do_fat_fsinfo
                0x000000004a0037ac       0x54 cmd/built-in.o
 .text.do_fat_fswrite
                0x000000004a003800       0xd0 cmd/built-in.o
 .text.do_fat_rm
                0x000000004a0038d0        0xe cmd/built-in.o
 .text.do_fat_mkdir
                0x000000004a0038de        0xe cmd/built-in.o
 .text.fdt_valid
                0x000000004a0038ec       0x74 cmd/built-in.o
 .text.is_printable_string
                0x000000004a003960       0x48 cmd/built-in.o
 .text.print_data
                0x000000004a0039a8      0x104 cmd/built-in.o
 .text.set_working_fdt_addr
                0x000000004a003aac       0x14 cmd/built-in.o
                0x000000004a003aac                set_working_fdt_addr
 .text.do_fdt   0x000000004a003ac0      0xa74 cmd/built-in.o
 .text.do_size_wrapper
                0x000000004a004534        0xe cmd/built-in.o
 *fill*         0x000000004a004542        0x2 
 .text.do_load_wrapper
                0x000000004a004544       0x40 cmd/built-in.o
 .text.do_save_wrapper
                0x000000004a004584        0xe cmd/built-in.o
 .text.do_ls_wrapper
                0x000000004a004592        0xe cmd/built-in.o
 .text.do_fstype_wrapper
                0x000000004a0045a0        0x4 cmd/built-in.o
 .text.gpio_get_description
                0x000000004a0045a4       0x78 cmd/built-in.o
 .text.do_gpio  0x000000004a00461c      0x20c cmd/built-in.o
 .text.evalexp  0x000000004a004828       0x4c cmd/built-in.o
 .text.evalstr  0x000000004a004874       0x3c cmd/built-in.o
 .text.binary_test
                0x000000004a0048b0      0x100 cmd/built-in.o
 .text.do_itest
                0x000000004a0049b0       0x4c cmd/built-in.o
 .text.bin_data_init
                0x000000004a0049fc       0x1c cmd/built-in.o
 .text.k_data_save
                0x000000004a004a18       0x34 cmd/built-in.o
 .text.k_data_restore
                0x000000004a004a4c       0x34 cmd/built-in.o
 .text.getcxmodem
                0x000000004a004a80       0x16 cmd/built-in.o
 *fill*         0x000000004a004a96        0x2 
 .text.load_serial_ymodem
                0x000000004a004a98       0x90 cmd/built-in.o
 .text.bin_data_char
                0x000000004a004b28       0x1c cmd/built-in.o
 .text.chk1.constprop.1
                0x000000004a004b44       0x20 cmd/built-in.o
 .text.s1_sendpacket.constprop.2
                0x000000004a004b64       0x34 cmd/built-in.o
 .text.load_serial
                0x000000004a004b98      0x12c cmd/built-in.o
 .text.do_load_serial
                0x000000004a004cc4       0x8c cmd/built-in.o
 .text.do_load_serial_bin
                0x000000004a004d50      0x508 cmd/built-in.o
 .text.do_mem_md
                0x000000004a005258       0xa0 cmd/built-in.o
 .text.do_mem_base
                0x000000004a0052f8       0x28 cmd/built-in.o
 .text.do_mem_crc
                0x000000004a005320       0x2c cmd/built-in.o
 .text.do_mem_mw
                0x000000004a00534c       0x7c cmd/built-in.o
 .text.do_mem_loop
                0x000000004a0053c8       0x82 cmd/built-in.o
 *fill*         0x000000004a00544a        0x2 
 .text.do_mem_cmp
                0x000000004a00544c       0xec cmd/built-in.o
 .text.mod_mem.isra.3.part.4
                0x000000004a005538       0xe8 cmd/built-in.o
 .text.do_mem_mm
                0x000000004a005620       0x12 cmd/built-in.o
 *fill*         0x000000004a005632        0x2 
 .text.do_mem_cp
                0x000000004a005634       0x70 cmd/built-in.o
 .text.do_mem_nm
                0x000000004a0056a4       0x12 cmd/built-in.o
 .text.extract_range
                0x000000004a0056b6       0x30 cmd/built-in.o
 *fill*         0x000000004a0056e6        0x2 
 .text.do_mii   0x000000004a0056e8      0x5f8 cmd/built-in.o
 .text.do_sleep
                0x000000004a005ce0       0x88 cmd/built-in.o
 .text.netboot_common
                0x000000004a005d68      0x1d0 cmd/built-in.o
 .text.do_bootp
                0x000000004a005f38        0x8 cmd/built-in.o
 .text.do_dhcp  0x000000004a005f40        0x8 cmd/built-in.o
 .text.do_nfs   0x000000004a005f48        0x8 cmd/built-in.o
 .text.do_tftpb
                0x000000004a005f50       0x26 cmd/built-in.o
                0x000000004a005f50                do_tftpb
 *fill*         0x000000004a005f76        0x2 
 .text.do_ping  0x000000004a005f78       0x48 cmd/built-in.o
 .text.do_part_list
                0x000000004a005fc0       0xf0 cmd/built-in.o
 .text.do_part_info
                0x000000004a0060b0       0x9c cmd/built-in.o
 .text.do_part  0x000000004a00614c       0xa8 cmd/built-in.o
 .text.eol_or_eof
                0x000000004a0061f4       0x12 cmd/built-in.o
 *fill*         0x000000004a006206        0x2 
 .text.do_pxe   0x000000004a006208       0x48 cmd/built-in.o
 .text.label_print
                0x000000004a006250       0x14 cmd/built-in.o
 .text.do_get_tftp
                0x000000004a006264       0x2c cmd/built-in.o
 .text.from_env
                0x000000004a006290       0x1c cmd/built-in.o
 .text.get_string
                0x000000004a0062ac       0x7c cmd/built-in.o
 .text.label_destroy
                0x000000004a006328       0x3e cmd/built-in.o
 .text.destroy_pxe_menu
                0x000000004a006366       0x36 cmd/built-in.o
 .text.get_token
                0x000000004a00639c       0x98 cmd/built-in.o
 .text.parse_sliteral
                0x000000004a006434       0x34 cmd/built-in.o
 .text.parse_integer
                0x000000004a006468       0x44 cmd/built-in.o
 .text.do_get_any
                0x000000004a0064ac       0x2c cmd/built-in.o
 .text.do_get_fat
                0x000000004a0064d8       0x28 cmd/built-in.o
 .text.do_get_ext2
                0x000000004a006500       0x28 cmd/built-in.o
 .text.format_mac_pxe.constprop.7
                0x000000004a006528       0x54 cmd/built-in.o
 .text.get_relfile
                0x000000004a00657c       0xcc cmd/built-in.o
 .text.get_pxe_file
                0x000000004a006648       0x3c cmd/built-in.o
 .text.handle_include
                0x000000004a006684       0x68 cmd/built-in.o
 .text.parse_pxefile_top
                0x000000004a0066ec      0x2f8 cmd/built-in.o
 .text.parse_pxefile
                0x000000004a0069e4       0x42 cmd/built-in.o
 *fill*         0x000000004a006a26        0x2 
 .text.get_pxelinux_path
                0x000000004a006a28       0x50 cmd/built-in.o
 .text.do_pxe_get
                0x000000004a006a78       0xec cmd/built-in.o
 .text.get_relfile_envaddr
                0x000000004a006b64       0x34 cmd/built-in.o
 .text.label_boot
                0x000000004a006b98      0x3c8 cmd/built-in.o
 .text.handle_pxe_menu
                0x000000004a006f60       0xe8 cmd/built-in.o
 .text.do_pxe_boot
                0x000000004a007048       0x94 cmd/built-in.o
 .text.do_sysboot
                0x000000004a0070dc      0x13c cmd/built-in.o
 .text.substitute
                0x000000004a007218       0x98 cmd/built-in.o
 .text.get_arg  0x000000004a0072b0       0x34 cmd/built-in.o
 .text.regex_sub.part.1
                0x000000004a0072e4      0x20c cmd/built-in.o
 .text.do_setexpr
                0x000000004a0074f0       0xf0 cmd/built-in.o
 .text.do_false
                0x000000004a0075e0        0x4 cmd/built-in.o
 .text.do_true  0x000000004a0075e4        0x4 cmd/built-in.o
 .text.do_test  0x000000004a0075e8      0x200 cmd/built-in.o
 .text.usb_get_class_desc
                0x000000004a0077e8       0x7c cmd/built-in.o
 .text.usb_display_class_sub
                0x000000004a007864       0xf8 cmd/built-in.o
 .text.usb_display_desc
                0x000000004a00795c       0xf4 cmd/built-in.o
 .text.usb_show_tree_graph
                0x000000004a007a50      0x178 cmd/built-in.o
 .text.usb_show_subtree
                0x000000004a007bc8       0x1c cmd/built-in.o
 .text.usb_for_each_root_dev
                0x000000004a007be4       0x3c cmd/built-in.o
 .text.usb_display_string
                0x000000004a007c20       0x2c cmd/built-in.o
 .text.usb_display_config
                0x000000004a007c4c      0x1ac cmd/built-in.o
 .text.usb_show_info
                0x000000004a007df8       0x4a cmd/built-in.o
 .text.usb_find_device
                0x000000004a007e42       0x64 cmd/built-in.o
 *fill*         0x000000004a007ea6        0x2 
 .text.do_usbboot
                0x000000004a007ea8        0xc cmd/built-in.o
 .text.do_usb_start
                0x000000004a007eb4       0x20 cmd/built-in.o
 .text.usb_show_tree
                0x000000004a007ed4        0xc cmd/built-in.o
                0x000000004a007ed4                usb_show_tree
 .text.do_usb   0x000000004a007ee0      0x298 cmd/built-in.o
 .text.common_diskboot
                0x000000004a008178      0x180 cmd/built-in.o
                0x000000004a008178                common_diskboot
 .text.do_fastboot
                0x000000004a0082f8      0x12c cmd/built-in.o
 .text.do_imgextract
                0x000000004a008424      0x1b4 cmd/built-in.o
 .text.extract_val
                0x000000004a0085d8       0x58 cmd/built-in.o
 .text.extract_env
                0x000000004a008630       0xa0 cmd/built-in.o
 .text.set_gpt_info.isra.0.constprop.2
                0x000000004a0086d0      0x348 cmd/built-in.o
 .text.do_gpt   0x000000004a008a18      0x208 cmd/built-in.o
 .text.do_env_delete
                0x000000004a008c20       0x68 cmd/built-in.o
 .text.do_env   0x000000004a008c88       0x3c cmd/built-in.o
 .text.env_print
                0x000000004a008cc4       0x78 cmd/built-in.o
 .text.do_env_print
                0x000000004a008d3c       0x7c cmd/built-in.o
 .text.do_env_import
                0x000000004a008db8      0x1a8 cmd/built-in.o
 .text.do_env_default
                0x000000004a008f60       0x5c cmd/built-in.o
 .text.do_env_exists
                0x000000004a008fbc       0x40 cmd/built-in.o
 .text._do_env_set.isra.1
                0x000000004a008ffc      0x118 cmd/built-in.o
 .text.do_env_set
                0x000000004a009114       0x14 cmd/built-in.o
 .text.get_env_id
                0x000000004a009128        0xc cmd/built-in.o
                0x000000004a009128                get_env_id
 .text.env_set  0x000000004a009134       0x3c cmd/built-in.o
                0x000000004a009134                env_set
 .text.env_set_ulong
                0x000000004a009170       0x16 cmd/built-in.o
                0x000000004a009170                env_set_ulong
 *fill*         0x000000004a009186        0x2 
 .text.env_set_hex
                0x000000004a009188       0x20 cmd/built-in.o
                0x000000004a009188                env_set_hex
 .text.do_env_export
                0x000000004a0091a8      0x150 cmd/built-in.o
 .text.eth_parse_enetaddr
                0x000000004a0092f8       0x30 cmd/built-in.o
                0x000000004a0092f8                eth_parse_enetaddr
 .text.envmatch
                0x000000004a009328       0x4a cmd/built-in.o
                0x000000004a009328                envmatch
 *fill*         0x000000004a009372        0x2 
 .text.env_get_f
                0x000000004a009374       0x88 cmd/built-in.o
                0x000000004a009374                env_get_f
 .text.env_get  0x000000004a0093fc       0x50 cmd/built-in.o
                0x000000004a0093fc                env_get
 .text.env_get_hex
                0x000000004a00944c       0x20 cmd/built-in.o
                0x000000004a00944c                env_get_hex
 .text.eth_env_get_enetaddr
                0x000000004a00946c       0x34 cmd/built-in.o
                0x000000004a00946c                eth_env_get_enetaddr
 .text.eth_env_set_enetaddr
                0x000000004a0094a0       0x30 cmd/built-in.o
                0x000000004a0094a0                eth_env_set_enetaddr
 .text.env_get_ulong
                0x000000004a0094d0       0x1c cmd/built-in.o
                0x000000004a0094d0                env_get_ulong
 .text.do_env_edit.part.4
                0x000000004a0094ec       0x70 cmd/built-in.o
 .text.do_env_edit
                0x000000004a00955c       0x1c cmd/built-in.o
 .text.board_init_f_alloc_reserve
                0x000000004a009578        0xa common/built-in.o
                0x000000004a009578                board_init_f_alloc_reserve
 .text.board_init_f_init_reserve
                0x000000004a009582       0x14 common/built-in.o
                0x000000004a009582                board_init_f_init_reserve
 .text.show_boot_progress
                0x000000004a009596        0x4 common/built-in.o
                0x000000004a009596                show_boot_progress
 *fill*         0x000000004a00959a        0x2 
 .text.main_loop
                0x000000004a00959c       0x4c common/built-in.o
                0x000000004a00959c                main_loop
 .text.mdelay   0x000000004a0095e8       0x16 common/built-in.o
 .text.dummy    0x000000004a0095fe        0x2 common/built-in.o
 .text.get_version
                0x000000004a009600        0x4 common/built-in.o
                0x000000004a009600                get_version
 .text.jumptable_init
                0x000000004a009604      0x168 common/built-in.o
                0x000000004a009604                jumptable_init
 .text.hash_command
                0x000000004a00976c       0x6c common/built-in.o
                0x000000004a00976c                hash_command
 .text.b_reset  0x000000004a0097d8        0xe common/built-in.o
 .text.static_get
                0x000000004a0097e6       0x12 common/built-in.o
 .text.static_peek
                0x000000004a0097f8        0x6 common/built-in.o
 *fill*         0x000000004a0097fe        0x2 
 .text.mapset   0x000000004a009800       0x14 common/built-in.o
 .text.syntax_err
                0x000000004a009814        0xc common/built-in.o
 .text.free_pipe_list
                0x000000004a009820       0x90 common/built-in.o
 .text.xmalloc  0x000000004a0098b0       0x18 common/built-in.o
 .text.new_pipe
                0x000000004a0098c8       0x16 common/built-in.o
 *fill*         0x000000004a0098de        0x2 
 .text.xrealloc
                0x000000004a0098e0       0x18 common/built-in.o
 .text.done_command
                0x000000004a0098f8       0x42 common/built-in.o
 .text.done_pipe
                0x000000004a00993a       0x2c common/built-in.o
 *fill*         0x000000004a009966        0x2 
 .text.done_word
                0x000000004a009968      0x1c0 common/built-in.o
 .text.is_assignment
                0x000000004a009b28       0x2c common/built-in.o
 .text.file_get
                0x000000004a009b54      0x140 common/built-in.o
 .text.do_showvar
                0x000000004a009c94       0x9c common/built-in.o
 .text.b_addchr
                0x000000004a009d30       0x42 common/built-in.o
 *fill*         0x000000004a009d72        0x2 
 .text.b_addqchr
                0x000000004a009d74       0x30 common/built-in.o
 .text.file_peek
                0x000000004a009da4        0x6 common/built-in.o
 *fill*         0x000000004a009daa        0x2 
 .text.get_local_var
                0x000000004a009dac       0x58 common/built-in.o
                0x000000004a009dac                get_local_var
 .text.set_local_var
                0x000000004a009e04      0x10c common/built-in.o
                0x000000004a009e04                set_local_var
 .text.insert_var_value_sub
                0x000000004a009f10      0x1c4 common/built-in.o
 .text.parse_string_outer
                0x000000004a00a0d4       0x90 common/built-in.o
                0x000000004a00a0d4                parse_string_outer
 .text.run_list_real
                0x000000004a00a164      0x4c8 common/built-in.o
 .text.parse_stream_outer
                0x000000004a00a62c      0x424 common/built-in.o
 .text.parse_file_outer
                0x000000004a00aa50       0x2c common/built-in.o
                0x000000004a00aa50                parse_file_outer
 .text.u_boot_hush_start
                0x000000004a00aa7c       0x30 common/built-in.o
                0x000000004a00aa7c                u_boot_hush_start
 .text.bootdelay_process
                0x000000004a00aaac       0x84 common/built-in.o
                0x000000004a00aaac                bootdelay_process
 .text.autoboot_command
                0x000000004a00ab30       0xa4 common/built-in.o
                0x000000004a00ab30                autoboot_command
 .text.log_init
                0x000000004a00abd4        0x8 common/built-in.o
 .text.display_text_info
                0x000000004a00abdc        0x4 common/built-in.o
 .text.setup_mon_len
                0x000000004a00abe0       0x18 common/built-in.o
 .text.arch_cpu_init
                0x000000004a00abf8        0x4 common/built-in.o
                0x000000004a00abf8                arch_cpu_init
 .text.reserve_round_4k
                0x000000004a00abfc       0x14 common/built-in.o
 .text.reserve_mmu
                0x000000004a00ac10       0x2e common/built-in.o
                0x000000004a00ac10                reserve_mmu
 .text.reserve_uboot
                0x000000004a00ac3e       0x30 common/built-in.o
 .text.reserve_malloc
                0x000000004a00ac6e       0x14 common/built-in.o
 .text.reserve_global_data
                0x000000004a00ac82       0x16 common/built-in.o
 .text.reserve_fdt
                0x000000004a00ac98       0x3a common/built-in.o
 .text.dram_init_banksize
                0x000000004a00acd2       0x1a common/built-in.o
                0x000000004a00acd2                dram_init_banksize
 .text.setup_reloc
                0x000000004a00acec       0x26 common/built-in.o
 .text.reloc_fdt
                0x000000004a00ad12       0x2c common/built-in.o
 .text.reserve_board
                0x000000004a00ad3e       0x28 common/built-in.o
 *fill*         0x000000004a00ad66        0x2 
 .text.announce_dram_init
                0x000000004a00ad68       0x10 common/built-in.o
 .text.init_baud_rate
                0x000000004a00ad78       0x1c common/built-in.o
 .text.initf_dm
                0x000000004a00ad94        0x6 common/built-in.o
 .text.initf_bootstage
                0x000000004a00ad9a        0xc common/built-in.o
 .text.arch_cpu_init_dm
                0x000000004a00ada6        0x4 common/built-in.o
                0x000000004a00ada6                arch_cpu_init_dm
 .text.mach_cpu_init
                0x000000004a00adaa        0x4 common/built-in.o
                0x000000004a00adaa                mach_cpu_init
 .text.reserve_video
                0x000000004a00adae        0x4 common/built-in.o
 .text.reserve_trace
                0x000000004a00adb2        0x4 common/built-in.o
 .text.setup_machine
                0x000000004a00adb6        0x4 common/built-in.o
 .text.reserve_bootstage
                0x000000004a00adba        0x4 common/built-in.o
 .text.display_new_sp
                0x000000004a00adbe        0x4 common/built-in.o
 .text.reloc_bootstage
                0x000000004a00adc2        0x4 common/built-in.o
 .text.initf_console_record
                0x000000004a00adc6        0x4 common/built-in.o
 .text.reserve_arch
                0x000000004a00adca        0x4 common/built-in.o
                0x000000004a00adca                reserve_arch
 .text.coloured_LED_init
                0x000000004a00adce        0x2 common/built-in.o
                0x000000004a00adce                coloured_LED_init
 .text.red_led_on
                0x000000004a00add0        0x2 common/built-in.o
                0x000000004a00add0                red_led_on
 .text.board_add_ram_info
                0x000000004a00add2        0x2 common/built-in.o
                0x000000004a00add2                board_add_ram_info
 .text.show_dram_config
                0x000000004a00add4       0x28 common/built-in.o
 .text.setup_dest_addr
                0x000000004a00adfc       0x30 common/built-in.o
 .text.reserve_stacks
                0x000000004a00ae2c       0x1a common/built-in.o
 *fill*         0x000000004a00ae46        0x2 
 .text.board_init_f
                0x000000004a00ae48       0x20 common/built-in.o
                0x000000004a00ae48                board_init_f
 .text.initr_trace
                0x000000004a00ae68        0x4 common/built-in.o
 .text.initr_reloc
                0x000000004a00ae6c       0x14 common/built-in.o
 .text.run_main_loop
                0x000000004a00ae80        0x8 common/built-in.o
 .text.initr_net
                0x000000004a00ae88       0x14 common/built-in.o
 .text.initr_ethaddr
                0x000000004a00ae9c       0x18 common/built-in.o
 .text.initr_enable_interrupts
                0x000000004a00aeb4        0xa common/built-in.o
 .text.initr_jumptable
                0x000000004a00aebe        0xa common/built-in.o
 .text.initr_env
                0x000000004a00aec8       0x48 common/built-in.o
 .text.initr_serial
                0x000000004a00af10        0xa common/built-in.o
 .text.initr_dm
                0x000000004a00af1a       0x12 common/built-in.o
 .text.initr_bootstage
                0x000000004a00af2c        0xc common/built-in.o
 .text.initr_malloc
                0x000000004a00af38       0x1c common/built-in.o
 .text.initr_reloc_global_data
                0x000000004a00af54       0x28 common/built-in.o
 .text.initr_caches
                0x000000004a00af7c        0xa common/built-in.o
 .text.bootstage_relocate
                0x000000004a00af86        0x4 common/built-in.o
 .text.initr_barrier
                0x000000004a00af8a        0x4 common/built-in.o
 .text.initr_console_record
                0x000000004a00af8e        0x4 common/built-in.o
 .text.power_init_board
                0x000000004a00af92        0x4 common/built-in.o
                0x000000004a00af92                power_init_board
 .text.initr_announce
                0x000000004a00af96        0x4 common/built-in.o
 .text.cpu_secondary_init_r
                0x000000004a00af9a        0x2 common/built-in.o
                0x000000004a00af9a                cpu_secondary_init_r
 .text.initr_secondary_cpu
                0x000000004a00af9c        0xa common/built-in.o
 *fill*         0x000000004a00afa6        0x2 
 .text.board_init_r
                0x000000004a00afa8       0x1c common/built-in.o
                0x000000004a00afa8                board_init_r
 .text.checkboard
                0x000000004a00afc4        0x4 common/built-in.o
                0x000000004a00afc4                checkboard
 .text.show_board_info
                0x000000004a00afc8       0x2c common/built-in.o
                0x000000004a00afc8                show_board_info
 .text.bootm_find_images
                0x000000004a00aff4       0x6c common/built-in.o
                0x000000004a00aff4                bootm_find_images
 .text.bootm_decomp_image
                0x000000004a00b060       0xe0 common/built-in.o
                0x000000004a00b060                bootm_decomp_image
 .text.bootm_disable_interrupts
                0x000000004a00b140       0x10 common/built-in.o
                0x000000004a00b140                bootm_disable_interrupts
 .text.do_bootm_states
                0x000000004a00b150      0x560 common/built-in.o
                0x000000004a00b150                do_bootm_states
 .text.copy_args
                0x000000004a00b6b0       0x36 common/built-in.o
 *fill*         0x000000004a00b6e6        0x2 
 .text.do_bootm_rtems
                0x000000004a00b6e8       0x2c common/built-in.o
 .text.do_bootm_plan9
                0x000000004a00b714       0x68 common/built-in.o
 .text.do_bootm_standalone
                0x000000004a00b77c       0x3c common/built-in.o
 .text.do_bootm_qnxelf
                0x000000004a00b7b8       0x4c common/built-in.o
 .text.do_bootm_netbsd
                0x000000004a00b804       0xa4 common/built-in.o
 .text.do_bootvx_fdt
                0x000000004a00b8a8       0xbc common/built-in.o
                0x000000004a00b8a8                do_bootvx_fdt
 .text.do_bootm_vxworks
                0x000000004a00b964       0x16 common/built-in.o
 .text.arch_preboot_os
                0x000000004a00b97a        0x2 common/built-in.o
                0x000000004a00b97a                arch_preboot_os
 .text.boot_selected_os
                0x000000004a00b97c       0x3a common/built-in.o
                0x000000004a00b97c                boot_selected_os
 *fill*         0x000000004a00b9b6        0x2 
 .text.bootm_os_get_boot_func
                0x000000004a00b9b8        0xc common/built-in.o
                0x000000004a00b9b8                bootm_os_get_boot_func
 .text.of_bus_default_map
                0x000000004a00b9c4       0x80 common/built-in.o
 .text.of_bus_default_translate
                0x000000004a00ba44       0x68 common/built-in.o
 .text.fdt_support_default_count_cells
                0x000000004a00baac       0x34 common/built-in.o
                0x000000004a00baac                fdt_support_default_count_cells
 .text.fdt_find_and_setprop
                0x000000004a00bae0       0x46 common/built-in.o
                0x000000004a00bae0                fdt_find_and_setprop
 *fill*         0x000000004a00bb26        0x2 
 .text.fdt_find_or_add_subnode
                0x000000004a00bb28       0x40 common/built-in.o
                0x000000004a00bb28                fdt_find_or_add_subnode
 .text.fdt_root
                0x000000004a00bb68       0x60 common/built-in.o
                0x000000004a00bb68                fdt_root
 .text.fdt_initrd
                0x000000004a00bbc8      0x120 common/built-in.o
                0x000000004a00bbc8                fdt_initrd
 .text.fdt_chosen
                0x000000004a00bce8       0x90 common/built-in.o
                0x000000004a00bce8                fdt_chosen
 .text.do_fixup_by_path
                0x000000004a00bd78       0x34 common/built-in.o
                0x000000004a00bd78                do_fixup_by_path
 .text.fdt_fixup_memory_banks
                0x000000004a00bdac      0x190 common/built-in.o
                0x000000004a00bdac                fdt_fixup_memory_banks
 .text.fdt_fixup_memory
                0x000000004a00bf3c       0x16 common/built-in.o
                0x000000004a00bf3c                fdt_fixup_memory
 *fill*         0x000000004a00bf52        0x2 
 .text.fdt_fixup_ethernet
                0x000000004a00bf54      0x10c common/built-in.o
                0x000000004a00bf54                fdt_fixup_ethernet
 .text.fdt_shrink_to_minimum
                0x000000004a00c060       0x8e common/built-in.o
                0x000000004a00c060                fdt_shrink_to_minimum
 *fill*         0x000000004a00c0ee        0x2 
 .text.fdt_translate_address
                0x000000004a00c0f0      0x16c common/built-in.o
                0x000000004a00c0f0                fdt_translate_address
 .text.fdt_setup_simplefb_node
                0x000000004a00c25c      0x154 common/built-in.o
                0x000000004a00c25c                fdt_setup_simplefb_node
 .text.fdt_overlay_apply_verbose
                0x000000004a00c3b0       0x4c common/built-in.o
                0x000000004a00c3b0                fdt_overlay_apply_verbose
 .text.miiphy_get_dev_by_name
                0x000000004a00c3fc       0x34 common/built-in.o
                0x000000004a00c3fc                miiphy_get_dev_by_name
 .text.miiphy_init
                0x000000004a00c430       0x18 common/built-in.o
                0x000000004a00c430                miiphy_init
 .text.miiphy_set_current_dev
                0x000000004a00c448       0x28 common/built-in.o
                0x000000004a00c448                miiphy_set_current_dev
 .text.miiphy_get_active_dev
                0x000000004a00c470       0x30 common/built-in.o
 .text.miiphy_get_current_dev
                0x000000004a00c4a0       0x10 common/built-in.o
                0x000000004a00c4a0                miiphy_get_current_dev
 .text.miiphy_read
                0x000000004a00c4b0       0x28 common/built-in.o
                0x000000004a00c4b0                miiphy_read
 .text.miiphy_write
                0x000000004a00c4d8       0x24 common/built-in.o
                0x000000004a00c4d8                miiphy_write
 .text.miiphy_listdev
                0x000000004a00c4fc       0x54 common/built-in.o
                0x000000004a00c4fc                miiphy_listdev
 .text.miiphy_info
                0x000000004a00c550       0x5c common/built-in.o
                0x000000004a00c550                miiphy_info
 .text.miiphy_speed
                0x000000004a00c5ac       0x80 common/built-in.o
                0x000000004a00c5ac                miiphy_speed
 .text.miiphy_duplex
                0x000000004a00c62c       0x7c common/built-in.o
                0x000000004a00c62c                miiphy_duplex
 .text.miiphy_is_1000base_x
                0x000000004a00c6a8        0x4 common/built-in.o
                0x000000004a00c6a8                miiphy_is_1000base_x
 .text.usb_set_maxpacket_ep
                0x000000004a00c6ac       0x56 common/built-in.o
 .text.usb_control_msg
                0x000000004a00c702       0x6c common/built-in.o
                0x000000004a00c702                usb_control_msg
 .text.usb_get_descriptor
                0x000000004a00c76e       0x36 common/built-in.o
 .text.get_descriptor_len
                0x000000004a00c7a4       0x60 common/built-in.o
 .text.usb_setup_descriptor
                0x000000004a00c804       0x84 common/built-in.o
 .text.usb_get_string
                0x000000004a00c888       0x50 common/built-in.o
 .text.usb_string_sub
                0x000000004a00c8d8       0x90 common/built-in.o
 .text.usb_bulk_msg
                0x000000004a00c968       0x4a common/built-in.o
                0x000000004a00c968                usb_bulk_msg
 .text.usb_maxpacket
                0x000000004a00c9b2       0x14 common/built-in.o
                0x000000004a00c9b2                usb_maxpacket
 .text.usb_clear_halt
                0x000000004a00c9c6       0x5c common/built-in.o
                0x000000004a00c9c6                usb_clear_halt
 *fill*         0x000000004a00ca22        0x2 
 .text.usb_get_configuration_len
                0x000000004a00ca24       0x50 common/built-in.o
                0x000000004a00ca24                usb_get_configuration_len
 .text.usb_get_configuration_no
                0x000000004a00ca74       0x1c common/built-in.o
                0x000000004a00ca74                usb_get_configuration_no
 .text.usb_set_interface
                0x000000004a00ca90       0x7c common/built-in.o
                0x000000004a00ca90                usb_set_interface
 .text.usb_set_protocol
                0x000000004a00cb0c       0x2e common/built-in.o
                0x000000004a00cb0c                usb_set_protocol
 .text.usb_set_idle
                0x000000004a00cb3a       0x32 common/built-in.o
                0x000000004a00cb3a                usb_set_idle
 .text.usb_string
                0x000000004a00cb6c       0x9c common/built-in.o
                0x000000004a00cb6c                usb_string
 .text.usb_select_config
                0x000000004a00cc08      0x318 common/built-in.o
                0x000000004a00cc08                usb_select_config
 .text.usb_setup_device
                0x000000004a00cf20       0xac common/built-in.o
                0x000000004a00cf20                usb_setup_device
 .text.board_usb_init
                0x000000004a00cfcc        0x4 common/built-in.o
                0x000000004a00cfcc                board_usb_init
 .text.board_usb_cleanup
                0x000000004a00cfd0        0x4 common/built-in.o
                0x000000004a00cfd0                board_usb_cleanup
 .text.usb_device_has_child_on_port
                0x000000004a00cfd4        0x4 common/built-in.o
                0x000000004a00cfd4                usb_device_has_child_on_port
 .text.usb_set_port_feature
                0x000000004a00cfd8       0x2e common/built-in.o
 .text.usb_clear_port_feature
                0x000000004a00d006       0x2e common/built-in.o
 .text.usb_get_hub_descriptor
                0x000000004a00d034       0x42 common/built-in.o
 .text.usb_hub_reset_devices
                0x000000004a00d076        0x2 common/built-in.o
                0x000000004a00d076                usb_hub_reset_devices
 .text.usb_hub_is_root_hub
                0x000000004a00d078       0x10 common/built-in.o
                0x000000004a00d078                usb_hub_is_root_hub
 .text.usb_get_port_status
                0x000000004a00d088       0x70 common/built-in.o
                0x000000004a00d088                usb_get_port_status
 .text.usb_hub_port_connect_change
                0x000000004a00d0f8       0xf8 common/built-in.o
                0x000000004a00d0f8                usb_hub_port_connect_change
 .text.usb_hub_configure
                0x000000004a00d1f0      0x3e8 common/built-in.o
 .text.usb_hub_scan
                0x000000004a00d5d8        0xe common/built-in.o
                0x000000004a00d5d8                usb_hub_scan
 .text.usb_hub_post_probe
                0x000000004a00d5e6        0x4 common/built-in.o
 .text.usb_stor_irq
                0x000000004a00d5ea       0x10 common/built-in.o
 .text.usb_stor_BBB_reset
                0x000000004a00d5fa       0xac common/built-in.o
 *fill*         0x000000004a00d6a6        0x2 
 .text.usb_stor_CB_reset
                0x000000004a00d6a8       0x8c common/built-in.o
 .text.usb_stor_BBB_clear_endpt_stall.isra.0
                0x000000004a00d734       0x2c common/built-in.o
 .text.usb_stor_BBB_transport
                0x000000004a00d760      0x1d4 common/built-in.o
 .text.usb_stor_CB_comdat
                0x000000004a00d934      0x154 common/built-in.o
 .text.usb_stor_CBI_get_status.isra.2
                0x000000004a00da88       0x88 common/built-in.o
 .text.usb_stor_CB_transport
                0x000000004a00db10      0x158 common/built-in.o
 .text.usb_request_sense.constprop.11
                0x000000004a00dc68       0x4c common/built-in.o
 .text.usb_stor_read
                0x000000004a00dcb4       0xf0 common/built-in.o
 .text.usb_stor_write
                0x000000004a00dda4       0xf0 common/built-in.o
 .text.usb_stor_info
                0x000000004a00de94       0x48 common/built-in.o
                0x000000004a00de94                usb_stor_info
 .text.usb_stor_reset
                0x000000004a00dedc        0xc common/built-in.o
                0x000000004a00dedc                usb_stor_reset
 .text.usb_stor_scan
                0x000000004a00dee8       0x30 common/built-in.o
                0x000000004a00dee8                usb_stor_scan
 .text.usb_storage_probe
                0x000000004a00df18      0x184 common/built-in.o
                0x000000004a00df18                usb_storage_probe
 .text.usb_stor_get_info
                0x000000004a00e09c      0x22c common/built-in.o
                0x000000004a00e09c                usb_stor_get_info
 .text.usb_mass_storage_probe
                0x000000004a00e2c8      0x120 common/built-in.o
 .text.iomux_doenv
                0x000000004a00e3e8      0x128 common/built-in.o
                0x000000004a00e3e8                iomux_doenv
 .text.menu_display_statusline
                0x000000004a00e510        0x2 common/built-in.o
                0x000000004a00e510                menu_display_statusline
 .text.menu_default_set
                0x000000004a00e512       0x4a common/built-in.o
                0x000000004a00e512                menu_default_set
 .text.menu_get_choice
                0x000000004a00e55c      0x120 common/built-in.o
                0x000000004a00e55c                menu_get_choice
 .text.menu_item_add
                0x000000004a00e67c       0x7c common/built-in.o
                0x000000004a00e67c                menu_item_add
 .text.menu_create
                0x000000004a00e6f8       0x52 common/built-in.o
                0x000000004a00e6f8                menu_create
 .text.menu_destroy
                0x000000004a00e74a       0x44 common/built-in.o
                0x000000004a00e74a                menu_destroy
 *fill*         0x000000004a00e78e        0x2 
 .text.usb_kbd_remove
                0x000000004a00e790       0x74 common/built-in.o
 .text.usb_kbd_translate.part.0
                0x000000004a00e804       0xdc common/built-in.o
 .text.usb_kbd_probe
                0x000000004a00e8e0      0x144 common/built-in.o
 .text.usb_kbd_irq_worker
                0x000000004a00ea24      0x12c common/built-in.o
 .text.usb_kbd_getc
                0x000000004a00eb50       0x80 common/built-in.o
 .text.usb_kbd_testc
                0x000000004a00ebd0       0x98 common/built-in.o
 .text.usb_kbd_irq
                0x000000004a00ec68       0x16 common/built-in.o
 *fill*         0x000000004a00ec7e        0x2 
 .text.delete_char.part.0
                0x000000004a00ec80       0x88 common/built-in.o
 .text.cread_add_char
                0x000000004a00ed08       0x80 common/built-in.o
 .text.cli_readline_into_buffer
                0x000000004a00ed88      0x650 common/built-in.o
                0x000000004a00ed88                cli_readline_into_buffer
 .text.cli_readline
                0x000000004a00f3d8       0x10 common/built-in.o
                0x000000004a00f3d8                cli_readline
 .text.cli_simple_process_macros
                0x000000004a00f3e8      0x126 common/built-in.o
                0x000000004a00f3e8                cli_simple_process_macros
 *fill*         0x000000004a00f50e        0x2 
 .text.console_tstc
                0x000000004a00f510       0x58 common/built-in.o
 .text.console_putc
                0x000000004a00f568       0x38 common/built-in.o
 .text.console_puts
                0x000000004a00f5a0       0x38 common/built-in.o
 .text.pre_console_putc
                0x000000004a00f5d8       0x16 common/built-in.o
 *fill*         0x000000004a00f5ee        0x2 
 .text.on_console
                0x000000004a00f5f0       0x70 common/built-in.o
 .text.serial_printf
                0x000000004a00f660       0x32 common/built-in.o
                0x000000004a00f660                serial_printf
 *fill*         0x000000004a00f692        0x2 
 .text.console_getc.isra.0
                0x000000004a00f694       0x18 common/built-in.o
 .text.putc     0x000000004a00f6ac       0x38 common/built-in.o
                0x000000004a00f6ac                putc
 .text.tstc     0x000000004a00f6e4       0x1a common/built-in.o
                0x000000004a00f6e4                tstc
 *fill*         0x000000004a00f6fe        0x2 
 .text.getc     0x000000004a00f700       0x34 common/built-in.o
                0x000000004a00f700                getc
 .text.puts     0x000000004a00f734       0x4c common/built-in.o
                0x000000004a00f734                puts
 .text.print_pre_console_buffer
                0x000000004a00f780       0xb8 common/built-in.o
 .text.fputs    0x000000004a00f838        0xa common/built-in.o
                0x000000004a00f838                fputs
 .text.fprintf  0x000000004a00f842       0x36 common/built-in.o
                0x000000004a00f842                fprintf
 .text.ctrlc    0x000000004a00f878       0x34 common/built-in.o
                0x000000004a00f878                ctrlc
 .text.disable_ctrlc
                0x000000004a00f8ac       0x10 common/built-in.o
                0x000000004a00f8ac                disable_ctrlc
 .text.had_ctrlc
                0x000000004a00f8bc        0xc common/built-in.o
                0x000000004a00f8bc                had_ctrlc
 .text.clear_ctrlc
                0x000000004a00f8c8        0xc common/built-in.o
                0x000000004a00f8c8                clear_ctrlc
 .text.search_device
                0x000000004a00f8d4       0x16 common/built-in.o
                0x000000004a00f8d4                search_device
 *fill*         0x000000004a00f8ea        0x2 
 .text.console_assign
                0x000000004a00f8ec       0x84 common/built-in.o
                0x000000004a00f8ec                console_assign
 .text.console_init_f
                0x000000004a00f970       0x12 common/built-in.o
                0x000000004a00f970                console_init_f
 *fill*         0x000000004a00f982        0x2 
 .text.stdio_print_current_devices
                0x000000004a00f984       0x78 common/built-in.o
                0x000000004a00f984                stdio_print_current_devices
 .text.console_init_r
                0x000000004a00f9fc      0x110 common/built-in.o
                0x000000004a00f9fc                console_init_r
 .text.sbrk     0x000000004a00fb0c       0x40 common/built-in.o
                0x000000004a00fb0c                sbrk
 .text.mem_malloc_init
                0x000000004a00fb4c       0x1c common/built-in.o
                0x000000004a00fb4c                mem_malloc_init
 .text.malloc_trim
                0x000000004a00fb68       0x84 common/built-in.o
                0x000000004a00fb68                malloc_trim
 .text.free     0x000000004a00fbec      0x164 common/built-in.o
                0x000000004a00fbec                free
 .text.malloc   0x000000004a00fd50      0x424 common/built-in.o
                0x000000004a00fd50                malloc
 .text.calloc   0x000000004a010174       0x90 common/built-in.o
                0x000000004a010174                calloc
 .text.realloc  0x000000004a010204      0x2d0 common/built-in.o
                0x000000004a010204                realloc
 .text.memalign
                0x000000004a0104d4      0x122 common/built-in.o
                0x000000004a0104d4                memalign
 .text.initf_malloc
                0x000000004a0105f6       0x14 common/built-in.o
                0x000000004a0105f6                initf_malloc
 .text.malloc_simple
                0x000000004a01060a       0x28 common/built-in.o
                0x000000004a01060a                malloc_simple
 *fill*         0x000000004a010632        0x2 
 .text.on_loadaddr
                0x000000004a010634       0x20 common/built-in.o
 .text.image_check_hcrc
                0x000000004a010654       0x2a common/built-in.o
                0x000000004a010654                image_check_hcrc
 .text.image_check_dcrc
                0x000000004a01067e       0x22 common/built-in.o
                0x000000004a01067e                image_check_dcrc
 .text.image_multi_count
                0x000000004a0106a0       0x12 common/built-in.o
                0x000000004a0106a0                image_multi_count
 .text.image_multi_getimg
                0x000000004a0106b2       0x4a common/built-in.o
                0x000000004a0106b2                image_multi_getimg
 .text.env_get_bootm_low
                0x000000004a0106fc       0x20 common/built-in.o
                0x000000004a0106fc                env_get_bootm_low
 .text.env_get_bootm_size
                0x000000004a01071c       0x44 common/built-in.o
                0x000000004a01071c                env_get_bootm_size
 .text.env_get_bootm_mapsize
                0x000000004a010760       0x20 common/built-in.o
                0x000000004a010760                env_get_bootm_mapsize
 .text.memmove_wd
                0x000000004a010780        0xa common/built-in.o
                0x000000004a010780                memmove_wd
 *fill*         0x000000004a01078a        0x2 
 .text.genimg_print_size
                0x000000004a01078c       0x24 common/built-in.o
                0x000000004a01078c                genimg_print_size
 .text.get_table_entry
                0x000000004a0107b0       0x12 common/built-in.o
                0x000000004a0107b0                get_table_entry
 .text.get_table_entry_name
                0x000000004a0107c2       0x12 common/built-in.o
                0x000000004a0107c2                get_table_entry_name
 .text.genimg_get_os_name
                0x000000004a0107d4       0x14 common/built-in.o
                0x000000004a0107d4                genimg_get_os_name
 .text.genimg_get_arch_name
                0x000000004a0107e8       0x14 common/built-in.o
                0x000000004a0107e8                genimg_get_arch_name
 .text.genimg_get_type_name
                0x000000004a0107fc       0x14 common/built-in.o
                0x000000004a0107fc                genimg_get_type_name
 .text.genimg_get_comp_name
                0x000000004a010810       0x14 common/built-in.o
                0x000000004a010810                genimg_get_comp_name
 .text.image_print_contents
                0x000000004a010824      0x114 common/built-in.o
                0x000000004a010824                image_print_contents
 .text.genimg_get_kernel_addr_fit
                0x000000004a010938       0x14 common/built-in.o
                0x000000004a010938                genimg_get_kernel_addr_fit
 .text.genimg_get_kernel_addr
                0x000000004a01094c       0x16 common/built-in.o
                0x000000004a01094c                genimg_get_kernel_addr
 *fill*         0x000000004a010962        0x2 
 .text.genimg_get_format
                0x000000004a010964       0x30 common/built-in.o
                0x000000004a010964                genimg_get_format
 .text.genimg_has_config
                0x000000004a010994        0x4 common/built-in.o
                0x000000004a010994                genimg_has_config
 .text.boot_get_ramdisk
                0x000000004a010998      0x1d8 common/built-in.o
                0x000000004a010998                boot_get_ramdisk
 .text.boot_ramdisk_high
                0x000000004a010b70       0xc4 common/built-in.o
                0x000000004a010b70                boot_ramdisk_high
 .text.boot_get_setup
                0x000000004a010c34        0x6 common/built-in.o
                0x000000004a010c34                boot_get_setup
 .text.image_setup_linux
                0x000000004a010c3a       0x36 common/built-in.o
                0x000000004a010c3a                image_setup_linux
 .text.android_image_get_kernel
                0x000000004a010c70      0x160 common/built-in.o
                0x000000004a010c70                android_image_get_kernel
 .text.android_image_check_header
                0x000000004a010dd0       0x10 common/built-in.o
                0x000000004a010dd0                android_image_check_header
 .text.android_image_get_end
                0x000000004a010de0       0x78 common/built-in.o
                0x000000004a010de0                android_image_get_end
 .text.android_image_get_kload
                0x000000004a010e58       0x40 common/built-in.o
                0x000000004a010e58                android_image_get_kload
 .text.android_image_get_ramdisk
                0x000000004a010e98       0xc4 common/built-in.o
                0x000000004a010e98                android_image_get_ramdisk
 .text.android_print_contents
                0x000000004a010f5c      0x1a4 common/built-in.o
                0x000000004a010f5c                android_print_contents
 .text.fdt_error
                0x000000004a011100       0x24 common/built-in.o
 .text.boot_fdt_add_mem_rsv_regions
                0x000000004a011124       0x5c common/built-in.o
                0x000000004a011124                boot_fdt_add_mem_rsv_regions
 .text.boot_relocate_fdt
                0x000000004a011180      0x10c common/built-in.o
                0x000000004a011180                boot_relocate_fdt
 .text.boot_get_fdt
                0x000000004a01128c      0x1a8 common/built-in.o
                0x000000004a01128c                boot_get_fdt
 .text.ft_verify_fdt
                0x000000004a011434        0x4 common/built-in.o
                0x000000004a011434                ft_verify_fdt
 .text.image_setup_libfdt
                0x000000004a011438       0xcc common/built-in.o
                0x000000004a011438                image_setup_libfdt
 .text.get_ram_size
                0x000000004a011504       0x9e common/built-in.o
                0x000000004a011504                get_ram_size
 .text.get_effective_memsize
                0x000000004a0115a2        0x6 common/built-in.o
                0x000000004a0115a2                get_effective_memsize
 .text.nulldev_putc
                0x000000004a0115a8        0x2 common/built-in.o
 .text.nulldev_puts
                0x000000004a0115aa        0x2 common/built-in.o
 .text.nulldev_input
                0x000000004a0115ac        0x4 common/built-in.o
 .text.stdio_serial_tstc
                0x000000004a0115b0        0x4 common/built-in.o
 .text.stdio_serial_getc
                0x000000004a0115b4        0x4 common/built-in.o
 .text.stdio_serial_puts
                0x000000004a0115b8        0x6 common/built-in.o
 .text.stdio_serial_putc
                0x000000004a0115be        0x6 common/built-in.o
 .text.stdio_get_list
                0x000000004a0115c4        0x8 common/built-in.o
                0x000000004a0115c4                stdio_get_list
 .text.stdio_get_by_name
                0x000000004a0115cc       0x30 common/built-in.o
                0x000000004a0115cc                stdio_get_by_name
 .text.stdio_clone
                0x000000004a0115fc       0x22 common/built-in.o
                0x000000004a0115fc                stdio_clone
 *fill*         0x000000004a01161e        0x2 
 .text.stdio_register_dev
                0x000000004a011620       0x34 common/built-in.o
                0x000000004a011620                stdio_register_dev
 .text.stdio_register
                0x000000004a011654        0x6 common/built-in.o
                0x000000004a011654                stdio_register
 *fill*         0x000000004a01165a        0x2 
 .text.stdio_deregister_dev
                0x000000004a01165c       0xa8 common/built-in.o
                0x000000004a01165c                stdio_deregister_dev
 .text.stdio_init_tables
                0x000000004a011704       0x14 common/built-in.o
                0x000000004a011704                stdio_init_tables
 .text.stdio_add_devices
                0x000000004a011718       0xc8 common/built-in.o
                0x000000004a011718                stdio_add_devices
 .text.run_command
                0x000000004a0117e0        0xe common/built-in.o
                0x000000004a0117e0                run_command
 .text.run_command_list
                0x000000004a0117ee       0x46 common/built-in.o
                0x000000004a0117ee                run_command_list
 .text.do_run   0x000000004a011834       0x4c common/built-in.o
                0x000000004a011834                do_run
 .text.cli_process_fdt
                0x000000004a011880       0x30 common/built-in.o
                0x000000004a011880                cli_process_fdt
 .text.cli_secure_boot_cmd
                0x000000004a0118b0       0x4c common/built-in.o
                0x000000004a0118b0                cli_secure_boot_cmd
 .text.cli_loop
                0x000000004a0118fc        0x8 common/built-in.o
                0x000000004a0118fc                cli_loop
 .text.cli_init
                0x000000004a011904        0x4 common/built-in.o
                0x000000004a011904                cli_init
 .text.find_cmd_tbl
                0x000000004a011908       0x62 common/built-in.o
                0x000000004a011908                find_cmd_tbl
 *fill*         0x000000004a01196a        0x2 
 .text.find_cmd
                0x000000004a01196c       0x1c common/built-in.o
                0x000000004a01196c                find_cmd
 .text.cmd_usage
                0x000000004a011988       0x3c common/built-in.o
                0x000000004a011988                cmd_usage
 .text._do_help
                0x000000004a0119c4      0x108 common/built-in.o
                0x000000004a0119c4                _do_help
 .text.var_complete
                0x000000004a011acc       0x48 common/built-in.o
                0x000000004a011acc                var_complete
 .text.cmd_auto_complete
                0x000000004a011b14      0x2cc common/built-in.o
                0x000000004a011b14                cmd_auto_complete
 .text.cmd_get_data_size
                0x000000004a011de0       0x48 common/built-in.o
                0x000000004a011de0                cmd_get_data_size
 .text.cmd_process
                0x000000004a011e28       0x94 common/built-in.o
                0x000000004a011e28                cmd_process
 .text.cmd_process_error
                0x000000004a011ebc       0x1c common/built-in.o
                0x000000004a011ebc                cmd_process_error
 .text.hex1_bin
                0x000000004a011ed8       0x2a common/built-in.o
 .text.hex2_bin
                0x000000004a011f02       0x24 common/built-in.o
 .text.srec_decode
                0x000000004a011f26      0x17c common/built-in.o
                0x000000004a011f26                srec_decode
 .text.CYGACC_COMM_IF_GETC_TIMEOUT.isra.0
                0x000000004a0120a2       0x2e common/built-in.o
 .text.xyzModem_flush
                0x000000004a0120d0       0x14 common/built-in.o
 .text.xyzModem_get_hdr
                0x000000004a0120e4      0x16c common/built-in.o
 .text.xyzModem_stream_open
                0x000000004a012250      0x168 common/built-in.o
                0x000000004a012250                xyzModem_stream_open
 .text.xyzModem_stream_read
                0x000000004a0123b8      0x1a8 common/built-in.o
                0x000000004a0123b8                xyzModem_stream_read
 .text.xyzModem_stream_close
                0x000000004a012560       0x40 common/built-in.o
                0x000000004a012560                xyzModem_stream_close
 .text.xyzModem_stream_terminate
                0x000000004a0125a0       0x68 common/built-in.o
                0x000000004a0125a0                xyzModem_stream_terminate
 .text.xyzModem_error
                0x000000004a012608       0x18 common/built-in.o
                0x000000004a012608                xyzModem_error
 .text.part_driver_lookup_type
                0x000000004a012620       0x44 disk/built-in.o
 .text.blk_get_dev
                0x000000004a012664       0x18 disk/built-in.o
                0x000000004a012664                blk_get_dev
 .text.dev_print
                0x000000004a01267c      0x174 disk/built-in.o
                0x000000004a01267c                dev_print
 .text.part_init
                0x000000004a0127f0       0x2c disk/built-in.o
                0x000000004a0127f0                part_init
 .text.part_print
                0x000000004a01281c       0xac disk/built-in.o
                0x000000004a01281c                part_print
 .text.part_get_info
                0x000000004a0128c8       0x36 disk/built-in.o
                0x000000004a0128c8                part_get_info
 *fill*         0x000000004a0128fe        0x2 
 .text.part_get_info_whole_disk
                0x000000004a012900       0x38 disk/built-in.o
                0x000000004a012900                part_get_info_whole_disk
 .text.blk_get_device_by_str
                0x000000004a012938       0xb8 disk/built-in.o
                0x000000004a012938                blk_get_device_by_str
 .text.blk_get_device_part_str
                0x000000004a0129f0      0x244 disk/built-in.o
                0x000000004a0129f0                blk_get_device_part_str
 .text.part_get_info_by_name_type
                0x000000004a012c34       0x48 disk/built-in.o
                0x000000004a012c34                part_get_info_by_name_type
 .text.part_get_info_by_name
                0x000000004a012c7c        0x8 disk/built-in.o
                0x000000004a012c7c                part_get_info_by_name
 .text.part_set_generic_name
                0x000000004a012c84       0x34 disk/built-in.o
                0x000000004a012c84                part_set_generic_name
 .text.test_block_type
                0x000000004a012cb8       0x4c disk/built-in.o
 .text.print_partition_extended
                0x000000004a012d04      0x190 disk/built-in.o
 .text.part_print_dos
                0x000000004a012e94       0x20 disk/built-in.o
                0x000000004a012e94                part_print_dos
 .text.part_test_dos
                0x000000004a012eb4       0x48 disk/built-in.o
 .text.part_get_info_extended
                0x000000004a012efc      0x1d8 disk/built-in.o
 .text.part_get_info_dos
                0x000000004a0130d4       0x16 disk/built-in.o
                0x000000004a0130d4                part_get_info_dos
 .text.iso_dread
                0x000000004a0130ea       0x22 disk/built-in.o
                0x000000004a0130ea                iso_dread
 .text.part_get_info_iso_verb
                0x000000004a01310c      0x258 disk/built-in.o
                0x000000004a01310c                part_get_info_iso_verb
 .text.part_test_iso
                0x000000004a013364       0x14 disk/built-in.o
 .text.part_print_iso
                0x000000004a013378       0x60 disk/built-in.o
 .text.part_get_info_iso
                0x000000004a0133d8        0x6 disk/built-in.o
 *fill*         0x000000004a0133de        0x2 
 .text.print_efiname
                0x000000004a0133e0       0x3c disk/built-in.o
 .text.part_test_efi
                0x000000004a01341c       0x78 disk/built-in.o
 .text.validate_gpt_entries
                0x000000004a013494       0x80 disk/built-in.o
 *fill*         0x000000004a013514        0x4 
 .text.validate_gpt_header
                0x000000004a013518      0x1a0 disk/built-in.o
 .text.is_gpt_valid
                0x000000004a0136b8      0x1c0 disk/built-in.o
 .text.is_pte_valid
                0x000000004a013878       0x38 disk/built-in.o
 .text.part_print_efi
                0x000000004a0138b0      0x1f8 disk/built-in.o
                0x000000004a0138b0                part_print_efi
 .text.part_get_info_efi
                0x000000004a013aa8      0x170 disk/built-in.o
                0x000000004a013aa8                part_get_info_efi
 .text.get_disk_guid
                0x000000004a013c18       0xa4 disk/built-in.o
                0x000000004a013c18                get_disk_guid
 .text.write_gpt_table
                0x000000004a013cbc      0x384 disk/built-in.o
                0x000000004a013cbc                write_gpt_table
 .text.gpt_fill_pte
                0x000000004a014040      0x25c disk/built-in.o
                0x000000004a014040                gpt_fill_pte
 .text.gpt_fill_header
                0x000000004a01429c      0x1a8 disk/built-in.o
                0x000000004a01429c                gpt_fill_header
 .text.gpt_restore
                0x000000004a014444       0xc8 disk/built-in.o
                0x000000004a014444                gpt_restore
 .text.gpt_verify_headers
                0x000000004a01450c       0x54 disk/built-in.o
                0x000000004a01450c                gpt_verify_headers
 .text.gpt_verify_partitions
                0x000000004a014560      0x178 disk/built-in.o
                0x000000004a014560                gpt_verify_partitions
 .text.device_bind_common.isra.0
                0x000000004a0146d8      0x200 drivers/built-in.o
 .text.alloc_priv
                0x000000004a0148d8       0x38 drivers/built-in.o
 .text.device_bind_with_driver_data
                0x000000004a014910       0x16 drivers/built-in.o
                0x000000004a014910                device_bind_with_driver_data
 .text.device_bind
                0x000000004a014926       0x16 drivers/built-in.o
                0x000000004a014926                device_bind
 .text.device_bind_by_name
                0x000000004a01493c       0x44 drivers/built-in.o
                0x000000004a01493c                device_bind_by_name
 .text.device_probe
                0x000000004a014980      0x140 drivers/built-in.o
                0x000000004a014980                device_probe
 .text.dev_get_platdata
                0x000000004a014ac0       0x20 drivers/built-in.o
                0x000000004a014ac0                dev_get_platdata
 .text.dev_get_parent_platdata
                0x000000004a014ae0       0x20 drivers/built-in.o
                0x000000004a014ae0                dev_get_parent_platdata
 .text.dev_get_uclass_platdata
                0x000000004a014b00       0x20 drivers/built-in.o
                0x000000004a014b00                dev_get_uclass_platdata
 .text.dev_get_priv
                0x000000004a014b20       0x20 drivers/built-in.o
                0x000000004a014b20                dev_get_priv
 .text.dev_get_uclass_priv
                0x000000004a014b40       0x20 drivers/built-in.o
                0x000000004a014b40                dev_get_uclass_priv
 .text.dev_get_parent_priv
                0x000000004a014b60       0x20 drivers/built-in.o
                0x000000004a014b60                dev_get_parent_priv
 .text.device_get_child
                0x000000004a014b80       0x30 drivers/built-in.o
                0x000000004a014b80                device_get_child
 .text.device_find_first_child
                0x000000004a014bb0       0x12 drivers/built-in.o
                0x000000004a014bb0                device_find_first_child
 .text.device_find_next_child
                0x000000004a014bc2       0x16 drivers/built-in.o
                0x000000004a014bc2                device_find_next_child
 .text.dev_get_driver_data
                0x000000004a014bd8        0x4 drivers/built-in.o
                0x000000004a014bd8                dev_get_driver_data
 .text.device_get_uclass_id
                0x000000004a014bdc        0x8 drivers/built-in.o
                0x000000004a014bdc                device_get_uclass_id
 .text.device_has_active_children
                0x000000004a014be4       0x24 drivers/built-in.o
                0x000000004a014be4                device_has_active_children
 .text.device_is_last_sibling
                0x000000004a014c08       0x14 drivers/built-in.o
                0x000000004a014c08                device_is_last_sibling
 .text.devfdt_get_addr_index
                0x000000004a014c1c       0x78 drivers/built-in.o
                0x000000004a014c1c                devfdt_get_addr_index
 .text.devfdt_get_addr_name
                0x000000004a014c94       0x28 drivers/built-in.o
                0x000000004a014c94                devfdt_get_addr_name
 .text.devfdt_get_addr
                0x000000004a014cbc        0x6 drivers/built-in.o
                0x000000004a014cbc                devfdt_get_addr
 .text.devfdt_get_addr_ptr
                0x000000004a014cc2        0x6 drivers/built-in.o
                0x000000004a014cc2                devfdt_get_addr_ptr
 .text.lists_driver_lookup_name
                0x000000004a014cc8       0x2c drivers/built-in.o
                0x000000004a014cc8                lists_driver_lookup_name
 .text.lists_uclass_lookup
                0x000000004a014cf4       0x20 drivers/built-in.o
                0x000000004a014cf4                lists_uclass_lookup
 .text.lists_bind_drivers
                0x000000004a014d14       0x58 drivers/built-in.o
                0x000000004a014d14                lists_bind_drivers
 .text.device_bind_driver_to_node
                0x000000004a014d6c       0x2c drivers/built-in.o
                0x000000004a014d6c                device_bind_driver_to_node
 .text.device_bind_driver
                0x000000004a014d98       0x12 drivers/built-in.o
                0x000000004a014d98                device_bind_driver
 *fill*         0x000000004a014daa        0x2 
 .text.lists_bind_fdt
                0x000000004a014dac       0xd8 drivers/built-in.o
                0x000000004a014dac                lists_bind_fdt
 .text.dm_scan_fdt_node
                0x000000004a014e84       0x90 drivers/built-in.o
 .text.dm_scan_fdt_ofnode_path
                0x000000004a014f14       0x24 drivers/built-in.o
 .text.dm_root  0x000000004a014f38       0x1c drivers/built-in.o
                0x000000004a014f38                dm_root
 .text.dm_get_translation_offset
                0x000000004a014f54        0xe drivers/built-in.o
                0x000000004a014f54                dm_get_translation_offset
 *fill*         0x000000004a014f62        0x2 
 .text.dm_init  0x000000004a014f64       0x4c drivers/built-in.o
                0x000000004a014f64                dm_init
 .text.dm_remove_devices_flags
                0x000000004a014fb0       0x12 drivers/built-in.o
                0x000000004a014fb0                dm_remove_devices_flags
 *fill*         0x000000004a014fc2        0x2 
 .text.dm_scan_platdata
                0x000000004a014fc4       0x20 drivers/built-in.o
                0x000000004a014fc4                dm_scan_platdata
 .text.dm_scan_fdt_dev
                0x000000004a014fe4       0x1c drivers/built-in.o
                0x000000004a014fe4                dm_scan_fdt_dev
 .text.dm_scan_fdt
                0x000000004a015000       0x14 drivers/built-in.o
                0x000000004a015000                dm_scan_fdt
 .text.dm_extended_scan_fdt
                0x000000004a015014       0x30 drivers/built-in.o
                0x000000004a015014                dm_extended_scan_fdt
 .text.dm_scan_other
                0x000000004a015044        0x4 drivers/built-in.o
                0x000000004a015044                dm_scan_other
 .text.dm_init_and_scan
                0x000000004a015048       0x2c drivers/built-in.o
                0x000000004a015048                dm_init_and_scan
 .text.uclass_find
                0x000000004a015074       0x2e drivers/built-in.o
                0x000000004a015074                uclass_find
 .text.uclass_get
                0x000000004a0150a2       0xaa drivers/built-in.o
                0x000000004a0150a2                uclass_get
 .text.dev_get_uclass_index
                0x000000004a01514c       0x36 drivers/built-in.o
                0x000000004a01514c                dev_get_uclass_index
 .text.uclass_find_device
                0x000000004a015182       0x42 drivers/built-in.o
                0x000000004a015182                uclass_find_device
 .text.uclass_find_first_device
                0x000000004a0151c4       0x22 drivers/built-in.o
                0x000000004a0151c4                uclass_find_first_device
 .text.uclass_find_next_device
                0x000000004a0151e6       0x18 drivers/built-in.o
                0x000000004a0151e6                uclass_find_next_device
 .text.uclass_find_device_by_seq
                0x000000004a0151fe       0x54 drivers/built-in.o
                0x000000004a0151fe                uclass_find_device_by_seq
 .text.uclass_find_device_by_of_offset
                0x000000004a015252       0x40 drivers/built-in.o
                0x000000004a015252                uclass_find_device_by_of_offset
 .text.uclass_find_device_by_ofnode
                0x000000004a015292       0x42 drivers/built-in.o
                0x000000004a015292                uclass_find_device_by_ofnode
 .text.uclass_get_device_tail
                0x000000004a0152d4       0x16 drivers/built-in.o
                0x000000004a0152d4                uclass_get_device_tail
 .text.uclass_get_device
                0x000000004a0152ea       0x1c drivers/built-in.o
                0x000000004a0152ea                uclass_get_device
 .text.uclass_get_device_by_seq
                0x000000004a015306       0x32 drivers/built-in.o
                0x000000004a015306                uclass_get_device_by_seq
 .text.uclass_get_device_by_of_offset
                0x000000004a015338       0x1c drivers/built-in.o
                0x000000004a015338                uclass_get_device_by_of_offset
 .text.uclass_get_device_by_ofnode
                0x000000004a015354       0x1c drivers/built-in.o
                0x000000004a015354                uclass_get_device_by_ofnode
 .text.uclass_first_device
                0x000000004a015370       0x1e drivers/built-in.o
                0x000000004a015370                uclass_first_device
 .text.uclass_next_device
                0x000000004a01538e       0x22 drivers/built-in.o
                0x000000004a01538e                uclass_next_device
 .text.uclass_first_device_check
                0x000000004a0153b0       0x1e drivers/built-in.o
                0x000000004a0153b0                uclass_first_device_check
 .text.uclass_next_device_check
                0x000000004a0153ce       0x1a drivers/built-in.o
                0x000000004a0153ce                uclass_next_device_check
 .text.uclass_bind_device
                0x000000004a0153e8       0x3a drivers/built-in.o
                0x000000004a0153e8                uclass_bind_device
 .text.uclass_unbind_device
                0x000000004a015422       0x24 drivers/built-in.o
                0x000000004a015422                uclass_unbind_device
 *fill*         0x000000004a015446        0x2 
 .text.uclass_resolve_seq
                0x000000004a015448       0x68 drivers/built-in.o
                0x000000004a015448                uclass_resolve_seq
 .text.uclass_pre_probe_device
                0x000000004a0154b0       0x2e drivers/built-in.o
                0x000000004a0154b0                uclass_pre_probe_device
 .text.uclass_post_probe_device
                0x000000004a0154de        0xe drivers/built-in.o
                0x000000004a0154de                uclass_post_probe_device
 .text.uclass_pre_remove_device
                0x000000004a0154ec        0xe drivers/built-in.o
                0x000000004a0154ec                uclass_pre_remove_device
 .text.dm_warn  0x000000004a0154fa       0x1a drivers/built-in.o
                0x000000004a0154fa                dm_warn
 .text.dm_fdt_pre_reloc
                0x000000004a015514       0x44 drivers/built-in.o
                0x000000004a015514                dm_fdt_pre_reloc
 .text.device_unbind
                0x000000004a015558       0x96 drivers/built-in.o
                0x000000004a015558                device_unbind
 .text.device_chld_unbind
                0x000000004a0155ee       0x3c drivers/built-in.o
                0x000000004a0155ee                device_chld_unbind
 .text.device_free
                0x000000004a01562a       0x44 drivers/built-in.o
                0x000000004a01562a                device_free
 *fill*         0x000000004a01566e        0x2 
 .text.device_remove
                0x000000004a015670       0xcc drivers/built-in.o
                0x000000004a015670                device_remove
 .text.device_chld_remove
                0x000000004a01573c       0x3c drivers/built-in.o
                0x000000004a01573c                device_chld_remove
 .text.simple_bus_post_bind
                0x000000004a015778       0x34 drivers/built-in.o
 .text.show_devices
                0x000000004a0157ac       0xb8 drivers/built-in.o
 .text.dm_dump_all
                0x000000004a015864       0x30 drivers/built-in.o
                0x000000004a015864                dm_dump_all
 .text.dm_dump_uclass
                0x000000004a015894       0xa4 drivers/built-in.o
                0x000000004a015894                dm_dump_uclass
 .text.ofnode_read_u32
                0x000000004a015938       0x2e drivers/built-in.o
                0x000000004a015938                ofnode_read_u32
 .text.ofnode_read_u32_default
                0x000000004a015966       0x12 drivers/built-in.o
                0x000000004a015966                ofnode_read_u32_default
 .text.ofnode_read_u32_array
                0x000000004a015978       0x18 drivers/built-in.o
                0x000000004a015978                ofnode_read_u32_array
 .text.ofnode_get_parent
                0x000000004a015990       0x10 drivers/built-in.o
                0x000000004a015990                ofnode_get_parent
 .text.ofnode_get_name
                0x000000004a0159a0        0xe drivers/built-in.o
                0x000000004a0159a0                ofnode_get_name
 .text.ofnode_stringlist_search
                0x000000004a0159ae       0x26 drivers/built-in.o
                0x000000004a0159ae                ofnode_stringlist_search
 .text.ofnode_parse_phandle_with_args
                0x000000004a0159d4       0x3e drivers/built-in.o
                0x000000004a0159d4                ofnode_parse_phandle_with_args
 .text.ofnode_path
                0x000000004a015a12       0x10 drivers/built-in.o
                0x000000004a015a12                ofnode_path
 .text.ofnode_get_property
                0x000000004a015a22       0x14 drivers/built-in.o
                0x000000004a015a22                ofnode_get_property
 *fill*         0x000000004a015a36        0x2 
 .text.generic_phy_get_by_index
                0x000000004a015a38       0xac drivers/built-in.o
                0x000000004a015a38                generic_phy_get_by_index
 .text.generic_phy_get_by_name
                0x000000004a015ae4       0x28 drivers/built-in.o
                0x000000004a015ae4                generic_phy_get_by_name
 .text.generic_phy_init
                0x000000004a015b0c       0x10 drivers/built-in.o
                0x000000004a015b0c                generic_phy_init
 .text.generic_phy_exit
                0x000000004a015b1c       0x10 drivers/built-in.o
                0x000000004a015b1c                generic_phy_exit
 .text.generic_phy_power_on
                0x000000004a015b2c       0x10 drivers/built-in.o
                0x000000004a015b2c                generic_phy_power_on
 .text.generic_phy_power_off
                0x000000004a015b3c       0x10 drivers/built-in.o
                0x000000004a015b3c                generic_phy_power_off
 .text.get_desc
                0x000000004a015b4c       0x3a drivers/built-in.o
 *fill*         0x000000004a015b86        0x2 
 .text.blk_driver_lookup_type
                0x000000004a015b88       0x20 drivers/built-in.o
                0x000000004a015b88                blk_driver_lookup_type
 .text.blk_get_if_type_name
                0x000000004a015ba8        0xc drivers/built-in.o
                0x000000004a015ba8                blk_get_if_type_name
 .text.blk_list_part
                0x000000004a015bb4       0x52 drivers/built-in.o
                0x000000004a015bb4                blk_list_part
 .text.blk_print_part_devnum
                0x000000004a015c06       0x34 drivers/built-in.o
                0x000000004a015c06                blk_print_part_devnum
 *fill*         0x000000004a015c3a        0x2 
 .text.blk_list_devices
                0x000000004a015c3c       0x44 drivers/built-in.o
                0x000000004a015c3c                blk_list_devices
 .text.blk_print_device_num
                0x000000004a015c80       0x38 drivers/built-in.o
                0x000000004a015c80                blk_print_device_num
 .text.blk_show_device
                0x000000004a015cb8       0x5c drivers/built-in.o
                0x000000004a015cb8                blk_show_device
 .text.blk_get_devnum_by_type
                0x000000004a015d14       0x20 drivers/built-in.o
                0x000000004a015d14                blk_get_devnum_by_type
 .text.blk_dselect_hwpart
                0x000000004a015d34       0x26 drivers/built-in.o
                0x000000004a015d34                blk_dselect_hwpart
 *fill*         0x000000004a015d5a        0x2 
 .text.blk_get_devnum_by_typename
                0x000000004a015d5c       0x3c drivers/built-in.o
                0x000000004a015d5c                blk_get_devnum_by_typename
 .text.blk_read_devnum
                0x000000004a015d98       0x2e drivers/built-in.o
                0x000000004a015d98                blk_read_devnum
 .text.blk_write_devnum
                0x000000004a015dc6       0x2e drivers/built-in.o
                0x000000004a015dc6                blk_write_devnum
 .text.fastboot_response
                0x000000004a015df4       0x3e drivers/built-in.o
                0x000000004a015df4                fastboot_response
 *fill*         0x000000004a015e32        0x2 
 .text.fastboot_fail
                0x000000004a015e34       0x14 drivers/built-in.o
                0x000000004a015e34                fastboot_fail
 .text.fastboot_okay
                0x000000004a015e48       0x1c drivers/built-in.o
                0x000000004a015e48                fastboot_okay
 .text.fastboot_set_reboot_flag
                0x000000004a015e64        0x6 drivers/built-in.o
                0x000000004a015e64                fastboot_set_reboot_flag
 *fill*         0x000000004a015e6a        0x2 
 .text.fastboot_boot
                0x000000004a015e6c       0x60 drivers/built-in.o
                0x000000004a015e6c                fastboot_boot
 .text.fastboot_init
                0x000000004a015ecc       0x2c drivers/built-in.o
                0x000000004a015ecc                fastboot_init
 .text.getvar_downloadsize
                0x000000004a015ef8       0x18 drivers/built-in.o
 .text.getvar_has_slot
                0x000000004a015f10       0x40 drivers/built-in.o
 .text.getvar_slot_suffixes
                0x000000004a015f50        0xc drivers/built-in.o
 .text.getvar_current_slot
                0x000000004a015f5c        0xc drivers/built-in.o
 .text.getvar_product
                0x000000004a015f68       0x28 drivers/built-in.o
 .text.getvar_version_baseband
                0x000000004a015f90        0xc drivers/built-in.o
 .text.getvar_serialno
                0x000000004a015f9c       0x28 drivers/built-in.o
 .text.getvar_bootloader_version
                0x000000004a015fc4        0xc drivers/built-in.o
 .text.getvar_version
                0x000000004a015fd0        0xc drivers/built-in.o
 .text.fastboot_getvar
                0x000000004a015fdc       0x88 drivers/built-in.o
                0x000000004a015fdc                fastboot_getvar
 .text.reboot_bootloader
                0x000000004a016064       0x24 drivers/built-in.o
 .text.okay     0x000000004a016088        0x6 drivers/built-in.o
 *fill*         0x000000004a01608e        0x2 
 .text.download
                0x000000004a016090       0x70 drivers/built-in.o
 .text.getvar   0x000000004a016100        0x4 drivers/built-in.o
 .text.fastboot_handle_command
                0x000000004a016104       0x60 drivers/built-in.o
                0x000000004a016104                fastboot_handle_command
 .text.fastboot_data_remaining
                0x000000004a016164       0x14 drivers/built-in.o
                0x000000004a016164                fastboot_data_remaining
 .text.fastboot_data_download
                0x000000004a016178       0x6c drivers/built-in.o
                0x000000004a016178                fastboot_data_download
 .text.fastboot_data_complete
                0x000000004a0161e4       0x38 drivers/built-in.o
                0x000000004a0161e4                fastboot_data_complete
 .text.sun4i_usb_phy_write
                0x000000004a01621c       0xa6 drivers/built-in.o
 *fill*         0x000000004a0162c2        0x2 
 .text.sun4i_usb_phy_passby
                0x000000004a0162c4       0x54 drivers/built-in.o
 .text.sun4i_usb_phy_exit
                0x000000004a016318       0x50 drivers/built-in.o
 .text.sun4i_usb_phy_xlate
                0x000000004a016368       0x2c drivers/built-in.o
 .text.sun4i_usb_phy_power_off
                0x000000004a016394       0x2a drivers/built-in.o
 *fill*         0x000000004a0163be        0x2 
 .text.sun4i_usb_phy_power_on
                0x000000004a0163c0       0x4c drivers/built-in.o
 .text.sun4i_usb_phy_probe
                0x000000004a01640c      0x120 drivers/built-in.o
 .text.sun4i_usb_phy_init
                0x000000004a01652c       0xb4 drivers/built-in.o
 .text.sun4i_usb_phy_vbus_detect
                0x000000004a0165e0       0x42 drivers/built-in.o
                0x000000004a0165e0                sun4i_usb_phy_vbus_detect
 .text.sun4i_usb_phy_id_detect
                0x000000004a016622       0x24 drivers/built-in.o
                0x000000004a016622                sun4i_usb_phy_id_detect
 .text.sun4i_usb_phy_set_squelch_detect
                0x000000004a016646       0x10 drivers/built-in.o
                0x000000004a016646                sun4i_usb_phy_set_squelch_detect
 *fill*         0x000000004a016656        0x2 
 .text.video_drawchars
                0x000000004a016658      0x2f8 drivers/built-in.o
 .text.video_invertchar
                0x000000004a016950       0x48 drivers/built-in.o
 .text.console_cursor_fix
                0x000000004a016998       0x4c drivers/built-in.o
 .text.console_cursor_set_position
                0x000000004a0169e4       0x20 drivers/built-in.o
 .text.console_swap_colors
                0x000000004a016a04       0x20 drivers/built-in.o
 .text.console_clear_line
                0x000000004a016a24       0x74 drivers/built-in.o
 .text.console_newline
                0x000000004a016a98       0x6c drivers/built-in.o
 .text.board_cfb_skip
                0x000000004a016b04        0x4 drivers/built-in.o
                0x000000004a016b04                board_cfb_skip
 .text.console_cursor
                0x000000004a016b08       0x80 drivers/built-in.o
                0x000000004a016b08                console_cursor
 .text.video_set_cursor
                0x000000004a016b88       0x1c drivers/built-in.o
 .text.parse_putc
                0x000000004a016ba4       0xe0 drivers/built-in.o
 .text.cfb_video_putc
                0x000000004a016c84      0x2d0 drivers/built-in.o
 .text.cfb_video_puts
                0x000000004a016f54       0x4c drivers/built-in.o
 .text.video_set_lut
                0x000000004a016fa0        0x2 drivers/built-in.o
                0x000000004a016fa0                video_set_lut
 *fill*         0x000000004a016fa2        0x2 
 .text.plot_logo_or_black
                0x000000004a016fa4      0x11c drivers/built-in.o
 .text.do_clrlogo
                0x000000004a0170c0       0x24 drivers/built-in.o
 .text.video_clear
                0x000000004a0170e4       0x34 drivers/built-in.o
                0x000000004a0170e4                video_clear
 .text.board_video_skip
                0x000000004a017118        0x4 drivers/built-in.o
                0x000000004a017118                board_video_skip
 .text.drv_video_init
                0x000000004a01711c      0x1e0 drivers/built-in.o
                0x000000004a01711c                drv_video_init
 .text.sunxi_is_composite
                0x000000004a0172fc       0x18 drivers/built-in.o
 .text.board_get_usable_ram_top
                0x000000004a017314        0xa drivers/built-in.o
                0x000000004a017314                board_get_usable_ram_top
 *fill*         0x000000004a01731e        0x2 
 .text.video_hw_init
                0x000000004a017320      0x564 drivers/built-in.o
                0x000000004a017320                video_hw_init
 .text.sunxi_simplefb_setup
                0x000000004a017884       0xc4 drivers/built-in.o
                0x000000004a017884                sunxi_simplefb_setup
 .text.sunxi_simplefb_fdt_match
                0x000000004a017948       0x4c drivers/built-in.o
                0x000000004a017948                sunxi_simplefb_fdt_match
 .text.lcdc_init
                0x000000004a017994       0x2c drivers/built-in.o
                0x000000004a017994                lcdc_init
 .text.lcdc_enable
                0x000000004a0179c0        0xa drivers/built-in.o
                0x000000004a0179c0                lcdc_enable
 *fill*         0x000000004a0179ca        0x2 
 .text.lcdc_tcon0_mode_set
                0x000000004a0179cc      0x14c drivers/built-in.o
                0x000000004a0179cc                lcdc_tcon0_mode_set
 .text.lcdc_pll_set
                0x000000004a017b18      0x114 drivers/built-in.o
                0x000000004a017b18                lcdc_pll_set
 .text.video_get_param_len.constprop.1
                0x000000004a017c2c       0x12 drivers/built-in.o
 *fill*         0x000000004a017c3e        0x2 
 .text.video_get_video_mode
                0x000000004a017c40       0xd0 drivers/built-in.o
                0x000000004a017c40                video_get_video_mode
 .text.video_get_ctfb_res_modes
                0x000000004a017d10       0x8c drivers/built-in.o
                0x000000004a017d10                video_get_ctfb_res_modes
 .text.video_get_option_string
                0x000000004a017d9c       0x6c drivers/built-in.o
                0x000000004a017d9c                video_get_option_string
 .text.video_get_option_int
                0x000000004a017e08       0x52 drivers/built-in.o
                0x000000004a017e08                video_get_option_int
 .text.keyboard_start
                0x000000004a017e5a       0x10 drivers/built-in.o
 .text.keyboard_stop
                0x000000004a017e6a       0x10 drivers/built-in.o
 *fill*         0x000000004a017e7a        0x2 
 .text.keyboard_pre_probe
                0x000000004a017e7c       0x48 drivers/built-in.o
 .text.keyboard_tstc
                0x000000004a017ec4       0x2e drivers/built-in.o
 .text.keyboard_getc
                0x000000004a017ef2       0x2e drivers/built-in.o
 .text.input_tstc
                0x000000004a017f20       0x28 drivers/built-in.o
                0x000000004a017f20                input_tstc
 .text.input_getc
                0x000000004a017f48       0x34 drivers/built-in.o
                0x000000004a017f48                input_getc
 .text.input_init
                0x000000004a017f7c       0x14 drivers/built-in.o
                0x000000004a017f7c                input_init
 .text.axp_get_gpio_ctrl_reg
                0x000000004a017f90       0x10 drivers/gpio/built-in.o
 .text.axp_gpio_get_value
                0x000000004a017fa0       0x58 drivers/gpio/built-in.o
 .text.gpio_axp_probe
                0x000000004a017ff8       0x1c drivers/gpio/built-in.o
 .text.axp_gpio_set_value
                0x000000004a018014       0x38 drivers/gpio/built-in.o
 .text.axp_gpio_direction_output
                0x000000004a01804c       0x40 drivers/gpio/built-in.o
 .text.axp_gpio_direction_input
                0x000000004a01808c       0x22 drivers/gpio/built-in.o
 *fill*         0x000000004a0180ae        0x2 
 .text.axp_gpio_init
                0x000000004a0180b0       0x24 drivers/gpio/built-in.o
                0x000000004a0180b0                axp_gpio_init
 .text.gpio_post_bind
                0x000000004a0180d4        0x4 drivers/gpio/built-in.o
 .text.get_function
                0x000000004a0180d8       0x5e drivers/gpio/built-in.o
 .text.gpio_to_device
                0x000000004a018136       0x4a drivers/gpio/built-in.o
 .text.check_reserved
                0x000000004a018180       0x4c drivers/gpio/built-in.o
 .text.gpio_renumber
                0x000000004a0181cc       0x46 drivers/gpio/built-in.o
 .text.gpio_pre_remove
                0x000000004a018212       0x30 drivers/gpio/built-in.o
 .text.gpio_post_probe
                0x000000004a018242       0x24 drivers/gpio/built-in.o
 *fill*         0x000000004a018266        0x2 
 .text.dm_gpio_lookup_name
                0x000000004a018268       0xa0 drivers/gpio/built-in.o
                0x000000004a018268                dm_gpio_lookup_name
 .text.gpio_lookup_name
                0x000000004a018308       0x3c drivers/gpio/built-in.o
                0x000000004a018308                gpio_lookup_name
 .text.dm_gpio_request
                0x000000004a018344       0x5e drivers/gpio/built-in.o
                0x000000004a018344                dm_gpio_request
 .text.gpio_request
                0x000000004a0183a2       0x18 drivers/gpio/built-in.o
                0x000000004a0183a2                gpio_request
 .text._dm_gpio_free
                0x000000004a0183ba       0x42 drivers/gpio/built-in.o
                0x000000004a0183ba                _dm_gpio_free
 .text.gpio_free
                0x000000004a0183fc       0x18 drivers/gpio/built-in.o
                0x000000004a0183fc                gpio_free
 .text.gpio_direction_input
                0x000000004a018414       0x2c drivers/gpio/built-in.o
                0x000000004a018414                gpio_direction_input
 .text.gpio_direction_output
                0x000000004a018440       0x2c drivers/gpio/built-in.o
                0x000000004a018440                gpio_direction_output
 .text.dm_gpio_get_value
                0x000000004a01846c       0x2c drivers/gpio/built-in.o
                0x000000004a01846c                dm_gpio_get_value
 .text.dm_gpio_set_value
                0x000000004a018498       0x34 drivers/gpio/built-in.o
                0x000000004a018498                dm_gpio_set_value
 .text.gpio_get_value
                0x000000004a0184cc       0x16 drivers/gpio/built-in.o
                0x000000004a0184cc                gpio_get_value
 .text.gpio_set_value
                0x000000004a0184e2       0x18 drivers/gpio/built-in.o
                0x000000004a0184e2                gpio_set_value
 .text.gpio_get_bank_info
                0x000000004a0184fa       0x10 drivers/gpio/built-in.o
                0x000000004a0184fa                gpio_get_bank_info
 .text.gpio_get_function
                0x000000004a01850a        0x8 drivers/gpio/built-in.o
                0x000000004a01850a                gpio_get_function
 .text.gpio_get_raw_function
                0x000000004a018512        0x8 drivers/gpio/built-in.o
                0x000000004a018512                gpio_get_raw_function
 *fill*         0x000000004a01851a        0x2 
 .text.gpio_get_status
                0x000000004a01851c       0xb8 drivers/gpio/built-in.o
                0x000000004a01851c                gpio_get_status
 .text.sunxi_gpio_set_value
                0x000000004a0185d4       0x28 drivers/gpio/built-in.o
 .text.sunxi_gpio_get_value
                0x000000004a0185fc       0x1c drivers/gpio/built-in.o
 .text.sunxi_gpio_get_function
                0x000000004a018618       0x1c drivers/gpio/built-in.o
 .text.sunxi_gpio_direction_output
                0x000000004a018634       0x34 drivers/gpio/built-in.o
 .text.sunxi_gpio_direction_input
                0x000000004a018668       0x16 drivers/gpio/built-in.o
 .text.gpio_sunxi_probe
                0x000000004a01867e       0x1e drivers/gpio/built-in.o
 .text.gpio_sunxi_bind
                0x000000004a01869c       0x88 drivers/gpio/built-in.o
 .text.sunxi_gpio_xlate
                0x000000004a018724       0x20 drivers/gpio/built-in.o
 .text.sunxi_name_to_gpio
                0x000000004a018744       0x48 drivers/gpio/built-in.o
                0x000000004a018744                sunxi_name_to_gpio
 .text.axp_get_sid
                0x000000004a01878c       0x4c drivers/power/built-in.o
                0x000000004a01878c                axp_get_sid
 .text.do_poweroff
                0x000000004a0187d8        0xc drivers/power/built-in.o
                0x000000004a0187d8                do_poweroff
 .text._serial_putc
                0x000000004a0187e4       0x22 drivers/serial/built-in.o
 .text.__serial_getc
                0x000000004a018806       0x1a drivers/serial/built-in.o
 .text.__serial_tstc
                0x000000004a018820       0x10 drivers/serial/built-in.o
 .text.serial_stub_putc
                0x000000004a018830        0x6 drivers/serial/built-in.o
 .text.serial_stub_getc
                0x000000004a018836        0x6 drivers/serial/built-in.o
 .text.serial_stub_tstc
                0x000000004a01883c        0x6 drivers/serial/built-in.o
 .text.serial_pre_remove
                0x000000004a018842       0x18 drivers/serial/built-in.o
 *fill*         0x000000004a01885a        0x2 
 .text.serial_post_probe
                0x000000004a01885c       0x74 drivers/serial/built-in.o
 .text.serial_stub_puts
                0x000000004a0188d0       0x16 drivers/serial/built-in.o
 *fill*         0x000000004a0188e6        0x2 
 .text.serial_init
                0x000000004a0188e8       0xd8 drivers/serial/built-in.o
                0x000000004a0188e8                serial_init
 .text.serial_initialize
                0x000000004a0189c0        0x4 drivers/serial/built-in.o
                0x000000004a0189c0                serial_initialize
 .text.serial_putc
                0x000000004a0189c4       0x12 drivers/serial/built-in.o
                0x000000004a0189c4                serial_putc
 .text.serial_puts
                0x000000004a0189d6       0x1e drivers/serial/built-in.o
                0x000000004a0189d6                serial_puts
 .text.serial_getc
                0x000000004a0189f4       0x10 drivers/serial/built-in.o
                0x000000004a0189f4                serial_getc
 .text.serial_tstc
                0x000000004a018a04       0x10 drivers/serial/built-in.o
                0x000000004a018a04                serial_tstc
 .text.serial_setbrg
                0x000000004a018a14       0x1e drivers/serial/built-in.o
                0x000000004a018a14                serial_setbrg
 *fill*         0x000000004a018a32        0x2 
 .text.on_baudrate
                0x000000004a018a34       0x9c drivers/serial/built-in.o
 .text.serial_stdio_init
                0x000000004a018ad0        0x2 drivers/serial/built-in.o
                0x000000004a018ad0                serial_stdio_init
 *fill*         0x000000004a018ad2        0x2 
 .text.ns16550_serial_ofdata_to_platdata
                0x000000004a018ad4       0x6c drivers/serial/built-in.o
                0x000000004a018ad4                ns16550_serial_ofdata_to_platdata
 .text.ns16550_writeb.isra.0
                0x000000004a018b40       0x14 drivers/serial/built-in.o
 .text.NS16550_setbrg
                0x000000004a018b54       0x34 drivers/serial/built-in.o
 .text.ns16550_serial_setbrg
                0x000000004a018b88       0x24 drivers/serial/built-in.o
 .text.ns16550_readb.isra.1
                0x000000004a018bac       0x14 drivers/serial/built-in.o
 .text.ns16550_serial_pending
                0x000000004a018bc0       0x28 drivers/serial/built-in.o
 .text.ns16550_serial_putc
                0x000000004a018be8       0x2a drivers/serial/built-in.o
 .text.ns16550_serial_getc
                0x000000004a018c12       0x26 drivers/serial/built-in.o
 .text.NS16550_init
                0x000000004a018c38       0x42 drivers/serial/built-in.o
                0x000000004a018c38                NS16550_init
 .text.ns16550_serial_probe
                0x000000004a018c7a       0x20 drivers/serial/built-in.o
                0x000000004a018c7a                ns16550_serial_probe
 *fill*         0x000000004a018c9a        0x2 
 .text.usb_ep_autoconfig
                0x000000004a018c9c      0x118 drivers/usb/gadget/built-in.o
                0x000000004a018c9c                usb_ep_autoconfig
 .text.usb_ep_autoconfig_reset
                0x000000004a018db4       0x28 drivers/usb/gadget/built-in.o
                0x000000004a018db4                usb_ep_autoconfig_reset
 .text.usb_descriptor_fillbuf
                0x000000004a018ddc       0x36 drivers/usb/gadget/built-in.o
                0x000000004a018ddc                usb_descriptor_fillbuf
 .text.usb_gadget_config_buf
                0x000000004a018e12       0x54 drivers/usb/gadget/built-in.o
                0x000000004a018e12                usb_gadget_config_buf
 .text.usb_gadget_get_string
                0x000000004a018e66       0xe2 drivers/usb/gadget/built-in.o
                0x000000004a018e66                usb_gadget_get_string
 .text.count_configs
                0x000000004a018f48       0x48 drivers/usb/gadget/built-in.o
 .text.collect_langs
                0x000000004a018f90       0x2a drivers/usb/gadget/built-in.o
 .text.composite_setup_complete
                0x000000004a018fba        0x2 drivers/usb/gadget/built-in.o
 .text.composite_suspend
                0x000000004a018fbc       0x40 drivers/usb/gadget/built-in.o
 .text.composite_resume
                0x000000004a018ffc       0x40 drivers/usb/gadget/built-in.o
 .text.g_dnl_unbind
                0x000000004a01903c       0x12 drivers/usb/gadget/built-in.o
 .text.lookup_string
                0x000000004a01904e       0x2a drivers/usb/gadget/built-in.o
 .text.composite_unbind
                0x000000004a019078       0xb4 drivers/usb/gadget/built-in.o
 .text.composite_bind
                0x000000004a01912c       0xac drivers/usb/gadget/built-in.o
 .text.g_dnl_do_config
                0x000000004a0191d8       0x28 drivers/usb/gadget/built-in.o
 .text.reset_config.isra.0
                0x000000004a019200       0x2e drivers/usb/gadget/built-in.o
 *fill*         0x000000004a01922e        0x2 
 .text.composite_disconnect
                0x000000004a019230       0x28 drivers/usb/gadget/built-in.o
 .text.composite_setup
                0x000000004a019258      0x538 drivers/usb/gadget/built-in.o
 .text.usb_add_function
                0x000000004a019790       0x74 drivers/usb/gadget/built-in.o
                0x000000004a019790                usb_add_function
 .text.usb_interface_id
                0x000000004a019804       0x20 drivers/usb/gadget/built-in.o
                0x000000004a019804                usb_interface_id
 .text.usb_add_config
                0x000000004a019824       0x7c drivers/usb/gadget/built-in.o
                0x000000004a019824                usb_add_config
 .text.usb_string_id
                0x000000004a0198a0       0x1a drivers/usb/gadget/built-in.o
                0x000000004a0198a0                usb_string_id
 *fill*         0x000000004a0198ba        0x2 
 .text.usb_composite_register
                0x000000004a0198bc       0x3c drivers/usb/gadget/built-in.o
                0x000000004a0198bc                usb_composite_register
 .text.usb_composite_unregister
                0x000000004a0198f8       0x20 drivers/usb/gadget/built-in.o
                0x000000004a0198f8                usb_composite_unregister
 .text.g_dnl_set_serialnumber
                0x000000004a019918       0x24 drivers/usb/gadget/built-in.o
                0x000000004a019918                g_dnl_set_serialnumber
 .text.on_serialno
                0x000000004a01993c        0xc drivers/usb/gadget/built-in.o
 .text.g_dnl_bind_fixup
                0x000000004a019948        0x4 drivers/usb/gadget/built-in.o
                0x000000004a019948                g_dnl_bind_fixup
 .text.g_dnl_get_board_bcd_device_number
                0x000000004a01994c        0x2 drivers/usb/gadget/built-in.o
                0x000000004a01994c                g_dnl_get_board_bcd_device_number
 *fill*         0x000000004a01994e        0x2 
 .text.g_dnl_bind
                0x000000004a019950       0xf0 drivers/usb/gadget/built-in.o
 .text.g_dnl_detach
                0x000000004a019a40        0xc drivers/usb/gadget/built-in.o
                0x000000004a019a40                g_dnl_detach
 .text.g_dnl_trigger_detach
                0x000000004a019a4c        0xc drivers/usb/gadget/built-in.o
                0x000000004a019a4c                g_dnl_trigger_detach
 .text.g_dnl_clear_detach
                0x000000004a019a58        0xc drivers/usb/gadget/built-in.o
                0x000000004a019a58                g_dnl_clear_detach
 .text.g_dnl_register
                0x000000004a019a64       0x2c drivers/usb/gadget/built-in.o
                0x000000004a019a64                g_dnl_register
 .text.g_dnl_unregister
                0x000000004a019a90        0xc drivers/usb/gadget/built-in.o
                0x000000004a019a90                g_dnl_unregister
 .text.raise_exception
                0x000000004a019a9c       0x1a drivers/usb/gadget/built-in.o
 .text.ep0_queue
                0x000000004a019ab6       0x16 drivers/usb/gadget/built-in.o
 .text.fsg_set_alt
                0x000000004a019acc       0x12 drivers/usb/gadget/built-in.o
 .text.fsg_disable
                0x000000004a019ade        0xe drivers/usb/gadget/built-in.o
 .text.fsg_setup
                0x000000004a019aec       0x9c drivers/usb/gadget/built-in.o
 .text.fsg_unbind
                0x000000004a019b88       0x2e drivers/usb/gadget/built-in.o
 *fill*         0x000000004a019bb6        0x2 
 .text.fsg_add  0x000000004a019bb8      0x21c drivers/usb/gadget/built-in.o
                0x000000004a019bb8                fsg_add
 .text.usb_copy_descriptors
                0x000000004a019dd4       0x4a drivers/usb/gadget/built-in.o
                0x000000004a019dd4                usb_copy_descriptors
 *fill*         0x000000004a019e1e        0x2 
 .text.fsg_bind
                0x000000004a019e20       0x94 drivers/usb/gadget/built-in.o
 .text.fastboot_start_ep
                0x000000004a019eb4       0x3c drivers/usb/gadget/built-in.o
 .text.fastboot_unbind
                0x000000004a019ef0       0x10 drivers/usb/gadget/built-in.o
 .text.fastboot_add
                0x000000004a019f00       0x74 drivers/usb/gadget/built-in.o
 .text.fastboot_disable
                0x000000004a019f74       0x46 drivers/usb/gadget/built-in.o
 *fill*         0x000000004a019fba        0x2 
 .text.fastboot_set_alt
                0x000000004a019fbc       0xbc drivers/usb/gadget/built-in.o
 .text.fastboot_complete
                0x000000004a01a078       0x18 drivers/usb/gadget/built-in.o
 .text.compl_do_reset
                0x000000004a01a090        0xc drivers/usb/gadget/built-in.o
 .text.do_exit_on_complete
                0x000000004a01a09c        0x4 drivers/usb/gadget/built-in.o
 .text.do_bootm_on_complete
                0x000000004a01a0a0        0xe drivers/usb/gadget/built-in.o
 .text.rx_bytes_expected
                0x000000004a01a0ae       0x2e drivers/usb/gadget/built-in.o
 .text.fastboot_tx_write_str
                0x000000004a01a0dc       0x4c drivers/usb/gadget/built-in.o
 .text.rx_handler_command
                0x000000004a01a128       0xd4 drivers/usb/gadget/built-in.o
 .text.rx_handler_dl_image
                0x000000004a01a1fc       0x7c drivers/usb/gadget/built-in.o
 .text.fastboot_bind
                0x000000004a01a278       0xa8 drivers/usb/gadget/built-in.o
 .text.eth_setup_complete
                0x000000004a01a320        0x2 drivers/usb/gadget/built-in.o
 *fill*         0x000000004a01a322        0x2 
 .text.tx_complete
                0x000000004a01a324       0x34 drivers/usb/gadget/built-in.o
 .text.eth_suspend
                0x000000004a01a358        0x2 drivers/usb/gadget/built-in.o
 *fill*         0x000000004a01a35a        0x2 
 .text.nibble   0x000000004a01a35c       0x2c drivers/usb/gadget/built-in.o
 .text.usb_eth_recv
                0x000000004a01a388       0x44 drivers/usb/gadget/built-in.o
 .text.rx_complete
                0x000000004a01a3cc       0x88 drivers/usb/gadget/built-in.o
 .text.usb_eth_send
                0x000000004a01a454       0xe0 drivers/usb/gadget/built-in.o
 .text.rndis_command_complete
                0x000000004a01a534       0x28 drivers/usb/gadget/built-in.o
 .text.eth_unbind
                0x000000004a01a55c       0x5a drivers/usb/gadget/built-in.o
 *fill*         0x000000004a01a5b6        0x2 
 .text.rndis_control_ack_complete
                0x000000004a01a5b8       0x4c drivers/usb/gadget/built-in.o
 .text.rndis_control_ack
                0x000000004a01a604       0x68 drivers/usb/gadget/built-in.o
 .text.eth_reset_config
                0x000000004a01a66c       0x6c drivers/usb/gadget/built-in.o
 .text.eth_disconnect
                0x000000004a01a6d8        0x6 drivers/usb/gadget/built-in.o
 *fill*         0x000000004a01a6de        0x2 
 .text.set_ether_config.isra.5
                0x000000004a01a6e0      0x138 drivers/usb/gadget/built-in.o
 .text.get_ether_addr
                0x000000004a01a818       0x68 drivers/usb/gadget/built-in.o
 .text.eth_bind
                0x000000004a01a880      0x330 drivers/usb/gadget/built-in.o
 .text.usb_eth_probe
                0x000000004a01abb0       0x3c drivers/usb/gadget/built-in.o
 .text.is_eth_addr_valid.part.8
                0x000000004a01abec       0x6c drivers/usb/gadget/built-in.o
 .text.rx_submit.constprop.10
                0x000000004a01ac58       0x64 drivers/usb/gadget/built-in.o
 .text.usb_eth_free_pkt
                0x000000004a01acbc       0x1c drivers/usb/gadget/built-in.o
 .text.eth_setup
                0x000000004a01acd8      0x2e0 drivers/usb/gadget/built-in.o
 .text.rndis_response_complete
                0x000000004a01afb8        0x2 drivers/usb/gadget/built-in.o
 .text.eth_resume
                0x000000004a01afba        0x2 drivers/usb/gadget/built-in.o
 .text.dm_usb_init
                0x000000004a01afbc       0x2c drivers/usb/gadget/built-in.o
                0x000000004a01afbc                dm_usb_init
 .text.usb_eth_start
                0x000000004a01afe8      0x198 drivers/usb/gadget/built-in.o
 .text._usb_eth_halt
                0x000000004a01b180       0x6c drivers/usb/gadget/built-in.o
                0x000000004a01b180                _usb_eth_halt
 .text.usb_eth_stop
                0x000000004a01b1ec        0xe drivers/usb/gadget/built-in.o
 *fill*         0x000000004a01b1fa        0x2 
 .text.usb_ether_init
                0x000000004a01b1fc       0x44 drivers/usb/gadget/built-in.o
                0x000000004a01b1fc                usb_ether_init
 .text.rndis_add_response
                0x000000004a01b240       0x38 drivers/usb/gadget/built-in.o
 .text.rndis_signal_connect
                0x000000004a01b278       0x54 drivers/usb/gadget/built-in.o
                0x000000004a01b278                rndis_signal_connect
 .text.rndis_signal_disconnect
                0x000000004a01b2cc       0x14 drivers/usb/gadget/built-in.o
                0x000000004a01b2cc                rndis_signal_disconnect
 .text.rndis_set_host_mac
                0x000000004a01b2e0       0x10 drivers/usb/gadget/built-in.o
                0x000000004a01b2e0                rndis_set_host_mac
 .text.rndis_get_state
                0x000000004a01b2f0       0x14 drivers/usb/gadget/built-in.o
                0x000000004a01b2f0                rndis_get_state
 .text.rndis_msg_parser
                0x000000004a01b304      0x480 drivers/usb/gadget/built-in.o
                0x000000004a01b304                rndis_msg_parser
 .text.rndis_register
                0x000000004a01b784       0x1c drivers/usb/gadget/built-in.o
                0x000000004a01b784                rndis_register
 .text.rndis_deregister
                0x000000004a01b7a0       0x18 drivers/usb/gadget/built-in.o
                0x000000004a01b7a0                rndis_deregister
 .text.rndis_set_param_dev
                0x000000004a01b7b8       0x20 drivers/usb/gadget/built-in.o
                0x000000004a01b7b8                rndis_set_param_dev
 .text.rndis_set_param_vendor
                0x000000004a01b7d8       0x18 drivers/usb/gadget/built-in.o
                0x000000004a01b7d8                rndis_set_param_vendor
 .text.rndis_set_param_medium
                0x000000004a01b7f0       0x14 drivers/usb/gadget/built-in.o
                0x000000004a01b7f0                rndis_set_param_medium
 .text.rndis_add_hdr
                0x000000004a01b804       0x4e drivers/usb/gadget/built-in.o
                0x000000004a01b804                rndis_add_hdr
 *fill*         0x000000004a01b852        0x2 
 .text.rndis_free_response
                0x000000004a01b854       0x40 drivers/usb/gadget/built-in.o
                0x000000004a01b854                rndis_free_response
 .text.rndis_get_next_response
                0x000000004a01b894       0x3c drivers/usb/gadget/built-in.o
                0x000000004a01b894                rndis_get_next_response
 .text.rndis_uninit
                0x000000004a01b8d0       0x30 drivers/usb/gadget/built-in.o
                0x000000004a01b8d0                rndis_uninit
 .text.rndis_rm_hdr
                0x000000004a01b900       0x5e drivers/usb/gadget/built-in.o
                0x000000004a01b900                rndis_rm_hdr
 *fill*         0x000000004a01b95e        0x2 
 .text.rndis_init
                0x000000004a01b960       0x1c drivers/usb/gadget/built-in.o
                0x000000004a01b960                rndis_init
 .text.rndis_exit
                0x000000004a01b97c        0x2 drivers/usb/gadget/built-in.o
                0x000000004a01b97c                rndis_exit
 .text.usb_match_device
                0x000000004a01b97e       0x7c drivers/usb/host/built-in.o
 *fill*         0x000000004a01b9fa        0x2 
 .text.usb_child_post_bind
                0x000000004a01b9fc       0x50 drivers/usb/host/built-in.o
 .text.usb_match_one_id_intf.isra.0
                0x000000004a01ba4c       0x50 drivers/usb/host/built-in.o
 .text.remove_inactive_children.isra.2
                0x000000004a01ba9c       0x46 drivers/usb/host/built-in.o
 *fill*         0x000000004a01bae2        0x2 
 .text.usb_disable_asynch
                0x000000004a01bae4       0x14 drivers/usb/host/built-in.o
                0x000000004a01bae4                usb_disable_asynch
 .text.submit_int_msg
                0x000000004a01baf8       0x28 drivers/usb/host/built-in.o
                0x000000004a01baf8                submit_int_msg
 .text.submit_control_msg
                0x000000004a01bb20       0x4e drivers/usb/host/built-in.o
                0x000000004a01bb20                submit_control_msg
 .text.submit_bulk_msg
                0x000000004a01bb6e       0x24 drivers/usb/host/built-in.o
                0x000000004a01bb6e                submit_bulk_msg
 .text.create_int_queue
                0x000000004a01bb92       0x2a drivers/usb/host/built-in.o
                0x000000004a01bb92                create_int_queue
 .text.poll_int_queue
                0x000000004a01bbbc       0x1e drivers/usb/host/built-in.o
                0x000000004a01bbbc                poll_int_queue
 .text.destroy_int_queue
                0x000000004a01bbda       0x20 drivers/usb/host/built-in.o
                0x000000004a01bbda                destroy_int_queue
 .text.usb_alloc_device
                0x000000004a01bbfa       0x14 drivers/usb/host/built-in.o
                0x000000004a01bbfa                usb_alloc_device
 .text.usb_reset_root_port
                0x000000004a01bc0e       0x16 drivers/usb/host/built-in.o
                0x000000004a01bc0e                usb_reset_root_port
 .text.usb_update_hub_device
                0x000000004a01bc24       0x16 drivers/usb/host/built-in.o
                0x000000004a01bc24                usb_update_hub_device
 .text.usb_get_max_xfer_size
                0x000000004a01bc3a       0x14 drivers/usb/host/built-in.o
                0x000000004a01bc3a                usb_get_max_xfer_size
 *fill*         0x000000004a01bc4e        0x2 
 .text.usb_stop
                0x000000004a01bc50       0x64 drivers/usb/host/built-in.o
                0x000000004a01bc50                usb_stop
 .text.usb_get_bus
                0x000000004a01bcb4       0x18 drivers/usb/host/built-in.o
                0x000000004a01bcb4                usb_get_bus
 .text.usb_scan_device
                0x000000004a01bccc      0x1c8 drivers/usb/host/built-in.o
                0x000000004a01bccc                usb_scan_device
 .text.usb_scan_bus.isra.3
                0x000000004a01be94       0x4c drivers/usb/host/built-in.o
 .text.usb_init
                0x000000004a01bee0      0x124 drivers/usb/host/built-in.o
                0x000000004a01bee0                usb_init
 .text.usb_child_pre_probe
                0x000000004a01c004       0x46 drivers/usb/host/built-in.o
                0x000000004a01c004                usb_child_pre_probe
 .text.musb_gadget_enable
                0x000000004a01c04a      0x1aa drivers/usb/musb-new/built-in.o
 .text.musb_gadget_fifo_status
                0x000000004a01c1f4       0x2a drivers/usb/musb-new/built-in.o
 .text.musb_gadget_fifo_flush
                0x000000004a01c21e       0x64 drivers/usb/musb-new/built-in.o
 .text.musb_gadget_get_frame
                0x000000004a01c282        0xe drivers/usb/musb-new/built-in.o
 .text.musb_gadget_wakeup
                0x000000004a01c290        0x4 drivers/usb/musb-new/built-in.o
 .text.musb_gadget_set_self_powered
                0x000000004a01c294       0x16 drivers/usb/musb-new/built-in.o
 .text.musb_gadget_vbus_draw
                0x000000004a01c2aa        0x4 drivers/usb/musb-new/built-in.o
 .text.txstate  0x000000004a01c2ae       0x74 drivers/usb/musb-new/built-in.o
 .text.musb_alloc_request
                0x000000004a01c322       0x22 drivers/usb/musb-new/built-in.o
                0x000000004a01c322                musb_alloc_request
 .text.musb_free_request
                0x000000004a01c344        0x6 drivers/usb/musb-new/built-in.o
                0x000000004a01c344                musb_free_request
 *fill*         0x000000004a01c34a        0x2 
 .text.init_peripheral_ep
                0x000000004a01c34c       0xb0 drivers/usb/musb-new/built-in.o
 .text.musb_gadget_pullup
                0x000000004a01c3fc       0x3c drivers/usb/musb-new/built-in.o
 .text.musb_g_giveback
                0x000000004a01c438       0x32 drivers/usb/musb-new/built-in.o
                0x000000004a01c438                musb_g_giveback
 .text.rxstate  0x000000004a01c46a       0x9c drivers/usb/musb-new/built-in.o
 .text.musb_gadget_dequeue
                0x000000004a01c506       0x40 drivers/usb/musb-new/built-in.o
 .text.musb_gadget_disable
                0x000000004a01c546       0x74 drivers/usb/musb-new/built-in.o
 .text.musb_g_tx
                0x000000004a01c5ba       0xe4 drivers/usb/musb-new/built-in.o
                0x000000004a01c5ba                musb_g_tx
 .text.musb_g_rx
                0x000000004a01c69e       0x76 drivers/usb/musb-new/built-in.o
                0x000000004a01c69e                musb_g_rx
 .text.musb_ep_restart
                0x000000004a01c714       0x20 drivers/usb/musb-new/built-in.o
                0x000000004a01c714                musb_ep_restart
 .text.musb_gadget_set_halt
                0x000000004a01c734       0xbe drivers/usb/musb-new/built-in.o
 .text.musb_gadget_queue
                0x000000004a01c7f2       0x72 drivers/usb/musb-new/built-in.o
 .text.musb_gadget_setup
                0x000000004a01c864       0x90 drivers/usb/musb-new/built-in.o
                0x000000004a01c864                musb_gadget_setup
 .text.musb_gadget_start
                0x000000004a01c8f4       0x2a drivers/usb/musb-new/built-in.o
                0x000000004a01c8f4                musb_gadget_start
 .text.musb_g_ep0_enable
                0x000000004a01c91e        0x6 drivers/usb/musb-new/built-in.o
 .text.musb_g_ep0_disable
                0x000000004a01c924        0x6 drivers/usb/musb-new/built-in.o
 .text.musb_g_ep0_halt
                0x000000004a01c92a       0x66 drivers/usb/musb-new/built-in.o
 .text.musb_g_ep0_dequeue
                0x000000004a01c990        0x6 drivers/usb/musb-new/built-in.o
 .text.ep0_txstate
                0x000000004a01c996       0x9c drivers/usb/musb-new/built-in.o
 .text.musb_g_ep0_queue
                0x000000004a01ca32       0xb6 drivers/usb/musb-new/built-in.o
 .text.musb_g_ep0_irq
                0x000000004a01cae8      0x62c drivers/usb/musb-new/built-in.o
                0x000000004a01cae8                musb_g_ep0_irq
 .text.fifo_setup
                0x000000004a01d114      0x100 drivers/usb/musb-new/built-in.o
 .text.musb_write_fifo
                0x000000004a01d214       0x74 drivers/usb/musb-new/built-in.o
                0x000000004a01d214                musb_write_fifo
 .text.musb_read_fifo
                0x000000004a01d288       0x74 drivers/usb/musb-new/built-in.o
                0x000000004a01d288                musb_read_fifo
 .text.musb_load_testpacket
                0x000000004a01d2fc       0x28 drivers/usb/musb-new/built-in.o
                0x000000004a01d2fc                musb_load_testpacket
 .text.musb_start
                0x000000004a01d324       0x8e drivers/usb/musb-new/built-in.o
                0x000000004a01d324                musb_start
 .text.musb_stop
                0x000000004a01d3b2       0x48 drivers/usb/musb-new/built-in.o
                0x000000004a01d3b2                musb_stop
 .text.musb_interrupt
                0x000000004a01d3fa       0xc8 drivers/usb/musb-new/built-in.o
                0x000000004a01d3fa                musb_interrupt
 *fill*         0x000000004a01d4c2        0x2 
 .text.musb_init_controller
                0x000000004a01d4c4      0x3fc drivers/usb/musb-new/built-in.o
                0x000000004a01d4c4                musb_init_controller
 .text.usb_gadget_handle_interrupts
                0x000000004a01d8c0       0x1c drivers/usb/musb-new/built-in.o
                0x000000004a01d8c0                usb_gadget_handle_interrupts
 .text.usb_gadget_register_driver
                0x000000004a01d8dc       0x78 drivers/usb/musb-new/built-in.o
                0x000000004a01d8dc                usb_gadget_register_driver
 .text.usb_gadget_unregister_driver
                0x000000004a01d954       0x28 drivers/usb/musb-new/built-in.o
                0x000000004a01d954                usb_gadget_unregister_driver
 .text.musb_register
                0x000000004a01d97c       0x30 drivers/usb/musb-new/built-in.o
                0x000000004a01d97c                musb_register
 .text.musb_usb_remove
                0x000000004a01d9ac       0x1a drivers/usb/musb-new/built-in.o
 .text.sunxi_musb_post_root_reset_end
                0x000000004a01d9c6        0xc drivers/usb/musb-new/built-in.o
 .text.sunxi_musb_pre_root_reset_end
                0x000000004a01d9d2        0xc drivers/usb/musb-new/built-in.o
 *fill*         0x000000004a01d9de        0x2 
 .text.sunxi_musb_exit
                0x000000004a01d9e0       0x7c drivers/usb/musb-new/built-in.o
 .text.sunxi_musb_init
                0x000000004a01da5c       0xfc drivers/usb/musb-new/built-in.o
 .text.sunxi_musb_interrupt
                0x000000004a01db58       0x60 drivers/usb/musb-new/built-in.o
 .text.musb_usb_probe
                0x000000004a01dbb8       0xa8 drivers/usb/musb-new/built-in.o
 .text.sunxi_musb_disable
                0x000000004a01dc60       0x5c drivers/usb/musb-new/built-in.o
 .text.sunxi_musb_enable
                0x000000004a01dcbc       0x9c drivers/usb/musb-new/built-in.o
 .text.env_get_yesno
                0x000000004a01dd58       0x2a env/built-in.o
                0x000000004a01dd58                env_get_yesno
 .text.env_get_default
                0x000000004a01dd82       0x2a env/built-in.o
                0x000000004a01dd82                env_get_default
 .text.set_default_env
                0x000000004a01ddac       0x6c env/built-in.o
                0x000000004a01ddac                set_default_env
 .text.set_default_vars
                0x000000004a01de18       0x2c env/built-in.o
                0x000000004a01de18                set_default_vars
 .text.env_relocate
                0x000000004a01de44       0x10 env/built-in.o
                0x000000004a01de44                env_relocate
 .text.env_complete
                0x000000004a01de54       0x8c env/built-in.o
                0x000000004a01de54                env_complete
 .text.env_get_location
                0x000000004a01dee0        0xe env/built-in.o
                0x000000004a01dee0                env_get_location
 *fill*         0x000000004a01deee        0x2 
 .text.env_driver_lookup
                0x000000004a01def0       0x2c env/built-in.o
 .text.env_get_char_spec
                0x000000004a01df1c        0x8 env/built-in.o
                0x000000004a01df1c                env_get_char_spec
 .text.env_get_char
                0x000000004a01df24       0x14 env/built-in.o
                0x000000004a01df24                env_get_char
 .text.env_load
                0x000000004a01df38       0x58 env/built-in.o
                0x000000004a01df38                env_load
 .text.env_init
                0x000000004a01df90       0x58 env/built-in.o
                0x000000004a01df90                env_init
 .text.regex_callback
                0x000000004a01dfe8       0xd8 env/built-in.o
 .text.env_attr_walk
                0x000000004a01e0c0       0xb2 env/built-in.o
                0x000000004a01e0c0                env_attr_walk
 *fill*         0x000000004a01e172        0x2 
 .text.env_attr_lookup
                0x000000004a01e174       0x4c env/built-in.o
                0x000000004a01e174                env_attr_lookup
 .text.clear_callback
                0x000000004a01e1c0        0x8 env/built-in.o
 .text.find_env_callback
                0x000000004a01e1c8       0x38 env/built-in.o
 .text.on_callbacks
                0x000000004a01e200       0x38 env/built-in.o
 .text.set_callback
                0x000000004a01e238       0x54 env/built-in.o
 .text.env_callback_init
                0x000000004a01e28c       0x78 env/built-in.o
                0x000000004a01e28c                env_callback_init
 .text.skip_num
                0x000000004a01e304       0x3c env/built-in.o
 .text.clear_flags
                0x000000004a01e340        0x8 env/built-in.o
 .text.on_flags
                0x000000004a01e348       0x38 env/built-in.o
 .text.env_flags_parse_vartype
                0x000000004a01e380       0x30 env/built-in.o
                0x000000004a01e380                env_flags_parse_vartype
 .text.env_flags_parse_varaccess
                0x000000004a01e3b0       0x30 env/built-in.o
                0x000000004a01e3b0                env_flags_parse_varaccess
 .text.set_flags
                0x000000004a01e3e0       0x68 env/built-in.o
 .text.eth_validate_ethaddr_str
                0x000000004a01e448       0x52 env/built-in.o
                0x000000004a01e448                eth_validate_ethaddr_str
 *fill*         0x000000004a01e49a        0x2 
 .text.env_flags_init
                0x000000004a01e49c       0x90 env/built-in.o
                0x000000004a01e49c                env_flags_init
 .text.env_flags_validate
                0x000000004a01e52c      0x188 env/built-in.o
                0x000000004a01e52c                env_flags_validate
 .text.env_nowhere_init
                0x000000004a01e6b4       0x14 env/built-in.o
 .text.fs_probe_unsupported
                0x000000004a01e6c8       0x14 fs/built-in.o
 .text.fs_ls_unsupported
                0x000000004a01e6dc        0x6 fs/built-in.o
 .text.fs_exists_unsupported
                0x000000004a01e6e2        0x4 fs/built-in.o
 .text.fs_size_unsupported
                0x000000004a01e6e6        0x6 fs/built-in.o
 .text.fs_read_unsupported
                0x000000004a01e6ec        0x6 fs/built-in.o
 .text.fs_close_unsupported
                0x000000004a01e6f2        0x2 fs/built-in.o
 .text.fs_opendir_unsupported
                0x000000004a01e6f4        0x6 fs/built-in.o
 *fill*         0x000000004a01e6fa        0x2 
 .text.fs_get_info.part.0
                0x000000004a01e6fc       0x24 fs/built-in.o
 .text.fs_close
                0x000000004a01e720       0x18 fs/built-in.o
 .text.fs_write_unsupported
                0x000000004a01e738        0x6 fs/built-in.o
 .text.fs_mkdir_unsupported
                0x000000004a01e73e        0x6 fs/built-in.o
 .text.fs_uuid_unsupported
                0x000000004a01e744        0x6 fs/built-in.o
 .text.fs_unlink_unsupported
                0x000000004a01e74a        0x6 fs/built-in.o
 .text.fs_set_blk_dev
                0x000000004a01e750       0x70 fs/built-in.o
                0x000000004a01e750                fs_set_blk_dev
 .text.fs_set_blk_dev_with_part
                0x000000004a01e7c0       0x58 fs/built-in.o
                0x000000004a01e7c0                fs_set_blk_dev_with_part
 .text.fs_ls    0x000000004a01e818       0x24 fs/built-in.o
                0x000000004a01e818                fs_ls
 .text.fs_exists
                0x000000004a01e83c       0x20 fs/built-in.o
                0x000000004a01e83c                fs_exists
 .text.fs_size  0x000000004a01e85c       0x24 fs/built-in.o
                0x000000004a01e85c                fs_size
 .text.fs_read  0x000000004a01e880       0x40 fs/built-in.o
                0x000000004a01e880                fs_read
 .text.fs_write
                0x000000004a01e8c0       0x60 fs/built-in.o
                0x000000004a01e8c0                fs_write
 .text.fs_opendir
                0x000000004a01e920       0x50 fs/built-in.o
                0x000000004a01e920                fs_opendir
 .text.fs_readdir
                0x000000004a01e970       0x3c fs/built-in.o
                0x000000004a01e970                fs_readdir
 .text.fs_closedir
                0x000000004a01e9ac       0x2c fs/built-in.o
                0x000000004a01e9ac                fs_closedir
 .text.fs_ls_generic
                0x000000004a01e9d8       0x78 fs/built-in.o
 .text.fs_unlink
                0x000000004a01ea50       0x24 fs/built-in.o
                0x000000004a01ea50                fs_unlink
 .text.fs_mkdir
                0x000000004a01ea74       0x24 fs/built-in.o
                0x000000004a01ea74                fs_mkdir
 .text.do_size  0x000000004a01ea98       0x40 fs/built-in.o
                0x000000004a01ea98                do_size
 .text.do_load  0x000000004a01ead8      0x17c fs/built-in.o
                0x000000004a01ead8                do_load
 .text.do_ls    0x000000004a01ec54       0x40 fs/built-in.o
                0x000000004a01ec54                do_ls
 .text.file_exists
                0x000000004a01ec94       0x1a fs/built-in.o
                0x000000004a01ec94                file_exists
 *fill*         0x000000004a01ecae        0x2 
 .text.do_save  0x000000004a01ecb0       0xf8 fs/built-in.o
                0x000000004a01ecb0                do_save
 .text.do_fs_type
                0x000000004a01eda8       0x4c fs/built-in.o
                0x000000004a01eda8                do_fs_type
 .text.do_rm    0x000000004a01edf4       0x2c fs/built-in.o
                0x000000004a01edf4                do_rm
 .text.do_mkdir
                0x000000004a01ee20       0x34 fs/built-in.o
                0x000000004a01ee20                do_mkdir
 .text.get_fs   0x000000004a01ee54        0x8 fs/built-in.o
                0x000000004a01ee54                get_fs
 .text.ext4fs_free_node
                0x000000004a01ee5c       0x1c fs/built-in.o
                0x000000004a01ee5c                ext4fs_free_node
 .text.ext4fs_read_file
                0x000000004a01ee78      0x250 fs/built-in.o
                0x000000004a01ee78                ext4fs_read_file
 .text.ext4fs_ls
                0x000000004a01f0c8       0x5c fs/built-in.o
                0x000000004a01f0c8                ext4fs_ls
 .text.ext4fs_exists
                0x000000004a01f124       0x14 fs/built-in.o
                0x000000004a01f124                ext4fs_exists
 .text.ext4fs_size
                0x000000004a01f138        0x4 fs/built-in.o
                0x000000004a01f138                ext4fs_size
 .text.ext4fs_read
                0x000000004a01f13c       0x38 fs/built-in.o
                0x000000004a01f13c                ext4fs_read
 .text.ext4fs_probe
                0x000000004a01f174       0x1e fs/built-in.o
                0x000000004a01f174                ext4fs_probe
 *fill*         0x000000004a01f192        0x2 
 .text.ext4_read_file
                0x000000004a01f194       0x50 fs/built-in.o
                0x000000004a01f194                ext4_read_file
 .text.ext4fs_uuid
                0x000000004a01f1e4       0x20 fs/built-in.o
                0x000000004a01f1e4                ext4fs_uuid
 .text.ext4fs_bg_get_inode_table_id
                0x000000004a01f204       0x1c fs/built-in.o
                0x000000004a01f204                ext4fs_bg_get_inode_table_id
 .text.ext4fs_read_inode
                0x000000004a01f220       0xc6 fs/built-in.o
                0x000000004a01f220                ext4fs_read_inode
 *fill*         0x000000004a01f2e6        0x2 
 .text.read_allocated_block
                0x000000004a01f2e8      0x5f4 fs/built-in.o
                0x000000004a01f2e8                read_allocated_block
 .text.ext4fs_reinit_global
                0x000000004a01f8dc       0x78 fs/built-in.o
                0x000000004a01f8dc                ext4fs_reinit_global
 .text.ext4fs_close
                0x000000004a01f954       0x38 fs/built-in.o
                0x000000004a01f954                ext4fs_close
 .text.ext4fs_iterate_dir
                0x000000004a01f98c      0x1f4 fs/built-in.o
                0x000000004a01f98c                ext4fs_iterate_dir
 .text.ext4fs_find_file1
                0x000000004a01fb80      0x1b4 fs/built-in.o
 .text.ext4fs_find_file
                0x000000004a01fd34       0x44 fs/built-in.o
                0x000000004a01fd34                ext4fs_find_file
 .text.ext4fs_open
                0x000000004a01fd78       0x64 fs/built-in.o
                0x000000004a01fd78                ext4fs_open
 .text.ext4fs_mount
                0x000000004a01fddc       0x90 fs/built-in.o
                0x000000004a01fddc                ext4fs_mount
 .text.ext4fs_set_blk_dev
                0x000000004a01fe6c       0x54 fs/built-in.o
                0x000000004a01fe6c                ext4fs_set_blk_dev
 .text.ext4fs_devread
                0x000000004a01fec0       0x28 fs/built-in.o
                0x000000004a01fec0                ext4fs_devread
 .text.ext4_read_superblock
                0x000000004a01fee8       0x28 fs/built-in.o
                0x000000004a01fee8                ext4_read_superblock
 .text.downcase
                0x000000004a01ff10       0x28 fs/built-in.o
 .text.disk_read
                0x000000004a01ff38       0x30 fs/built-in.o
 .text.mkcksum  0x000000004a01ff68       0x36 fs/built-in.o
 .text.fat_itr_child
                0x000000004a01ff9e       0x3e fs/built-in.o
 .text.disk_write
                0x000000004a01ffdc       0x50 fs/built-in.o
 .text.flush_dirty_fat_buffer
                0x000000004a02002c       0x58 fs/built-in.o
 .text.set_fatent_value
                0x000000004a020084      0x174 fs/built-in.o
 .text.get_fatent
                0x000000004a0201f8      0x108 fs/built-in.o
 .text.next_dent
                0x000000004a020300       0xb4 fs/built-in.o
 .text.determine_fatent
                0x000000004a0203b4       0x24 fs/built-in.o
 .text.clear_fatent
                0x000000004a0203d8       0x58 fs/built-in.o
 .text.get_cluster
                0x000000004a020430       0xe6 fs/built-in.o
 .text.set_cluster
                0x000000004a020516       0xee fs/built-in.o
 .text.read_bootsectandvi
                0x000000004a020604       0xbc fs/built-in.o
 .text.fat_itr_root
                0x000000004a0206c0      0x118 fs/built-in.o
 .text.split_filename
                0x000000004a0207d8       0x8c fs/built-in.o
 .text.normalize_longname
                0x000000004a020864       0x7c fs/built-in.o
 .text.set_name
                0x000000004a0208e0       0xc8 fs/built-in.o
 .text.set_contents
                0x000000004a0209a8      0x6d0 fs/built-in.o
 .text.fat_itr_next
                0x000000004a021078      0x178 fs/built-in.o
 .text.fat_itr_resolve
                0x000000004a0211f0       0xf4 fs/built-in.o
 .text.flush_dir_table
                0x000000004a0212e4       0xa0 fs/built-in.o
 .text.fill_dir_slot
                0x000000004a021384      0x16a fs/built-in.o
 .text.find_directory_entry
                0x000000004a0214ee       0x54 fs/built-in.o
 *fill*         0x000000004a021542        0x2 
 .text.fat_set_blk_dev
                0x000000004a021544       0x8c fs/built-in.o
                0x000000004a021544                fat_set_blk_dev
 .text.file_fat_detectfs
                0x000000004a0215d0       0xd4 fs/built-in.o
                0x000000004a0215d0                file_fat_detectfs
 .text.fat_exists
                0x000000004a0216a4       0x44 fs/built-in.o
                0x000000004a0216a4                fat_exists
 .text.fat_size
                0x000000004a0216e8       0x78 fs/built-in.o
                0x000000004a0216e8                fat_size
 .text.file_fat_read_at
                0x000000004a021760      0x2d4 fs/built-in.o
                0x000000004a021760                file_fat_read_at
 .text.fat_read_file
                0x000000004a021a34       0x30 fs/built-in.o
                0x000000004a021a34                fat_read_file
 .text.fat_opendir
                0x000000004a021a64       0x60 fs/built-in.o
                0x000000004a021a64                fat_opendir
 .text.fat_readdir
                0x000000004a021ac4       0x54 fs/built-in.o
                0x000000004a021ac4                fat_readdir
 .text.fat_closedir
                0x000000004a021b18       0x16 fs/built-in.o
                0x000000004a021b18                fat_closedir
 .text.fat_close
                0x000000004a021b2e        0x2 fs/built-in.o
                0x000000004a021b2e                fat_close
 .text.file_fat_write_at
                0x000000004a021b30      0x1e4 fs/built-in.o
                0x000000004a021b30                file_fat_write_at
 .text.file_fat_write
                0x000000004a021d14       0x1a fs/built-in.o
                0x000000004a021d14                file_fat_write
 *fill*         0x000000004a021d2e        0x2 
 .text.fat_unlink
                0x000000004a021d30      0x1d0 fs/built-in.o
                0x000000004a021d30                fat_unlink
 .text.fat_mkdir
                0x000000004a021f00      0x28c fs/built-in.o
                0x000000004a021f00                fat_mkdir
 .text.fs_devread
                0x000000004a02218c      0x168 fs/built-in.o
                0x000000004a02218c                fs_devread
 .text.efi_uc_destroy
                0x000000004a0222f4       0x10 lib/built-in.o
 .text.efi_uc_init
                0x000000004a022304       0x10 lib/built-in.o
 .text.check_node_type
                0x000000004a022314       0x54 lib/built-in.o
 .text.efi_uc_start
                0x000000004a022368       0x8c lib/built-in.o
 .text.efi_uc_supported
                0x000000004a0223f4       0x84 lib/built-in.o
 .text.disconnect_child
                0x000000004a022478       0x44 lib/built-in.o
 .text.efi_uc_stop
                0x000000004a0224bc       0xd4 lib/built-in.o
 .text.efi_driver_init
                0x000000004a022590       0xbc lib/built-in.o
                0x000000004a022590                efi_driver_init
 .text.get_var.constprop.0
                0x000000004a02264c       0x7c lib/built-in.o
 .text.efi_bootmgr_load
                0x000000004a0226c8      0x10c lib/built-in.o
                0x000000004a0226c8                efi_bootmgr_load
 .text.efi_is_event
                0x000000004a0227d4       0x24 lib/built-in.o
 .text.__efi_entry_check
                0x000000004a0227f8       0x28 lib/built-in.o
                0x000000004a0227f8                __efi_entry_check
 .text.__efi_exit_check
                0x000000004a022820       0x20 lib/built-in.o
                0x000000004a022820                __efi_exit_check
 .text.efi_queue_event
                0x000000004a022840       0x38 lib/built-in.o
 .text.efi_set_mem
                0x000000004a022878       0x1c lib/built-in.o
 .text.efi_copy_mem
                0x000000004a022894       0x1a lib/built-in.o
 .text.efi_calculate_crc32
                0x000000004a0228ae       0x1e lib/built-in.o
 .text.efi_set_watchdog_timer
                0x000000004a0228cc       0x18 lib/built-in.o
 .text.efi_stall
                0x000000004a0228e4       0x16 lib/built-in.o
 *fill*         0x000000004a0228fa        0x2 
 .text.efi_get_next_monotonic_count
                0x000000004a0228fc       0x28 lib/built-in.o
 .text.efi_start_image
                0x000000004a022924       0x64 lib/built-in.o
 .text.efi_register_protocol_notify
                0x000000004a022988       0x14 lib/built-in.o
 .text.efi_close_event
                0x000000004a02299c       0x38 lib/built-in.o
 .text.efi_free_pool_ext
                0x000000004a0229d4       0x18 lib/built-in.o
 .text.efi_allocate_pool_ext
                0x000000004a0229ec       0x1c lib/built-in.o
 .text.efi_get_memory_map_ext
                0x000000004a022a08       0x26 lib/built-in.o
 .text.efi_free_pages_ext
                0x000000004a022a2e       0x20 lib/built-in.o
 .text.efi_allocate_pages_ext
                0x000000004a022a4e       0x20 lib/built-in.o
 *fill*         0x000000004a022a6e        0x2 
 .text.efi_raise_tpl
                0x000000004a022a70       0x24 lib/built-in.o
 .text.efi_save_gd
                0x000000004a022a94        0xc lib/built-in.o
                0x000000004a022a94                efi_save_gd
 .text.efi_restore_gd
                0x000000004a022aa0       0x10 lib/built-in.o
                0x000000004a022aa0                efi_restore_gd
 .text.efi_exit
                0x000000004a022ab0       0x28 lib/built-in.o
 .text.is_valid_tpl
                0x000000004a022ad8       0x24 lib/built-in.o
                0x000000004a022ad8                is_valid_tpl
 .text.efi_signal_event
                0x000000004a022afc       0x8c lib/built-in.o
                0x000000004a022afc                efi_signal_event
 .text.efi_exit_boot_services
                0x000000004a022b88       0xa4 lib/built-in.o
 .text.efi_signal_event_ext
                0x000000004a022c2c       0x30 lib/built-in.o
 .text.efi_add_handle
                0x000000004a022c5c       0x20 lib/built-in.o
                0x000000004a022c5c                efi_add_handle
 .text.efi_create_handle
                0x000000004a022c7c       0x24 lib/built-in.o
                0x000000004a022c7c                efi_create_handle
 .text.efi_create_event
                0x000000004a022ca0       0xa8 lib/built-in.o
                0x000000004a022ca0                efi_create_event
 .text.efi_create_event_ex
                0x000000004a022d48       0x2a lib/built-in.o
                0x000000004a022d48                efi_create_event_ex
 .text.efi_create_event_ext
                0x000000004a022d72       0x2a lib/built-in.o
 .text.efi_timer_check
                0x000000004a022d9c       0x74 lib/built-in.o
                0x000000004a022d9c                efi_timer_check
 .text.efi_check_event
                0x000000004a022e10       0x58 lib/built-in.o
 .text.efi_wait_for_event
                0x000000004a022e68       0x9c lib/built-in.o
 .text.efi_restore_tpl
                0x000000004a022f04       0x28 lib/built-in.o
 .text.efi_set_timer
                0x000000004a022f2c       0xa4 lib/built-in.o
                0x000000004a022f2c                efi_set_timer
 .text.efi_set_timer_ext
                0x000000004a022fd0       0x20 lib/built-in.o
 .text.efi_search_obj
                0x000000004a022ff0       0x20 lib/built-in.o
                0x000000004a022ff0                efi_search_obj
 .text.efi_search_protocol
                0x000000004a023010       0x44 lib/built-in.o
                0x000000004a023010                efi_search_protocol
 .text.efi_remove_protocol
                0x000000004a023054       0x48 lib/built-in.o
                0x000000004a023054                efi_remove_protocol
 .text.efi_locate_protocol
                0x000000004a02309c       0x58 lib/built-in.o
 .text.efi_open_protocol_information
                0x000000004a0230f4       0x8c lib/built-in.o
 .text.efi_close_protocol
                0x000000004a023180       0x64 lib/built-in.o
 .text.efi_locate_handle
                0x000000004a0231e4       0xb4 lib/built-in.o
 .text.efi_locate_handle_buffer
                0x000000004a023298       0x74 lib/built-in.o
 .text.efi_locate_device_path
                0x000000004a02330c       0xc0 lib/built-in.o
 .text.efi_locate_handle_ext
                0x000000004a0233cc       0x26 lib/built-in.o
 *fill*         0x000000004a0233f2        0x2 
 .text.efi_remove_all_protocols
                0x000000004a0233f4       0x38 lib/built-in.o
                0x000000004a0233f4                efi_remove_all_protocols
 .text.efi_delete_handle
                0x000000004a02342c       0x26 lib/built-in.o
                0x000000004a02342c                efi_delete_handle
 *fill*         0x000000004a023452        0x2 
 .text.efi_protocols_per_handle
                0x000000004a023454       0x78 lib/built-in.o
 .text.efi_disconnect_controller
                0x000000004a0234cc      0x190 lib/built-in.o
 .text.efi_open_protocol
                0x000000004a02365c      0x184 lib/built-in.o
 .text.efi_bind_controller
                0x000000004a0237e0       0x74 lib/built-in.o
 .text.efi_handle_protocol
                0x000000004a023854       0x14 lib/built-in.o
 .text.efi_disconnect_all_drivers
                0x000000004a023868       0xec lib/built-in.o
 .text.efi_connect_controller
                0x000000004a023954      0x120 lib/built-in.o
 .text.efi_unload_image
                0x000000004a023a74       0x26 lib/built-in.o
 *fill*         0x000000004a023a9a        0x2 
 .text.efi_uninstall_protocol_interface
                0x000000004a023a9c       0x94 lib/built-in.o
 .text.efi_add_protocol
                0x000000004a023b30       0x68 lib/built-in.o
                0x000000004a023b30                efi_add_protocol
 .text.efi_install_protocol_interface
                0x000000004a023b98       0x44 lib/built-in.o
 .text.efi_uninstall_multiple_protocol_interfaces
                0x000000004a023bdc       0x84 lib/built-in.o
 .text.efi_install_multiple_protocol_interfaces
                0x000000004a023c60       0x84 lib/built-in.o
 .text.efi_reinstall_protocol_interface
                0x000000004a023ce4       0x5a lib/built-in.o
 *fill*         0x000000004a023d3e        0x2 
 .text.efi_install_configuration_table
                0x000000004a023d40       0xd0 lib/built-in.o
                0x000000004a023d40                efi_install_configuration_table
 .text.efi_install_configuration_table_ext
                0x000000004a023e10       0x18 lib/built-in.o
 .text.efi_setup_loaded_image
                0x000000004a023e28       0x9c lib/built-in.o
                0x000000004a023e28                efi_setup_loaded_image
 .text.efi_load_image_from_path
                0x000000004a023ec4       0xc0 lib/built-in.o
                0x000000004a023ec4                efi_load_image_from_path
 .text.efi_load_image
                0x000000004a023f84       0xb4 lib/built-in.o
 .text.efi_initialize_system_table
                0x000000004a024038       0x38 lib/built-in.o
                0x000000004a024038                efi_initialize_system_table
 .text.efi_cout_enable_cursor
                0x000000004a024070       0x24 lib/built-in.o
 .text.efi_cout_set_cursor_position
                0x000000004a024094       0x64 lib/built-in.o
 .text.efi_cout_clear_screen
                0x000000004a0240f8       0x24 lib/built-in.o
 .text.efi_cout_set_attribute
                0x000000004a02411c       0x44 lib/built-in.o
 .text.efi_cout_set_mode
                0x000000004a024160       0x30 lib/built-in.o
 .text.efi_cout_test_string
                0x000000004a024190        0xe lib/built-in.o
 *fill*         0x000000004a02419e        0x2 
 .text.efi_cout_reset
                0x000000004a0241a0       0x28 lib/built-in.o
 .text.efi_cin_set_state
                0x000000004a0241c8       0x14 lib/built-in.o
 .text.efi_cout_output_string
                0x000000004a0241dc       0xc8 lib/built-in.o
 .text.efi_cin_unregister_key_notify
                0x000000004a0242a4       0x44 lib/built-in.o
 .text.efi_cin_empty_buffer
                0x000000004a0242e8       0x18 lib/built-in.o
 .text.efi_cin_reset
                0x000000004a024300       0x20 lib/built-in.o
 .text.efi_cin_reset_ex
                0x000000004a024320       0x20 lib/built-in.o
 .text.efi_cin_register_key_notify
                0x000000004a024340       0x5c lib/built-in.o
 .text.efi_cout_query_mode
                0x000000004a02439c       0x50 lib/built-in.o
 .text.set_shift_mask
                0x000000004a0243ec       0x44 lib/built-in.o
                0x000000004a0243ec                set_shift_mask
 .text.analyze_modifiers.constprop.5
                0x000000004a024430       0x58 lib/built-in.o
 .text.efi_cin_check
                0x000000004a024488      0x270 lib/built-in.o
 .text.efi_cin_read_key_stroke
                0x000000004a0246f8       0x58 lib/built-in.o
 .text.efi_console_timer_notify
                0x000000004a024750       0x12 lib/built-in.o
 *fill*         0x000000004a024762        0x2 
 .text.efi_cin_read_key_stroke_ex
                0x000000004a024764       0x58 lib/built-in.o
 .text.efi_key_notify
                0x000000004a0247bc       0x12 lib/built-in.o
 *fill*         0x000000004a0247ce        0x2 
 .text.efi_console_register
                0x000000004a0247d0      0x218 lib/built-in.o
                0x000000004a0247d0                efi_console_register
 .text.dp_size  0x000000004a0249e8       0x34 lib/built-in.o
 .text.dp_alloc
                0x000000004a024a1c       0x24 lib/built-in.o
 .text.dp_part_node
                0x000000004a024a40      0x130 lib/built-in.o
 .text.dp_fill.part.1
                0x000000004a024b70       0xe0 lib/built-in.o
 .text.efi_dp_next
                0x000000004a024c50       0x22 lib/built-in.o
                0x000000004a024c50                efi_dp_next
 .text.efi_dp_match
                0x000000004a024c72       0x42 lib/built-in.o
                0x000000004a024c72                efi_dp_match
 .text.efi_dp_last_node
                0x000000004a024cb4       0x20 lib/built-in.o
                0x000000004a024cb4                efi_dp_last_node
 .text.efi_dp_instance_size
                0x000000004a024cd4       0x26 lib/built-in.o
                0x000000004a024cd4                efi_dp_instance_size
 *fill*         0x000000004a024cfa        0x2 
 .text.find_obj
                0x000000004a024cfc       0x94 lib/built-in.o
 .text.efi_dp_find_obj
                0x000000004a024d90       0x2c lib/built-in.o
                0x000000004a024d90                efi_dp_find_obj
 .text.efi_dp_size
                0x000000004a024dbc       0x20 lib/built-in.o
                0x000000004a024dbc                efi_dp_size
 .text.efi_dp_dup
                0x000000004a024ddc       0x26 lib/built-in.o
                0x000000004a024ddc                efi_dp_dup
 *fill*         0x000000004a024e02        0x2 
 .text.efi_dp_append
                0x000000004a024e04       0x54 lib/built-in.o
                0x000000004a024e04                efi_dp_append
 .text.efi_dp_append_node
                0x000000004a024e58       0x80 lib/built-in.o
                0x000000004a024e58                efi_dp_append_node
 .text.efi_dp_create_device_node
                0x000000004a024ed8       0x1c lib/built-in.o
                0x000000004a024ed8                efi_dp_create_device_node
 .text.efi_dp_append_instance
                0x000000004a024ef4       0x64 lib/built-in.o
                0x000000004a024ef4                efi_dp_append_instance
 .text.efi_dp_get_next_instance
                0x000000004a024f58       0x54 lib/built-in.o
                0x000000004a024f58                efi_dp_get_next_instance
 .text.efi_dp_is_multi_instance
                0x000000004a024fac       0x1e lib/built-in.o
                0x000000004a024fac                efi_dp_is_multi_instance
 *fill*         0x000000004a024fca        0x2 
 .text.efi_dp_from_part
                0x000000004a024fcc       0x64 lib/built-in.o
                0x000000004a024fcc                efi_dp_from_part
 .text.efi_dp_part_node
                0x000000004a025030       0x22 lib/built-in.o
                0x000000004a025030                efi_dp_part_node
 *fill*         0x000000004a025052        0x2 
 .text.efi_dp_from_file
                0x000000004a025054       0xac lib/built-in.o
                0x000000004a025054                efi_dp_from_file
 .text.efi_dp_from_eth
                0x000000004a025100       0x34 lib/built-in.o
                0x000000004a025100                efi_dp_from_eth
 .text.efi_dp_from_mem
                0x000000004a025134       0xa4 lib/built-in.o
                0x000000004a025134                efi_dp_from_mem
 .text.efi_dp_split_file_path
                0x000000004a0251d8       0x60 lib/built-in.o
                0x000000004a0251d8                efi_dp_split_file_path
 .text.dp_unknown
                0x000000004a025238       0x18 lib/built-in.o
 .text.efi_convert_single_device_node_to_text
                0x000000004a025250      0x300 lib/built-in.o
 .text.efi_str_to_u16
                0x000000004a025550       0x32 lib/built-in.o
 .text.efi_convert_device_path_to_text
                0x000000004a025582       0x4c lib/built-in.o
 .text.efi_convert_device_node_to_text
                0x000000004a0255ce       0x2a lib/built-in.o
 .text.efi_dp_str
                0x000000004a0255f8       0x1c lib/built-in.o
                0x000000004a0255f8                efi_dp_str
 .text.create_device_node
                0x000000004a025614       0x20 lib/built-in.o
 .text.is_device_path_multi_instance
                0x000000004a025634       0x18 lib/built-in.o
 .text.get_next_device_path_instance
                0x000000004a02564c       0x1c lib/built-in.o
 .text.append_device_path_instance
                0x000000004a025668       0x1c lib/built-in.o
 .text.append_device_node
                0x000000004a025684       0x1c lib/built-in.o
 .text.append_device_path
                0x000000004a0256a0       0x1c lib/built-in.o
 .text.duplicate_device_path
                0x000000004a0256bc       0x18 lib/built-in.o
 .text.get_device_path_size
                0x000000004a0256d4       0x1a lib/built-in.o
 .text.efi_file_flush
                0x000000004a0256ee        0xe lib/built-in.o
 .text.efi_file_setinfo
                0x000000004a0256fc       0x14 lib/built-in.o
 .text.efi_file_getpos
                0x000000004a025710       0x2c lib/built-in.o
 .text.efi_file_setpos
                0x000000004a02573c       0x30 lib/built-in.o
 .text.set_blk_dev.isra.0
                0x000000004a02576c        0x8 lib/built-in.o
 .text.efi_file_getinfo
                0x000000004a025774      0x148 lib/built-in.o
 .text.efi_file_write
                0x000000004a0258bc       0x5c lib/built-in.o
 .text.efi_file_read
                0x000000004a025918      0x158 lib/built-in.o
 .text.efi_file_delete
                0x000000004a025a70       0x3c lib/built-in.o
 .text.file_open
                0x000000004a025aac      0x1d4 lib/built-in.o
 .text.efi_open_volume
                0x000000004a025c80       0x2c lib/built-in.o
 .text.efi_file_open
                0x000000004a025cac       0x84 lib/built-in.o
 .text.efi_file_close
                0x000000004a025d30       0x1c lib/built-in.o
 .text.efi_file_from_path
                0x000000004a025d4c       0xb4 lib/built-in.o
                0x000000004a025d4c                efi_file_from_path
 .text.efi_simple_file_system
                0x000000004a025e00       0x30 lib/built-in.o
                0x000000004a025e00                efi_simple_file_system
 .text.efi_set_code_and_data_type
                0x000000004a025e30       0x40 lib/built-in.o
 .text.efi_print_image_infos
                0x000000004a025e70       0x98 lib/built-in.o
                0x000000004a025e70                efi_print_image_infos
 .text.efi_load_pe
                0x000000004a025f08      0x244 lib/built-in.o
                0x000000004a025f08                efi_load_pe
 .text.efi_mem_cmp
                0x000000004a02614c       0x20 lib/built-in.o
 .text.efi_find_free_memory
                0x000000004a02616c       0x80 lib/built-in.o
 .text.efi_add_memory_map
                0x000000004a0261ec      0x2e8 lib/built-in.o
                0x000000004a0261ec                efi_add_memory_map
 .text.efi_allocate_pages
                0x000000004a0264d4       0x80 lib/built-in.o
                0x000000004a0264d4                efi_allocate_pages
 .text.efi_alloc
                0x000000004a026554       0x38 lib/built-in.o
                0x000000004a026554                efi_alloc
 .text.efi_free_pages
                0x000000004a02658c       0x28 lib/built-in.o
                0x000000004a02658c                efi_free_pages
 .text.efi_allocate_pool
                0x000000004a0265b4       0x40 lib/built-in.o
                0x000000004a0265b4                efi_allocate_pool
 .text.efi_free_pool
                0x000000004a0265f4       0x18 lib/built-in.o
                0x000000004a0265f4                efi_free_pool
 .text.efi_get_memory_map
                0x000000004a02660c       0x90 lib/built-in.o
                0x000000004a02660c                efi_get_memory_map
 .text.efi_add_known_memory
                0x000000004a02669c       0x48 lib/built-in.o
                0x000000004a02669c                efi_add_known_memory
 .text.efi_memory_init
                0x000000004a0266e4       0x58 lib/built-in.o
                0x000000004a0266e4                efi_memory_init
 .text.efi_root_node_register
                0x000000004a02673c       0xa0 lib/built-in.o
                0x000000004a02673c                efi_root_node_register
 .text.efi_reset_system_boottime
                0x000000004a0267dc       0x50 lib/built-in.o
 .text.efi_get_time_boottime
                0x000000004a02682c       0x14 lib/built-in.o
 .text.efi_reset_system_init
                0x000000004a026840        0x4 lib/built-in.o
                0x000000004a026840                efi_reset_system_init
 .text.efi_set_virtual_address_map
                0x000000004a026844      0x128 lib/built-in.o
 .text.metai_match
                0x000000004a02696c       0x96 lib/built-in.o
 *fill*         0x000000004a026a02        0x2 
 .text.efi_str_to_fat
                0x000000004a026a04       0x78 lib/built-in.o
 .text.efi_fat_to_str
                0x000000004a026a7c       0x3c lib/built-in.o
 .text.efi_str_upr
                0x000000004a026ab8       0x20 lib/built-in.o
 .text.efi_metai_match
                0x000000004a026ad8       0x1c lib/built-in.o
 .text.efi_stri_coll
                0x000000004a026af4       0x3e lib/built-in.o
 .text.efi_str_lwr
                0x000000004a026b32       0x20 lib/built-in.o
 .text.hex      0x000000004a026b52       0x28 lib/built-in.o
 *fill*         0x000000004a026b7a        0x2 
 .text.efi_to_native
                0x000000004a026b7c       0x58 lib/built-in.o
 .text.prefix   0x000000004a026bd4       0x22 lib/built-in.o
 *fill*         0x000000004a026bf6        0x2 
 .text.parse_attr.part.0
                0x000000004a026bf8       0x70 lib/built-in.o
 .text.efi_get_variable
                0x000000004a026c68      0x138 lib/built-in.o
                0x000000004a026c68                efi_get_variable
 .text.efi_get_next_variable_name
                0x000000004a026da0       0x14 lib/built-in.o
                0x000000004a026da0                efi_get_next_variable_name
 .text.efi_set_variable
                0x000000004a026db4      0x184 lib/built-in.o
                0x000000004a026db4                efi_set_variable
 .text.efi_watchdog_timer_notify
                0x000000004a026f38       0x34 lib/built-in.o
 .text.efi_set_watchdog
                0x000000004a026f6c       0x28 lib/built-in.o
                0x000000004a026f6c                efi_set_watchdog
 *fill*         0x000000004a026f94        0x4 
 .text.efi_watchdog_register
                0x000000004a026f98       0x5c lib/built-in.o
                0x000000004a026f98                efi_watchdog_register
 .text.efi_disk_flush_blocks
                0x000000004a026ff4        0xe lib/built-in.o
 *fill*         0x000000004a027002        0x2 
 .text.efi_disk_reset
                0x000000004a027004       0x14 lib/built-in.o
 .text.efi_disk_add_dev.isra.0.part.1
                0x000000004a027018      0x110 lib/built-in.o
 .text.efi_disk_read_blocks
                0x000000004a027128       0x54 lib/built-in.o
 .text.efi_disk_write_blocks
                0x000000004a02717c       0x54 lib/built-in.o
 .text.efi_fs_from_path
                0x000000004a0271d0       0x48 lib/built-in.o
                0x000000004a0271d0                efi_fs_from_path
 .text.efi_disk_create_partitions
                0x000000004a027218       0x90 lib/built-in.o
                0x000000004a027218                efi_disk_create_partitions
 .text.efi_disk_register
                0x000000004a0272a8       0xdc lib/built-in.o
                0x000000004a0272a8                efi_disk_register
 .text.efi_net_push
                0x000000004a027384       0x18 lib/built-in.o
 .text.efi_network_timer_notify
                0x000000004a02739c       0x2c lib/built-in.o
 .text.efi_net_nvdata
                0x000000004a0273c8       0x14 lib/built-in.o
 .text.efi_net_mcastiptomac
                0x000000004a0273dc       0x14 lib/built-in.o
 .text.efi_net_statistics
                0x000000004a0273f0       0x14 lib/built-in.o
 .text.efi_net_station_address
                0x000000004a027404       0x14 lib/built-in.o
 .text.efi_net_receive_filters
                0x000000004a027418       0x14 lib/built-in.o
 .text.efi_net_reset
                0x000000004a02742c        0xe lib/built-in.o
 .text.efi_net_start
                0x000000004a02743a        0xe lib/built-in.o
 .text.efi_net_get_status
                0x000000004a027448       0x3c lib/built-in.o
 .text.efi_net_receive
                0x000000004a027484       0xd0 lib/built-in.o
 .text.efi_net_transmit
                0x000000004a027554       0x38 lib/built-in.o
 .text.efi_net_initialize
                0x000000004a02758c       0x3c lib/built-in.o
 .text.efi_net_shutdown
                0x000000004a0275c8        0xe lib/built-in.o
 .text.efi_net_stop
                0x000000004a0275d6        0xe lib/built-in.o
 .text.efi_net_set_dhcp_ack
                0x000000004a0275e4       0x34 lib/built-in.o
                0x000000004a0275e4                efi_net_set_dhcp_ack
 .text.efi_net_register
                0x000000004a027618      0x1ac lib/built-in.o
                0x000000004a027618                efi_net_register
 .text.efi_smbios_register
                0x000000004a0277c4       0x44 lib/built-in.o
                0x000000004a0277c4                efi_smbios_register
 .text.get_code
                0x000000004a027808       0x7a lib/built-in.o
 .text.read_string
                0x000000004a027882       0x1a lib/built-in.o
 .text.read_console
                0x000000004a02789c        0xa lib/built-in.o
 *fill*         0x000000004a0278a6        0x2 
 .text.console_read_unicode
                0x000000004a0278a8       0x20 lib/built-in.o
                0x000000004a0278a8                console_read_unicode
 .text.utf8_get
                0x000000004a0278c8        0xc lib/built-in.o
                0x000000004a0278c8                utf8_get
 .text.utf8_put
                0x000000004a0278d4       0x90 lib/built-in.o
                0x000000004a0278d4                utf8_put
 .text.utf8_utf16_strnlen
                0x000000004a027964       0x32 lib/built-in.o
                0x000000004a027964                utf8_utf16_strnlen
 .text.utf16_get
                0x000000004a027996       0x58 lib/built-in.o
                0x000000004a027996                utf16_get
 .text.utf16_put
                0x000000004a0279ee       0x4c lib/built-in.o
                0x000000004a0279ee                utf16_put
 .text.utf8_utf16_strncpy
                0x000000004a027a3a       0x3e lib/built-in.o
                0x000000004a027a3a                utf8_utf16_strncpy
 .text.utf16_strnlen
                0x000000004a027a78       0x26 lib/built-in.o
                0x000000004a027a78                utf16_strnlen
 .text.utf16_utf8_strnlen
                0x000000004a027a9e       0x42 lib/built-in.o
                0x000000004a027a9e                utf16_utf8_strnlen
 .text.utf16_utf8_strncpy
                0x000000004a027ae0       0x3e lib/built-in.o
                0x000000004a027ae0                utf16_utf8_strncpy
 *fill*         0x000000004a027b1e        0x2 
 .text.utf_to_lower
                0x000000004a027b20       0x2c lib/built-in.o
                0x000000004a027b20                utf_to_lower
 .text.utf_to_upper
                0x000000004a027b4c       0x2c lib/built-in.o
                0x000000004a027b4c                utf_to_upper
 .text.u16_strlen
                0x000000004a027b78       0x10 lib/built-in.o
                0x000000004a027b78                u16_strlen
 .text.utf16_to_utf8
                0x000000004a027b88       0xca lib/built-in.o
                0x000000004a027b88                utf16_to_utf8
 *fill*         0x000000004a027c52        0x2 
 .text.crc16_ccitt
                0x000000004a027c54       0x24 lib/built-in.o
                0x000000004a027c54                crc16_ccitt
 .text.smbios_write_type127
                0x000000004a027c78       0x2c lib/built-in.o
 .text.smbios_write_type32
                0x000000004a027ca4       0x2c lib/built-in.o
 .text.smbios_string_table_len
                0x000000004a027cd0       0x1c lib/built-in.o
 .text.smbios_add_string
                0x000000004a027cec       0x3a lib/built-in.o
 *fill*         0x000000004a027d26        0x2 
 .text.smbios_write_type3
                0x000000004a027d28       0x50 lib/built-in.o
 .text.smbios_write_type2
                0x000000004a027d78       0x5c lib/built-in.o
 .text.smbios_write_type0
                0x000000004a027dd4       0x90 lib/built-in.o
 .text.smbios_write_type1
                0x000000004a027e64       0x78 lib/built-in.o
 .text.smbios_write_type4
                0x000000004a027edc       0x80 lib/built-in.o
 .text.write_smbios_table
                0x000000004a027f5c       0xb0 lib/built-in.o
                0x000000004a027f5c                write_smbios_table
 .text.initcall_run_list
                0x000000004a02800c       0x40 lib/built-in.o
                0x000000004a02800c                initcall_run_list
 .text.lmb_add_region
                0x000000004a02804c       0xf2 lib/built-in.o
 .text.lmb_init
                0x000000004a02813e       0x16 lib/built-in.o
                0x000000004a02813e                lmb_init
 .text.lmb_add  0x000000004a028154        0x4 lib/built-in.o
                0x000000004a028154                lmb_add
 .text.lmb_free
                0x000000004a028158       0x78 lib/built-in.o
                0x000000004a028158                lmb_free
 .text.lmb_reserve
                0x000000004a0281d0        0x6 lib/built-in.o
                0x000000004a0281d0                lmb_reserve
 .text.__lmb_alloc_base
                0x000000004a0281d6       0xb8 lib/built-in.o
                0x000000004a0281d6                __lmb_alloc_base
 *fill*         0x000000004a02828e        0x2 
 .text.lmb_alloc_base
                0x000000004a028290       0x20 lib/built-in.o
                0x000000004a028290                lmb_alloc_base
 .text.lmb_alloc
                0x000000004a0282b0        0x6 lib/built-in.o
                0x000000004a0282b0                lmb_alloc
 .text.board_lmb_reserve
                0x000000004a0282b6        0x2 lib/built-in.o
                0x000000004a0282b6                board_lmb_reserve
 .text.string_to_ip
                0x000000004a0282b8       0x48 lib/built-in.o
                0x000000004a0282b8                string_to_ip
 .text.qsort    0x000000004a028300       0x94 lib/built-in.o
                0x000000004a028300                qsort
 .text.strcmp_compar
                0x000000004a028394        0x8 lib/built-in.o
                0x000000004a028394                strcmp_compar
 .text.merge    0x000000004a02839c       0x36 lib/built-in.o
 *fill*         0x000000004a0283d2        0x2 
 .text.list_sort
                0x000000004a0283d4       0xec lib/built-in.o
                0x000000004a0283d4                list_sort
 .text.zcalloc  0x000000004a0284c0        0x8 lib/built-in.o
                0x000000004a0284c0                zcalloc
 .text.zcfree   0x000000004a0284c8        0x6 lib/built-in.o
                0x000000004a0284c8                zcfree
 *fill*         0x000000004a0284ce        0x2 
 .text.inflate_fast
                0x000000004a0284d0      0x3c0 lib/built-in.o
                0x000000004a0284d0                inflate_fast
 .text.inflate_table
                0x000000004a028890      0x314 lib/built-in.o
                0x000000004a028890                inflate_table
 .text.inflateReset
                0x000000004a028ba4       0x40 lib/built-in.o
                0x000000004a028ba4                inflateReset
 .text.inflateInit2_
                0x000000004a028be4       0x98 lib/built-in.o
                0x000000004a028be4                inflateInit2_
 .text.inflateEnd
                0x000000004a028c7c       0x2e lib/built-in.o
                0x000000004a028c7c                inflateEnd
 .text.adler32  0x000000004a028caa      0x224 lib/built-in.o
                0x000000004a028caa                adler32
 *fill*         0x000000004a028ece        0x2 
 .text.inflate  0x000000004a028ed0      0xd24 lib/built-in.o
                0x000000004a028ed0                inflate
 .text.gzalloc  0x000000004a029bf4        0xe lib/built-in.o
                0x000000004a029bf4                gzalloc
 .text.gzfree   0x000000004a029c02        0x6 lib/built-in.o
                0x000000004a029c02                gzfree
 .text.gzip_parse_header
                0x000000004a029c08       0x70 lib/built-in.o
                0x000000004a029c08                gzip_parse_header
 .text.zunzip   0x000000004a029c78       0xa8 lib/built-in.o
                0x000000004a029c78                zunzip
 .text.gunzip   0x000000004a029d20       0x2c lib/built-in.o
                0x000000004a029d20                gunzip
 .text.fdt_check_header
                0x000000004a029d4c       0x4c lib/built-in.o
                0x000000004a029d4c                fdt_check_header
 .text.fdt_offset_ptr
                0x000000004a029d98       0x32 lib/built-in.o
                0x000000004a029d98                fdt_offset_ptr
 *fill*         0x000000004a029dca        0x2 
 .text.fdt_next_tag
                0x000000004a029dcc       0xc4 lib/built-in.o
                0x000000004a029dcc                fdt_next_tag
 .text.fdt_check_node_offset_
                0x000000004a029e90       0x24 lib/built-in.o
                0x000000004a029e90                fdt_check_node_offset_
 .text.fdt_check_prop_offset_
                0x000000004a029eb4       0x24 lib/built-in.o
                0x000000004a029eb4                fdt_check_prop_offset_
 .text.fdt_next_node
                0x000000004a029ed8       0x6e lib/built-in.o
                0x000000004a029ed8                fdt_next_node
 .text.fdt_first_subnode
                0x000000004a029f46       0x26 lib/built-in.o
                0x000000004a029f46                fdt_first_subnode
 .text.fdt_next_subnode
                0x000000004a029f6c       0x2a lib/built-in.o
                0x000000004a029f6c                fdt_next_subnode
 .text.fdt_find_string_
                0x000000004a029f96       0x30 lib/built-in.o
                0x000000004a029f96                fdt_find_string_
 .text.fdt_move
                0x000000004a029fc6       0x2a lib/built-in.o
                0x000000004a029fc6                fdt_move
 .text.fdt_setprop_inplace_namelen_partial
                0x000000004a029ff0       0x32 lib/built-in.o
                0x000000004a029ff0                fdt_setprop_inplace_namelen_partial
 .text.fdt_setprop_inplace
                0x000000004a02a022       0x4a lib/built-in.o
                0x000000004a02a022                fdt_setprop_inplace
 .text.fdt_node_end_offset_
                0x000000004a02a06c       0x24 lib/built-in.o
                0x000000004a02a06c                fdt_node_end_offset_
 .text.fdt_strerror
                0x000000004a02a090       0x3c lib/built-in.o
                0x000000004a02a090                fdt_strerror
 .text.fdt_blocks_misordered_
                0x000000004a02a0cc       0x36 lib/built-in.o
 .text.fdt_splice_
                0x000000004a02a102       0x4a lib/built-in.o
 .text.fdt_splice_mem_rsv_
                0x000000004a02a14c       0x2c lib/built-in.o
 .text.fdt_splice_struct_
                0x000000004a02a178       0x26 lib/built-in.o
 .text.fdt_packblocks_
                0x000000004a02a19e       0x5c lib/built-in.o
 .text.fdt_add_property_
                0x000000004a02a1fa       0xbe lib/built-in.o
 .text.fdt_rw_check_header_
                0x000000004a02a2b8       0x38 lib/built-in.o
 .text.fdt_add_mem_rsv
                0x000000004a02a2f0       0x56 lib/built-in.o
                0x000000004a02a2f0                fdt_add_mem_rsv
 .text.fdt_del_mem_rsv
                0x000000004a02a346       0x3c lib/built-in.o
                0x000000004a02a346                fdt_del_mem_rsv
 .text.fdt_set_name
                0x000000004a02a382       0x5a lib/built-in.o
                0x000000004a02a382                fdt_set_name
 .text.fdt_setprop_placeholder
                0x000000004a02a3dc       0x70 lib/built-in.o
                0x000000004a02a3dc                fdt_setprop_placeholder
 .text.fdt_setprop
                0x000000004a02a44c       0x26 lib/built-in.o
                0x000000004a02a44c                fdt_setprop
 .text.fdt_appendprop
                0x000000004a02a472       0x82 lib/built-in.o
                0x000000004a02a472                fdt_appendprop
 .text.fdt_delprop
                0x000000004a02a4f4       0x3e lib/built-in.o
                0x000000004a02a4f4                fdt_delprop
 .text.fdt_add_subnode_namelen
                0x000000004a02a532       0x98 lib/built-in.o
                0x000000004a02a532                fdt_add_subnode_namelen
 .text.fdt_add_subnode
                0x000000004a02a5ca       0x1e lib/built-in.o
                0x000000004a02a5ca                fdt_add_subnode
 .text.fdt_del_node
                0x000000004a02a5e8       0x30 lib/built-in.o
                0x000000004a02a5e8                fdt_del_node
 .text.fdt_open_into
                0x000000004a02a618       0xe8 lib/built-in.o
                0x000000004a02a618                fdt_open_into
 .text.fdt_address_cells
                0x000000004a02a700       0x34 lib/built-in.o
                0x000000004a02a700                fdt_address_cells
 .text.fdt_size_cells
                0x000000004a02a734       0x34 lib/built-in.o
                0x000000004a02a734                fdt_size_cells
 .text.overlay_phandle_add_offset
                0x000000004a02a768       0x4c lib/built-in.o
 .text.overlay_adjust_node_phandles
                0x000000004a02a7b4       0x5c lib/built-in.o
 .text.overlay_update_local_node_references
                0x000000004a02a810       0xfa lib/built-in.o
 *fill*         0x000000004a02a90a        0x2 
 .text.overlay_get_target
                0x000000004a02a90c       0x7c lib/built-in.o
 .text.overlay_apply_node
                0x000000004a02a988       0xae lib/built-in.o
 *fill*         0x000000004a02aa36        0x2 
 .text.fdt_overlay_apply
                0x000000004a02aa38      0x40c lib/built-in.o
                0x000000004a02aa38                fdt_overlay_apply
 .text.fdt_path_next_separator
                0x000000004a02ae44       0x2a lib/built-in.o
 .text._nextprop.part.0
                0x000000004a02ae6e       0x32 lib/built-in.o
 .text.fdt_string
                0x000000004a02aea0        0xa lib/built-in.o
                0x000000004a02aea0                fdt_string
 .text.fdt_get_mem_rsv
                0x000000004a02aeaa       0x42 lib/built-in.o
                0x000000004a02aeaa                fdt_get_mem_rsv
 .text.fdt_num_mem_rsv
                0x000000004a02aeec       0x22 lib/built-in.o
                0x000000004a02aeec                fdt_num_mem_rsv
 .text.fdt_subnode_offset_namelen
                0x000000004a02af0e       0x88 lib/built-in.o
                0x000000004a02af0e                fdt_subnode_offset_namelen
 .text.fdt_subnode_offset
                0x000000004a02af96       0x1e lib/built-in.o
                0x000000004a02af96                fdt_subnode_offset
 .text.fdt_get_name
                0x000000004a02afb4       0x3c lib/built-in.o
                0x000000004a02afb4                fdt_get_name
 .text.fdt_first_property_offset
                0x000000004a02aff0       0x18 lib/built-in.o
                0x000000004a02aff0                fdt_first_property_offset
 .text.fdt_next_property_offset
                0x000000004a02b008       0x18 lib/built-in.o
                0x000000004a02b008                fdt_next_property_offset
 .text.fdt_get_property_by_offset
                0x000000004a02b020       0x30 lib/built-in.o
                0x000000004a02b020                fdt_get_property_by_offset
 .text.fdt_get_property_namelen
                0x000000004a02b050       0x74 lib/built-in.o
                0x000000004a02b050                fdt_get_property_namelen
 .text.fdt_get_property
                0x000000004a02b0c4       0x22 lib/built-in.o
                0x000000004a02b0c4                fdt_get_property
 .text.fdt_getprop_namelen
                0x000000004a02b0e6       0x12 lib/built-in.o
                0x000000004a02b0e6                fdt_getprop_namelen
 .text.fdt_getprop_by_offset
                0x000000004a02b0f8       0x24 lib/built-in.o
                0x000000004a02b0f8                fdt_getprop_by_offset
 .text.fdt_getprop
                0x000000004a02b11c       0x22 lib/built-in.o
                0x000000004a02b11c                fdt_getprop
 *fill*         0x000000004a02b13e        0x2 
 .text.fdt_get_phandle
                0x000000004a02b140       0x40 lib/built-in.o
                0x000000004a02b140                fdt_get_phandle
 .text.fdt_get_max_phandle
                0x000000004a02b180       0x42 lib/built-in.o
                0x000000004a02b180                fdt_get_max_phandle
 *fill*         0x000000004a02b1c2        0x2 
 .text.fdt_get_alias_namelen
                0x000000004a02b1c4       0x2c lib/built-in.o
                0x000000004a02b1c4                fdt_get_alias_namelen
 .text.fdt_path_offset_namelen
                0x000000004a02b1f0       0x86 lib/built-in.o
                0x000000004a02b1f0                fdt_path_offset_namelen
 .text.fdt_path_offset
                0x000000004a02b276       0x1a lib/built-in.o
                0x000000004a02b276                fdt_path_offset
 .text.fdt_get_alias
                0x000000004a02b290       0x1a lib/built-in.o
                0x000000004a02b290                fdt_get_alias
 .text.fdt_get_path
                0x000000004a02b2aa       0xb8 lib/built-in.o
                0x000000004a02b2aa                fdt_get_path
 .text.fdt_supernode_atdepth_offset
                0x000000004a02b362       0x68 lib/built-in.o
                0x000000004a02b362                fdt_supernode_atdepth_offset
 .text.fdt_node_depth
                0x000000004a02b3ca       0x1e lib/built-in.o
                0x000000004a02b3ca                fdt_node_depth
 .text.fdt_parent_offset
                0x000000004a02b3e8       0x20 lib/built-in.o
                0x000000004a02b3e8                fdt_parent_offset
 .text.fdt_node_offset_by_phandle
                0x000000004a02b408       0x42 lib/built-in.o
                0x000000004a02b408                fdt_node_offset_by_phandle
 .text.fdt_stringlist_contains
                0x000000004a02b44a       0x46 lib/built-in.o
                0x000000004a02b44a                fdt_stringlist_contains
 .text.fdt_stringlist_search
                0x000000004a02b490       0x66 lib/built-in.o
                0x000000004a02b490                fdt_stringlist_search
 *fill*         0x000000004a02b4f6        0x2 
 .text.fdt_node_check_compatible
                0x000000004a02b4f8       0x28 lib/built-in.o
                0x000000004a02b4f8                fdt_node_check_compatible
 .text.fdt_node_offset_by_compatible
                0x000000004a02b520       0x40 lib/built-in.o
                0x000000004a02b520                fdt_node_offset_by_compatible
 .text.fdtdec_get_int
                0x000000004a02b560       0x1c lib/built-in.o
                0x000000004a02b560                fdtdec_get_int
 .text.get_prop_check_min_len
                0x000000004a02b57c       0x26 lib/built-in.o
 *fill*         0x000000004a02b5a2        0x2 
 .text.fdtdec_get_is_enabled
                0x000000004a02b5a4       0x28 lib/built-in.o
                0x000000004a02b5a4                fdtdec_get_is_enabled
 .text.fdtdec_get_alias_seq
                0x000000004a02b5cc       0xac lib/built-in.o
                0x000000004a02b5cc                fdtdec_get_alias_seq
 .text.fdtdec_get_chosen_prop
                0x000000004a02b678       0x24 lib/built-in.o
                0x000000004a02b678                fdtdec_get_chosen_prop
 .text.fdtdec_get_chosen_node
                0x000000004a02b69c       0x1c lib/built-in.o
                0x000000004a02b69c                fdtdec_get_chosen_node
 .text.fdtdec_prepare_fdt
                0x000000004a02b6b8       0x30 lib/built-in.o
                0x000000004a02b6b8                fdtdec_prepare_fdt
 .text.fdtdec_get_int_array
                0x000000004a02b6e8       0x36 lib/built-in.o
                0x000000004a02b6e8                fdtdec_get_int_array
 .text.fdtdec_parse_phandle_with_args
                0x000000004a02b71e       0xca lib/built-in.o
                0x000000004a02b71e                fdtdec_parse_phandle_with_args
 .text.fdtdec_get_config_int
                0x000000004a02b7e8       0x28 lib/built-in.o
                0x000000004a02b7e8                fdtdec_get_config_int
 .text.fdtdec_get_config_string
                0x000000004a02b810       0x28 lib/built-in.o
                0x000000004a02b810                fdtdec_get_config_string
 .text.board_fdt_blob_setup
                0x000000004a02b838        0x8 lib/built-in.o
                0x000000004a02b838                board_fdt_blob_setup
 .text.fdtdec_setup
                0x000000004a02b840       0x28 lib/built-in.o
                0x000000004a02b840                fdtdec_setup
 .text.cmpkey   0x000000004a02b868        0xc lib/built-in.o
 .text._hdelete.isra.0
                0x000000004a02b874       0x2e lib/built-in.o
 .text.drop_var_from_set.part.1
                0x000000004a02b8a2       0x30 lib/built-in.o
 *fill*         0x000000004a02b8d2        0x2 
 .text.match_string
                0x000000004a02b8d4       0x7c lib/built-in.o
 .text.match_entry
                0x000000004a02b950       0x7c lib/built-in.o
 .text.hcreate_r
                0x000000004a02b9cc       0x58 lib/built-in.o
                0x000000004a02b9cc                hcreate_r
 .text.hdestroy_r
                0x000000004a02ba24       0x44 lib/built-in.o
                0x000000004a02ba24                hdestroy_r
 .text.hmatch_r
                0x000000004a02ba68       0x5c lib/built-in.o
                0x000000004a02ba68                hmatch_r
 .text.hsearch_r
                0x000000004a02bac4      0x2a8 lib/built-in.o
                0x000000004a02bac4                hsearch_r
 .text.hdelete_r
                0x000000004a02bd6c       0x88 lib/built-in.o
                0x000000004a02bd6c                hdelete_r
 .text.hexport_r
                0x000000004a02bdf4      0x18c lib/built-in.o
                0x000000004a02bdf4                hexport_r
 .text.himport_r
                0x000000004a02bf80      0x264 lib/built-in.o
                0x000000004a02bf80                himport_r
 .text.hwalk_r  0x000000004a02c1e4       0x30 lib/built-in.o
                0x000000004a02c1e4                hwalk_r
 .text.display_options_get_banner_priv
                0x000000004a02c214       0x60 lib/built-in.o
                0x000000004a02c214                display_options_get_banner_priv
 .text.display_options_get_banner
                0x000000004a02c274        0xa lib/built-in.o
                0x000000004a02c274                display_options_get_banner
 *fill*         0x000000004a02c27e        0x2 
 .text.display_options
                0x000000004a02c280       0x24 lib/built-in.o
                0x000000004a02c280                display_options
 .text.print_size
                0x000000004a02c2a4      0x11c lib/built-in.o
                0x000000004a02c2a4                print_size
 .text.print_buffer
                0x000000004a02c3c0      0x114 lib/built-in.o
                0x000000004a02c3c0                print_buffer
 .text.crc32_wd
                0x000000004a02c4d4        0x4 lib/built-in.o
                0x000000004a02c4d4                crc32_wd
 .text.__div64_32
                0x000000004a02c4d8       0x8e lib/built-in.o
                0x000000004a02c4d8                __div64_32
 *fill*         0x000000004a02c566        0x2 
 .text.hang     0x000000004a02c568       0x18 lib/built-in.o
                0x000000004a02c568                hang
 .text.kmalloc  0x000000004a02c580       0x26 lib/built-in.o
                0x000000004a02c580                kmalloc
 *fill*         0x000000004a02c5a6        0x2 
 .text.skip_spaces
                0x000000004a02c5a8       0x18 lib/built-in.o
                0x000000004a02c5a8                skip_spaces
 .text.strim    0x000000004a02c5c0       0x34 lib/built-in.o
                0x000000004a02c5c0                strim
 .text.emit     0x000000004a02c5f4       0x20 lib/built-in.o
 .text.store_char_in_data
                0x000000004a02c614       0x24 lib/built-in.o
 .text.get_escape_char
                0x000000004a02c638       0x4a lib/built-in.o
 .text.relocate
                0x000000004a02c682       0x2a lib/built-in.o
 .text.match    0x000000004a02c6ac      0x260 lib/built-in.o
 .text.loop_greedy
                0x000000004a02c90c       0x56 lib/built-in.o
 .text.loop_non_greedy
                0x000000004a02c962       0x4c lib/built-in.o
 *fill*         0x000000004a02c9ae        0x2 
 .text.quantifier
                0x000000004a02c9b0       0x5c lib/built-in.o
 .text.fixup_branch
                0x000000004a02ca0c       0x28 lib/built-in.o
 .text.compile  0x000000004a02ca34      0x214 lib/built-in.o
 .text.slre_compile
                0x000000004a02cc48       0x8c lib/built-in.o
                0x000000004a02cc48                slre_compile
 .text.slre_match
                0x000000004a02ccd4       0x5a lib/built-in.o
                0x000000004a02ccd4                slre_match
 *fill*         0x000000004a02cd2e        0x2 
 .text.strncasecmp
                0x000000004a02cd30       0x44 lib/built-in.o
                0x000000004a02cd30                strncasecmp
 .text.strcasecmp
                0x000000004a02cd74        0x8 lib/built-in.o
                0x000000004a02cd74                strcasecmp
 .text.strcpy   0x000000004a02cd7c       0x10 lib/built-in.o
                0x000000004a02cd7c                strcpy
 .text.strncpy  0x000000004a02cd8c       0x18 lib/built-in.o
                0x000000004a02cd8c                strncpy
 .text.strcat   0x000000004a02cda4       0x20 lib/built-in.o
                0x000000004a02cda4                strcat
 .text.strncat  0x000000004a02cdc4       0x2a lib/built-in.o
                0x000000004a02cdc4                strncat
 .text.strcmp   0x000000004a02cdee       0x16 lib/built-in.o
                0x000000004a02cdee                strcmp
 .text.strncmp  0x000000004a02ce04       0x22 lib/built-in.o
                0x000000004a02ce04                strncmp
 .text.strchr   0x000000004a02ce26       0x1a lib/built-in.o
                0x000000004a02ce26                strchr
 .text.strlen   0x000000004a02ce40       0x10 lib/built-in.o
                0x000000004a02ce40                strlen
 .text.strlcpy  0x000000004a02ce50       0x2e lib/built-in.o
                0x000000004a02ce50                strlcpy
 .text.strrchr  0x000000004a02ce7e       0x20 lib/built-in.o
                0x000000004a02ce7e                strrchr
 .text.strnlen  0x000000004a02ce9e       0x18 lib/built-in.o
                0x000000004a02ce9e                strnlen
 .text.strdup   0x000000004a02ceb6       0x22 lib/built-in.o
                0x000000004a02ceb6                strdup
 .text.strpbrk  0x000000004a02ced8       0x22 lib/built-in.o
                0x000000004a02ced8                strpbrk
 .text.strsep   0x000000004a02cefa       0x1c lib/built-in.o
                0x000000004a02cefa                strsep
 .text.memmove  0x000000004a02cf16       0x28 lib/built-in.o
                0x000000004a02cf16                memmove
 .text.memcmp   0x000000004a02cf3e       0x1a lib/built-in.o
                0x000000004a02cf3e                memcmp
 .text.memscan  0x000000004a02cf58       0x16 lib/built-in.o
                0x000000004a02cf58                memscan
 .text.strstr   0x000000004a02cf6e       0x40 lib/built-in.o
                0x000000004a02cf6e                strstr
 .text.memchr   0x000000004a02cfae       0x1c lib/built-in.o
                0x000000004a02cfae                memchr
 .text.tick_to_time
                0x000000004a02cfca       0x48 lib/built-in.o
 .text.timer_get_us
                0x000000004a02d012       0x1c lib/built-in.o
                0x000000004a02d012                timer_get_us
 *fill*         0x000000004a02d02e        0x2 
 .text.udelay   0x000000004a02d030       0x20 lib/built-in.o
                0x000000004a02d030                udelay
 .text.uuid_str_valid
                0x000000004a02d050       0x50 lib/built-in.o
                0x000000004a02d050                uuid_str_valid
 .text.uuid_str_to_bin
                0x000000004a02d0a0      0x12c lib/built-in.o
                0x000000004a02d0a0                uuid_str_to_bin
 .text.uuid_bin_to_str
                0x000000004a02d1cc       0x78 lib/built-in.o
                0x000000004a02d1cc                uuid_bin_to_str
 .text.gen_rand_uuid
                0x000000004a02d244       0x56 lib/built-in.o
                0x000000004a02d244                gen_rand_uuid
 .text.gen_rand_uuid_str
                0x000000004a02d29a       0x1c lib/built-in.o
                0x000000004a02d29a                gen_rand_uuid_str
 .text.rand_r   0x000000004a02d2b6       0x14 lib/built-in.o
                0x000000004a02d2b6                rand_r
 *fill*         0x000000004a02d2ca        0x2 
 .text.rand     0x000000004a02d2cc        0xc lib/built-in.o
                0x000000004a02d2cc                rand
 .text.panic_finish
                0x000000004a02d2d8       0x20 lib/built-in.o
 .text.panic_str
                0x000000004a02d2f8        0xa lib/built-in.o
                0x000000004a02d2f8                panic_str
 .text.panic    0x000000004a02d302       0x14 lib/built-in.o
                0x000000004a02d302                panic
 .text.put_dec_trunc
                0x000000004a02d316       0x96 lib/built-in.o
 *fill*         0x000000004a02d3ac        0x4 
 .text.put_dec  0x000000004a02d3b0      0x120 lib/built-in.o
 .text.number   0x000000004a02d4d0      0x1f8 lib/built-in.o
 .text.string16
                0x000000004a02d6c8       0x64 lib/built-in.o
 .text.string   0x000000004a02d72c       0x70 lib/built-in.o
 .text.vsnprintf_internal
                0x000000004a02d79c      0x4f4 lib/built-in.o
 .text.vsnprintf
                0x000000004a02dc90        0x4 lib/built-in.o
                0x000000004a02dc90                vsnprintf
 .text.vscnprintf
                0x000000004a02dc94       0x16 lib/built-in.o
                0x000000004a02dc94                vscnprintf
 .text.snprintf
                0x000000004a02dcaa       0x1a lib/built-in.o
                0x000000004a02dcaa                snprintf
 .text.vsprintf
                0x000000004a02dcc4        0xc lib/built-in.o
                0x000000004a02dcc4                vsprintf
 .text.sprintf  0x000000004a02dcd0       0x1a lib/built-in.o
                0x000000004a02dcd0                sprintf
 .text.printf   0x000000004a02dcea       0x34 lib/built-in.o
                0x000000004a02dcea                printf
 .text.vprintf  0x000000004a02dd1e       0x26 lib/built-in.o
                0x000000004a02dd1e                vprintf
 .text.simple_itoa
                0x000000004a02dd44       0x3c lib/built-in.o
                0x000000004a02dd44                simple_itoa
 .text._parse_integer_fixup_radix
                0x000000004a02dd80       0x5c lib/built-in.o
 .text.simple_strtoul
                0x000000004a02dddc       0x50 lib/built-in.o
                0x000000004a02dddc                simple_strtoul
 .text.strict_strtoul
                0x000000004a02de2c       0x42 lib/built-in.o
                0x000000004a02de2c                strict_strtoul
 .text.simple_strtol
                0x000000004a02de6e       0x1a lib/built-in.o
                0x000000004a02de6e                simple_strtol
 .text.ustrtoul
                0x000000004a02de88       0x3c lib/built-in.o
                0x000000004a02de88                ustrtoul
 .text.simple_strtoull
                0x000000004a02dec4       0x74 lib/built-in.o
                0x000000004a02dec4                simple_strtoull
 .text.ustrtoull
                0x000000004a02df38       0x50 lib/built-in.o
                0x000000004a02df38                ustrtoull
 .text.trailing_strtoln
                0x000000004a02df88       0x48 lib/built-in.o
                0x000000004a02df88                trailing_strtoln
 .text.trailing_strtol
                0x000000004a02dfd0        0x6 lib/built-in.o
                0x000000004a02dfd0                trailing_strtol
 .text.compute_ip_checksum
                0x000000004a02dfd6       0x42 net/built-in.o
                0x000000004a02dfd6                compute_ip_checksum
 .text.ip_checksum_ok
                0x000000004a02e018       0x14 net/built-in.o
                0x000000004a02e018                ip_checksum_ok
 .text.arp_init
                0x000000004a02e02c       0x38 net/built-in.o
                0x000000004a02e02c                arp_init
 .text.arp_raw_request
                0x000000004a02e064       0x90 net/built-in.o
                0x000000004a02e064                arp_raw_request
 .text.arp_request
                0x000000004a02e0f4       0x54 net/built-in.o
                0x000000004a02e0f4                arp_request
 .text.arp_timeout_check
                0x000000004a02e148       0x58 net/built-in.o
                0x000000004a02e148                arp_timeout_check
 .text.arp_receive
                0x000000004a02e1a0      0x17c net/built-in.o
                0x000000004a02e1a0                arp_receive
 .text.dhcp_extended
                0x000000004a02e31c      0x160 net/built-in.o
 .text.dhcp_process_options
                0x000000004a02e47c      0x150 net/built-in.o
 .text.dhcp_packet_process_options
                0x000000004a02e5cc       0x5c net/built-in.o
 .text.dhcp_handler
                0x000000004a02e628      0x2a8 net/built-in.o
 .text.bootp_reset
                0x000000004a02e8d0       0x2c net/built-in.o
                0x000000004a02e8d0                bootp_reset
 .text.bootp_request
                0x000000004a02e8fc      0x1dc net/built-in.o
                0x000000004a02e8fc                bootp_request
 .text.bootp_timeout_handler
                0x000000004a02ead8       0x58 net/built-in.o
 .text.dhcp_request
                0x000000004a02eb30        0x4 net/built-in.o
                0x000000004a02eb30                dhcp_request
 .text.eth_get_uclass_priv
                0x000000004a02eb34       0x14 net/built-in.o
 .text.eth_pre_remove
                0x000000004a02eb48       0x1a net/built-in.o
 *fill*         0x000000004a02eb62        0x2 
 .text.eth_post_probe
                0x000000004a02eb64       0xe8 net/built-in.o
 .text.eth_write_hwaddr
                0x000000004a02ec4c       0x7c net/built-in.o
 .text.on_ethaddr
                0x000000004a02ecc8       0x4c net/built-in.o
 .text.eth_post_bind
                0x000000004a02ed14       0x20 net/built-in.o
 .text.eth_set_current_to_next
                0x000000004a02ed34       0x24 net/built-in.o
                0x000000004a02ed34                eth_set_current_to_next
 .text.eth_get_dev
                0x000000004a02ed58       0x20 net/built-in.o
                0x000000004a02ed58                eth_get_dev
 .text.eth_set_dev
                0x000000004a02ed78       0x24 net/built-in.o
                0x000000004a02ed78                eth_set_dev
 .text.eth_pre_unbind
                0x000000004a02ed9c       0x18 net/built-in.o
 .text.eth_get_dev_by_name
                0x000000004a02edb4       0x88 net/built-in.o
                0x000000004a02edb4                eth_get_dev_by_name
 .text.eth_get_ethaddr
                0x000000004a02ee3c       0x12 net/built-in.o
                0x000000004a02ee3c                eth_get_ethaddr
 .text.eth_halt_state_only
                0x000000004a02ee4e       0x16 net/built-in.o
                0x000000004a02ee4e                eth_halt_state_only
 .text.eth_get_dev_index
                0x000000004a02ee64       0x16 net/built-in.o
                0x000000004a02ee64                eth_get_dev_index
 *fill*         0x000000004a02ee7a        0x2 
 .text.eth_init
                0x000000004a02ee7c       0x94 net/built-in.o
                0x000000004a02ee7c                eth_init
 .text.eth_is_active
                0x000000004a02ef10       0x20 net/built-in.o
                0x000000004a02ef10                eth_is_active
 .text.eth_halt
                0x000000004a02ef30       0x24 net/built-in.o
                0x000000004a02ef30                eth_halt
 .text.eth_send
                0x000000004a02ef54       0x32 net/built-in.o
                0x000000004a02ef54                eth_send
 .text.eth_rx   0x000000004a02ef86       0x66 net/built-in.o
                0x000000004a02ef86                eth_rx
 .text.eth_initialize
                0x000000004a02efec       0xac net/built-in.o
                0x000000004a02efec                eth_initialize
 .text.eth_env_get_enetaddr_by_index
                0x000000004a02f098       0x2c net/built-in.o
                0x000000004a02f098                eth_env_get_enetaddr_by_index
 .text.eth_env_set_enetaddr_by_index
                0x000000004a02f0c4       0x2c net/built-in.o
                0x000000004a02f0c4                eth_env_set_enetaddr_by_index
 .text.eth_common_init
                0x000000004a02f0f0       0x10 net/built-in.o
                0x000000004a02f0f0                eth_common_init
 .text.eth_mac_skip
                0x000000004a02f100       0x2c net/built-in.o
                0x000000004a02f100                eth_mac_skip
 .text.eth_get_name
                0x000000004a02f12c       0x18 net/built-in.o
                0x000000004a02f12c                eth_get_name
 .text.eth_current_changed
                0x000000004a02f144       0x5c net/built-in.o
                0x000000004a02f144                eth_current_changed
 .text.eth_try_another
                0x000000004a02f1a0       0x54 net/built-in.o
                0x000000004a02f1a0                eth_try_another
 .text.eth_set_current
                0x000000004a02f1f4       0x58 net/built-in.o
                0x000000004a02f1f4                eth_set_current
 .text.net_clear_handlers
                0x000000004a02f24c       0x24 net/built-in.o
 .text.start_again_timeout_handler
                0x000000004a02f270        0xc net/built-in.o
 .text.dummy_handler
                0x000000004a02f27c        0x2 net/built-in.o
 *fill*         0x000000004a02f27e        0x2 
 .text.on_ipaddr
                0x000000004a02f280       0x18 net/built-in.o
 .text.on_gatewayip
                0x000000004a02f298       0x18 net/built-in.o
 .text.on_netmask
                0x000000004a02f2b0       0x18 net/built-in.o
 .text.on_serverip
                0x000000004a02f2c8       0x18 net/built-in.o
 .text.net_init_loop.part.0
                0x000000004a02f2e0       0x18 net/built-in.o
 .text.net_init
                0x000000004a02f2f8       0x58 net/built-in.o
                0x000000004a02f2f8                net_init
 .text.net_start_again
                0x000000004a02f350       0xec net/built-in.o
                0x000000004a02f350                net_start_again
 .text.net_set_udp_handler
                0x000000004a02f43c       0x18 net/built-in.o
                0x000000004a02f43c                net_set_udp_handler
 .text.net_get_arp_handler
                0x000000004a02f454        0xc net/built-in.o
                0x000000004a02f454                net_get_arp_handler
 .text.net_set_timeout_handler
                0x000000004a02f460       0x3c net/built-in.o
                0x000000004a02f460                net_set_timeout_handler
 .text.net_process_received_packet
                0x000000004a02f49c      0x204 net/built-in.o
                0x000000004a02f49c                net_process_received_packet
 .text.net_eth_hdr_size
                0x000000004a02f6a0       0x30 net/built-in.o
                0x000000004a02f6a0                net_eth_hdr_size
 .text.net_set_ether
                0x000000004a02f6d0       0x7c net/built-in.o
                0x000000004a02f6d0                net_set_ether
 .text.net_update_ether
                0x000000004a02f74c       0x68 net/built-in.o
                0x000000004a02f74c                net_update_ether
 .text.net_set_ip_header
                0x000000004a02f7b4       0x68 net/built-in.o
                0x000000004a02f7b4                net_set_ip_header
 .text.net_set_udp_header
                0x000000004a02f81c       0x74 net/built-in.o
                0x000000004a02f81c                net_set_udp_header
 .text.net_send_udp_packet
                0x000000004a02f890       0xb4 net/built-in.o
                0x000000004a02f890                net_send_udp_packet
 .text.copy_filename
                0x000000004a02f944       0x30 net/built-in.o
                0x000000004a02f944                copy_filename
 .text.is_serverip_in_cmd
                0x000000004a02f974       0x18 net/built-in.o
                0x000000004a02f974                is_serverip_in_cmd
 .text.net_check_prereq
                0x000000004a02f98c       0xa8 net/built-in.o
 .text.net_auto_load
                0x000000004a02fa34       0x68 net/built-in.o
                0x000000004a02fa34                net_auto_load
 .text.net_loop
                0x000000004a02fa9c      0x1d4 net/built-in.o
                0x000000004a02fa9c                net_loop
 .text.net_parse_bootfile
                0x000000004a02fc70       0x50 net/built-in.o
                0x000000004a02fc70                net_parse_bootfile
 .text.ip_to_string
                0x000000004a02fcc0       0x28 net/built-in.o
                0x000000004a02fcc0                ip_to_string
 .text.string_to_vlan
                0x000000004a02fce8       0x28 net/built-in.o
                0x000000004a02fce8                string_to_vlan
 .text.on_nvlan
                0x000000004a02fd10       0x18 net/built-in.o
 .text.on_vlan  0x000000004a02fd28       0x18 net/built-in.o
 .text.rpc_lookup_reply
                0x000000004a02fd40       0x68 net/built-in.o
 .text.nfs_mount_reply
                0x000000004a02fda8       0x60 net/built-in.o
 .text.nfs_umountall_reply
                0x000000004a02fe08       0x58 net/built-in.o
 .text.nfs_lookup_reply
                0x000000004a02fe60       0xac net/built-in.o
 .text.nfs3_get_attributes_offset
                0x000000004a02ff0c        0xc net/built-in.o
 .text.nfs_readlink_reply
                0x000000004a02ff18       0xa8 net/built-in.o
 .text.basename
                0x000000004a02ffc0       0x20 net/built-in.o
 .text.rpc_req  0x000000004a02ffe0       0xc4 net/built-in.o
 .text.nfs_read_req
                0x000000004a0300a4       0xa4 net/built-in.o
 .text.nfs_read_reply.isra.0
                0x000000004a030148       0xe0 net/built-in.o
 .text.nfs_umountall_req
                0x000000004a030228       0x54 net/built-in.o
 .text.nfs_readlink_req
                0x000000004a03027c       0x84 net/built-in.o
 .text.nfs_mount_req
                0x000000004a030300       0x88 net/built-in.o
 .text.nfs_lookup_req
                0x000000004a030388      0x10c net/built-in.o
 .text.nfs_send
                0x000000004a030494       0xd4 net/built-in.o
 .text.nfs_handler
                0x000000004a030568      0x178 net/built-in.o
 .text.nfs_timeout_handler
                0x000000004a0306e0       0x4c net/built-in.o
 .text.nfs_start
                0x000000004a03072c      0x168 net/built-in.o
                0x000000004a03072c                nfs_start
 .text.ping_timeout_handler
                0x000000004a030894       0x14 net/built-in.o
 .text.ping_start
                0x000000004a0308a8       0xdc net/built-in.o
                0x000000004a0308a8                ping_start
 .text.ping_receive
                0x000000004a030984       0xb8 net/built-in.o
                0x000000004a030984                ping_receive
 .text.tftp_send
                0x000000004a030a3c      0x134 net/built-in.o
 .text.tftp_handler
                0x000000004a030b70      0x274 net/built-in.o
 .text.tftp_timeout_handler
                0x000000004a030de4       0x64 net/built-in.o
 .text.tftp_start
                0x000000004a030e48      0x238 net/built-in.o
                0x000000004a030e48                tftp_start
 .text.do_dm_dump_devres
                0x000000004a031080        0x4 test/dm/built-in.o
 .text.do_dm    0x000000004a031084       0x44 test/dm/built-in.o
 .text.do_dm_dump_uclass
                0x000000004a0310c8        0xa test/dm/built-in.o
 .text.do_dm_dump_all
                0x000000004a0310d2        0xa test/dm/built-in.o
 .text.__udivsi3
                0x000000004a0310dc       0x9c arch/arm/lib/lib.a(lib1funcs.o)
                0x000000004a0310dc                __udivsi3
                0x000000004a0310dc                __aeabi_uidiv
 .text.__divsi3
                0x000000004a031178       0xcc arch/arm/lib/lib.a(lib1funcs.o)
                0x000000004a031178                __aeabi_idiv
                0x000000004a031178                __divsi3
 .text.__aeabi_uidivmod
                0x000000004a031244       0x30 arch/arm/lib/lib.a(lib1funcs.o)
                0x000000004a031244                __aeabi_uidivmod
                0x000000004a03125c                __aeabi_idivmod
 .text.Ldiv0    0x000000004a031274       0x10 arch/arm/lib/lib.a(lib1funcs.o)
 .text.__div0   0x000000004a031284        0x4 arch/arm/lib/lib.a(div0.o)
                0x000000004a031284                __div0
 .text.__div0.__stub
                0x000000004a031288        0x4 linker stubs

.__secure_start
                0x000000004a032000        0x0
 *(.__secure_start)
 .__secure_start
                0x000000004a032000        0x0 arch/arm/lib/built-in.o
                0x000000004a032000                __secure_start

.secure_text    0x000000004a032000      0x5e8
 *(._secure.text)
 ._secure.text  0x000000004a032000      0x5d4 arch/arm/cpu/armv7/built-in.o
                0x000000004a0320a0                _do_nonsec_entry
                0x000000004a0320b4                _nonsec_init
                0x000000004a032140                _psci_vectors
                0x000000004a032164                default_psci_vector
                0x000000004a032168                psci_migrate_info_up_cpu
                0x000000004a032168                psci_cpu_suspend
                0x000000004a032168                psci_version
                0x000000004a032168                psci_affinity_info
                0x000000004a032168                psci_migrate
                0x000000004a032168                psci_system_reset
                0x000000004a032168                psci_system_suspend
                0x000000004a032168                psci_system_off
                0x000000004a032168                psi_stat_residency
                0x000000004a032168                psci_features
                0x000000004a032168                psci_cpu_default_suspend
                0x000000004a032168                psci_stat_count
                0x000000004a032168                psci_node_hw_state
                0x000000004a032168                psci_set_suspend_mode
                0x000000004a032168                psci_migrate_info_type
                0x000000004a032168                psci_cpu_freeze
                0x000000004a032270                psci_get_cpu_id
                0x000000004a03227c                psci_v7_flush_dcache_all
                0x000000004a032320                psci_disable_smp
                0x000000004a032338                psci_enable_smp
                0x000000004a03234c                psci_cpu_off_common
                0x000000004a032390                psci_stack_setup
                0x000000004a0323b0                psci_arch_cpu_entry
                0x000000004a0323b4                psci_cpu_entry
                0x000000004a0323ec                psci_save
                0x000000004a032404                psci_get_target_pc
                0x000000004a032410                psci_get_context_id
                0x000000004a032420                sunxi_cpu_power_off
                0x000000004a0324a0                psci_fiq_enter
                0x000000004a0324f0                psci_cpu_on
                0x000000004a032568                psci_cpu_off
                0x000000004a032588                psci_arch_init
 *fill*         0x000000004a0325d4        0x4 
 ._secure.text.__stub
                0x000000004a0325d8       0x10 linker stubs

.secure_data    0x000000004a0325e8       0x20
 *(._secure.data)
 ._secure.data  0x000000004a0325e8       0x20 arch/arm/cpu/armv7/built-in.o

.secure_stack   0x000000004a0335e8     0x1a18
 *(.__secure_stack_start)
 .__secure_stack_start
                0x000000004a0335e8        0x0 arch/arm/lib/built-in.o
                0x000000004a0335e8                __secure_stack_start
                0x000000004a0345e8                . = (. + 0x1000)
 *fill*         0x000000004a0335e8     0x1000 
                0x000000004a035000                . = ALIGN (CONSTANT (COMMONPAGESIZE))
 *fill*         0x000000004a0345e8      0xa18 
 *(.__secure_stack_end)
 .__secure_stack_end
                0x000000004a035000        0x0 arch/arm/lib/built-in.o
                0x000000004a035000                __secure_stack_end

.__secure_end   0x000000004a035000        0x4
 *(.__secure_end)
 .__secure_end  0x000000004a035000        0x0 arch/arm/lib/built-in.o
                0x000000004a035000                __secure_end
                0x000000004a035000        0x4 LONG 0x1d1071c
                0x000000004a035004                . = ALIGN (0x4)

.rodata         0x000000004a035008    0x1017f
 *(SORT_BY_ALIGNMENT(SORT_BY_NAME(.rodata*)))
 .rodata.efi_file_handle_protocol
                0x000000004a035008       0x30 lib/built-in.o
 .rodata        0x000000004a035038       0x80 arch/arm/lib/built-in.o
 .rodata.CSWTCH.14
                0x000000004a0350b8       0x20 disk/built-in.o
 .rodata.CSWTCH.19
                0x000000004a0350d8       0x20 common/built-in.o
 .rodata.CSWTCH.39
                0x000000004a0350f8       0x14 cmd/built-in.o
 .rodata.CSWTCH.48
                0x000000004a03510c       0x18 drivers/usb/musb-new/built-in.o
 .rodata.CSWTCH.56
                0x000000004a035124       0x24 drivers/built-in.o
 .rodata.CSWTCH.6
                0x000000004a035148       0x1c drivers/usb/musb-new/built-in.o
 .rodata.boot_os
                0x000000004a035164       0x60 common/built-in.o
 .rodata.bootm_args.7280
                0x000000004a0351c4        0xc drivers/built-in.o
 .rodata.color  0x000000004a0351d0       0x40 lib/built-in.o
 .rodata.commands
                0x000000004a035210       0x38 drivers/built-in.o
 .rodata.desc_and_len_tbl
                0x000000004a035248       0x30 cmd/built-in.o
 .rodata.efi_device_path_to_text
                0x000000004a035278        0x8 lib/built-in.o
                0x000000004a035278                efi_device_path_to_text
 .rodata.efi_device_path_utilities
                0x000000004a035280       0x20 lib/built-in.o
                0x000000004a035280                efi_device_path_utilities
 .rodata.efi_unicode_collation_protocol
                0x000000004a0352a0       0x1c lib/built-in.o
                0x000000004a0352a0                efi_unicode_collation_protocol
 .rodata.env_flags_varaccess_mask
                0x000000004a0352bc       0x10 env/built-in.o
 .rodata.fdt_errtable
                0x000000004a0352cc       0x48 lib/built-in.o
 .rodata.generic_simple_bus_ids
                0x000000004a035314       0x18 drivers/built-in.o
 .rodata.getvar_dispatch
                0x000000004a03532c       0x58 drivers/built-in.o
 .rodata.gpio_axp_ops
                0x000000004a035384       0x28 drivers/gpio/built-in.o
 .rodata.gpio_function
                0x000000004a0353ac       0x14 drivers/gpio/built-in.o
 .rodata.gpio_sunxi_ops
                0x000000004a0353c0       0x28 drivers/gpio/built-in.o
 .rodata.hub_id_table
                0x000000004a0353e8       0x30 common/built-in.o
 .rodata.init_sequence_f
                0x000000004a035418       0xa8 common/built-in.o
 .rodata.kbd_id_table
                0x000000004a0354c0       0x30 common/built-in.o
 .rodata.keywords
                0x000000004a0354f0       0x98 cmd/built-in.o
 .rodata.machines
                0x000000004a035588       0x10 lib/built-in.o
 .rodata.mass_storage_id_table
                0x000000004a035598       0x30 common/built-in.o
 .rodata.musb_ep_ops
                0x000000004a0355c8       0x28 drivers/usb/musb-new/built-in.o
 .rodata.musb_g_ep0_ops
                0x000000004a0355f0       0x28 drivers/usb/musb-new/built-in.o
                0x000000004a0355f0                musb_g_ep0_ops
 .rodata.musb_gadget_operations
                0x000000004a035618       0x24 drivers/usb/musb-new/built-in.o
 .rodata.ns16550_serial_ids
                0x000000004a03563c       0x30 drivers/serial/built-in.o
 .rodata.ns16550_serial_ops
                0x000000004a03566c       0x18 drivers/serial/built-in.o
                0x000000004a03566c                ns16550_serial_ops
 .rodata.oid_supported_list
                0x000000004a035684       0x70 drivers/usb/gadget/built-in.o
 .rodata.op_adv
                0x000000004a0356f4      0x100 cmd/built-in.o
                0x000000004a0356f4                op_adv
 .rodata.op_table
                0x000000004a0357f4       0x68 cmd/built-in.o
 .rodata.reg_0_5_desc_tbl
                0x000000004a03585c       0x30 cmd/built-in.o
 .rodata.reg_0_desc_tbl
                0x000000004a03588c       0x78 cmd/built-in.o
 .rodata.reg_1_desc_tbl
                0x000000004a035904       0xc0 cmd/built-in.o
 .rodata.reg_2_desc_tbl
                0x000000004a0359c4        0xc cmd/built-in.o
 .rodata.reg_3_desc_tbl
                0x000000004a0359d0       0x24 cmd/built-in.o
 .rodata.reg_4_desc_tbl
                0x000000004a0359f4       0x90 cmd/built-in.o
 .rodata.reg_5_desc_tbl
                0x000000004a035a84       0x90 cmd/built-in.o
 .rodata.res_mode_init
                0x000000004a035b14      0x208 drivers/built-in.o
                0x000000004a035b14                res_mode_init
 .rodata.root_info
                0x000000004a035d1c        0x8 drivers/built-in.o
 .rodata.smbios_write_funcs
                0x000000004a035d24       0x1c lib/built-in.o
 .rodata.soc_data_a_all
                0x000000004a035d40        0x8 drivers/gpio/built-in.o
 .rodata.soc_data_l_1
                0x000000004a035d48        0x8 drivers/gpio/built-in.o
 .rodata.soc_data_l_2
                0x000000004a035d50        0x8 drivers/gpio/built-in.o
 .rodata.soc_data_l_3
                0x000000004a035d58        0x8 drivers/gpio/built-in.o
 .rodata.sun4i_a10_cfg
                0x000000004a035d60       0x10 drivers/built-in.o
 .rodata.sun4i_a10_cfg
                0x000000004a035d70        0xc drivers/usb/musb-new/built-in.o
 .rodata.sun4i_usb_phy_ids
                0x000000004a035d7c       0x58 drivers/built-in.o
 .rodata.sun50i_a64_cfg
                0x000000004a035dd4       0x10 drivers/built-in.o
 .rodata.sun5i_a13_cfg
                0x000000004a035de4       0x10 drivers/built-in.o
 .rodata.sun6i_a31_cfg
                0x000000004a035df4       0x10 drivers/built-in.o
 .rodata.sun6i_a31_cfg
                0x000000004a035e04        0xc drivers/usb/musb-new/built-in.o
 .rodata.sun7i_a20_cfg
                0x000000004a035e10       0x10 drivers/built-in.o
 .rodata.sun8i_a23_cfg
                0x000000004a035e20       0x10 drivers/built-in.o
 .rodata.sun8i_a33_cfg
                0x000000004a035e30       0x10 drivers/built-in.o
 .rodata.sun8i_a83t_cfg
                0x000000004a035e40       0x10 drivers/built-in.o
 .rodata.sun8i_h3_cfg
                0x000000004a035e50       0x10 drivers/built-in.o
 .rodata.sun8i_h3_cfg
                0x000000004a035e60        0xc drivers/usb/musb-new/built-in.o
 .rodata.sun8i_v3s_cfg
                0x000000004a035e6c       0x10 drivers/built-in.o
 .rodata.sunxi_gpio_ids
                0x000000004a035e7c       0xb0 drivers/gpio/built-in.o
 .rodata.sunxi_musb_ids
                0x000000004a035f2c       0x28 drivers/usb/musb-new/built-in.o
 .rodata.sunxi_musb_ops
                0x000000004a035f54       0x2c drivers/usb/musb-new/built-in.o
 .rodata.sunxi_rgb2yuv_coef
                0x000000004a035f80       0x30 drivers/built-in.o
 .rodata.uimage_arch
                0x000000004a035fb0      0x144 common/built-in.o
 .rodata.uimage_comp
                0x000000004a0360f4       0x54 common/built-in.o
 .rodata.uimage_os
                0x000000004a036148       0x90 common/built-in.o
 .rodata.uimage_type
                0x000000004a0361d8      0x1b0 common/built-in.o
 .rodata.usb_eth_ops
                0x000000004a036388       0x1c drivers/usb/gadget/built-in.o
 .rodata.usb_hub_ids
                0x000000004a0363a4       0x10 common/built-in.o
 .rodata.usb_kbd_ids
                0x000000004a0363b4       0x10 common/built-in.o
 .rodata.usb_mass_storage_ids
                0x000000004a0363c4       0x10 common/built-in.o
 .rodata.video_font_draw_table15
                0x000000004a0363d4       0x10 drivers/built-in.o
 .rodata.video_font_draw_table16
                0x000000004a0363e4       0x10 drivers/built-in.o
 .rodata.video_font_draw_table24
                0x000000004a0363f4       0xc0 drivers/built-in.o
 .rodata.video_font_draw_table32
                0x000000004a0364b4      0x100 drivers/built-in.o
 .rodata.video_font_draw_table8
                0x000000004a0365b4       0x40 drivers/built-in.o
 .rodata.codepage
                0x000000004a0365f4      0x100 lib/built-in.o
 .rodata.crc16_tab
                0x000000004a0366f4      0x200 lib/built-in.o
 .rodata.dbase.7615
                0x000000004a0368f4       0x40 lib/built-in.o
 .rodata.dext.7616
                0x000000004a036934       0x40 lib/built-in.o
 .rodata.distfix
                0x000000004a036974       0x80 lib/built-in.o
 .rodata.efi_bootmgr_load.str2.2
                0x000000004a0369f4       0x48 lib/built-in.o
 .rodata.lbase.7613
                0x000000004a036a3c       0x3e lib/built-in.o
 .rodata.lenfix
                0x000000004a036a7a      0x800 lib/built-in.o
 .rodata.lext.7614
                0x000000004a03727a       0x3e lib/built-in.o
 .rodata.order.7709
                0x000000004a0372b8       0x26 lib/built-in.o
 .rodata.string16.str2.2
                0x000000004a0372de        0xe lib/built-in.o
 .rodata        0x000000004a0372ec        0x2 cmd/built-in.o
 .rodata        0x000000004a0372ee        0x3 env/built-in.o
 .rodata        0x000000004a0372f1       0x20 lib/built-in.o
 .rodata        0x000000004a037311        0x7 net/built-in.o
 .rodata.CSWTCH.3
                0x000000004a037318        0x4 arch/arm/mach-sunxi/built-in.o
 .rodata.CSWTCH.49
                0x000000004a03731c        0x6 drivers/usb/musb-new/built-in.o
 .rodata.END    0x000000004a037322        0x4 lib/built-in.o
 .rodata.ROOT   0x000000004a037326       0x14 lib/built-in.o
 .rodata.__FUNCTION__.9004
                0x000000004a03733a       0x17 common/built-in.o
 .rodata.__FUNCTION__.9168
                0x000000004a037351       0x17 common/built-in.o
 .rodata.__func__.10149
                0x000000004a037368        0xd drivers/built-in.o
 .rodata.__func__.10155
                0x000000004a037375       0x11 drivers/built-in.o
 .rodata.__func__.10159
                0x000000004a037386       0x18 drivers/built-in.o
 .rodata.__func__.10163
                0x000000004a03739e       0x18 drivers/built-in.o
 .rodata.__func__.10167
                0x000000004a0373b6        0xd drivers/built-in.o
 .rodata.__func__.10171
                0x000000004a0373c3       0x14 drivers/built-in.o
 .rodata.__func__.10175
                0x000000004a0373d7       0x14 drivers/built-in.o
 .rodata.__func__.10218
                0x000000004a0373eb        0xf common/built-in.o
 .rodata.__func__.10383
                0x000000004a0373fa       0x15 common/built-in.o
 .rodata.__func__.10439
                0x000000004a03740f        0xc lib/built-in.o
 .rodata.__func__.11142
                0x000000004a03741b       0x17 drivers/usb/gadget/built-in.o
 .rodata.__func__.11250
                0x000000004a037432       0x12 drivers/usb/musb-new/built-in.o
 .rodata.__func__.11313
                0x000000004a037444        0x9 drivers/usb/gadget/built-in.o
 .rodata.__func__.11379
                0x000000004a03744d        0xf drivers/usb/musb-new/built-in.o
 .rodata.__func__.11395
                0x000000004a03745c       0x11 drivers/usb/gadget/built-in.o
 .rodata.__func__.11539
                0x000000004a03746d        0xf drivers/usb/gadget/built-in.o
 .rodata.__func__.12426
                0x000000004a03747c       0x20 board/sunxi/built-in.o
 .rodata.__func__.7284
                0x000000004a03749c        0xb fs/built-in.o
 .rodata.__func__.7739
                0x000000004a0374a7        0x7 cmd/built-in.o
 .rodata.__func__.8511
                0x000000004a0374ae        0xd drivers/usb/gadget/built-in.o
 .rodata.__func__.8526
                0x000000004a0374bb       0x1b lib/built-in.o
 .rodata.__func__.8546
                0x000000004a0374d6        0xc lib/built-in.o
 .rodata.__func__.8580
                0x000000004a0374e2        0xe disk/built-in.o
 .rodata.__func__.8590
                0x000000004a0374f0        0xf disk/built-in.o
 .rodata.__func__.8602
                0x000000004a0374ff       0x12 disk/built-in.o
 .rodata.__func__.8613
                0x000000004a037511       0x13 disk/built-in.o
 .rodata.__func__.8675
                0x000000004a037524        0xc disk/built-in.o
 .rodata.__func__.8693
                0x000000004a037530       0x13 disk/built-in.o
 .rodata.__func__.8743
                0x000000004a037543        0xd disk/built-in.o
 .rodata.__func__.8755
                0x000000004a037550       0x17 disk/built-in.o
 .rodata.__func__.8760
                0x000000004a037567        0xd disk/built-in.o
 .rodata.__func__.8880
                0x000000004a037574       0x18 common/built-in.o
 .rodata.__func__.9010
                0x000000004a03758c        0xe common/built-in.o
 .rodata.__func__.9249
                0x000000004a03759a        0xe drivers/built-in.o
 .rodata._ctype
                0x000000004a0375a8      0x100 lib/built-in.o
                0x000000004a0375a8                _ctype
 .rodata._do_env_set.isra.1.str1.1
                0x000000004a0376a8       0x7c cmd/built-in.o
 .rodata._do_help.str1.1
                0x000000004a037724       0x5f common/built-in.o
 .rodata.acm_descriptor
                0x000000004a037783        0x4 drivers/usb/gadget/built-in.o
 .rodata.android_image_check_header.str1.1
                0x000000004a037787        0x9 common/built-in.o
 .rodata.android_image_get_kernel.str1.1
                0x000000004a037790       0x8b common/built-in.o
                                         0x96 (size before relaxing)
 .rodata.android_image_get_ramdisk.str1.1
                0x000000004a03781b       0x27 common/built-in.o
 .rodata.android_print_contents.str1.1
                0x000000004a037842      0x126 common/built-in.o
                                        0x12a (size before relaxing)
 .rodata.announce_dram_init.str1.1
                0x000000004a037968        0x8 common/built-in.o
 .rodata.armv7_boot_nonsec.str1.1
                0x000000004a037970       0x17 arch/arm/lib/built-in.o
                                         0x1b (size before relaxing)
 .rodata.armv7_init_nonsec.str1.1
                0x000000004a037987       0x2e arch/arm/cpu/armv7/built-in.o
 .rodata.arp_receive.str1.1
                0x000000004a0379b5       0x14 net/built-in.o
 .rodata.arp_request.str1.1
                0x000000004a0379c9       0x2a net/built-in.o
 .rodata.arp_timeout_check.str1.1
                0x000000004a0379f3       0x2b net/built-in.o
 .rodata.autoboot_command.str1.1
                0x000000004a037a1e       0x31 common/built-in.o
 .rodata.axp_gpio_init.str1.1
                0x000000004a037a4f       0x12 drivers/gpio/built-in.o
 .rodata.b_addqchr.str1.1
                0x000000004a037a61        0x5 common/built-in.o
 .rodata.bad_mode.str1.1
                0x000000004a037a66       0x13 arch/arm/lib/built-in.o
 .rodata.binary_test.str1.1
                0x000000004a037a79       0x17 cmd/built-in.o
 .rodata.blk_common_cmd.str1.1
                0x000000004a037a90       0xf2 cmd/built-in.o
                                        0x101 (size before relaxing)
 .rodata.blk_get_device_by_str.str1.1
                0x000000004a037b82       0x52 disk/built-in.o
 .rodata.blk_get_device_part_str.str1.1
                0x000000004a037bd4      0x107 disk/built-in.o
                                        0x109 (size before relaxing)
 .rodata.blk_list_devices.str1.1
                0x000000004a037cdb        0xa drivers/built-in.o
                                          0xc (size before relaxing)
 .rodata.blk_print_device_num.str1.1
                0x000000004a037cdb       0x10 drivers/built-in.o
 .rodata.blk_show_device.str1.1
                0x000000004a037ceb       0x1d drivers/built-in.o
 .rodata.board_init.str1.1
                0x000000004a037d08        0xf board/sunxi/built-in.o
                                         0x10 (size before relaxing)
 .rodata.boot_fdt_add_mem_rsv_regions.str1.1
                0x000000004a037d17       0x35 common/built-in.o
 .rodata.boot_get_fdt.str1.1
                0x000000004a037d4c      0x1b5 common/built-in.o
                                        0x1d0 (size before relaxing)
 .rodata.boot_get_ramdisk.str1.1
                0x000000004a037f01       0xb7 common/built-in.o
                                        0x10d (size before relaxing)
 .rodata.boot_jump_linux.str1.1
                0x000000004a037fb8       0x5c arch/arm/lib/built-in.o
                                         0x5d (size before relaxing)
 .rodata.boot_prep_linux.str1.1
                0x000000004a038014       0x20 arch/arm/lib/built-in.o
                                         0x29 (size before relaxing)
 .rodata.boot_prep_vxworks.str1.1
                0x000000004a038034       0x2a arch/arm/lib/built-in.o
 .rodata.boot_ramdisk_high.str1.1
                0x000000004a03805e       0x54 common/built-in.o
 .rodata.boot_relocate_fdt.str1.1
                0x000000004a0380b2       0xcf common/built-in.o
                                         0xd3 (size before relaxing)
 .rodata.bootdelay_process.str1.1
                0x000000004a038181       0x3a common/built-in.o
                                         0x42 (size before relaxing)
 .rodata.bootm_decomp_image.str1.1
                0x000000004a0381bb       0x99 common/built-in.o
                                         0xc0 (size before relaxing)
 .rodata.bootm_find_images.str1.1
                0x000000004a038254       0x49 common/built-in.o
 .rodata.bootm_maybe_autostart.str1.1
                0x000000004a03829d       0x3b cmd/built-in.o
 .rodata.bootp_request.str1.1
                0x000000004a0382d8       0x25 net/built-in.o
 .rodata.bootp_timeout_handler.str1.1
                0x000000004a0382fd       0x26 net/built-in.o
 .rodata.call_mgmt_descriptor
                0x000000004a038323        0x5 drivers/usb/gadget/built-in.o
 .rodata.check_cache_range.str1.1
                0x000000004a038328       0x35 arch/arm/lib/built-in.o
 .rodata.check_reserved.str1.1
                0x000000004a03835d       0x27 drivers/gpio/built-in.o
                                         0x28 (size before relaxing)
 .rodata.cli_process_fdt.str1.1
                0x000000004a038384        0xb common/built-in.o
                                         0x13 (size before relaxing)
 .rodata.cli_readline_into_buffer.str1.1
                0x000000004a03838f        0x7 common/built-in.o
                                          0x8 (size before relaxing)
 .rodata.cli_secure_boot_cmd.str1.1
                0x000000004a038396       0x50 common/built-in.o
 .rodata.cmd_auto_complete.str1.1
                0x000000004a0383e6       0x5f common/built-in.o
                                          0xf (size before relaxing)
 .rodata.cmd_process.str1.1
                0x000000004a0383e6       0x3f common/built-in.o
 .rodata.cmd_process_error.str1.1
                0x000000004a038425       0x1f common/built-in.o
 .rodata.cmd_usage.str1.1
                0x000000004a038444       0x36 common/built-in.o
 .rodata.common_diskboot.str1.1
                0x000000004a03847a       0x8f cmd/built-in.o
 .rodata.compile.str1.1
                0x000000004a038509       0x4a lib/built-in.o
 .rodata.composite_unbind.str1.1
                0x000000004a038553       0x38 drivers/usb/gadget/built-in.o
 .rodata.cread_add_char.str1.1
                0x000000004a03858b        0x5 common/built-in.o
 .rodata.default_environment
                0x000000004a038590     0x104d env/built-in.o
                0x000000004a038590                default_environment
 .rodata.dev_get_platdata.str1.1
                0x000000004a0395dd       0x11 drivers/built-in.o
 .rodata.dev_print.str1.1
                0x000000004a0395ee      0x14d disk/built-in.o
                                        0x15e (size before relaxing)
 .rodata.devfdt_get_addr_index.str1.1
                0x000000004a03973b        0x4 drivers/built-in.o
 .rodata.devfdt_get_addr_name.str1.1
                0x000000004a03973b        0xa drivers/built-in.o
 .rodata.device_bind_common.isra.0.str1.1
                0x000000004a039745       0x5b drivers/built-in.o
 .rodata.device_probe.str1.1
                0x000000004a0397a0       0x30 drivers/built-in.o
 .rodata.device_remove.str1.1
                0x000000004a0397d0       0x98 drivers/built-in.o
 .rodata.dhcp_extended.str1.1
                0x000000004a039868       0x37 net/built-in.o
                                         0x3f (size before relaxing)
 .rodata.dhcp_handler.str1.1
                0x000000004a03989f       0x41 net/built-in.o
                                         0x4a (size before relaxing)
 .rodata.dhcp_process_options.str1.1
                0x000000004a0398e0       0x78 net/built-in.o
 .rodata.digits.8711
                0x000000004a039958       0x10 lib/built-in.o
 .rodata.disk_write.str1.1
                0x000000004a039968       0x18 fs/built-in.o
 .rodata.display_options.str1.1
                0x000000004a039980        0x3 lib/built-in.o
 .rodata.display_options_get_banner_priv.str1.1
                0x000000004a039980        0xc lib/built-in.o
                                         0x15 (size before relaxing)
 .rodata.dm_dump_all.str1.1
                0x000000004a03998c       0x72 drivers/built-in.o
 .rodata.dm_dump_uclass.str1.1
                0x000000004a0399fe       0x33 drivers/built-in.o
                                         0x35 (size before relaxing)
 .rodata.dm_extended_scan_fdt.str1.1
                0x000000004a039a31       0x12 drivers/built-in.o
 .rodata.dm_fdt_pre_reloc.str1.1
                0x000000004a039a43       0x30 drivers/built-in.o
 .rodata.dm_gpio_get_value.str1.1
                0x000000004a039a73        0xa drivers/gpio/built-in.o
 .rodata.dm_gpio_set_value.str1.1
                0x000000004a039a7d        0xa drivers/gpio/built-in.o
 .rodata.dm_init.str1.1
                0x000000004a039a87       0x25 drivers/built-in.o
 .rodata.dm_root.str1.1
                0x000000004a039aac       0x25 drivers/built-in.o
 .rodata.dm_scan_fdt_node.str1.1
                0x000000004a039ad1       0x1d drivers/built-in.o
                                         0x24 (size before relaxing)
 .rodata.dm_scan_platdata.str1.1
                0x000000004a039aee       0x1d drivers/built-in.o
 .rodata.dm_usb_init.str1.1
                0x000000004a039b0b       0x15 drivers/usb/gadget/built-in.o
 .rodata.do_bdinfo.str1.1
                0x000000004a039b20       0xae cmd/built-in.o
 .rodata.do_bootd.str1.1
                0x000000004a039bce       0x3b cmd/built-in.o
                                          0x8 (size before relaxing)
 .rodata.do_bootefi.str1.1
                0x000000004a039bce       0xf4 cmd/built-in.o
 .rodata.do_bootefi_exec.str1.1
                0x000000004a039cc2       0xc0 cmd/built-in.o
                                         0xc9 (size before relaxing)
 .rodata.do_bootelf.str1.1
                0x000000004a039d82       0x4f cmd/built-in.o
                                         0x5c (size before relaxing)
 .rodata.do_bootm.str1.1
                0x000000004a039dd1       0x2a cmd/built-in.o
 .rodata.do_bootm_netbsd.str1.1
                0x000000004a039dfb       0x49 common/built-in.o
                                         0x4a (size before relaxing)
 .rodata.do_bootm_plan9.str1.1
                0x000000004a039e44       0x43 common/built-in.o
                                         0x4c (size before relaxing)
 .rodata.do_bootm_qnxelf.str1.1
                0x000000004a039e87        0x4 common/built-in.o
 .rodata.do_bootm_rtems.str1.1
                0x000000004a039e87       0x39 common/built-in.o
 .rodata.do_bootm_standalone.str1.1
                0x000000004a039ec0       0x16 common/built-in.o
 .rodata.do_bootm_states.str1.1
                0x000000004a039ec0      0x20f common/built-in.o
                                        0x287 (size before relaxing)
 .rodata.do_bootvx.str1.1
                0x000000004a03a0cf      0x1bd cmd/built-in.o
                                        0x1d0 (size before relaxing)
 .rodata.do_bootvx_fdt.str1.1
                0x000000004a03a28c       0x57 common/built-in.o
                                         0x75 (size before relaxing)
 .rodata.do_coninfo.str1.1
                0x000000004a03a2e3       0x2c cmd/built-in.o
                                         0x30 (size before relaxing)
 .rodata.do_data_abort.str1.1
                0x000000004a03a30f        0xc arch/arm/lib/built-in.o
 .rodata.do_echo.str1.1
                0x000000004a03a31b        0x3 cmd/built-in.o
 .rodata.do_env_default.str1.1
                0x000000004a03a31e       0x25 cmd/built-in.o
 .rodata.do_env_edit.part.4.str1.1
                0x000000004a03a343        0x7 cmd/built-in.o
                                          0xa (size before relaxing)
 .rodata.do_env_export.str1.1
                0x000000004a03a34a       0x6b cmd/built-in.o
                                         0x74 (size before relaxing)
 .rodata.do_env_import.str1.1
                0x000000004a03a3b5      0x139 cmd/built-in.o
                                        0x13b (size before relaxing)
 .rodata.do_env_print.str1.1
                0x000000004a03a4ee       0x3d cmd/built-in.o
 .rodata.do_fastboot.str1.1
                0x000000004a03a52b       0xbd cmd/built-in.o
                                         0xc1 (size before relaxing)
 .rodata.do_fat_fsinfo.str1.1
                0x000000004a03a5e8       0x56 cmd/built-in.o
 .rodata.do_fat_fswrite.str1.1
                0x000000004a03a63e       0x6b cmd/built-in.o
 .rodata.do_fdt.str1.1
                0x000000004a03a6a9      0x494 cmd/built-in.o
                                        0x4ed (size before relaxing)
 .rodata.do_fiq.str1.1
                0x000000004a03ab3d       0x18 arch/arm/lib/built-in.o
 .rodata.do_fixup_by_path.str1.1
                0x000000004a03ab55       0x29 common/built-in.o
 .rodata.do_fs_uuid.str1.1
                0x000000004a03ab7e        0x4 fs/built-in.o
 .rodata.do_get_any.str1.1
                0x000000004a03ab7e        0x5 cmd/built-in.o
 .rodata.do_get_ext2.str1.1
                0x000000004a03ab7e        0x9 cmd/built-in.o
 .rodata.do_get_fat.str1.1
                0x000000004a03ab7e        0x8 cmd/built-in.o
 .rodata.do_get_tftp.str1.1
                0x000000004a03ab7e        0x5 cmd/built-in.o
 .rodata.do_go.str1.1
                0x000000004a03ab7e       0x4f cmd/built-in.o
 .rodata.do_gpio.str1.1
                0x000000004a03abcd       0xc4 cmd/built-in.o
                                         0xd2 (size before relaxing)
 .rodata.do_gpt.str1.1
                0x000000004a03ac91       0xde cmd/built-in.o
                                         0xef (size before relaxing)
 .rodata.do_imgextract.str1.1
                0x000000004a03ad6f      0x148 cmd/built-in.o
                                        0x1ac (size before relaxing)
 .rodata.do_irq.str1.1
                0x000000004a03aeb7       0x18 arch/arm/lib/built-in.o
                                         0x13 (size before relaxing)
 .rodata.do_itest.str1.1
                0x000000004a03aeb7       0x1e cmd/built-in.o
 .rodata.do_load.str1.1
                0x000000004a03aed5       0x39 fs/built-in.o
                                         0x5b (size before relaxing)
 .rodata.do_load_serial.str1.1
                0x000000004a03af0e       0x6b cmd/built-in.o
 .rodata.do_load_serial_bin.str1.1
                0x000000004a03af79      0x159 cmd/built-in.o
 .rodata.do_load_wrapper.str1.1
                0x000000004a03b0d2        0x1 cmd/built-in.o
 .rodata.do_ls.str1.1
                0x000000004a03b0d2        0x2 fs/built-in.o
 .rodata.do_mem_base.str1.1
                0x000000004a03b0d2       0x17 cmd/built-in.o
 .rodata.do_mem_cmp.str1.1
                0x000000004a03b0e9       0x6e cmd/built-in.o
                                         0x73 (size before relaxing)
 .rodata.do_mem_cp.str1.1
                0x000000004a03b157       0x11 cmd/built-in.o
 .rodata.do_mem_crc.str1.1
                0x000000004a03b168        0x6 cmd/built-in.o
 .rodata.do_mii.str1.1
                0x000000004a03b16e      0x297 cmd/built-in.o
                                        0x2b0 (size before relaxing)
 .rodata.do_mkdir.str1.1
                0x000000004a03b405       0x29 fs/built-in.o
 .rodata.do_not_used.str1.1
                0x000000004a03b42e        0xa arch/arm/lib/built-in.o
 .rodata.do_part.str1.1
                0x000000004a03b438        0x5 cmd/built-in.o
                                         0x15 (size before relaxing)
 .rodata.do_part_info.str1.1
                0x000000004a03b43d        0x4 cmd/built-in.o
                                          0x8 (size before relaxing)
 .rodata.do_part_list.str1.1
                0x000000004a03b441       0x22 cmd/built-in.o
                                         0x25 (size before relaxing)
 .rodata.do_ping.str1.1
                0x000000004a03b463       0x35 cmd/built-in.o
 .rodata.do_prefetch_abort.str1.1
                0x000000004a03b498       0x10 arch/arm/lib/built-in.o
 .rodata.do_pxe_boot.str1.1
                0x000000004a03b4a8       0x38 cmd/built-in.o
 .rodata.do_pxe_get.str1.1
                0x000000004a03b4e0       0x41 cmd/built-in.o
                                         0x46 (size before relaxing)
 .rodata.do_reset.str1.1
                0x000000004a03b521        0xf arch/arm/lib/built-in.o
 .rodata.do_run.str1.1
                0x000000004a03b530       0x1c common/built-in.o
 .rodata.do_save.str1.1
                0x000000004a03b530       0x1d fs/built-in.o
 .rodata.do_setexpr.str1.1
                0x000000004a03b54d       0x11 cmd/built-in.o
                                         0x15 (size before relaxing)
 .rodata.do_showvar.str1.1
                0x000000004a03b55e        0xc common/built-in.o
                                         0x2f (size before relaxing)
 .rodata.do_size.str1.1
                0x000000004a03b56a        0x9 fs/built-in.o
 .rodata.do_software_interrupt.str1.1
                0x000000004a03b56a       0x14 arch/arm/lib/built-in.o
 .rodata.do_source.str1.1
                0x000000004a03b57e       0x1e cmd/built-in.o
 .rodata.do_sysboot.str1.1
                0x000000004a03b59c       0x43 cmd/built-in.o
 .rodata.do_undefined_instruction.str1.1
                0x000000004a03b5df       0x17 arch/arm/lib/built-in.o
 .rodata.do_usb.str1.1
                0x000000004a03b5f6      0x272 cmd/built-in.o
                                        0x293 (size before relaxing)
 .rodata.do_usbboot.str1.1
                0x000000004a03b868        0x4 cmd/built-in.o
 .rodata.do_version.str1.1
                0x000000004a03b868       0xd4 cmd/built-in.o
 .rodata.download.str1.1
                0x000000004a03b93c       0x5b drivers/built-in.o
                                         0x5e (size before relaxing)
 .rodata.dp_unknown.str1.1
                0x000000004a03b997       0x13 lib/built-in.o
 .rodata.driver_desc
                0x000000004a03b9aa       0x10 drivers/usb/gadget/built-in.o
 .rodata.drv_video_init.str1.1
                0x000000004a03b9ba        0x8 drivers/built-in.o
 .rodata.efi_block_io_guid
                0x000000004a03b9ba       0x10 lib/built-in.o
                0x000000004a03b9ba                efi_block_io_guid
 .rodata.efi_bootmgr_load.str1.1
                0x000000004a03b9ca        0xe lib/built-in.o
 .rodata.efi_console_register.str1.1
                0x000000004a03b9d8       0x9b lib/built-in.o
                                         0xb8 (size before relaxing)
 .rodata.efi_convert_single_device_node_to_text.str1.1
                0x000000004a03ba73      0x11f lib/built-in.o
                                        0x124 (size before relaxing)
 .rodata.efi_cout_clear_screen.str1.1
                0x000000004a03bb92        0x5 lib/built-in.o
 .rodata.efi_cout_enable_cursor.str1.1
                0x000000004a03bb97        0x8 lib/built-in.o
 .rodata.efi_cout_set_attribute.str1.1
                0x000000004a03bb9f       0x17 lib/built-in.o
 .rodata.efi_cout_set_cursor_position.str1.1
                0x000000004a03bbb6        0x9 lib/built-in.o
 .rodata.efi_disk_create_partitions.str1.1
                0x000000004a03bbbf       0x22 lib/built-in.o
 .rodata.efi_disk_register.str1.1
                0x000000004a03bbe1       0x70 lib/built-in.o
 .rodata.efi_driver_init.str1.1
                0x000000004a03bc51       0x58 lib/built-in.o
 .rodata.efi_exit.str1.1
                0x000000004a03bca9       0x17 lib/built-in.o
 .rodata.efi_file_from_path.str1.1
                0x000000004a03bcc0       0x10 lib/built-in.o
 .rodata.efi_file_info_guid
                0x000000004a03bcd0       0x10 lib/built-in.o
                0x000000004a03bcd0                efi_file_info_guid
 .rodata.efi_file_system_info_guid
                0x000000004a03bce0       0x10 lib/built-in.o
                0x000000004a03bce0                efi_file_system_info_guid
 .rodata.efi_get_variable.str1.1
                0x000000004a03bcf0        0x7 lib/built-in.o
                                          0xe (size before relaxing)
 .rodata.efi_global_variable_guid
                0x000000004a03bcf7       0x10 lib/built-in.o
                0x000000004a03bcf7                efi_global_variable_guid
 .rodata.efi_guid_device_path
                0x000000004a03bd07       0x10 lib/built-in.o
                0x000000004a03bd07                efi_guid_device_path
 .rodata.efi_guid_device_path_to_text_protocol
                0x000000004a03bd17       0x10 lib/built-in.o
                0x000000004a03bd17                efi_guid_device_path_to_text_protocol
 .rodata.efi_guid_device_path_utilities_protocol
                0x000000004a03bd27       0x10 lib/built-in.o
                0x000000004a03bd27                efi_guid_device_path_utilities_protocol
 .rodata.efi_guid_driver_binding_protocol
                0x000000004a03bd37       0x10 lib/built-in.o
                0x000000004a03bd37                efi_guid_driver_binding_protocol
 .rodata.efi_guid_event_group_exit_boot_services
                0x000000004a03bd47       0x10 lib/built-in.o
                0x000000004a03bd47                efi_guid_event_group_exit_boot_services
 .rodata.efi_guid_event_group_reset_system
                0x000000004a03bd57       0x10 lib/built-in.o
                0x000000004a03bd57                efi_guid_event_group_reset_system
 .rodata.efi_guid_fdt
                0x000000004a03bd67       0x10 lib/built-in.o
                0x000000004a03bd67                efi_guid_fdt
 .rodata.efi_guid_loaded_image
                0x000000004a03bd77       0x10 lib/built-in.o
                0x000000004a03bd77                efi_guid_loaded_image
 .rodata.efi_guid_text_input_ex_protocol
                0x000000004a03bd87       0x10 lib/built-in.o
                0x000000004a03bd87                efi_guid_text_input_ex_protocol
 .rodata.efi_guid_text_input_protocol
                0x000000004a03bd97       0x10 lib/built-in.o
                0x000000004a03bd97                efi_guid_text_input_protocol
 .rodata.efi_guid_text_output_protocol
                0x000000004a03bda7       0x10 lib/built-in.o
                0x000000004a03bda7                efi_guid_text_output_protocol
 .rodata.efi_guid_unicode_collation_protocol
                0x000000004a03bdb7       0x10 lib/built-in.o
                0x000000004a03bdb7                efi_guid_unicode_collation_protocol
 .rodata.efi_install_fdt.str1.1
                0x000000004a03bdc7       0x93 cmd/built-in.o
 .rodata.efi_load_pe.str1.1
                0x000000004a03be5a       0xca lib/built-in.o
 .rodata.efi_net_guid
                0x000000004a03bf24       0x10 lib/built-in.o
 .rodata.efi_net_register.str1.1
                0x000000004a03bf34       0x6d lib/built-in.o
                                         0x83 (size before relaxing)
 .rodata.efi_print_image_infos.str1.1
                0x000000004a03bfa1       0x29 lib/built-in.o
                                         0x2b (size before relaxing)
 .rodata.efi_pxe_guid
                0x000000004a03bfca       0x10 lib/built-in.o
 .rodata.efi_set_bootdev.str1.1
                0x000000004a03bfda        0x4 cmd/built-in.o
                                          0xb (size before relaxing)
 .rodata.efi_set_code_and_data_type.str1.1
                0x000000004a03bfde       0x1c lib/built-in.o
 .rodata.efi_set_variable.str1.1
                0x000000004a03bffa       0x16 lib/built-in.o
                                         0x1a (size before relaxing)
 .rodata.efi_setup_loaded_image.str1.1
                0x000000004a03c010       0x36 lib/built-in.o
 .rodata.efi_simple_file_system_protocol_guid
                0x000000004a03c046       0x10 lib/built-in.o
                0x000000004a03c046                efi_simple_file_system_protocol_guid
 .rodata.efi_to_native.str1.1
                0x000000004a03c056       0x34 lib/built-in.o
 .rodata.efi_u_boot_guid
                0x000000004a03c08a       0x10 lib/built-in.o
                0x000000004a03c08a                efi_u_boot_guid
 .rodata.efi_uc_destroy.str1.1
                0x000000004a03c09a       0x18 lib/built-in.o
 .rodata.efi_uc_init.str1.1
                0x000000004a03c0b2       0x1e lib/built-in.o
 .rodata.efi_uc_stop.str1.1
                0x000000004a03c0d0       0x40 lib/built-in.o
 .rodata.efi_watchdog_register.str1.1
                0x000000004a03c110       0x4f lib/built-in.o
 .rodata.efi_watchdog_timer_notify.str1.1
                0x000000004a03c15f       0x18 lib/built-in.o
 .rodata.emit.str1.1
                0x000000004a03c177       0x1f lib/built-in.o
 .rodata.env_callback_init.str1.1
                0x000000004a03c196        0xb env/built-in.o
 .rodata.env_complete.str1.1
                0x000000004a03c1a1        0x4 env/built-in.o
 .rodata.env_flags_init.str1.1
                0x000000004a03c1a1        0x7 env/built-in.o
 .rodata.env_flags_parse_varaccess.str1.1
                0x000000004a03c1a8       0x3d env/built-in.o
 .rodata.env_flags_parse_vartype.str1.1
                0x000000004a03c1e5       0x34 env/built-in.o
 .rodata.env_flags_validate.str1.1
                0x000000004a03c219       0xb2 env/built-in.o
                                         0xb3 (size before relaxing)
 .rodata.env_flags_varaccess_rep
                0x000000004a03c2cb        0x5 env/built-in.o
 .rodata.env_flags_vartype_rep
                0x000000004a03c2d0        0x7 env/built-in.o
 .rodata.env_get_bootm_low.str1.1
                0x000000004a03c2d7        0xa common/built-in.o
 .rodata.env_get_bootm_mapsize.str1.1
                0x000000004a03c2e1        0xe common/built-in.o
 .rodata.env_get_bootm_size.str1.1
                0x000000004a03c2ef        0xb common/built-in.o
 .rodata.env_get_f.str1.1
                0x000000004a03c2fa       0x30 cmd/built-in.o
 .rodata.env_load.str1.1
                0x000000004a03c32a       0x20 env/built-in.o
                                         0x24 (size before relaxing)
 .rodata.env_print.str1.1
                0x000000004a03c34a       0x25 cmd/built-in.o
                                         0x2c (size before relaxing)
 .rodata.env_set.str1.1
                0x000000004a03c36f        0x7 cmd/built-in.o
 .rodata.env_set_hex.str1.1
                0x000000004a03c376        0x4 cmd/built-in.o
 .rodata.erase_seq
                0x000000004a03c376        0x4 common/built-in.o
 .rodata.eth_bind.str1.1
                0x000000004a03c37a      0x116 drivers/usb/gadget/built-in.o
                                        0x120 (size before relaxing)
 .rodata.eth_current_changed.str1.1
                0x000000004a03c490       0x14 net/built-in.o
 .rodata.eth_env_get_enetaddr_by_index.str1.1
                0x000000004a03c490       0x10 net/built-in.o
 .rodata.eth_env_set_enetaddr.str1.1
                0x000000004a03c4a0        0x4 cmd/built-in.o
 .rodata.eth_get_name.str1.1
                0x000000004a03c4a4        0x8 net/built-in.o
 .rodata.eth_init.str1.1
                0x000000004a03c4a4       0x11 net/built-in.o
                                         0x28 (size before relaxing)
 .rodata.eth_initialize.str1.1
                0x000000004a03c4b5       0x1c net/built-in.o
                                         0x1f (size before relaxing)
 .rodata.eth_mac_skip.str1.1
                0x000000004a03c4d1       0x18 net/built-in.o
 .rodata.eth_post_bind.str1.1
                0x000000004a03c4e9       0x2b net/built-in.o
 .rodata.eth_post_probe.str1.1
                0x000000004a03c514       0xaf net/built-in.o
                                         0xb3 (size before relaxing)
 .rodata.eth_set_current.str1.1
                0x000000004a03c5c3        0x9 net/built-in.o
 .rodata.eth_setup.str1.1
                0x000000004a03c5c3       0x3d drivers/usb/gadget/built-in.o
                                         0x49 (size before relaxing)
 .rodata.eth_write_hwaddr.str1.1
                0x000000004a03c600       0x4e net/built-in.o
 .rodata.ext4_read_file.str1.1
                0x000000004a03c64e       0x19 fs/built-in.o
 .rodata.ext4fs_iterate_dir.str1.1
                0x000000004a03c667       0x43 fs/built-in.o
                                         0x4a (size before relaxing)
 .rodata.ext4fs_ls.str1.1
                0x000000004a03c6aa       0x1f fs/built-in.o
 .rodata.ext4fs_mount.str1.1
                0x000000004a03c6c9       0x24 fs/built-in.o
 .rodata.extract_env.str1.1
                0x000000004a03c6ed        0x3 cmd/built-in.o
 .rodata.extract_val.str1.1
                0x000000004a03c6f0        0x3 cmd/built-in.o
                                          0x4 (size before relaxing)
 .rodata.fastboot_add.str1.1
                0x000000004a03c6f0        0xb drivers/usb/gadget/built-in.o
 .rodata.fastboot_bind.str1.1
                0x000000004a03c6fb        0x8 drivers/usb/gadget/built-in.o
 .rodata.fastboot_boot.str1.1
                0x000000004a03c6fb       0x2c drivers/built-in.o
                                         0x31 (size before relaxing)
 .rodata.fastboot_complete.str1.1
                0x000000004a03c727       0x1e drivers/usb/gadget/built-in.o
 .rodata.fastboot_data_complete.str1.1
                0x000000004a03c745       0x23 drivers/built-in.o
                                         0x2c (size before relaxing)
 .rodata.fastboot_data_download.str1.1
                0x000000004a03c768       0x1d drivers/built-in.o
 .rodata.fastboot_fail.str1.1
                0x000000004a03c785        0x5 drivers/built-in.o
                                          0x8 (size before relaxing)
 .rodata.fastboot_getvar.str1.1
                0x000000004a03c78a       0x31 drivers/built-in.o
                                         0x36 (size before relaxing)
 .rodata.fastboot_handle_command.str1.1
                0x000000004a03c7bb       0x31 drivers/built-in.o
                                         0x33 (size before relaxing)
 .rodata.fastboot_name
                0x000000004a03c7ec       0x11 drivers/usb/gadget/built-in.o
 .rodata.fastboot_okay.str1.1
                0x000000004a03c7fd        0x5 drivers/built-in.o
 .rodata.fastboot_set_alt.str1.1
                0x000000004a03c802       0x5f drivers/usb/gadget/built-in.o
 .rodata.fastboot_tx_write_str.str1.1
                0x000000004a03c861       0x13 drivers/usb/gadget/built-in.o
 .rodata.fat_itr_resolve.str1.1
                0x000000004a03c874       0x18 fs/built-in.o
                                          0x5 (size before relaxing)
 .rodata.fat_itr_root.str1.1
                0x000000004a03c874       0x33 fs/built-in.o
 .rodata.fat_mkdir.str1.1
                0x000000004a03c8a7       0x26 fs/built-in.o
                                         0x2a (size before relaxing)
 .rodata.fat_read_file.str1.1
                0x000000004a03c8cd       0x1e fs/built-in.o
 .rodata.fat_set_blk_dev.str1.1
                0x000000004a03c8eb        0x3 fs/built-in.o
                                          0xd (size before relaxing)
 .rodata.fat_unlink.str1.1
                0x000000004a03c8ee       0x6b fs/built-in.o
                                         0x6c (size before relaxing)
 .rodata.fdt_address_cells.str1.1
                0x000000004a03c959        0xf lib/built-in.o
 .rodata.fdt_chosen.str1.1
                0x000000004a03c968       0x6c common/built-in.o
                                         0x75 (size before relaxing)
 .rodata.fdt_error.str1.1
                0x000000004a03c9d4       0x2d common/built-in.o
 .rodata.fdt_find_or_add_subnode.str1.1
                0x000000004a03ca01        0xc common/built-in.o
 .rodata.fdt_fixup_ethernet.str1.1
                0x000000004a03ca0d       0x24 common/built-in.o
                                         0x42 (size before relaxing)
 .rodata.fdt_fixup_memory_banks.str1.1
                0x000000004a03ca31       0x79 common/built-in.o
                                         0x94 (size before relaxing)
 .rodata.fdt_get_alias_namelen.str1.1
                0x000000004a03caaa        0x9 lib/built-in.o
 .rodata.fdt_get_phandle.str1.1
                0x000000004a03caaa       0x16 lib/built-in.o
 .rodata.fdt_initrd.str1.1
                0x000000004a03caaa       0x90 common/built-in.o
                                         0x97 (size before relaxing)
 .rodata.fdt_node_check_compatible.str1.1
                0x000000004a03cb3a        0xb lib/built-in.o
 .rodata.fdt_overlay_apply.str1.1
                0x000000004a03cb3a       0x38 lib/built-in.o
                                         0x51 (size before relaxing)
 .rodata.fdt_overlay_apply_verbose.str1.1
                0x000000004a03cb72       0x83 common/built-in.o
 .rodata.fdt_psci.str1.1
                0x000000004a03cbf5       0x7f arch/arm/lib/built-in.o
                                         0x94 (size before relaxing)
 .rodata.fdt_root.str1.1
                0x000000004a03cc74       0x46 common/built-in.o
                                         0x4e (size before relaxing)
 .rodata.fdt_set_node_status.str1.1
                0x000000004a03ccba       0x2e common/built-in.o
                                         0x3a (size before relaxing)
 .rodata.fdt_setup_simplefb_node.str1.1
                0x000000004a03cce8       0x2c common/built-in.o
 .rodata.fdt_size_cells.str1.1
                0x000000004a03cd14        0xc lib/built-in.o
 .rodata.fdt_strerror.str1.1
                0x000000004a03cd14       0x31 lib/built-in.o
 .rodata.fdt_support_default_count_cells.str1.1
                0x000000004a03cd45        0xc common/built-in.o
 .rodata.fdt_translate_address.str1.1
                0x000000004a03cd51       0x22 common/built-in.o
 .rodata.fdt_valid.str1.1
                0x000000004a03cd73       0x79 cmd/built-in.o
                                         0x7b (size before relaxing)
 .rodata.fdtdec_add_aliases_for_id.str1.1
                0x000000004a03cdec        0x9 lib/built-in.o
 .rodata.fdtdec_get_chosen_prop.str1.1
                0x000000004a03cdec        0x8 lib/built-in.o
 .rodata.fdtdec_get_config_int.str1.1
                0x000000004a03cdec        0x8 lib/built-in.o
 .rodata.fdtdec_get_is_enabled.str1.1
                0x000000004a03cdf4        0xc lib/built-in.o
 .rodata.fdtdec_prepare_fdt.str1.1
                0x000000004a03cdf4       0x96 lib/built-in.o
 .rodata.fdtdec_setup.str1.1
                0x000000004a03ce8a        0xf lib/built-in.o
 .rodata.file_fat_detectfs.str1.1
                0x000000004a03ce8a       0x64 fs/built-in.o
                                         0x84 (size before relaxing)
 .rodata.file_fat_read_at.str1.1
                0x000000004a03ceee       0x2a fs/built-in.o
 .rodata.file_fat_write_at.str1.1
                0x000000004a03cf18       0xa7 fs/built-in.o
 .rodata.file_get.str1.1
                0x000000004a03cfbf        0x4 common/built-in.o
                                          0x7 (size before relaxing)
 .rodata.file_open.str1.1
                0x000000004a03cfc3        0xa lib/built-in.o
                                          0xb (size before relaxing)
 .rodata.flush_dir_table.str1.1
                0x000000004a03cfcd       0x20 fs/built-in.o
 .rodata.format_mac_pxe.constprop.7.str1.1
                0x000000004a03cfed       0x25 cmd/built-in.o
 .rodata.from_env.str1.1
                0x000000004a03d012       0x22 cmd/built-in.o
 .rodata.fs_devread.str1.1
                0x000000004a03d034       0x98 fs/built-in.o
 .rodata.fs_ls_generic.str1.1
                0x000000004a03d0cc       0x37 fs/built-in.o
 .rodata.fs_probe_unsupported.str1.1
                0x000000004a03d103       0x24 fs/built-in.o
 .rodata.fs_write.str1.1
                0x000000004a03d127       0x1f fs/built-in.o
 .rodata.fsg_add.str1.1
                0x000000004a03d146       0x5b drivers/usb/gadget/built-in.o
 .rodata.fsg_setup.str1.1
                0x000000004a03d1a1       0x3c drivers/usb/gadget/built-in.o
 .rodata.fsg_string_interface
                0x000000004a03d1dd        0xd drivers/usb/gadget/built-in.o
 .rodata.g_dnl_bind.str1.1
                0x000000004a03d1ea       0x15 drivers/usb/gadget/built-in.o
 .rodata.g_dnl_board_usb_cable_connected.str1.1
                0x000000004a03d1ff       0x74 board/sunxi/built-in.o
                                         0x78 (size before relaxing)
 .rodata.g_dnl_register.str1.1
                0x000000004a03d273       0x18 drivers/usb/gadget/built-in.o
 .rodata.generic_phy_get_by_index.str1.1
                0x000000004a03d28b       0x10 drivers/built-in.o
                                         0x14 (size before relaxing)
 .rodata.generic_phy_get_by_name.str1.1
                0x000000004a03d29b        0xa drivers/built-in.o
 .rodata.genimg_get_arch_name.str1.1
                0x000000004a03d2a5       0x15 common/built-in.o
 .rodata.genimg_get_comp_name.str1.1
                0x000000004a03d2ba       0x14 common/built-in.o
 .rodata.genimg_get_os_name.str1.1
                0x000000004a03d2ce        0xb common/built-in.o
 .rodata.genimg_get_type_name.str1.1
                0x000000004a03d2d9        0xe common/built-in.o
 .rodata.genimg_print_size.str1.1
                0x000000004a03d2e7        0xc common/built-in.o
                                          0xe (size before relaxing)
 .rodata.get_descriptor_len.str1.1
                0x000000004a03d2f3       0x64 common/built-in.o
 .rodata.get_fatent.str1.1
                0x000000004a03d357       0x22 fs/built-in.o
 .rodata.get_gicd_base_address.str1.1
                0x000000004a03d379       0x2e arch/arm/cpu/armv7/built-in.o
 .rodata.get_local_var.str1.1
                0x000000004a03d3a7        0x3 common/built-in.o
 .rodata.get_pxe_file.str1.1
                0x000000004a03d3aa        0x9 cmd/built-in.o
 .rodata.get_pxelinux_path.str1.1
                0x000000004a03d3aa       0x3e cmd/built-in.o
 .rodata.get_relfile.str1.1
                0x000000004a03d3e8       0x56 cmd/built-in.o
                                         0x63 (size before relaxing)
 .rodata.getvar_bootloader_version.str1.1
                0x000000004a03d43e        0xf drivers/built-in.o
 .rodata.getvar_current_slot.str1.1
                0x000000004a03d44d        0x3 drivers/built-in.o
 .rodata.getvar_downloadsize.str1.1
                0x000000004a03d450        0x7 drivers/built-in.o
                                          0xc (size before relaxing)
 .rodata.getvar_has_slot.str1.1
                0x000000004a03d457        0x7 drivers/built-in.o
                                         0x13 (size before relaxing)
 .rodata.getvar_product.str1.1
                0x000000004a03d457        0xe drivers/built-in.o
                                         0x14 (size before relaxing)
 .rodata.getvar_serialno.str1.1
                0x000000004a03d465        0xe drivers/built-in.o
                                         0x16 (size before relaxing)
 .rodata.getvar_slot_suffixes.str1.1
                0x000000004a03d473        0x6 drivers/built-in.o
 .rodata.getvar_version.str1.1
                0x000000004a03d479        0x4 drivers/built-in.o
 .rodata.getvar_version_baseband.str1.1
                0x000000004a03d47d        0x4 drivers/built-in.o
 .rodata.gpio_axp_probe.str1.1
                0x000000004a03d481        0x6 drivers/gpio/built-in.o
 .rodata.gpio_direction_input.str1.1
                0x000000004a03d487        0xa drivers/gpio/built-in.o
 .rodata.gpio_direction_output.str1.1
                0x000000004a03d491        0xb drivers/gpio/built-in.o
 .rodata.gpio_get_description.str1.1
                0x000000004a03d49c        0xa cmd/built-in.o
                                         0x18 (size before relaxing)
 .rodata.gpio_get_status.str1.1
                0x000000004a03d4a6       0x17 drivers/gpio/built-in.o
                                         0x19 (size before relaxing)
 .rodata.gpt_fill_header.str1.1
                0x000000004a03d4bd       0x24 disk/built-in.o
 .rodata.gpt_fill_pte.str1.1
                0x000000004a03d4e1       0x5b disk/built-in.o
 .rodata.gpt_verify_partitions.str1.1
                0x000000004a03d53c       0xa3 disk/built-in.o
 .rodata.gzip_parse_header.str1.1
                0x000000004a03d5df       0x3e lib/built-in.o
 .rodata.handle_include.str1.1
                0x000000004a03d61d       0x33 cmd/built-in.o
 .rodata.handle_pxe_menu.str1.1
                0x000000004a03d650       0x15 cmd/built-in.o
                                         0x18 (size before relaxing)
 .rodata.hang.str1.1
                0x000000004a03d665       0x2a lib/built-in.o
 .rodata.hash_command.str1.1
                0x000000004a03d68f       0x25 common/built-in.o
 .rodata.header_desc
                0x000000004a03d6b4        0x5 drivers/usb/gadget/built-in.o
 .rodata.hex_asc
                0x000000004a03d6b9       0x11 lib/built-in.o
                0x000000004a03d6b9                hex_asc
 .rodata.hexchars.8430
                0x000000004a03d6ca       0x11 lib/built-in.o
 .rodata.hexport_r.str1.1
                0x000000004a03d6db       0x30 lib/built-in.o
 .rodata.himport_r.str1.1
                0x000000004a03d70b       0x99 lib/built-in.o
 .rodata.illegal
                0x000000004a03d7a4        0xa lib/built-in.o
 .rodata.image_info.str1.1
                0x000000004a03d7ae       0xc4 cmd/built-in.o
 .rodata.image_print_contents.str1.1
                0x000000004a03d872       0xd0 common/built-in.o
                                         0xd4 (size before relaxing)
 .rodata.image_setup_libfdt.str1.1
                0x000000004a03d942       0xbb common/built-in.o
 .rodata.inflate.str1.1
                0x000000004a03d9fd      0x158 lib/built-in.o
 .rodata.inflate_fast.str1.1
                0x000000004a03db55       0x50 lib/built-in.o
 .rodata.init_baud_rate.str1.1
                0x000000004a03dba5        0x9 common/built-in.o
 .rodata.init_peripheral_ep.str1.1
                0x000000004a03dbae        0x7 drivers/usb/musb-new/built-in.o
                                          0xf (size before relaxing)
 .rodata.initcall_run_list.str1.1
                0x000000004a03dbb5       0x31 lib/built-in.o
 .rodata.initr_env.str1.1
                0x000000004a03dbe6       0x20 common/built-in.o
                                         0x29 (size before relaxing)
 .rodata.initr_ethaddr.str1.1
                0x000000004a03dc06        0x8 common/built-in.o
 .rodata.initr_net.str1.1
                0x000000004a03dc06        0x8 common/built-in.o
 .rodata.insert_var_value_sub.str1.1
                0x000000004a03dc0e        0x6 common/built-in.o
 .rodata.ip_to_string.str1.1
                0x000000004a03dc14        0xc net/built-in.o
 .rodata.is_gpt_valid.str1.1
                0x000000004a03dc20       0xea disk/built-in.o
 .rodata.label_boot.str1.1
                0x000000004a03dd0a      0x15e cmd/built-in.o
                                        0x19c (size before relaxing)
 .rodata.label_print.str1.1
                0x000000004a03de68        0x8 cmd/built-in.o
 .rodata.list_sort.str1.1
                0x000000004a03de70       0x34 lib/built-in.o
 .rodata.lists_bind_drivers.str1.1
                0x000000004a03dea4       0x1a drivers/built-in.o
 .rodata.lists_bind_fdt.str1.1
                0x000000004a03debe       0x3f drivers/built-in.o
                                         0x4a (size before relaxing)
 .rodata.lmb_alloc_base.str1.1
                0x000000004a03defd       0x34 lib/built-in.o
 .rodata.load_serial.str1.1
                0x000000004a03df31       0x65 cmd/built-in.o
 .rodata.load_serial_ymodem.str1.1
                0x000000004a03df96       0x31 cmd/built-in.o
                                         0x35 (size before relaxing)
 .rodata.main_loop.str1.1
                0x000000004a03dfc7       0x19 common/built-in.o
 .rodata.manufacturer
                0x000000004a03dfe0       0x15 drivers/usb/gadget/built-in.o
 .rodata.match.str1.1
                0x000000004a03dff5       0x18 lib/built-in.o
 .rodata.match_entry.str1.1
                0x000000004a03e00d       0x1b lib/built-in.o
 .rodata.match_string.str1.1
                0x000000004a03e00d       0x2c lib/built-in.o
 .rodata.mdio_list_devices.str1.1
                0x000000004a03e039       0x12 common/built-in.o
                                         0x19 (size before relaxing)
 .rodata.menu_get_choice.str1.1
                0x000000004a03e04b       0x1d common/built-in.o
                                         0x2a (size before relaxing)
 .rodata.miiphy_duplex.str1.1
                0x000000004a03e068       0x4f common/built-in.o
 .rodata.miiphy_get_dev_by_name.str1.1
                0x000000004a03e0b7       0x13 common/built-in.o
 .rodata.miiphy_listdev.str1.1
                0x000000004a03e0ca       0x2a common/built-in.o
 .rodata.miiphy_set_current_dev.str1.1
                0x000000004a03e0f4       0x14 common/built-in.o
 .rodata.miiphy_speed.str1.1
                0x000000004a03e108       0x49 common/built-in.o
 .rodata.misc_init_r.str1.1
                0x000000004a03e151       0x5b board/sunxi/built-in.o
                                         0x5f (size before relaxing)
 .rodata.mod_mem.isra.3.part.4.str1.1
                0x000000004a03e1ac       0x1d cmd/built-in.o
 .rodata.musb_driver_name
                0x000000004a03e1c9        0xa drivers/usb/musb-new/built-in.o
                0x000000004a03e1c9                musb_driver_name
 .rodata.musb_g_ep0_irq.str1.1
                0x000000004a03e1d3       0x97 drivers/usb/musb-new/built-in.o
                                         0xb1 (size before relaxing)
 .rodata.musb_init_controller.str1.1
                0x000000004a03e26a       0xd0 drivers/usb/musb-new/built-in.o
                                         0xea (size before relaxing)
 .rodata.musb_register.str1.1
                0x000000004a03e33a       0x1f drivers/usb/musb-new/built-in.o
 .rodata.musb_test_packet
                0x000000004a03e359       0x35 drivers/usb/musb-new/built-in.o
 .rodata.musb_usb_probe.str1.1
                0x000000004a03e38e       0x38 drivers/usb/musb-new/built-in.o
                                         0x3c (size before relaxing)
 .rodata.names.7558
                0x000000004a03e3c6        0x6 lib/built-in.o
 .rodata.net_auto_load.str1.1
                0x000000004a03e3cc       0x45 net/built-in.o
 .rodata.net_bcast_ethaddr
                0x000000004a03e411        0x6 net/built-in.o
                0x000000004a03e411                net_bcast_ethaddr
 .rodata.net_check_prereq.str1.1
                0x000000004a03e417       0xbc net/built-in.o
 .rodata.net_loop.str1.1
                0x000000004a03e4d3       0x29 net/built-in.o
                                         0x3b (size before relaxing)
 .rodata.net_null_ethaddr
                0x000000004a03e4fc        0x6 net/built-in.o
                0x000000004a03e4fc                net_null_ethaddr
 .rodata.net_process_received_packet.str1.1
                0x000000004a03e502       0x1d net/built-in.o
 .rodata.net_start_again.str1.1
                0x000000004a03e51f        0xe net/built-in.o
                                         0x15 (size before relaxing)
 .rodata.netboot_common.str1.1
                0x000000004a03e52d       0x16 cmd/built-in.o
                                         0x53 (size before relaxing)
 .rodata.nfs_handler.str1.1
                0x000000004a03e543       0x56 net/built-in.o
 .rodata.nfs_lookup_reply.str1.1
                0x000000004a03e599       0x25 net/built-in.o
                                         0x27 (size before relaxing)
 .rodata.nfs_read_reply.isra.0.str1.1
                0x000000004a03e5be        0x4 net/built-in.o
 .rodata.nfs_readlink_reply.str1.1
                0x000000004a03e5c2        0x2 net/built-in.o
 .rodata.nfs_start.str1.1
                0x000000004a03e5c2      0x104 net/built-in.o
                                        0x105 (size before relaxing)
 .rodata.nfs_timeout_handler.str1.1
                0x000000004a03e6c6       0x2a net/built-in.o
 .rodata.normalize_longname.str1.1
                0x000000004a03e6f0       0x12 fs/built-in.o
 .rodata.ns16550_serial_ofdata_to_platdata.str1.1
                0x000000004a03e702       0x25 drivers/serial/built-in.o
 .rodata.on_baudrate.str1.1
                0x000000004a03e727       0x42 drivers/serial/built-in.o
                                         0x74 (size before relaxing)
 .rodata.on_callbacks.str1.1
                0x000000004a03e769      0x105 env/built-in.o
 .rodata.on_console.str1.1
                0x000000004a03e86e        0x5 common/built-in.o
                                         0x27 (size before relaxing)
 .rodata.on_flags.str1.1
                0x000000004a03e86e       0x5b env/built-in.o
 .rodata.overlay_adjust_node_phandles.str1.1
                0x000000004a03e8c9        0xe lib/built-in.o
                                         0x16 (size before relaxing)
 .rodata.overlay_get_target.str1.1
                0x000000004a03e8d7       0x13 lib/built-in.o
 .rodata.parse_attr.part.0.str1.1
                0x000000004a03e8ea       0x1a lib/built-in.o
                                         0x23 (size before relaxing)
 .rodata.parse_integer.str1.1
                0x000000004a03e904       0x17 cmd/built-in.o
 .rodata.parse_pxefile_top.str1.1
                0x000000004a03e91b       0x89 cmd/built-in.o
 .rodata.parse_sliteral.str1.1
                0x000000004a03e9a4       0x1f cmd/built-in.o
 .rodata.parse_stream_outer.str1.1
                0x000000004a03e9c3       0x4d common/built-in.o
 .rodata.parse_string_outer.str1.1
                0x000000004a03ea10        0x2 common/built-in.o
 .rodata.part_get_info_efi.str1.1
                0x000000004a03ea10        0xa disk/built-in.o
 .rodata.part_get_info_extended.str1.1
                0x000000004a03ea10        0xa disk/built-in.o
                                         0x11 (size before relaxing)
 .rodata.part_get_info_iso_verb.str1.1
                0x000000004a03ea1a      0x1bf disk/built-in.o
                                        0x1c6 (size before relaxing)
 .rodata.part_get_info_whole_disk.str1.1
                0x000000004a03ebd9        0xb disk/built-in.o
                                         0x12 (size before relaxing)
 .rodata.part_print.str1.1
                0x000000004a03ebe4       0x87 disk/built-in.o
                                         0x90 (size before relaxing)
 .rodata.part_print_dos.str1.1
                0x000000004a03ec6b       0x2a disk/built-in.o
 .rodata.part_print_efi.str1.1
                0x000000004a03ec95       0xf9 disk/built-in.o
 .rodata.part_print_iso.str1.1
                0x000000004a03ed8e       0x68 disk/built-in.o
 .rodata.part_set_generic_name.str1.1
                0x000000004a03edf6        0xa disk/built-in.o
 .rodata.partition_basic_data_guid
                0x000000004a03ee00       0x10 disk/built-in.o
 .rodata.ping_start.str1.1
                0x000000004a03ee10       0x11 net/built-in.o
 .rodata.print_buffer.str1.1
                0x000000004a03ee10        0x6 lib/built-in.o
                                         0x17 (size before relaxing)
 .rodata.print_cpuinfo.str1.1
                0x000000004a03ee16       0x23 arch/arm/mach-sunxi/built-in.o
 .rodata.print_data.str1.1
                0x000000004a03ee39       0x27 cmd/built-in.o
                                         0x32 (size before relaxing)
 .rodata.print_freq.str1.1
                0x000000004a03ee60       0x1b lib/built-in.o
 .rodata.print_num.str1.1
                0x000000004a03ee7b       0x10 cmd/built-in.o
 .rodata.print_partition_extended.str1.1
                0x000000004a03ee8b       0x83 disk/built-in.o
                                         0x84 (size before relaxing)
 .rodata.print_pre_console_buffer.str1.1
                0x000000004a03ef0e        0x7 common/built-in.o
 .rodata.print_size.str1.1
                0x000000004a03ef0e       0x15 lib/built-in.o
 .rodata.product
                0x000000004a03ef23       0x14 drivers/usb/gadget/built-in.o
 .rodata.quantifier.str1.1
                0x000000004a03ef37       0x17 lib/built-in.o
 .rodata.read_allocated_block.str1.1
                0x000000004a03ef4e      0x240 fs/built-in.o
 .rodata.read_bootsectandvi.str1.1
                0x000000004a03f18e       0x1b fs/built-in.o
 .rodata.realloc.str1.1
                0x000000004a03f1a9       0x25 common/built-in.o
 .rodata.reboot_bootloader.str1.1
                0x000000004a03f1ce       0x17 drivers/built-in.o
 .rodata.regex_callback.str1.1
                0x000000004a03f1e5        0x5 env/built-in.o
                                         0x20 (size before relaxing)
 .rodata.regex_sub.part.1.str1.1
                0x000000004a03f1ea       0xbd cmd/built-in.o
 .rodata.rndis_command_complete.str1.1
                0x000000004a03f2a7       0x19 drivers/usb/gadget/built-in.o
 .rodata.rndis_control_ack_complete.str1.1
                0x000000004a03f2c0       0x17 drivers/usb/gadget/built-in.o
 .rodata.rndis_control_intf
                0x000000004a03f2d7        0x9 drivers/usb/gadget/built-in.o
 .rodata.rndis_data_intf
                0x000000004a03f2e0        0x9 drivers/usb/gadget/built-in.o
 .rodata.run_list_real.str1.1
                0x000000004a03f2e9       0x45 common/built-in.o
                                         0x4b (size before relaxing)
 .rodata.rx_handler_command.str1.1
                0x000000004a03f32e       0x10 drivers/usb/gadget/built-in.o
                                         0x1a (size before relaxing)
 .rodata.rx_handler_dl_image.str1.1
                0x000000004a03f33e       0x10 drivers/usb/gadget/built-in.o
 .rodata.rx_submit.constprop.10.str1.1
                0x000000004a03f34e       0x11 drivers/usb/gadget/built-in.o
 .rodata.serial_init.str1.1
                0x000000004a03f35f       0x17 drivers/serial/built-in.o
                                         0x2b (size before relaxing)
 .rodata.set_contents.str1.1
                0x000000004a03f376       0x3b fs/built-in.o
 .rodata.set_default_env.str1.1
                0x000000004a03f3b1       0x2e env/built-in.o
                                         0x5f (size before relaxing)
 .rodata.set_ether_config.isra.5.str1.1
                0x000000004a03f3df       0x15 drivers/usb/gadget/built-in.o
 .rodata.set_gpt_info.isra.0.constprop.2.str1.1
                0x000000004a03f3f4       0x8e cmd/built-in.o
                                         0xb0 (size before relaxing)
 .rodata.set_local_var.str1.1
                0x000000004a03f482       0x59 common/built-in.o
 .rodata.set_working_fdt_addr.str1.1
                0x000000004a03f4db        0x8 cmd/built-in.o
 .rodata.setup_environment.str1.1
                0x000000004a03f4e3       0x2e board/sunxi/built-in.o
 .rodata.show_board_info.str1.1
                0x000000004a03f511       0x11 common/built-in.o
 .rodata.show_devices.str1.1
                0x000000004a03f522       0x32 drivers/built-in.o
                                         0x3b (size before relaxing)
 .rodata.show_dram_config.str1.1
                0x000000004a03f554        0x1 common/built-in.o
 .rodata.show_regs.str1.1
                0x000000004a03f554      0x114 arch/arm/lib/built-in.o
                                        0x140 (size before relaxing)
 .rodata.simple_bus_post_bind.str1.1
                0x000000004a03f668        0x7 drivers/built-in.o
 .rodata.smbios_guid
                0x000000004a03f668       0x10 lib/built-in.o
 .rodata.smbios_write_type0.str1.1
                0x000000004a03f678        0xb lib/built-in.o
                                         0x1a (size before relaxing)
 .rodata.smbios_write_type1.str1.1
                0x000000004a03f683        0x8 lib/built-in.o
 .rodata.smbios_write_type2.str1.1
                0x000000004a03f683        0xb lib/built-in.o
                                          0x6 (size before relaxing)
 .rodata.smbios_write_type3.str1.1
                0x000000004a03f683        0x1 lib/built-in.o
 .rodata.smbios_write_type4.str1.1
                0x000000004a03f683        0x8 lib/built-in.o
 .rodata.source.str1.1
                0x000000004a03f683       0x7e cmd/built-in.o
 .rodata.split_filename.str1.1
                0x000000004a03f701        0x2 fs/built-in.o
 .rodata.stdio_add_devices.str1.1
                0x000000004a03f701       0x1f common/built-in.o
                                         0x26 (size before relaxing)
 .rodata.stdio_deregister_dev.str1.1
                0x000000004a03f720        0x8 common/built-in.o
 .rodata.stdio_print_current_devices.str1.1
                0x000000004a03f728       0x70 common/built-in.o
                                         0x74 (size before relaxing)
 .rodata.store_char_in_data.str1.1
                0x000000004a03f798       0x1f lib/built-in.o
 .rodata.str1.1
                0x000000004a03f7b7       0xeb arch/arm/lib/built-in.o
 .rodata.str1.1
                0x000000004a03f8a2     0x2eb3 cmd/built-in.o
                                       0x316e (size before relaxing)
 .rodata.str1.1
                0x000000004a042755      0x84b common/built-in.o
                                        0x8d6 (size before relaxing)
 .rodata.str1.1
                0x000000004a042fa0       0x1f disk/built-in.o
                                         0x22 (size before relaxing)
 .rodata.str1.1
                0x000000004a042fbf      0x2b8 drivers/built-in.o
                                        0x2f2 (size before relaxing)
 .rodata.str1.1
                0x000000004a043277      0x27b drivers/gpio/built-in.o
                                        0x28d (size before relaxing)
 .rodata.str1.1
                0x000000004a0434f2       0x59 drivers/serial/built-in.o
                                         0x69 (size before relaxing)
 .rodata.str1.1
                0x000000004a04354b       0x37 drivers/usb/gadget/built-in.o
                                         0x51 (size before relaxing)
 .rodata.str1.1
                0x000000004a043582       0x10 drivers/usb/host/built-in.o
                                         0x14 (size before relaxing)
 .rodata.str1.1
                0x000000004a043592       0x8d drivers/usb/musb-new/built-in.o
                                         0x9a (size before relaxing)
 .rodata.str1.1
                0x000000004a04361f        0x8 env/built-in.o
                                         0x18 (size before relaxing)
 .rodata.str1.1
                0x000000004a043627       0x11 fs/built-in.o
                                         0x15 (size before relaxing)
 .rodata.str1.1
                0x000000004a043638      0x522 lib/built-in.o
                                        0x52a (size before relaxing)
 .rodata.str1.1
                0x000000004a043b5a        0x6 net/built-in.o
                                         0x35 (size before relaxing)
 .rodata.str1.1
                0x000000004a043b60       0xdd test/dm/built-in.o
                                         0xe3 (size before relaxing)
 .rodata.string.str1.1
                0x000000004a043c3d        0x7 lib/built-in.o
 .rodata.substitute.str1.1
                0x000000004a043c44       0x28 cmd/built-in.o
 .rodata.sun4i_usb_phy_probe.str1.1
                0x000000004a043c6c       0x30 drivers/built-in.o
 .rodata.sunxi_get_boot_device.str1.1
                0x000000004a043c9c       0x21 arch/arm/mach-sunxi/built-in.o
 .rodata.sunxi_musb_disable.str1.1
                0x000000004a043cbd       0x1d drivers/usb/musb-new/built-in.o
 .rodata.sunxi_musb_enable.str1.1
                0x000000004a043cda       0x59 drivers/usb/musb-new/built-in.o
 .rodata.sunxi_musb_exit.str1.1
                0x000000004a043d33       0x1d drivers/usb/musb-new/built-in.o
 .rodata.sunxi_musb_init.str1.1
                0x000000004a043d50       0x18 drivers/usb/musb-new/built-in.o
 .rodata.sunxi_name_to_gpio.str1.1
                0x000000004a043d68       0x19 drivers/gpio/built-in.o
                                         0x2a (size before relaxing)
 .rodata.sunxi_simplefb_fdt_match.str1.1
                0x000000004a043d81       0x30 drivers/built-in.o
 .rodata.sunxi_simplefb_setup.str1.1
                0x000000004a043db1       0xbe drivers/built-in.o
 .rodata.syntax_err.str1.1
                0x000000004a043e6f        0xe common/built-in.o
 .rodata.tab_seq
                0x000000004a043e7d        0x9 common/built-in.o
 .rodata.test_block_type.str1.1
                0x000000004a043e86        0xa disk/built-in.o
 .rodata.tftp_handler.str1.1
                0x000000004a043e90       0x72 net/built-in.o
                                         0x80 (size before relaxing)
 .rodata.tftp_send.str1.1
                0x000000004a043f02       0x36 net/built-in.o
                                         0x42 (size before relaxing)
 .rodata.tftp_start.str1.1
                0x000000004a043f38       0xe8 net/built-in.o
                                        0x181 (size before relaxing)
 .rodata.tftp_timeout_handler.str1.1
                0x000000004a044020       0x2a net/built-in.o
                                         0x2d (size before relaxing)
 .rodata.u_boot_hush_start.str1.1
                0x000000004a04404a       0x12 common/built-in.o
 .rodata.uclass_resolve_seq.str1.1
                0x000000004a04405c       0x27 drivers/built-in.o
 .rodata.union_desc
                0x000000004a044083        0x5 drivers/usb/gadget/built-in.o
 .rodata.us_direction
                0x000000004a044088       0x20 common/built-in.o
 .rodata.usb_child_post_bind.str1.1
                0x000000004a0440a8       0x25 drivers/usb/host/built-in.o
 .rodata.usb_composite_register.str1.1
                0x000000004a0440cd        0xa drivers/usb/gadget/built-in.o
 .rodata.usb_display_class_sub.str1.1
                0x000000004a0440d7       0xb6 cmd/built-in.o
                                         0xbc (size before relaxing)
 .rodata.usb_display_config.str1.1
                0x000000004a04418d      0x105 cmd/built-in.o
                                        0x118 (size before relaxing)
 .rodata.usb_display_desc.str1.1
                0x000000004a044292       0xac cmd/built-in.o
                                         0xae (size before relaxing)
 .rodata.usb_display_string.str1.1
                0x000000004a04433e        0xd cmd/built-in.o
 .rodata.usb_eth_probe.str1.1
                0x000000004a04434b       0x21 drivers/usb/gadget/built-in.o
 .rodata.usb_eth_recv.str1.1
                0x000000004a04436c       0x14 drivers/usb/gadget/built-in.o
 .rodata.usb_eth_send.str1.1
                0x000000004a044380       0x49 drivers/usb/gadget/built-in.o
 .rodata.usb_eth_start.str1.1
                0x000000004a0443c9       0xc0 drivers/usb/gadget/built-in.o
 .rodata.usb_ether_init.str1.1
                0x000000004a044489       0x33 drivers/usb/gadget/built-in.o
 .rodata.usb_gadget_register_driver.str1.1
                0x000000004a0444bc       0x5c drivers/usb/musb-new/built-in.o
 .rodata.usb_get_class_desc.str1.1
                0x000000004a044518       0x64 cmd/built-in.o
                                         0x65 (size before relaxing)
 .rodata.usb_get_configuration_len.str1.1
                0x000000004a04457c       0x58 common/built-in.o
 .rodata.usb_hub_configure.str1.1
                0x000000004a0445d4       0x5f common/built-in.o
 .rodata.usb_hub_port_connect_change.str1.1
                0x000000004a044633       0x18 common/built-in.o
 .rodata.usb_init.str1.1
                0x000000004a04464b       0x7e drivers/usb/host/built-in.o
 .rodata.usb_kbd_arrow
                0x000000004a0446c9        0x4 common/built-in.o
 .rodata.usb_kbd_num_keypad
                0x000000004a0446cd       0x14 common/built-in.o
 .rodata.usb_kbd_numkey
                0x000000004a0446e1       0x1b common/built-in.o
 .rodata.usb_kbd_numkey_shifted
                0x000000004a0446fc       0x1b common/built-in.o
 .rodata.usb_kbd_probe.str1.1
                0x000000004a044717       0x5c common/built-in.o
 .rodata.usb_kbd_remove.str1.1
                0x000000004a044773       0x1b common/built-in.o
                                         0x21 (size before relaxing)
 .rodata.usb_mass_storage_probe.str1.1
                0x000000004a04478e       0x2d common/built-in.o
 .rodata.usb_scan_bus.isra.3.str1.1
                0x000000004a0447bb       0x4d drivers/usb/host/built-in.o
                                         0x5f (size before relaxing)
 .rodata.usb_scan_device.str1.1
                0x000000004a044808       0x2a drivers/usb/host/built-in.o
 .rodata.usb_select_config.str1.1
                0x000000004a044832      0x220 common/built-in.o
 .rodata.usb_set_interface.str1.1
                0x000000004a044a52       0x1f common/built-in.o
 .rodata.usb_setup_descriptor.str1.1
                0x000000004a044a71       0x1d common/built-in.o
 .rodata.usb_setup_device.str1.1
                0x000000004a044a8e       0x68 common/built-in.o
 .rodata.usb_show_tree_graph.str1.1
                0x000000004a044af6       0x2f cmd/built-in.o
                                         0x3a (size before relaxing)
 .rodata.usb_stor_CBI_get_status.isra.2.str1.1
                0x000000004a044b25       0x1f common/built-in.o
 .rodata.usb_stor_CB_transport.str1.1
                0x000000004a044b44       0x6e common/built-in.o
 .rodata.usb_stor_get_info.str1.1
                0x000000004a044bb2       0x5d common/built-in.o
 .rodata.usb_stor_info.str1.1
                0x000000004a044c0f       0x32 common/built-in.o
                                         0x40 (size before relaxing)
 .rodata.usb_stor_scan.str1.1
                0x000000004a044c41       0x48 common/built-in.o
 .rodata.usb_storage_probe.str1.1
                0x000000004a044c89       0x5c common/built-in.o
 .rodata.uuid_bin_to_str.str1.1
                0x000000004a044ce5       0x1f lib/built-in.o
                                          0x5 (size before relaxing)
 .rodata.valid_elf_image.str1.1
                0x000000004a044ce5       0x52 cmd/built-in.o
 .rodata.validate_gpt_entries.str1.1
                0x000000004a044d37       0x40 disk/built-in.o
 .rodata.validate_gpt_header.str1.1
                0x000000004a044d77       0xe1 disk/built-in.o
 .rodata.var_complete.str1.1
                0x000000004a044e58        0x1 common/built-in.o
 .rodata.version_string
                0x000000004a044e58       0x43 cmd/built-in.o
                0x000000004a044e58                version_string
 .rodata.video_get_ctfb_res_modes.str1.1
                0x000000004a044e9b       0x43 drivers/built-in.o
 .rodata.video_get_video_mode.str1.1
                0x000000004a044ede        0xb drivers/built-in.o
 .rodata.video_hw_init.str1.1
                0x000000004a044ee9      0x180 drivers/built-in.o
                                        0x188 (size before relaxing)
 .rodata.write_gpt_table.str1.1
                0x000000004a045069       0x55 disk/built-in.o
 .rodata.write_smbios_table.str1.1
                0x000000004a0450be        0xb lib/built-in.o
 .rodata.xmalloc.str1.1
                0x000000004a0450c9       0x1e common/built-in.o
 .rodata.xyzModem_error.str1.1
                0x000000004a0450e7        0xe common/built-in.o
 .rodata.xyzModem_stream_close.str1.1
                0x000000004a0450f5       0x4b common/built-in.o
 .rodata.xyzModem_stream_open.str1.1
                0x000000004a045140        0x2 common/built-in.o
 .rodata.zunzip.str1.1
                0x000000004a045140       0x47 lib/built-in.o

.hash           0x000000004a045188       0x18
 .hash          0x000000004a045188       0x18 arch/arm/cpu/armv7/start.o
                0x000000004a0451a0                . = ALIGN (0x4)

.data           0x000000004a0451a0     0x5be0
 *(.data*)
 .data.rel.ro   0x000000004a0451a0        0x0 arch/arm/cpu/armv7/start.o
 .data.needs_init.7639
                0x000000004a0451a0        0x4 arch/arm/mach-sunxi/built-in.o
 .data.bootm_help_text
                0x000000004a0451a4      0x38b cmd/built-in.o
 *fill*         0x000000004a04552f        0x1 
 .data.cmd_bootm_sub
                0x000000004a045530       0xfc cmd/built-in.o
 .data.source_help_text
                0x000000004a04562c       0x4e cmd/built-in.o
 .data.bootefi_help_text
                0x000000004a04567a      0x188 cmd/built-in.o
 *fill*         0x000000004a045802        0x2 
 .data.efi_obj_list_initialized
                0x000000004a045804        0x4 cmd/built-in.o
 .data.bootz_help_text
                0x000000004a045808      0x208 cmd/built-in.o
 .data.fdt_help_text
                0x000000004a045a10      0x687 cmd/built-in.o
 .data.root.8232
                0x000000004a046097        0x2 cmd/built-in.o
 .data.tabs.8320
                0x000000004a046099       0x21 cmd/built-in.o
 *fill*         0x000000004a0460ba        0x2 
 .data.do_echo  0x000000004a0460bc        0x4 cmd/built-in.o
 .data.dp_last_length
                0x000000004a0460c0        0x4 cmd/built-in.o
 .data.cmd_pxe_sub
                0x000000004a0460c4       0x38 cmd/built-in.o
 .data.pxe_default_paths
                0x000000004a0460fc       0x10 cmd/built-in.o
                0x000000004a0460fc                pxe_default_paths
 .data.usb_stor_curr_dev
                0x000000004a04610c        0x4 cmd/built-in.o
 .data.fastboot_help_text
                0x000000004a046110       0xab cmd/built-in.o
 .data.imgextract_help_text
                0x000000004a0461bb       0x55 cmd/built-in.o
 .data.cmd_env_sub
                0x000000004a046210       0xfc cmd/built-in.o
 .data.env_help_text
                0x000000004a04630c      0x23d cmd/built-in.o
 *fill*         0x000000004a046549        0x3 
 .data.env_id   0x000000004a04654c        0x4 cmd/built-in.o
 .data.reserved_list
                0x000000004a046550       0x84 common/built-in.o
 .data.init_sequence_r
                0x000000004a0465d4       0x70 common/built-in.o
 .data.of_busses
                0x000000004a046644       0x18 common/built-in.o
 .data.usb_scan_list
                0x000000004a04665c        0x8 common/built-in.o
 .data.hist_cur
                0x000000004a046664        0x4 common/built-in.o
 .data.av_      0x000000004a046668      0x408 common/built-in.o
 .data.sbrk_base
                0x000000004a046a70        0x4 common/built-in.o
 .data.trim_threshold
                0x000000004a046a74        0x4 common/built-in.o
 .data.load_addr
                0x000000004a046a78        0x4 common/built-in.o
                0x000000004a046a78                load_addr
 .data.stdio_names
                0x000000004a046a7c        0xc common/built-in.o
                0x000000004a046a7c                stdio_names
 .data.system_guid
                0x000000004a046a88       0x10 disk/built-in.o
 .data.phy_info
                0x000000004a046a98       0x40 drivers/built-in.o
                0x000000004a046a98                phy_info
 .data.sun4i_usb_phy_ops
                0x000000004a046ad8       0x18 drivers/built-in.o
 .data.linux_logo
                0x000000004a046af0     0x1900 drivers/built-in.o
                0x000000004a046af0                linux_logo
 .data.linux_logo_blue
                0x000000004a0483f0       0xd6 drivers/built-in.o
                0x000000004a0483f0                linux_logo_blue
 .data.linux_logo_green
                0x000000004a0484c6       0xd6 drivers/built-in.o
                0x000000004a0484c6                linux_logo_green
 .data.linux_logo_red
                0x000000004a04859c       0xd6 drivers/built-in.o
                0x000000004a04859c                linux_logo_red
 *fill*         0x000000004a048672        0x2 
 .data.nl.8756  0x000000004a048674        0x4 drivers/built-in.o
 .data.video_fontdata
                0x000000004a048678     0x1000 drivers/built-in.o
 .data.composite_driver
                0x000000004a049678       0x24 drivers/usb/gadget/built-in.o
 .data.device_desc
                0x000000004a04969c       0x24 drivers/usb/gadget/built-in.o
 .data.g_dnl_composite_strings
                0x000000004a0496c0        0x8 drivers/usb/gadget/built-in.o
 .data.g_dnl_driver
                0x000000004a0496c8       0x20 drivers/usb/gadget/built-in.o
 .data.g_dnl_string_defs
                0x000000004a0496e8       0x20 drivers/usb/gadget/built-in.o
 .data.g_dnl_string_tab
                0x000000004a049708        0x8 drivers/usb/gadget/built-in.o
 .data.fsg_fs_bulk_in_desc
                0x000000004a049710        0x9 drivers/usb/gadget/built-in.o
 .data.fsg_fs_bulk_out_desc
                0x000000004a049719        0x9 drivers/usb/gadget/built-in.o
 *fill*         0x000000004a049722        0x2 
 .data.fsg_fs_function
                0x000000004a049724       0x10 drivers/usb/gadget/built-in.o
 .data.fsg_hs_bulk_in_desc
                0x000000004a049734        0x9 drivers/usb/gadget/built-in.o
 .data.fsg_hs_bulk_out_desc
                0x000000004a04973d        0x9 drivers/usb/gadget/built-in.o
 *fill*         0x000000004a049746        0x2 
 .data.fsg_hs_function
                0x000000004a049748       0x10 drivers/usb/gadget/built-in.o
 .data.fsg_intf_desc
                0x000000004a049758        0x9 drivers/usb/gadget/built-in.o
 *fill*         0x000000004a049761        0x3 
 .data.fsg_strings
                0x000000004a049764       0x10 drivers/usb/gadget/built-in.o
 .data.fsg_strings_array
                0x000000004a049774        0x8 drivers/usb/gadget/built-in.o
 .data.fsg_stringtab
                0x000000004a04977c        0x8 drivers/usb/gadget/built-in.o
 .data.fastboot_string_defs
                0x000000004a049784       0x10 drivers/usb/gadget/built-in.o
 .data.fastboot_strings
                0x000000004a049794        0x8 drivers/usb/gadget/built-in.o
 .data.fb_fs_function
                0x000000004a04979c        0xc drivers/usb/gadget/built-in.o
 .data.fb_hs_function
                0x000000004a0497a8       0x10 drivers/usb/gadget/built-in.o
 .data.fs_ep_in
                0x000000004a0497b8        0x9 drivers/usb/gadget/built-in.o
 .data.fs_ep_out
                0x000000004a0497c1        0x9 drivers/usb/gadget/built-in.o
 .data.hs_ep_in
                0x000000004a0497ca        0x9 drivers/usb/gadget/built-in.o
 .data.hs_ep_out
                0x000000004a0497d3        0x9 drivers/usb/gadget/built-in.o
 .data.interface_desc
                0x000000004a0497dc        0x9 drivers/usb/gadget/built-in.o
 *fill*         0x000000004a0497e5        0x3 
 .data.stringtab_fastboot
                0x000000004a0497e8        0x8 drivers/usb/gadget/built-in.o
 .data.dev_qualifier
                0x000000004a0497f0        0xa drivers/usb/gadget/built-in.o
 .data.eth_config
                0x000000004a0497fa        0x9 drivers/usb/gadget/built-in.o
 *fill*         0x000000004a049803        0x1 
 .data.fs_eth_function
                0x000000004a049804       0x2c drivers/usb/gadget/built-in.o
 .data.fs_rndis_function
                0x000000004a049830       0x2c drivers/usb/gadget/built-in.o
 .data.fs_sink_desc
                0x000000004a04985c        0x9 drivers/usb/gadget/built-in.o
 .data.fs_source_desc
                0x000000004a049865        0x9 drivers/usb/gadget/built-in.o
 .data.fs_status_desc
                0x000000004a04986e        0x9 drivers/usb/gadget/built-in.o
 *fill*         0x000000004a049877        0x1 
 .data.hs_eth_function
                0x000000004a049878       0x2c drivers/usb/gadget/built-in.o
 .data.hs_rndis_function
                0x000000004a0498a4       0x2c drivers/usb/gadget/built-in.o
 .data.hs_sink_desc
                0x000000004a0498d0        0x9 drivers/usb/gadget/built-in.o
 .data.hs_source_desc
                0x000000004a0498d9        0x9 drivers/usb/gadget/built-in.o
 .data.hs_status_desc
                0x000000004a0498e2        0x9 drivers/usb/gadget/built-in.o
 *fill*         0x000000004a0498eb        0x1 
 .data.l_priv   0x000000004a0498ec        0x4 drivers/usb/gadget/built-in.o
                0x000000004a0498ec                l_priv
 .data.otg_descriptor
                0x000000004a0498f0        0x3 drivers/usb/gadget/built-in.o
 .data.product_desc
                0x000000004a0498f3       0x28 drivers/usb/gadget/built-in.o
 .data.rndis_config
                0x000000004a04991b        0x9 drivers/usb/gadget/built-in.o
 .data.strings  0x000000004a049924       0x40 drivers/usb/gadget/built-in.o
 .data.stringtab
                0x000000004a049964        0x8 drivers/usb/gadget/built-in.o
 .data.ep0_cfg  0x000000004a04996c        0x6 drivers/usb/musb-new/built-in.o
 .data.fifo_mode
                0x000000004a049972        0x2 drivers/usb/musb-new/built-in.o
 .data.mode_0_cfg
                0x000000004a049974       0x1e drivers/usb/musb-new/built-in.o
 .data.mode_1_cfg
                0x000000004a049992       0x1e drivers/usb/musb-new/built-in.o
 .data.mode_2_cfg
                0x000000004a0499b0       0x24 drivers/usb/musb-new/built-in.o
 .data.mode_3_cfg
                0x000000004a0499d4       0x24 drivers/usb/musb-new/built-in.o
 .data.mode_4_cfg
                0x000000004a0499f8       0xa2 drivers/usb/musb-new/built-in.o
 .data.mode_5_cfg
                0x000000004a049a9a       0xa2 drivers/usb/musb-new/built-in.o
 .data.musb_config
                0x000000004a049b3c       0x18 drivers/usb/musb-new/built-in.o
 .data.musb_config_h3
                0x000000004a049b54       0x18 drivers/usb/musb-new/built-in.o
 .data.sunxi_musb_mode_cfg
                0x000000004a049b6c       0x3c drivers/usb/musb-new/built-in.o
 .data.sunxi_musb_mode_cfg_h3
                0x000000004a049ba8       0x30 drivers/usb/musb-new/built-in.o
 .data.env_htab
                0x000000004a049bd8       0x10 env/built-in.o
                0x000000004a049bd8                env_htab
 .data.first_call
                0x000000004a049be8        0x8 env/built-in.o
 .data.fstypes  0x000000004a049bf0       0xc0 fs/built-in.o
 .data.ext4fs_indir1_blkno
                0x000000004a049cb0        0x4 fs/built-in.o
                0x000000004a049cb0                ext4fs_indir1_blkno
 .data.ext4fs_indir2_blkno
                0x000000004a049cb4        0x4 fs/built-in.o
                0x000000004a049cb4                ext4fs_indir2_blkno
 .data.ext4fs_indir3_blkno
                0x000000004a049cb8        0x4 fs/built-in.o
                0x000000004a049cb8                ext4fs_indir3_blkno
 *fill*         0x000000004a049cbc        0x4 
 .data.efi_boot_services
                0x000000004a049cc0       0xc8 lib/built-in.o
 .data.efi_events
                0x000000004a049d88        0x8 lib/built-in.o
                0x000000004a049d88                efi_events
 .data.efi_obj_list
                0x000000004a049d90        0x8 lib/built-in.o
                0x000000004a049d90                efi_obj_list
 .data.efi_tpl  0x000000004a049d98        0x4 lib/built-in.o
 .data.cin_notify_functions
                0x000000004a049d9c        0x8 lib/built-in.o
 .data.efi_con_in
                0x000000004a049da4        0xc lib/built-in.o
                0x000000004a049da4                efi_con_in
 .data.efi_con_in_ex
                0x000000004a049db0       0x18 lib/built-in.o
 .data.efi_con_mode
                0x000000004a049dc8       0x18 lib/built-in.o
 .data.efi_con_out
                0x000000004a049de0       0x28 lib/built-in.o
                0x000000004a049de0                efi_con_out
 .data.efi_cout_modes
                0x000000004a049e08       0x24 lib/built-in.o
 .data.efi_mem  0x000000004a049e2c        0x8 lib/built-in.o
                0x000000004a049e2c                efi_mem
 .data.lastoff.10627
                0x000000004a049e34        0x4 lib/built-in.o
 .data.capitalization_table
                0x000000004a049e38      0xed0 lib/built-in.o
 .data.y        0x000000004a04ad08        0x4 lib/built-in.o
 .data.first_call.7677
                0x000000004a04ad0c        0x4 net/built-in.o
 .data.net_native_vlan
                0x000000004a04ad10        0x2 net/built-in.o
                0x000000004a04ad10                net_native_vlan
 .data.net_our_vlan
                0x000000004a04ad12        0x2 net/built-in.o
                0x000000004a04ad12                net_our_vlan
 .data.nfs_offset
                0x000000004a04ad14        0x4 net/built-in.o
 .data.supported_nfs_versions
                0x000000004a04ad18        0x1 net/built-in.o
 *fill*         0x000000004a04ad19        0x1 
 .data.tftp_block_size
                0x000000004a04ad1a        0x2 net/built-in.o
 .data.tftp_block_size_option
                0x000000004a04ad1c        0x2 net/built-in.o
 *fill*         0x000000004a04ad1e        0x2 
 .data.tftp_timeout_count_max
                0x000000004a04ad20        0x4 net/built-in.o
                0x000000004a04ad20                tftp_timeout_count_max
 .data.timeout_count_max
                0x000000004a04ad24        0x4 net/built-in.o
 .data.timeout_ms
                0x000000004a04ad28        0x4 net/built-in.o
 .data.test_commands
                0x000000004a04ad2c       0x54 test/dm/built-in.o

.got            0x000000004a04ad80        0x0
 .got           0x000000004a04ad80        0x0 arch/arm/cpu/armv7/start.o

.got.plt        0x000000004a04ad80        0xc
 .got.plt       0x000000004a04ad80        0xc arch/arm/cpu/armv7/start.o
                0x000000004a04ad80                _GLOBAL_OFFSET_TABLE_

.igot.plt       0x000000004a04ad8c        0x0
 .igot.plt      0x000000004a04ad8c        0x0 arch/arm/cpu/armv7/start.o
                0x000000004a04ad8c                . = ALIGN (0x4)
                0x000000004a04ad8c                . = .
                0x000000004a04ad8c                . = ALIGN (0x4)

.u_boot_list    0x000000004a04ad8c     0x1038
 *(SORT_BY_NAME(.u_boot_list*))
 .u_boot_list_2_blk_driver_1
                0x000000004a04ad8c        0x0 drivers/built-in.o
 .u_boot_list_2_blk_driver_2_usb
                0x000000004a04ad8c       0x18 common/built-in.o
                0x000000004a04ad8c                _u_boot_list_2_blk_driver_2_usb
 .u_boot_list_2_blk_driver_3
                0x000000004a04ada4        0x0 drivers/built-in.o
 .u_boot_list_2_cmd_1
                0x000000004a04ada4        0x0 cmd/built-in.o
 .u_boot_list_2_cmd_1
                0x000000004a04ada4        0x0 common/built-in.o
 .u_boot_list_2_cmd_2_base
                0x000000004a04ada4       0x1c cmd/built-in.o
                0x000000004a04ada4                _u_boot_list_2_cmd_2_base
 .u_boot_list_2_cmd_2_bdinfo
                0x000000004a04adc0       0x1c cmd/built-in.o
                0x000000004a04adc0                _u_boot_list_2_cmd_2_bdinfo
 .u_boot_list_2_cmd_2_boot
                0x000000004a04addc       0x1c cmd/built-in.o
                0x000000004a04addc                _u_boot_list_2_cmd_2_boot
 .u_boot_list_2_cmd_2_bootd
                0x000000004a04adf8       0x1c cmd/built-in.o
                0x000000004a04adf8                _u_boot_list_2_cmd_2_bootd
 .u_boot_list_2_cmd_2_bootefi
                0x000000004a04ae14       0x1c cmd/built-in.o
                0x000000004a04ae14                _u_boot_list_2_cmd_2_bootefi
 .u_boot_list_2_cmd_2_bootelf
                0x000000004a04ae30       0x1c cmd/built-in.o
                0x000000004a04ae30                _u_boot_list_2_cmd_2_bootelf
 .u_boot_list_2_cmd_2_bootm
                0x000000004a04ae4c       0x1c cmd/built-in.o
                0x000000004a04ae4c                _u_boot_list_2_cmd_2_bootm
 .u_boot_list_2_cmd_2_bootp
                0x000000004a04ae68       0x1c cmd/built-in.o
                0x000000004a04ae68                _u_boot_list_2_cmd_2_bootp
 .u_boot_list_2_cmd_2_bootvx
                0x000000004a04ae84       0x1c cmd/built-in.o
                0x000000004a04ae84                _u_boot_list_2_cmd_2_bootvx
 .u_boot_list_2_cmd_2_bootz
                0x000000004a04aea0       0x1c cmd/built-in.o
                0x000000004a04aea0                _u_boot_list_2_cmd_2_bootz
 .u_boot_list_2_cmd_2_clrlogo
                0x000000004a04aebc       0x1c drivers/built-in.o
                0x000000004a04aebc                _u_boot_list_2_cmd_2_clrlogo
 .u_boot_list_2_cmd_2_cmp
                0x000000004a04aed8       0x1c cmd/built-in.o
                0x000000004a04aed8                _u_boot_list_2_cmd_2_cmp
 .u_boot_list_2_cmd_2_coninfo
                0x000000004a04aef4       0x1c cmd/built-in.o
                0x000000004a04aef4                _u_boot_list_2_cmd_2_coninfo
 .u_boot_list_2_cmd_2_cp
                0x000000004a04af10       0x1c cmd/built-in.o
                0x000000004a04af10                _u_boot_list_2_cmd_2_cp
 .u_boot_list_2_cmd_2_crc32
                0x000000004a04af2c       0x1c cmd/built-in.o
                0x000000004a04af2c                _u_boot_list_2_cmd_2_crc32
 .u_boot_list_2_cmd_2_dhcp
                0x000000004a04af48       0x1c cmd/built-in.o
                0x000000004a04af48                _u_boot_list_2_cmd_2_dhcp
 .u_boot_list_2_cmd_2_dm
                0x000000004a04af64       0x1c test/dm/built-in.o
                0x000000004a04af64                _u_boot_list_2_cmd_2_dm
 .u_boot_list_2_cmd_2_echo
                0x000000004a04af80       0x1c cmd/built-in.o
                0x000000004a04af80                _u_boot_list_2_cmd_2_echo
 .u_boot_list_2_cmd_2_editenv
                0x000000004a04af9c       0x1c cmd/built-in.o
                0x000000004a04af9c                _u_boot_list_2_cmd_2_editenv
 .u_boot_list_2_cmd_2_env
                0x000000004a04afb8       0x1c cmd/built-in.o
                0x000000004a04afb8                _u_boot_list_2_cmd_2_env
 .u_boot_list_2_cmd_2_exit
                0x000000004a04afd4       0x1c cmd/built-in.o
                0x000000004a04afd4                _u_boot_list_2_cmd_2_exit
 .u_boot_list_2_cmd_2_ext2load
                0x000000004a04aff0       0x1c cmd/built-in.o
                0x000000004a04aff0                _u_boot_list_2_cmd_2_ext2load
 .u_boot_list_2_cmd_2_ext2ls
                0x000000004a04b00c       0x1c cmd/built-in.o
                0x000000004a04b00c                _u_boot_list_2_cmd_2_ext2ls
 .u_boot_list_2_cmd_2_ext4load
                0x000000004a04b028       0x1c cmd/built-in.o
                0x000000004a04b028                _u_boot_list_2_cmd_2_ext4load
 .u_boot_list_2_cmd_2_ext4ls
                0x000000004a04b044       0x1c cmd/built-in.o
                0x000000004a04b044                _u_boot_list_2_cmd_2_ext4ls
 .u_boot_list_2_cmd_2_ext4size
                0x000000004a04b060       0x1c cmd/built-in.o
                0x000000004a04b060                _u_boot_list_2_cmd_2_ext4size
 .u_boot_list_2_cmd_2_false
                0x000000004a04b07c       0x1c cmd/built-in.o
                0x000000004a04b07c                _u_boot_list_2_cmd_2_false
 .u_boot_list_2_cmd_2_fastboot
                0x000000004a04b098       0x1c cmd/built-in.o
                0x000000004a04b098                _u_boot_list_2_cmd_2_fastboot
 .u_boot_list_2_cmd_2_fatinfo
                0x000000004a04b0b4       0x1c cmd/built-in.o
                0x000000004a04b0b4                _u_boot_list_2_cmd_2_fatinfo
 .u_boot_list_2_cmd_2_fatload
                0x000000004a04b0d0       0x1c cmd/built-in.o
                0x000000004a04b0d0                _u_boot_list_2_cmd_2_fatload
 .u_boot_list_2_cmd_2_fatls
                0x000000004a04b0ec       0x1c cmd/built-in.o
                0x000000004a04b0ec                _u_boot_list_2_cmd_2_fatls
 .u_boot_list_2_cmd_2_fatmkdir
                0x000000004a04b108       0x1c cmd/built-in.o
                0x000000004a04b108                _u_boot_list_2_cmd_2_fatmkdir
 .u_boot_list_2_cmd_2_fatrm
                0x000000004a04b124       0x1c cmd/built-in.o
                0x000000004a04b124                _u_boot_list_2_cmd_2_fatrm
 .u_boot_list_2_cmd_2_fatsize
                0x000000004a04b140       0x1c cmd/built-in.o
                0x000000004a04b140                _u_boot_list_2_cmd_2_fatsize
 .u_boot_list_2_cmd_2_fatwrite
                0x000000004a04b15c       0x1c cmd/built-in.o
                0x000000004a04b15c                _u_boot_list_2_cmd_2_fatwrite
 .u_boot_list_2_cmd_2_fdt
                0x000000004a04b178       0x1c cmd/built-in.o
                0x000000004a04b178                _u_boot_list_2_cmd_2_fdt
 .u_boot_list_2_cmd_2_fstype
                0x000000004a04b194       0x1c cmd/built-in.o
                0x000000004a04b194                _u_boot_list_2_cmd_2_fstype
 .u_boot_list_2_cmd_2_go
                0x000000004a04b1b0       0x1c cmd/built-in.o
                0x000000004a04b1b0                _u_boot_list_2_cmd_2_go
 .u_boot_list_2_cmd_2_gpio
                0x000000004a04b1cc       0x1c cmd/built-in.o
                0x000000004a04b1cc                _u_boot_list_2_cmd_2_gpio
 .u_boot_list_2_cmd_2_gpt
                0x000000004a04b1e8       0x1c cmd/built-in.o
                0x000000004a04b1e8                _u_boot_list_2_cmd_2_gpt
 .u_boot_list_2_cmd_2_help
                0x000000004a04b204       0x1c cmd/built-in.o
                0x000000004a04b204                _u_boot_list_2_cmd_2_help
 .u_boot_list_2_cmd_2_iminfo
                0x000000004a04b220       0x1c cmd/built-in.o
                0x000000004a04b220                _u_boot_list_2_cmd_2_iminfo
 .u_boot_list_2_cmd_2_imxtract
                0x000000004a04b23c       0x1c cmd/built-in.o
                0x000000004a04b23c                _u_boot_list_2_cmd_2_imxtract
 .u_boot_list_2_cmd_2_itest
                0x000000004a04b258       0x1c cmd/built-in.o
                0x000000004a04b258                _u_boot_list_2_cmd_2_itest
 .u_boot_list_2_cmd_2_load
                0x000000004a04b274       0x1c cmd/built-in.o
                0x000000004a04b274                _u_boot_list_2_cmd_2_load
 .u_boot_list_2_cmd_2_loadb
                0x000000004a04b290       0x1c cmd/built-in.o
                0x000000004a04b290                _u_boot_list_2_cmd_2_loadb
 .u_boot_list_2_cmd_2_loads
                0x000000004a04b2ac       0x1c cmd/built-in.o
                0x000000004a04b2ac                _u_boot_list_2_cmd_2_loads
 .u_boot_list_2_cmd_2_loadx
                0x000000004a04b2c8       0x1c cmd/built-in.o
                0x000000004a04b2c8                _u_boot_list_2_cmd_2_loadx
 .u_boot_list_2_cmd_2_loady
                0x000000004a04b2e4       0x1c cmd/built-in.o
                0x000000004a04b2e4                _u_boot_list_2_cmd_2_loady
 .u_boot_list_2_cmd_2_loop
                0x000000004a04b300       0x1c cmd/built-in.o
                0x000000004a04b300                _u_boot_list_2_cmd_2_loop
 .u_boot_list_2_cmd_2_ls
                0x000000004a04b31c       0x1c cmd/built-in.o
                0x000000004a04b31c                _u_boot_list_2_cmd_2_ls
 .u_boot_list_2_cmd_2_md
                0x000000004a04b338       0x1c cmd/built-in.o
                0x000000004a04b338                _u_boot_list_2_cmd_2_md
 .u_boot_list_2_cmd_2_mii
                0x000000004a04b354       0x1c cmd/built-in.o
                0x000000004a04b354                _u_boot_list_2_cmd_2_mii
 .u_boot_list_2_cmd_2_mm
                0x000000004a04b370       0x1c cmd/built-in.o
                0x000000004a04b370                _u_boot_list_2_cmd_2_mm
 .u_boot_list_2_cmd_2_mw
                0x000000004a04b38c       0x1c cmd/built-in.o
                0x000000004a04b38c                _u_boot_list_2_cmd_2_mw
 .u_boot_list_2_cmd_2_nfs
                0x000000004a04b3a8       0x1c cmd/built-in.o
                0x000000004a04b3a8                _u_boot_list_2_cmd_2_nfs
 .u_boot_list_2_cmd_2_nm
                0x000000004a04b3c4       0x1c cmd/built-in.o
                0x000000004a04b3c4                _u_boot_list_2_cmd_2_nm
 .u_boot_list_2_cmd_2_part
                0x000000004a04b3e0       0x1c cmd/built-in.o
                0x000000004a04b3e0                _u_boot_list_2_cmd_2_part
 .u_boot_list_2_cmd_2_ping
                0x000000004a04b3fc       0x1c cmd/built-in.o
                0x000000004a04b3fc                _u_boot_list_2_cmd_2_ping
 .u_boot_list_2_cmd_2_poweroff
                0x000000004a04b418       0x1c cmd/built-in.o
                0x000000004a04b418                _u_boot_list_2_cmd_2_poweroff
 .u_boot_list_2_cmd_2_printenv
                0x000000004a04b434       0x1c cmd/built-in.o
                0x000000004a04b434                _u_boot_list_2_cmd_2_printenv
 .u_boot_list_2_cmd_2_pxe
                0x000000004a04b450       0x1c cmd/built-in.o
                0x000000004a04b450                _u_boot_list_2_cmd_2_pxe
 .u_boot_list_2_cmd_2_question_mark
                0x000000004a04b46c       0x1c cmd/built-in.o
                0x000000004a04b46c                _u_boot_list_2_cmd_2_question_mark
 .u_boot_list_2_cmd_2_reset
                0x000000004a04b488       0x1c cmd/built-in.o
                0x000000004a04b488                _u_boot_list_2_cmd_2_reset
 .u_boot_list_2_cmd_2_run
                0x000000004a04b4a4       0x1c cmd/built-in.o
                0x000000004a04b4a4                _u_boot_list_2_cmd_2_run
 .u_boot_list_2_cmd_2_save
                0x000000004a04b4c0       0x1c cmd/built-in.o
                0x000000004a04b4c0                _u_boot_list_2_cmd_2_save
 .u_boot_list_2_cmd_2_setenv
                0x000000004a04b4dc       0x1c cmd/built-in.o
                0x000000004a04b4dc                _u_boot_list_2_cmd_2_setenv
 .u_boot_list_2_cmd_2_setexpr
                0x000000004a04b4f8       0x1c cmd/built-in.o
                0x000000004a04b4f8                _u_boot_list_2_cmd_2_setexpr
 .u_boot_list_2_cmd_2_showvar
                0x000000004a04b514       0x1c common/built-in.o
                0x000000004a04b514                _u_boot_list_2_cmd_2_showvar
 .u_boot_list_2_cmd_2_size
                0x000000004a04b530       0x1c cmd/built-in.o
                0x000000004a04b530                _u_boot_list_2_cmd_2_size
 .u_boot_list_2_cmd_2_sleep
                0x000000004a04b54c       0x1c cmd/built-in.o
                0x000000004a04b54c                _u_boot_list_2_cmd_2_sleep
 .u_boot_list_2_cmd_2_source
                0x000000004a04b568       0x1c cmd/built-in.o
                0x000000004a04b568                _u_boot_list_2_cmd_2_source
 .u_boot_list_2_cmd_2_sysboot
                0x000000004a04b584       0x1c cmd/built-in.o
                0x000000004a04b584                _u_boot_list_2_cmd_2_sysboot
 .u_boot_list_2_cmd_2_test
                0x000000004a04b5a0       0x1c cmd/built-in.o
                0x000000004a04b5a0                _u_boot_list_2_cmd_2_test
 .u_boot_list_2_cmd_2_tftpboot
                0x000000004a04b5bc       0x1c cmd/built-in.o
                0x000000004a04b5bc                _u_boot_list_2_cmd_2_tftpboot
 .u_boot_list_2_cmd_2_true
                0x000000004a04b5d8       0x1c cmd/built-in.o
                0x000000004a04b5d8                _u_boot_list_2_cmd_2_true
 .u_boot_list_2_cmd_2_usb
                0x000000004a04b5f4       0x1c cmd/built-in.o
                0x000000004a04b5f4                _u_boot_list_2_cmd_2_usb
 .u_boot_list_2_cmd_2_usbboot
                0x000000004a04b610       0x1c cmd/built-in.o
                0x000000004a04b610                _u_boot_list_2_cmd_2_usbboot
 .u_boot_list_2_cmd_2_version
                0x000000004a04b62c       0x1c cmd/built-in.o
                0x000000004a04b62c                _u_boot_list_2_cmd_2_version
 .u_boot_list_2_cmd_3
                0x000000004a04b648        0x0 cmd/built-in.o
 .u_boot_list_2_cmd_3
                0x000000004a04b648        0x0 common/built-in.o
 .u_boot_list_2_driver_1
                0x000000004a04b648        0x0 drivers/built-in.o
 .u_boot_list_2_driver_1
                0x000000004a04b648        0x0 lib/built-in.o
 .u_boot_list_2_driver_2_eth_usb
                0x000000004a04b648       0x44 drivers/usb/gadget/built-in.o
                0x000000004a04b648                _u_boot_list_2_driver_2_eth_usb
 .u_boot_list_2_driver_2_gpio_axp
                0x000000004a04b68c       0x44 drivers/gpio/built-in.o
                0x000000004a04b68c                _u_boot_list_2_driver_2_gpio_axp
 .u_boot_list_2_driver_2_gpio_sunxi
                0x000000004a04b6d0       0x44 drivers/gpio/built-in.o
                0x000000004a04b6d0                _u_boot_list_2_driver_2_gpio_sunxi
 .u_boot_list_2_driver_2_ns16550_serial
                0x000000004a04b714       0x44 drivers/serial/built-in.o
                0x000000004a04b714                _u_boot_list_2_driver_2_ns16550_serial
 .u_boot_list_2_driver_2_root_driver
                0x000000004a04b758       0x44 drivers/built-in.o
                0x000000004a04b758                _u_boot_list_2_driver_2_root_driver
 .u_boot_list_2_driver_2_simple_bus_drv
                0x000000004a04b79c       0x44 drivers/built-in.o
                0x000000004a04b79c                _u_boot_list_2_driver_2_simple_bus_drv
 .u_boot_list_2_driver_2_sun4i_usb_phy
                0x000000004a04b7e0       0x44 drivers/built-in.o
                0x000000004a04b7e0                _u_boot_list_2_driver_2_sun4i_usb_phy
 .u_boot_list_2_driver_2_usb_dev_generic_drv
                0x000000004a04b824       0x44 drivers/usb/host/built-in.o
                0x000000004a04b824                _u_boot_list_2_driver_2_usb_dev_generic_drv
 .u_boot_list_2_driver_2_usb_generic_hub
                0x000000004a04b868       0x44 common/built-in.o
                0x000000004a04b868                _u_boot_list_2_driver_2_usb_generic_hub
 .u_boot_list_2_driver_2_usb_kbd
                0x000000004a04b8ac       0x44 common/built-in.o
                0x000000004a04b8ac                _u_boot_list_2_driver_2_usb_kbd
 .u_boot_list_2_driver_2_usb_mass_storage
                0x000000004a04b8f0       0x44 common/built-in.o
                0x000000004a04b8f0                _u_boot_list_2_driver_2_usb_mass_storage
 .u_boot_list_2_driver_2_usb_musb
                0x000000004a04b934       0x44 drivers/usb/musb-new/built-in.o
                0x000000004a04b934                _u_boot_list_2_driver_2_usb_musb
 .u_boot_list_2_driver_3
                0x000000004a04b978        0x0 drivers/built-in.o
 .u_boot_list_2_driver_3
                0x000000004a04b978        0x0 lib/built-in.o
 .u_boot_list_2_driver_info_1
                0x000000004a04b978        0x0 drivers/built-in.o
 .u_boot_list_2_driver_info_3
                0x000000004a04b978        0x0 drivers/built-in.o
 .u_boot_list_2_env_clbk_1
                0x000000004a04b978        0x0 env/built-in.o
 .u_boot_list_2_env_clbk_2_baudrate
                0x000000004a04b978        0x8 drivers/serial/built-in.o
                0x000000004a04b978                _u_boot_list_2_env_clbk_2_baudrate
 .u_boot_list_2_env_clbk_2_callbacks
                0x000000004a04b980        0x8 env/built-in.o
                0x000000004a04b980                _u_boot_list_2_env_clbk_2_callbacks
 .u_boot_list_2_env_clbk_2_console
                0x000000004a04b988        0x8 common/built-in.o
                0x000000004a04b988                _u_boot_list_2_env_clbk_2_console
 .u_boot_list_2_env_clbk_2_ethaddr
                0x000000004a04b990        0x8 net/built-in.o
                0x000000004a04b990                _u_boot_list_2_env_clbk_2_ethaddr
 .u_boot_list_2_env_clbk_2_flags
                0x000000004a04b998        0x8 env/built-in.o
                0x000000004a04b998                _u_boot_list_2_env_clbk_2_flags
 .u_boot_list_2_env_clbk_2_gatewayip
                0x000000004a04b9a0        0x8 net/built-in.o
                0x000000004a04b9a0                _u_boot_list_2_env_clbk_2_gatewayip
 .u_boot_list_2_env_clbk_2_ipaddr
                0x000000004a04b9a8        0x8 net/built-in.o
                0x000000004a04b9a8                _u_boot_list_2_env_clbk_2_ipaddr
 .u_boot_list_2_env_clbk_2_loadaddr
                0x000000004a04b9b0        0x8 common/built-in.o
                0x000000004a04b9b0                _u_boot_list_2_env_clbk_2_loadaddr
 .u_boot_list_2_env_clbk_2_netmask
                0x000000004a04b9b8        0x8 net/built-in.o
                0x000000004a04b9b8                _u_boot_list_2_env_clbk_2_netmask
 .u_boot_list_2_env_clbk_2_nvlan
                0x000000004a04b9c0        0x8 net/built-in.o
                0x000000004a04b9c0                _u_boot_list_2_env_clbk_2_nvlan
 .u_boot_list_2_env_clbk_2_serialno
                0x000000004a04b9c8        0x8 drivers/usb/gadget/built-in.o
                0x000000004a04b9c8                _u_boot_list_2_env_clbk_2_serialno
 .u_boot_list_2_env_clbk_2_serverip
                0x000000004a04b9d0        0x8 net/built-in.o
                0x000000004a04b9d0                _u_boot_list_2_env_clbk_2_serverip
 .u_boot_list_2_env_clbk_2_vlan
                0x000000004a04b9d8        0x8 net/built-in.o
                0x000000004a04b9d8                _u_boot_list_2_env_clbk_2_vlan
 .u_boot_list_2_env_clbk_3
                0x000000004a04b9e0        0x0 env/built-in.o
 .u_boot_list_2_env_driver_1
                0x000000004a04b9e0        0x0 env/built-in.o
 .u_boot_list_2_env_driver_2_nowhere
                0x000000004a04b9e0       0x14 env/built-in.o
                0x000000004a04b9e0                _u_boot_list_2_env_driver_2_nowhere
 .u_boot_list_2_env_driver_3
                0x000000004a04b9f4        0x0 env/built-in.o
 .u_boot_list_2_g_dnl_bind_callbacks_1
                0x000000004a04b9f4        0x0 drivers/usb/gadget/built-in.o
 .u_boot_list_2_g_dnl_bind_callbacks_2___usb_function_name_usb_dnl_fastboot
                0x000000004a04b9f4        0x8 drivers/usb/gadget/built-in.o
                0x000000004a04b9f4                _u_boot_list_2_g_dnl_bind_callbacks_2___usb_function_name_usb_dnl_fastboot
 .u_boot_list_2_g_dnl_bind_callbacks_2___usb_function_name_usb_dnl_ums
                0x000000004a04b9fc        0x8 drivers/usb/gadget/built-in.o
                0x000000004a04b9fc                _u_boot_list_2_g_dnl_bind_callbacks_2___usb_function_name_usb_dnl_ums
 .u_boot_list_2_part_driver_1
                0x000000004a04ba04        0x0 disk/built-in.o
 .u_boot_list_2_part_driver_2_a_efi
                0x000000004a04ba04       0x18 disk/built-in.o
                0x000000004a04ba04                _u_boot_list_2_part_driver_2_a_efi
 .u_boot_list_2_part_driver_2_dos
                0x000000004a04ba1c       0x18 disk/built-in.o
                0x000000004a04ba1c                _u_boot_list_2_part_driver_2_dos
 .u_boot_list_2_part_driver_2_iso
                0x000000004a04ba34       0x18 disk/built-in.o
                0x000000004a04ba34                _u_boot_list_2_part_driver_2_iso
 .u_boot_list_2_part_driver_3
                0x000000004a04ba4c        0x0 disk/built-in.o
 .u_boot_list_2_uclass_1
                0x000000004a04ba4c        0x0 drivers/built-in.o
 .u_boot_list_2_uclass_2_efi
                0x000000004a04ba4c       0x48 lib/built-in.o
                0x000000004a04ba4c                _u_boot_list_2_uclass_2_efi
 .u_boot_list_2_uclass_2_eth
                0x000000004a04ba94       0x48 net/built-in.o
                0x000000004a04ba94                _u_boot_list_2_uclass_2_eth
 .u_boot_list_2_uclass_2_gpio
                0x000000004a04badc       0x48 drivers/gpio/built-in.o
                0x000000004a04badc                _u_boot_list_2_uclass_2_gpio
 .u_boot_list_2_uclass_2_keyboard
                0x000000004a04bb24       0x48 drivers/built-in.o
                0x000000004a04bb24                _u_boot_list_2_uclass_2_keyboard
 .u_boot_list_2_uclass_2_phy
                0x000000004a04bb6c       0x48 drivers/built-in.o
                0x000000004a04bb6c                _u_boot_list_2_uclass_2_phy
 .u_boot_list_2_uclass_2_root
                0x000000004a04bbb4       0x48 drivers/built-in.o
                0x000000004a04bbb4                _u_boot_list_2_uclass_2_root
 .u_boot_list_2_uclass_2_serial
                0x000000004a04bbfc       0x48 drivers/serial/built-in.o
                0x000000004a04bbfc                _u_boot_list_2_uclass_2_serial
 .u_boot_list_2_uclass_2_simple_bus
                0x000000004a04bc44       0x48 drivers/built-in.o
                0x000000004a04bc44                _u_boot_list_2_uclass_2_simple_bus
 .u_boot_list_2_uclass_2_usb
                0x000000004a04bc8c       0x48 drivers/usb/host/built-in.o
                0x000000004a04bc8c                _u_boot_list_2_uclass_2_usb
 .u_boot_list_2_uclass_2_usb_dev_generic
                0x000000004a04bcd4       0x48 drivers/usb/host/built-in.o
                0x000000004a04bcd4                _u_boot_list_2_uclass_2_usb_dev_generic
 .u_boot_list_2_uclass_2_usb_hub
                0x000000004a04bd1c       0x48 common/built-in.o
                0x000000004a04bd1c                _u_boot_list_2_uclass_2_usb_hub
 .u_boot_list_2_uclass_2_usb_mass_storage
                0x000000004a04bd64       0x48 common/built-in.o
                0x000000004a04bd64                _u_boot_list_2_uclass_2_usb_mass_storage
 .u_boot_list_2_uclass_3
                0x000000004a04bdac        0x0 drivers/built-in.o
 .u_boot_list_2_usb_driver_entry_1
                0x000000004a04bdac        0x0 drivers/usb/host/built-in.o
 .u_boot_list_2_usb_driver_entry_2_usb_generic_hub
                0x000000004a04bdac        0x8 common/built-in.o
                0x000000004a04bdac                _u_boot_list_2_usb_driver_entry_2_usb_generic_hub
 .u_boot_list_2_usb_driver_entry_2_usb_kbd
                0x000000004a04bdb4        0x8 common/built-in.o
                0x000000004a04bdb4                _u_boot_list_2_usb_driver_entry_2_usb_kbd
 .u_boot_list_2_usb_driver_entry_2_usb_mass_storage
                0x000000004a04bdbc        0x8 common/built-in.o
                0x000000004a04bdbc                _u_boot_list_2_usb_driver_entry_2_usb_mass_storage
 .u_boot_list_2_usb_driver_entry_3
                0x000000004a04bdc4        0x0 drivers/usb/host/built-in.o
                0x000000004a04bdc4                . = ALIGN (0x4)

.efi_runtime_rel_start
                0x000000004a04bdc4        0x0
 *(.__efi_runtime_rel_start)
 .__efi_runtime_rel_start
                0x000000004a04bdc4        0x0 arch/arm/lib/built-in.o

.efi_runtime_rel
                0x000000004a04bdc4       0xa8
 *(.rel*.efi_runtime)
 .rel.text.efi_runtime
                0x000000004a04bdc4        0x8 arch/arm/cpu/armv7/start.o
 .rel.data.efi_runtime
                0x000000004a04bdcc       0xa0 arch/arm/cpu/armv7/start.o
 *(.rel*.efi_runtime.*)

.efi_runtime_rel_stop
                0x000000004a04be6c        0x0
 *(.__efi_runtime_rel_stop)
 .__efi_runtime_rel_stop
                0x000000004a04be6c        0x0 arch/arm/lib/built-in.o
                0x000000004a04be6c                . = ALIGN (0x4)

.image_copy_end
                0x000000004a04be6c        0x0
 *(.__image_copy_end)
 .__image_copy_end
                0x000000004a04be6c        0x0 arch/arm/lib/built-in.o

.rel_dyn_start  0x000000004a04be6c        0x0
 *(.__rel_dyn_start)
 .__rel_dyn_start
                0x000000004a04be6c        0x0 arch/arm/lib/built-in.o

.rel.dyn        0x000000004a04be6c     0x9e68
 *(.rel*)
 .rel.got       0x000000004a04be6c        0x0 arch/arm/cpu/armv7/start.o
 .rel.plt       0x000000004a04be6c        0x0 arch/arm/cpu/armv7/start.o
 .rel.bss       0x000000004a04be6c        0x0 arch/arm/cpu/armv7/start.o
 .rel.data.rel.ro
                0x000000004a04be6c        0x0 arch/arm/cpu/armv7/start.o
 .rel.iplt      0x000000004a04be6c        0x0 arch/arm/cpu/armv7/start.o
 .rel.text      0x000000004a04be6c       0x20 arch/arm/cpu/armv7/start.o
 .rel._secure.text
                0x000000004a04be8c       0xe0 arch/arm/cpu/armv7/start.o
 .rel.text.get_gicd_base_address
                0x000000004a04bf6c        0x8 arch/arm/cpu/armv7/start.o
 .rel.text.armv7_init_nonsec
                0x000000004a04bf74        0x8 arch/arm/cpu/armv7/start.o
 .rel.text.psci_update_dt
                0x000000004a04bf7c       0x10 arch/arm/cpu/armv7/start.o
 .rel.vectors   0x000000004a04bf8c       0x38 arch/arm/cpu/armv7/start.o
 .rel.text.relocate_vectors
                0x000000004a04bfc4       0x20 arch/arm/cpu/armv7/start.o
 .rel.text.setup_initrd_tag.isra.1
                0x000000004a04bfe4        0x8 arch/arm/cpu/armv7/start.o
 .rel.text.boot_prep_linux
                0x000000004a04bfec       0x18 arch/arm/cpu/armv7/start.o
 .rel.text.armv7_boot_nonsec
                0x000000004a04c004       0x18 arch/arm/cpu/armv7/start.o
 .rel.text.boot_jump_linux
                0x000000004a04c01c       0x28 arch/arm/cpu/armv7/start.o
 .rel.text.boot_prep_vxworks
                0x000000004a04c044       0x10 arch/arm/cpu/armv7/start.o
 .rel.text.interrupt_init
                0x000000004a04c054        0x8 arch/arm/cpu/armv7/start.o
 .rel.text.bad_mode
                0x000000004a04c05c        0x8 arch/arm/cpu/armv7/start.o
 .rel.text.show_regs
                0x000000004a04c064       0x80 arch/arm/cpu/armv7/start.o
 .rel.text.do_undefined_instruction
                0x000000004a04c0e4        0x8 arch/arm/cpu/armv7/start.o
 .rel.text.do_software_interrupt
                0x000000004a04c0ec        0x8 arch/arm/cpu/armv7/start.o
 .rel.text.do_prefetch_abort
                0x000000004a04c0f4        0x8 arch/arm/cpu/armv7/start.o
 .rel.text.do_data_abort
                0x000000004a04c0fc        0x8 arch/arm/cpu/armv7/start.o
 .rel.text.do_not_used
                0x000000004a04c104        0x8 arch/arm/cpu/armv7/start.o
 .rel.text.do_fiq
                0x000000004a04c10c        0x8 arch/arm/cpu/armv7/start.o
 .rel.text.do_irq
                0x000000004a04c114        0x8 arch/arm/cpu/armv7/start.o
 .rel.text.do_reset
                0x000000004a04c11c        0x8 arch/arm/cpu/armv7/start.o
 .rel.text.check_cache_range
                0x000000004a04c124        0x8 arch/arm/cpu/armv7/start.o
 .rel.text.fdt_psci
                0x000000004a04c12c       0x90 arch/arm/cpu/armv7/start.o
 .rel.rodata    0x000000004a04c1bc      0x100 arch/arm/cpu/armv7/start.o
 .rel.text.sunxi_get_boot_device
                0x000000004a04c2bc       0x18 arch/arm/cpu/armv7/start.o
 .rel.text.print_cpuinfo
                0x000000004a04c2d4        0x8 arch/arm/cpu/armv7/start.o
 .rel.text.pmic_bus_init
                0x000000004a04c2dc        0x8 arch/arm/cpu/armv7/start.o
 .rel.text.setup_environment
                0x000000004a04c2e4       0x28 arch/arm/cpu/armv7/start.o
 .rel.text.board_init
                0x000000004a04c30c       0x18 arch/arm/cpu/armv7/start.o
 .rel.text.g_dnl_board_usb_cable_connected
                0x000000004a04c324       0x30 arch/arm/cpu/armv7/start.o
 .rel.text.get_board_serial
                0x000000004a04c354        0x8 arch/arm/cpu/armv7/start.o
 .rel.text.misc_init_r
                0x000000004a04c35c       0x40 arch/arm/cpu/armv7/start.o
 .rel.text.do_go
                0x000000004a04c39c       0x10 arch/arm/cpu/armv7/start.o
 .rel.text.do_bootm
                0x000000004a04c3ac       0x18 arch/arm/cpu/armv7/start.o
 .rel.text.do_bootd
                0x000000004a04c3c4        0x8 arch/arm/cpu/armv7/start.o
 .rel.text.image_info
                0x000000004a04c3cc       0x48 arch/arm/cpu/armv7/start.o
 .rel.text.do_iminfo
                0x000000004a04c414        0x8 arch/arm/cpu/armv7/start.o
 .rel.text.bootm_maybe_autostart
                0x000000004a04c41c       0x20 arch/arm/cpu/armv7/start.o
 .rel.text.do_help
                0x000000004a04c43c       0x10 arch/arm/cpu/armv7/start.o
 .rel.text.do_version
                0x000000004a04c44c       0x10 arch/arm/cpu/armv7/start.o
 .rel.text.blk_common_cmd
                0x000000004a04c45c       0x70 arch/arm/cpu/armv7/start.o
 .rel.text.source
                0x000000004a04c4cc       0x38 arch/arm/cpu/armv7/start.o
 .rel.text.do_source
                0x000000004a04c504        0x8 arch/arm/cpu/armv7/start.o
 .rel.text.print_num
                0x000000004a04c50c        0x8 arch/arm/cpu/armv7/start.o
 .rel.text.do_bdinfo
                0x000000004a04c514       0x70 arch/arm/cpu/armv7/start.o
 .rel.text.efi_install_fdt
                0x000000004a04c584       0x28 arch/arm/cpu/armv7/start.o
 .rel.text.efi_run_in_hyp
                0x000000004a04c5ac        0x8 arch/arm/cpu/armv7/start.o
 .rel.text.do_bootefi_exec
                0x000000004a04c5b4       0x48 arch/arm/cpu/armv7/start.o
 .rel.text.efi_init_obj_list
                0x000000004a04c5fc        0x8 arch/arm/cpu/armv7/start.o
 .rel.text.do_bootefi
                0x000000004a04c604       0x50 arch/arm/cpu/armv7/start.o
 .rel.text.efi_set_bootdev
                0x000000004a04c654       0x28 arch/arm/cpu/armv7/start.o
 .rel.text.do_bootz
                0x000000004a04c67c       0x18 arch/arm/cpu/armv7/start.o
 .rel.text.do_coninfo
                0x000000004a04c694       0x28 arch/arm/cpu/armv7/start.o
 .rel.text.do_echo
                0x000000004a04c6bc        0x8 arch/arm/cpu/armv7/start.o
 .rel.text.valid_elf_image
                0x000000004a04c6c4       0x10 arch/arm/cpu/armv7/start.o
 .rel.text.do_bootelf
                0x000000004a04c6d4       0x28 arch/arm/cpu/armv7/start.o
 .rel.text.do_bootvx
                0x000000004a04c6fc       0xe0 arch/arm/cpu/armv7/start.o
 .rel.text.do_fat_fsinfo
                0x000000004a04c7dc       0x10 arch/arm/cpu/armv7/start.o
 .rel.text.do_fat_fswrite
                0x000000004a04c7ec       0x18 arch/arm/cpu/armv7/start.o
 .rel.text.fdt_valid
                0x000000004a04c804       0x28 arch/arm/cpu/armv7/start.o
 .rel.text.is_printable_string
                0x000000004a04c82c        0x8 arch/arm/cpu/armv7/start.o
 .rel.text.print_data
                0x000000004a04c834       0x58 arch/arm/cpu/armv7/start.o
 .rel.text.set_working_fdt_addr
                0x000000004a04c88c       0x10 arch/arm/cpu/armv7/start.o
 .rel.text.do_fdt
                0x000000004a04c89c      0x280 arch/arm/cpu/armv7/start.o
 .rel.text.do_load_wrapper
                0x000000004a04cb1c        0x8 arch/arm/cpu/armv7/start.o
 .rel.text.gpio_get_description
                0x000000004a04cb24       0x18 arch/arm/cpu/armv7/start.o
 .rel.text.do_gpio
                0x000000004a04cb3c       0x50 arch/arm/cpu/armv7/start.o
 .rel.text.binary_test
                0x000000004a04cb8c       0x18 arch/arm/cpu/armv7/start.o
 .rel.text.do_itest
                0x000000004a04cba4        0x8 arch/arm/cpu/armv7/start.o
 .rel.text.bin_data_init
                0x000000004a04cbac       0x18 arch/arm/cpu/armv7/start.o
 .rel.text.k_data_save
                0x000000004a04cbc4       0x30 arch/arm/cpu/armv7/start.o
 .rel.text.k_data_restore
                0x000000004a04cbf4       0x30 arch/arm/cpu/armv7/start.o
 .rel.text.load_serial_ymodem
                0x000000004a04cc24       0x20 arch/arm/cpu/armv7/start.o
 .rel.text.bin_data_char
                0x000000004a04cc44       0x10 arch/arm/cpu/armv7/start.o
 .rel.text.chk1.constprop.1
                0x000000004a04cc54        0x8 arch/arm/cpu/armv7/start.o
 .rel.text.s1_sendpacket.constprop.2
                0x000000004a04cc5c       0x18 arch/arm/cpu/armv7/start.o
 .rel.text.load_serial
                0x000000004a04cc74       0x20 arch/arm/cpu/armv7/start.o
 .rel.text.do_load_serial
                0x000000004a04cc94       0x30 arch/arm/cpu/armv7/start.o
 .rel.text.do_load_serial_bin
                0x000000004a04ccc4      0x110 arch/arm/cpu/armv7/start.o
 .rel.text.do_mem_md
                0x000000004a04cdd4       0x20 arch/arm/cpu/armv7/start.o
 .rel.text.do_mem_base
                0x000000004a04cdf4       0x10 arch/arm/cpu/armv7/start.o
 .rel.text.do_mem_crc
                0x000000004a04ce04        0x8 arch/arm/cpu/armv7/start.o
 .rel.text.do_mem_mw
                0x000000004a04ce0c        0x8 arch/arm/cpu/armv7/start.o
 .rel.text.do_mem_cmp
                0x000000004a04ce14       0x38 arch/arm/cpu/armv7/start.o
 .rel.text.mod_mem.isra.3.part.4
                0x000000004a04ce4c       0x48 arch/arm/cpu/armv7/start.o
 .rel.text.do_mem_cp
                0x000000004a04ce94       0x10 arch/arm/cpu/armv7/start.o
 .rel.text.do_mii
                0x000000004a04cea4      0x170 arch/arm/cpu/armv7/start.o
 .rel.text.netboot_common
                0x000000004a04d014       0xa8 arch/arm/cpu/armv7/start.o
 .rel.text.do_ping
                0x000000004a04d0bc       0x18 arch/arm/cpu/armv7/start.o
 .rel.text.do_part_list
                0x000000004a04d0d4       0x28 arch/arm/cpu/armv7/start.o
 .rel.text.do_part_info
                0x000000004a04d0fc       0x10 arch/arm/cpu/armv7/start.o
 .rel.text.do_part
                0x000000004a04d10c       0x28 arch/arm/cpu/armv7/start.o
 .rel.text.do_pxe
                0x000000004a04d134       0x10 arch/arm/cpu/armv7/start.o
 .rel.text.label_print
                0x000000004a04d144        0x8 arch/arm/cpu/armv7/start.o
 .rel.text.do_get_tftp
                0x000000004a04d14c        0x8 arch/arm/cpu/armv7/start.o
 .rel.text.from_env
                0x000000004a04d154        0x8 arch/arm/cpu/armv7/start.o
 .rel.text.get_string
                0x000000004a04d15c        0x8 arch/arm/cpu/armv7/start.o
 .rel.text.get_token
                0x000000004a04d164        0x8 arch/arm/cpu/armv7/start.o
 .rel.text.parse_sliteral
                0x000000004a04d16c        0x8 arch/arm/cpu/armv7/start.o
 .rel.text.parse_integer
                0x000000004a04d174        0x8 arch/arm/cpu/armv7/start.o
 .rel.text.do_get_any
                0x000000004a04d17c       0x10 arch/arm/cpu/armv7/start.o
 .rel.text.do_get_fat
                0x000000004a04d18c       0x10 arch/arm/cpu/armv7/start.o
 .rel.text.do_get_ext2
                0x000000004a04d19c       0x10 arch/arm/cpu/armv7/start.o
 .rel.text.format_mac_pxe.constprop.7
                0x000000004a04d1ac       0x10 arch/arm/cpu/armv7/start.o
 .rel.text.get_relfile
                0x000000004a04d1bc       0x38 arch/arm/cpu/armv7/start.o
 .rel.text.get_pxe_file
                0x000000004a04d1f4        0x8 arch/arm/cpu/armv7/start.o
 .rel.text.handle_include
                0x000000004a04d1fc       0x10 arch/arm/cpu/armv7/start.o
 .rel.text.parse_pxefile_top
                0x000000004a04d20c      0x150 arch/arm/cpu/armv7/start.o
 .rel.text.get_pxelinux_path
                0x000000004a04d35c       0x18 arch/arm/cpu/armv7/start.o
 .rel.text.do_pxe_get
                0x000000004a04d374       0x48 arch/arm/cpu/armv7/start.o
 .rel.text.label_boot
                0x000000004a04d3bc      0x108 arch/arm/cpu/armv7/start.o
 .rel.text.handle_pxe_menu
                0x000000004a04d4c4       0x18 arch/arm/cpu/armv7/start.o
 .rel.text.do_pxe_boot
                0x000000004a04d4dc       0x38 arch/arm/cpu/armv7/start.o
 .rel.text.do_sysboot
                0x000000004a04d514       0x80 arch/arm/cpu/armv7/start.o
 .rel.text.substitute
                0x000000004a04d594        0x8 arch/arm/cpu/armv7/start.o
 .rel.text.regex_sub.part.1
                0x000000004a04d59c       0x38 arch/arm/cpu/armv7/start.o
 .rel.text.do_setexpr
                0x000000004a04d5d4       0x18 arch/arm/cpu/armv7/start.o
 .rel.text.do_test
                0x000000004a04d5ec        0x8 arch/arm/cpu/armv7/start.o
 .rel.text.usb_get_class_desc
                0x000000004a04d5f4       0x50 arch/arm/cpu/armv7/start.o
 .rel.text.usb_display_class_sub
                0x000000004a04d644       0x98 arch/arm/cpu/armv7/start.o
 .rel.text.usb_display_desc
                0x000000004a04d6dc       0x38 arch/arm/cpu/armv7/start.o
 .rel.text.usb_show_tree_graph
                0x000000004a04d714       0x48 arch/arm/cpu/armv7/start.o
 .rel.text.usb_display_string
                0x000000004a04d75c        0x8 arch/arm/cpu/armv7/start.o
 .rel.text.usb_display_config
                0x000000004a04d764       0xa8 arch/arm/cpu/armv7/start.o
 .rel.text.do_usbboot
                0x000000004a04d80c        0x8 arch/arm/cpu/armv7/start.o
 .rel.text.do_usb_start
                0x000000004a04d814        0x8 arch/arm/cpu/armv7/start.o
 .rel.text.usb_show_tree
                0x000000004a04d81c        0x8 arch/arm/cpu/armv7/start.o
 .rel.text.do_usb
                0x000000004a04d824       0xf0 arch/arm/cpu/armv7/start.o
 .rel.text.common_diskboot
                0x000000004a04d914       0x28 arch/arm/cpu/armv7/start.o
 .rel.text.do_fastboot
                0x000000004a04d93c       0x40 arch/arm/cpu/armv7/start.o
 .rel.text.do_imgextract
                0x000000004a04d97c       0x90 arch/arm/cpu/armv7/start.o
 .rel.text.extract_val
                0x000000004a04da0c       0x10 arch/arm/cpu/armv7/start.o
 .rel.text.extract_env
                0x000000004a04da1c        0x8 arch/arm/cpu/armv7/start.o
 .rel.text.set_gpt_info.isra.0.constprop.2
                0x000000004a04da24       0x80 arch/arm/cpu/armv7/start.o
 .rel.text.do_gpt
                0x000000004a04daa4       0x78 arch/arm/cpu/armv7/start.o
 .rel.text.do_env_delete
                0x000000004a04db1c       0x10 arch/arm/cpu/armv7/start.o
 .rel.text.do_env
                0x000000004a04db2c        0x8 arch/arm/cpu/armv7/start.o
 .rel.text.env_print
                0x000000004a04db34       0x18 arch/arm/cpu/armv7/start.o
 .rel.text.do_env_print
                0x000000004a04db4c       0x10 arch/arm/cpu/armv7/start.o
 .rel.text.do_env_import
                0x000000004a04db5c       0x50 arch/arm/cpu/armv7/start.o
 .rel.text.do_env_default
                0x000000004a04dbac        0x8 arch/arm/cpu/armv7/start.o
 .rel.text.do_env_exists
                0x000000004a04dbb4        0x8 arch/arm/cpu/armv7/start.o
 .rel.text._do_env_set.isra.1
                0x000000004a04dbbc       0x30 arch/arm/cpu/armv7/start.o
 .rel.text.get_env_id
                0x000000004a04dbec        0x8 arch/arm/cpu/armv7/start.o
 .rel.text.env_set
                0x000000004a04dbf4        0x8 arch/arm/cpu/armv7/start.o
 .rel.text.env_set_hex
                0x000000004a04dbfc        0x8 arch/arm/cpu/armv7/start.o
 .rel.text.do_env_export
                0x000000004a04dc04       0x30 arch/arm/cpu/armv7/start.o
 .rel.text.env_get_f
                0x000000004a04dc34        0x8 arch/arm/cpu/armv7/start.o
 .rel.text.env_get
                0x000000004a04dc3c        0x8 arch/arm/cpu/armv7/start.o
 .rel.text.eth_env_set_enetaddr
                0x000000004a04dc44        0x8 arch/arm/cpu/armv7/start.o
 .rel.text.do_env_edit.part.4
                0x000000004a04dc4c       0x18 arch/arm/cpu/armv7/start.o
 .rel.rodata.op_table
                0x000000004a04dc64       0x68 arch/arm/cpu/armv7/start.o
 .rel.rodata.desc_and_len_tbl
                0x000000004a04dccc       0x30 arch/arm/cpu/armv7/start.o
 .rel.rodata.reg_0_5_desc_tbl
                0x000000004a04dcfc       0x30 arch/arm/cpu/armv7/start.o
 .rel.rodata.reg_0_desc_tbl
                0x000000004a04dd2c       0x50 arch/arm/cpu/armv7/start.o
 .rel.rodata.reg_1_desc_tbl
                0x000000004a04dd7c       0x80 arch/arm/cpu/armv7/start.o
 .rel.rodata.reg_2_desc_tbl
                0x000000004a04ddfc        0x8 arch/arm/cpu/armv7/start.o
 .rel.rodata.reg_3_desc_tbl
                0x000000004a04de04       0x18 arch/arm/cpu/armv7/start.o
 .rel.rodata.reg_4_desc_tbl
                0x000000004a04de1c       0x60 arch/arm/cpu/armv7/start.o
 .rel.rodata.reg_5_desc_tbl
                0x000000004a04de7c       0x60 arch/arm/cpu/armv7/start.o
 .rel.rodata.keywords
                0x000000004a04dedc       0x90 arch/arm/cpu/armv7/start.o
 .rel.rodata.op_adv
                0x000000004a04df6c       0x80 arch/arm/cpu/armv7/start.o
 .rel.rodata.CSWTCH.39
                0x000000004a04dfec       0x28 arch/arm/cpu/armv7/start.o
 .rel.u_boot_list_2_cmd_2_go
                0x000000004a04e014       0x20 arch/arm/cpu/armv7/start.o
 .rel.u_boot_list_2_cmd_2_poweroff
                0x000000004a04e034       0x20 arch/arm/cpu/armv7/start.o
 .rel.u_boot_list_2_cmd_2_reset
                0x000000004a04e054       0x20 arch/arm/cpu/armv7/start.o
 .rel.data.cmd_bootm_sub
                0x000000004a04e074       0xd8 arch/arm/cpu/armv7/start.o
 .rel.u_boot_list_2_cmd_2_boot
                0x000000004a04e14c       0x20 arch/arm/cpu/armv7/start.o
 .rel.u_boot_list_2_cmd_2_bootd
                0x000000004a04e16c       0x20 arch/arm/cpu/armv7/start.o
 .rel.u_boot_list_2_cmd_2_bootm
                0x000000004a04e18c       0x20 arch/arm/cpu/armv7/start.o
 .rel.u_boot_list_2_cmd_2_iminfo
                0x000000004a04e1ac       0x20 arch/arm/cpu/armv7/start.o
 .rel.u_boot_list_2_cmd_2_help
                0x000000004a04e1cc       0x20 arch/arm/cpu/armv7/start.o
 .rel.u_boot_list_2_cmd_2_question_mark
                0x000000004a04e1ec       0x20 arch/arm/cpu/armv7/start.o
 .rel.u_boot_list_2_cmd_2_version
                0x000000004a04e20c       0x20 arch/arm/cpu/armv7/start.o
 .rel.u_boot_list_2_cmd_2_source
                0x000000004a04e22c       0x20 arch/arm/cpu/armv7/start.o
 .rel.u_boot_list_2_cmd_2_bdinfo
                0x000000004a04e24c       0x20 arch/arm/cpu/armv7/start.o
 .rel.u_boot_list_2_cmd_2_bootefi
                0x000000004a04e26c       0x20 arch/arm/cpu/armv7/start.o
 .rel.u_boot_list_2_cmd_2_bootz
                0x000000004a04e28c       0x20 arch/arm/cpu/armv7/start.o
 .rel.u_boot_list_2_cmd_2_coninfo
                0x000000004a04e2ac       0x20 arch/arm/cpu/armv7/start.o
 .rel.u_boot_list_2_cmd_2_echo
                0x000000004a04e2cc       0x20 arch/arm/cpu/armv7/start.o
 .rel.u_boot_list_2_cmd_2_bootelf
                0x000000004a04e2ec       0x20 arch/arm/cpu/armv7/start.o
 .rel.u_boot_list_2_cmd_2_bootvx
                0x000000004a04e30c       0x20 arch/arm/cpu/armv7/start.o
 .rel.u_boot_list_2_cmd_2_exit
                0x000000004a04e32c       0x20 arch/arm/cpu/armv7/start.o
 .rel.u_boot_list_2_cmd_2_ext4load
                0x000000004a04e34c       0x20 arch/arm/cpu/armv7/start.o
 .rel.u_boot_list_2_cmd_2_ext4ls
                0x000000004a04e36c       0x20 arch/arm/cpu/armv7/start.o
 .rel.u_boot_list_2_cmd_2_ext4size
                0x000000004a04e38c       0x20 arch/arm/cpu/armv7/start.o
 .rel.u_boot_list_2_cmd_2_ext2load
                0x000000004a04e3ac       0x20 arch/arm/cpu/armv7/start.o
 .rel.u_boot_list_2_cmd_2_ext2ls
                0x000000004a04e3cc       0x20 arch/arm/cpu/armv7/start.o
 .rel.u_boot_list_2_cmd_2_fatinfo
                0x000000004a04e3ec       0x20 arch/arm/cpu/armv7/start.o
 .rel.u_boot_list_2_cmd_2_fatload
                0x000000004a04e40c       0x20 arch/arm/cpu/armv7/start.o
 .rel.u_boot_list_2_cmd_2_fatls
                0x000000004a04e42c       0x20 arch/arm/cpu/armv7/start.o
 .rel.u_boot_list_2_cmd_2_fatmkdir
                0x000000004a04e44c       0x20 arch/arm/cpu/armv7/start.o
 .rel.u_boot_list_2_cmd_2_fatrm
                0x000000004a04e46c       0x20 arch/arm/cpu/armv7/start.o
 .rel.u_boot_list_2_cmd_2_fatsize
                0x000000004a04e48c       0x20 arch/arm/cpu/armv7/start.o
 .rel.u_boot_list_2_cmd_2_fatwrite
                0x000000004a04e4ac       0x20 arch/arm/cpu/armv7/start.o
 .rel.u_boot_list_2_cmd_2_fdt
                0x000000004a04e4cc       0x20 arch/arm/cpu/armv7/start.o
 .rel.u_boot_list_2_cmd_2_fstype
                0x000000004a04e4ec       0x20 arch/arm/cpu/armv7/start.o
 .rel.u_boot_list_2_cmd_2_load
                0x000000004a04e50c       0x20 arch/arm/cpu/armv7/start.o
 .rel.u_boot_list_2_cmd_2_ls
                0x000000004a04e52c       0x20 arch/arm/cpu/armv7/start.o
 .rel.u_boot_list_2_cmd_2_save
                0x000000004a04e54c       0x20 arch/arm/cpu/armv7/start.o
 .rel.u_boot_list_2_cmd_2_size
                0x000000004a04e56c       0x20 arch/arm/cpu/armv7/start.o
 .rel.u_boot_list_2_cmd_2_gpio
                0x000000004a04e58c       0x20 arch/arm/cpu/armv7/start.o
 .rel.u_boot_list_2_cmd_2_itest
                0x000000004a04e5ac       0x20 arch/arm/cpu/armv7/start.o
 .rel.u_boot_list_2_cmd_2_loadb
                0x000000004a04e5cc       0x20 arch/arm/cpu/armv7/start.o
 .rel.u_boot_list_2_cmd_2_loads
                0x000000004a04e5ec       0x20 arch/arm/cpu/armv7/start.o
 .rel.u_boot_list_2_cmd_2_loadx
                0x000000004a04e60c       0x20 arch/arm/cpu/armv7/start.o
 .rel.u_boot_list_2_cmd_2_loady
                0x000000004a04e62c       0x20 arch/arm/cpu/armv7/start.o
 .rel.u_boot_list_2_cmd_2_base
                0x000000004a04e64c       0x20 arch/arm/cpu/armv7/start.o
 .rel.u_boot_list_2_cmd_2_cmp
                0x000000004a04e66c       0x20 arch/arm/cpu/armv7/start.o
 .rel.u_boot_list_2_cmd_2_cp
                0x000000004a04e68c       0x20 arch/arm/cpu/armv7/start.o
 .rel.u_boot_list_2_cmd_2_crc32
                0x000000004a04e6ac       0x20 arch/arm/cpu/armv7/start.o
 .rel.u_boot_list_2_cmd_2_loop
                0x000000004a04e6cc       0x20 arch/arm/cpu/armv7/start.o
 .rel.u_boot_list_2_cmd_2_md
                0x000000004a04e6ec       0x20 arch/arm/cpu/armv7/start.o
 .rel.u_boot_list_2_cmd_2_mm
                0x000000004a04e70c       0x20 arch/arm/cpu/armv7/start.o
 .rel.u_boot_list_2_cmd_2_mw
                0x000000004a04e72c       0x20 arch/arm/cpu/armv7/start.o
 .rel.u_boot_list_2_cmd_2_nm
                0x000000004a04e74c       0x20 arch/arm/cpu/armv7/start.o
 .rel.u_boot_list_2_cmd_2_mii
                0x000000004a04e76c       0x20 arch/arm/cpu/armv7/start.o
 .rel.u_boot_list_2_cmd_2_sleep
                0x000000004a04e78c       0x20 arch/arm/cpu/armv7/start.o
 .rel.u_boot_list_2_cmd_2_bootp
                0x000000004a04e7ac       0x20 arch/arm/cpu/armv7/start.o
 .rel.u_boot_list_2_cmd_2_dhcp
                0x000000004a04e7cc       0x20 arch/arm/cpu/armv7/start.o
 .rel.u_boot_list_2_cmd_2_nfs
                0x000000004a04e7ec       0x20 arch/arm/cpu/armv7/start.o
 .rel.u_boot_list_2_cmd_2_ping
                0x000000004a04e80c       0x20 arch/arm/cpu/armv7/start.o
 .rel.u_boot_list_2_cmd_2_tftpboot
                0x000000004a04e82c       0x20 arch/arm/cpu/armv7/start.o
 .rel.u_boot_list_2_cmd_2_part
                0x000000004a04e84c       0x20 arch/arm/cpu/armv7/start.o
 .rel.data.cmd_pxe_sub
                0x000000004a04e86c       0x40 arch/arm/cpu/armv7/start.o
 .rel.data.pxe_default_paths
                0x000000004a04e8ac       0x18 arch/arm/cpu/armv7/start.o
 .rel.u_boot_list_2_cmd_2_pxe
                0x000000004a04e8c4       0x20 arch/arm/cpu/armv7/start.o
 .rel.u_boot_list_2_cmd_2_sysboot
                0x000000004a04e8e4       0x20 arch/arm/cpu/armv7/start.o
 .rel.u_boot_list_2_cmd_2_setexpr
                0x000000004a04e904       0x20 arch/arm/cpu/armv7/start.o
 .rel.u_boot_list_2_cmd_2_false
                0x000000004a04e924       0x18 arch/arm/cpu/armv7/start.o
 .rel.u_boot_list_2_cmd_2_test
                0x000000004a04e93c       0x20 arch/arm/cpu/armv7/start.o
 .rel.u_boot_list_2_cmd_2_true
                0x000000004a04e95c       0x18 arch/arm/cpu/armv7/start.o
 .rel.u_boot_list_2_cmd_2_usb
                0x000000004a04e974       0x20 arch/arm/cpu/armv7/start.o
 .rel.u_boot_list_2_cmd_2_usbboot
                0x000000004a04e994       0x20 arch/arm/cpu/armv7/start.o
 .rel.u_boot_list_2_cmd_2_fastboot
                0x000000004a04e9b4       0x20 arch/arm/cpu/armv7/start.o
 .rel.u_boot_list_2_cmd_2_imxtract
                0x000000004a04e9d4       0x20 arch/arm/cpu/armv7/start.o
 .rel.u_boot_list_2_cmd_2_gpt
                0x000000004a04e9f4       0x20 arch/arm/cpu/armv7/start.o
 .rel.data.cmd_env_sub
                0x000000004a04ea14      0x120 arch/arm/cpu/armv7/start.o
 .rel.u_boot_list_2_cmd_2_editenv
                0x000000004a04eb34       0x28 arch/arm/cpu/armv7/start.o
 .rel.u_boot_list_2_cmd_2_env
                0x000000004a04eb5c       0x20 arch/arm/cpu/armv7/start.o
 .rel.u_boot_list_2_cmd_2_printenv
                0x000000004a04eb7c       0x28 arch/arm/cpu/armv7/start.o
 .rel.u_boot_list_2_cmd_2_run
                0x000000004a04eba4       0x28 arch/arm/cpu/armv7/start.o
 .rel.u_boot_list_2_cmd_2_setenv
                0x000000004a04ebcc       0x28 arch/arm/cpu/armv7/start.o
 .rel.text.main_loop
                0x000000004a04ebf4       0x10 arch/arm/cpu/armv7/start.o
 .rel.text.jumptable_init
                0x000000004a04ec04       0xc0 arch/arm/cpu/armv7/start.o
 .rel.text.hash_command
                0x000000004a04ecc4        0x8 arch/arm/cpu/armv7/start.o
 .rel.text.mapset
                0x000000004a04eccc        0x8 arch/arm/cpu/armv7/start.o
 .rel.text.syntax_err
                0x000000004a04ecd4        0x8 arch/arm/cpu/armv7/start.o
 .rel.text.xmalloc
                0x000000004a04ecdc        0x8 arch/arm/cpu/armv7/start.o
 .rel.text.xrealloc
                0x000000004a04ece4        0x8 arch/arm/cpu/armv7/start.o
 .rel.text.done_word
                0x000000004a04ecec        0x8 arch/arm/cpu/armv7/start.o
 .rel.text.is_assignment
                0x000000004a04ecf4        0x8 arch/arm/cpu/armv7/start.o
 .rel.text.file_get
                0x000000004a04ecfc       0x30 arch/arm/cpu/armv7/start.o
 .rel.text.do_showvar
                0x000000004a04ed2c       0x20 arch/arm/cpu/armv7/start.o
 .rel.text.b_addqchr
                0x000000004a04ed4c        0x8 arch/arm/cpu/armv7/start.o
 .rel.text.get_local_var
                0x000000004a04ed54       0x20 arch/arm/cpu/armv7/start.o
 .rel.text.set_local_var
                0x000000004a04ed74       0x20 arch/arm/cpu/armv7/start.o
 .rel.text.insert_var_value_sub
                0x000000004a04ed94        0x8 arch/arm/cpu/armv7/start.o
 .rel.text.parse_string_outer
                0x000000004a04ed9c       0x18 arch/arm/cpu/armv7/start.o
 .rel.text.run_list_real
                0x000000004a04edb4       0x48 arch/arm/cpu/armv7/start.o
 .rel.text.parse_stream_outer
                0x000000004a04edfc       0x70 arch/arm/cpu/armv7/start.o
 .rel.text.parse_file_outer
                0x000000004a04ee6c       0x10 arch/arm/cpu/armv7/start.o
 .rel.text.u_boot_hush_start
                0x000000004a04ee7c       0x18 arch/arm/cpu/armv7/start.o
 .rel.text.bootdelay_process
                0x000000004a04ee94       0x38 arch/arm/cpu/armv7/start.o
 .rel.text.autoboot_command
                0x000000004a04eecc       0x20 arch/arm/cpu/armv7/start.o
 .rel.text.setup_mon_len
                0x000000004a04eeec       0x10 arch/arm/cpu/armv7/start.o
 .rel.text.announce_dram_init
                0x000000004a04eefc        0x8 arch/arm/cpu/armv7/start.o
 .rel.text.init_baud_rate
                0x000000004a04ef04        0x8 arch/arm/cpu/armv7/start.o
 .rel.text.show_dram_config
                0x000000004a04ef0c        0x8 arch/arm/cpu/armv7/start.o
 .rel.text.board_init_f
                0x000000004a04ef14        0x8 arch/arm/cpu/armv7/start.o
 .rel.text.initr_net
                0x000000004a04ef1c        0x8 arch/arm/cpu/armv7/start.o
 .rel.text.initr_ethaddr
                0x000000004a04ef24        0x8 arch/arm/cpu/armv7/start.o
 .rel.text.initr_env
                0x000000004a04ef2c       0x20 arch/arm/cpu/armv7/start.o
 .rel.text.initr_reloc_global_data
                0x000000004a04ef4c       0x18 arch/arm/cpu/armv7/start.o
 .rel.text.board_init_r
                0x000000004a04ef64        0x8 arch/arm/cpu/armv7/start.o
 .rel.text.show_board_info
                0x000000004a04ef6c       0x10 arch/arm/cpu/armv7/start.o
 .rel.text.bootm_find_images
                0x000000004a04ef7c       0x18 arch/arm/cpu/armv7/start.o
 .rel.text.bootm_decomp_image
                0x000000004a04ef94       0x48 arch/arm/cpu/armv7/start.o
 .rel.text.do_bootm_states
                0x000000004a04efdc       0xd0 arch/arm/cpu/armv7/start.o
 .rel.text.do_bootm_rtems
                0x000000004a04f0ac        0x8 arch/arm/cpu/armv7/start.o
 .rel.text.do_bootm_plan9
                0x000000004a04f0b4       0x18 arch/arm/cpu/armv7/start.o
 .rel.text.do_bootm_standalone
                0x000000004a04f0cc       0x18 arch/arm/cpu/armv7/start.o
 .rel.text.do_bootm_qnxelf
                0x000000004a04f0e4        0x8 arch/arm/cpu/armv7/start.o
 .rel.text.do_bootm_netbsd
                0x000000004a04f0ec       0x18 arch/arm/cpu/armv7/start.o
 .rel.text.do_bootvx_fdt
                0x000000004a04f104       0x38 arch/arm/cpu/armv7/start.o
 .rel.text.bootm_os_get_boot_func
                0x000000004a04f13c        0x8 arch/arm/cpu/armv7/start.o
 .rel.text.fdt_support_default_count_cells
                0x000000004a04f144        0x8 arch/arm/cpu/armv7/start.o
 .rel.text.fdt_find_or_add_subnode
                0x000000004a04f14c       0x10 arch/arm/cpu/armv7/start.o
 .rel.text.fdt_root
                0x000000004a04f15c       0x20 arch/arm/cpu/armv7/start.o
 .rel.text.fdt_initrd
                0x000000004a04f17c       0x30 arch/arm/cpu/armv7/start.o
 .rel.text.fdt_chosen
                0x000000004a04f1ac       0x30 arch/arm/cpu/armv7/start.o
 .rel.text.do_fixup_by_path
                0x000000004a04f1dc        0x8 arch/arm/cpu/armv7/start.o
 .rel.text.fdt_fixup_memory_banks
                0x000000004a04f1e4       0x38 arch/arm/cpu/armv7/start.o
 .rel.text.fdt_fixup_ethernet
                0x000000004a04f21c       0x30 arch/arm/cpu/armv7/start.o
 .rel.text.fdt_translate_address
                0x000000004a04f24c       0x20 arch/arm/cpu/armv7/start.o
 .rel.text.fdt_setup_simplefb_node
                0x000000004a04f26c       0x40 arch/arm/cpu/armv7/start.o
 .rel.text.fdt_overlay_apply_verbose
                0x000000004a04f2ac       0x20 arch/arm/cpu/armv7/start.o
 .rel.text.miiphy_get_dev_by_name
                0x000000004a04f2cc       0x10 arch/arm/cpu/armv7/start.o
 .rel.text.miiphy_init
                0x000000004a04f2dc       0x10 arch/arm/cpu/armv7/start.o
 .rel.text.miiphy_set_current_dev
                0x000000004a04f2ec       0x10 arch/arm/cpu/armv7/start.o
 .rel.text.miiphy_get_active_dev
                0x000000004a04f2fc        0x8 arch/arm/cpu/armv7/start.o
 .rel.text.miiphy_get_current_dev
                0x000000004a04f304        0x8 arch/arm/cpu/armv7/start.o
 .rel.text.miiphy_listdev
                0x000000004a04f30c       0x30 arch/arm/cpu/armv7/start.o
 .rel.text.miiphy_speed
                0x000000004a04f33c       0x20 arch/arm/cpu/armv7/start.o
 .rel.text.miiphy_duplex
                0x000000004a04f35c       0x20 arch/arm/cpu/armv7/start.o
 .rel.text.get_descriptor_len
                0x000000004a04f37c       0x10 arch/arm/cpu/armv7/start.o
 .rel.text.usb_setup_descriptor
                0x000000004a04f38c       0x10 arch/arm/cpu/armv7/start.o
 .rel.text.usb_string_sub
                0x000000004a04f39c        0x8 arch/arm/cpu/armv7/start.o
 .rel.text.usb_get_configuration_len
                0x000000004a04f3a4       0x10 arch/arm/cpu/armv7/start.o
 .rel.text.usb_set_interface
                0x000000004a04f3b4        0x8 arch/arm/cpu/armv7/start.o
 .rel.text.usb_select_config
                0x000000004a04f3bc       0x70 arch/arm/cpu/armv7/start.o
 .rel.text.usb_setup_device
                0x000000004a04f42c       0x10 arch/arm/cpu/armv7/start.o
 .rel.text.usb_hub_port_connect_change
                0x000000004a04f43c        0x8 arch/arm/cpu/armv7/start.o
 .rel.text.usb_hub_configure
                0x000000004a04f444       0x28 arch/arm/cpu/armv7/start.o
 .rel.text.usb_stor_BBB_transport
                0x000000004a04f46c       0x10 arch/arm/cpu/armv7/start.o
 .rel.text.usb_stor_CB_comdat
                0x000000004a04f47c        0x8 arch/arm/cpu/armv7/start.o
 .rel.text.usb_stor_CBI_get_status.isra.2
                0x000000004a04f484        0x8 arch/arm/cpu/armv7/start.o
 .rel.text.usb_stor_CB_transport
                0x000000004a04f48c       0x10 arch/arm/cpu/armv7/start.o
 .rel.text.usb_request_sense.constprop.11
                0x000000004a04f49c        0x8 arch/arm/cpu/armv7/start.o
 .rel.text.usb_stor_read
                0x000000004a04f4a4       0x10 arch/arm/cpu/armv7/start.o
 .rel.text.usb_stor_write
                0x000000004a04f4b4       0x10 arch/arm/cpu/armv7/start.o
 .rel.text.usb_stor_info
                0x000000004a04f4c4       0x20 arch/arm/cpu/armv7/start.o
 .rel.text.usb_stor_reset
                0x000000004a04f4e4        0x8 arch/arm/cpu/armv7/start.o
 .rel.text.usb_stor_scan
                0x000000004a04f4ec       0x18 arch/arm/cpu/armv7/start.o
 .rel.text.usb_storage_probe
                0x000000004a04f504       0x38 arch/arm/cpu/armv7/start.o
 .rel.text.usb_stor_get_info
                0x000000004a04f53c       0x20 arch/arm/cpu/armv7/start.o
 .rel.text.usb_mass_storage_probe
                0x000000004a04f55c       0x30 arch/arm/cpu/armv7/start.o
 .rel.text.iomux_doenv
                0x000000004a04f58c       0x10 arch/arm/cpu/armv7/start.o
 .rel.text.menu_get_choice
                0x000000004a04f59c       0x18 arch/arm/cpu/armv7/start.o
 .rel.text.usb_kbd_remove
                0x000000004a04f5b4       0x20 arch/arm/cpu/armv7/start.o
 .rel.text.usb_kbd_translate.part.0
                0x000000004a04f5d4       0x20 arch/arm/cpu/armv7/start.o
 .rel.text.usb_kbd_probe
                0x000000004a04f5f4       0x38 arch/arm/cpu/armv7/start.o
 .rel.text.usb_kbd_testc
                0x000000004a04f62c       0x10 arch/arm/cpu/armv7/start.o
 .rel.text.delete_char.part.0
                0x000000004a04f63c       0x10 arch/arm/cpu/armv7/start.o
 .rel.text.cread_add_char
                0x000000004a04f64c        0x8 arch/arm/cpu/armv7/start.o
 .rel.text.cli_readline_into_buffer
                0x000000004a04f654       0x90 arch/arm/cpu/armv7/start.o
 .rel.text.cli_readline
                0x000000004a04f6e4        0x8 arch/arm/cpu/armv7/start.o
 .rel.text.console_tstc
                0x000000004a04f6ec       0x20 arch/arm/cpu/armv7/start.o
 .rel.text.console_putc
                0x000000004a04f70c       0x10 arch/arm/cpu/armv7/start.o
 .rel.text.console_puts
                0x000000004a04f71c       0x10 arch/arm/cpu/armv7/start.o
 .rel.text.on_console
                0x000000004a04f72c       0x20 arch/arm/cpu/armv7/start.o
 .rel.text.console_getc.isra.0
                0x000000004a04f74c        0x8 arch/arm/cpu/armv7/start.o
 .rel.text.getc
                0x000000004a04f754        0x8 arch/arm/cpu/armv7/start.o
 .rel.text.print_pre_console_buffer
                0x000000004a04f75c       0x18 arch/arm/cpu/armv7/start.o
 .rel.text.ctrlc
                0x000000004a04f774       0x10 arch/arm/cpu/armv7/start.o
 .rel.text.disable_ctrlc
                0x000000004a04f784        0x8 arch/arm/cpu/armv7/start.o
 .rel.text.had_ctrlc
                0x000000004a04f78c        0x8 arch/arm/cpu/armv7/start.o
 .rel.text.clear_ctrlc
                0x000000004a04f794        0x8 arch/arm/cpu/armv7/start.o
 .rel.text.console_assign
                0x000000004a04f79c       0x30 arch/arm/cpu/armv7/start.o
 .rel.text.stdio_print_current_devices
                0x000000004a04f7cc       0x40 arch/arm/cpu/armv7/start.o
 .rel.text.console_init_r
                0x000000004a04f80c       0x48 arch/arm/cpu/armv7/start.o
 .rel.text.sbrk
                0x000000004a04f854       0x18 arch/arm/cpu/armv7/start.o
 .rel.text.mem_malloc_init
                0x000000004a04f86c       0x18 arch/arm/cpu/armv7/start.o
 .rel.text.malloc_trim
                0x000000004a04f884       0x18 arch/arm/cpu/armv7/start.o
 .rel.text.free
                0x000000004a04f89c       0x20 arch/arm/cpu/armv7/start.o
 .rel.text.malloc
                0x000000004a04f8bc       0x48 arch/arm/cpu/armv7/start.o
 .rel.text.realloc
                0x000000004a04f904       0x10 arch/arm/cpu/armv7/start.o
 .rel.text.on_loadaddr
                0x000000004a04f914        0x8 arch/arm/cpu/armv7/start.o
 .rel.text.env_get_bootm_low
                0x000000004a04f91c        0x8 arch/arm/cpu/armv7/start.o
 .rel.text.env_get_bootm_size
                0x000000004a04f924       0x10 arch/arm/cpu/armv7/start.o
 .rel.text.env_get_bootm_mapsize
                0x000000004a04f934        0x8 arch/arm/cpu/armv7/start.o
 .rel.text.genimg_print_size
                0x000000004a04f93c       0x10 arch/arm/cpu/armv7/start.o
 .rel.text.genimg_get_os_name
                0x000000004a04f94c       0x10 arch/arm/cpu/armv7/start.o
 .rel.text.genimg_get_arch_name
                0x000000004a04f95c       0x10 arch/arm/cpu/armv7/start.o
 .rel.text.genimg_get_type_name
                0x000000004a04f96c       0x10 arch/arm/cpu/armv7/start.o
 .rel.text.genimg_get_comp_name
                0x000000004a04f97c       0x10 arch/arm/cpu/armv7/start.o
 .rel.text.image_print_contents
                0x000000004a04f98c       0x58 arch/arm/cpu/armv7/start.o
 .rel.text.genimg_get_kernel_addr_fit
                0x000000004a04f9e4        0x8 arch/arm/cpu/armv7/start.o
 .rel.text.boot_get_ramdisk
                0x000000004a04f9ec       0x50 arch/arm/cpu/armv7/start.o
 .rel.text.boot_ramdisk_high
                0x000000004a04fa3c       0x20 arch/arm/cpu/armv7/start.o
 .rel.text.android_image_get_kernel
                0x000000004a04fa5c       0x38 arch/arm/cpu/armv7/start.o
 .rel.text.android_image_check_header
                0x000000004a04fa94        0x8 arch/arm/cpu/armv7/start.o
 .rel.text.android_image_get_ramdisk
                0x000000004a04fa9c        0x8 arch/arm/cpu/armv7/start.o
 .rel.text.android_print_contents
                0x000000004a04faa4       0x60 arch/arm/cpu/armv7/start.o
 .rel.text.fdt_error
                0x000000004a04fb04       0x10 arch/arm/cpu/armv7/start.o
 .rel.text.boot_fdt_add_mem_rsv_regions
                0x000000004a04fb14        0x8 arch/arm/cpu/armv7/start.o
 .rel.text.boot_relocate_fdt
                0x000000004a04fb1c       0x40 arch/arm/cpu/armv7/start.o
 .rel.text.boot_get_fdt
                0x000000004a04fb5c       0x80 arch/arm/cpu/armv7/start.o
 .rel.text.image_setup_libfdt
                0x000000004a04fbdc       0x28 arch/arm/cpu/armv7/start.o
 .rel.text.stdio_get_list
                0x000000004a04fc04        0x8 arch/arm/cpu/armv7/start.o
 .rel.text.stdio_get_by_name
                0x000000004a04fc0c        0x8 arch/arm/cpu/armv7/start.o
 .rel.text.stdio_register_dev
                0x000000004a04fc14        0x8 arch/arm/cpu/armv7/start.o
 .rel.text.stdio_deregister_dev
                0x000000004a04fc1c       0x18 arch/arm/cpu/armv7/start.o
 .rel.text.stdio_init_tables
                0x000000004a04fc34        0x8 arch/arm/cpu/armv7/start.o
 .rel.text.stdio_add_devices
                0x000000004a04fc3c       0x50 arch/arm/cpu/armv7/start.o
 .rel.text.do_run
                0x000000004a04fc8c        0x8 arch/arm/cpu/armv7/start.o
 .rel.text.cli_process_fdt
                0x000000004a04fc94       0x10 arch/arm/cpu/armv7/start.o
 .rel.text.cli_secure_boot_cmd
                0x000000004a04fca4       0x18 arch/arm/cpu/armv7/start.o
 .rel.text.find_cmd
                0x000000004a04fcbc       0x10 arch/arm/cpu/armv7/start.o
 .rel.text.cmd_usage
                0x000000004a04fccc       0x18 arch/arm/cpu/armv7/start.o
 .rel.text._do_help
                0x000000004a04fce4       0x10 arch/arm/cpu/armv7/start.o
 .rel.text.var_complete
                0x000000004a04fcf4       0x10 arch/arm/cpu/armv7/start.o
 .rel.text.cmd_auto_complete
                0x000000004a04fd04       0x40 arch/arm/cpu/armv7/start.o
 .rel.text.cmd_process
                0x000000004a04fd44       0x18 arch/arm/cpu/armv7/start.o
 .rel.text.cmd_process_error
                0x000000004a04fd5c        0x8 arch/arm/cpu/armv7/start.o
 .rel.text.xyzModem_get_hdr
                0x000000004a04fd64       0x30 arch/arm/cpu/armv7/start.o
 .rel.text.xyzModem_stream_open
                0x000000004a04fd94       0x10 arch/arm/cpu/armv7/start.o
 .rel.text.xyzModem_stream_read
                0x000000004a04fda4        0x8 arch/arm/cpu/armv7/start.o
 .rel.text.xyzModem_stream_close
                0x000000004a04fdac       0x20 arch/arm/cpu/armv7/start.o
 .rel.text.xyzModem_stream_terminate
                0x000000004a04fdcc        0x8 arch/arm/cpu/armv7/start.o
 .rel.text.xyzModem_error
                0x000000004a04fdd4       0x10 arch/arm/cpu/armv7/start.o
 .rel.rodata.init_sequence_f
                0x000000004a04fde4      0x148 arch/arm/cpu/armv7/start.o
 .rel.rodata.boot_os
                0x000000004a04ff2c       0x38 arch/arm/cpu/armv7/start.o
 .rel.rodata.usb_hub_ids
                0x000000004a04ff64        0x8 arch/arm/cpu/armv7/start.o
 .rel.rodata.usb_mass_storage_ids
                0x000000004a04ff6c        0x8 arch/arm/cpu/armv7/start.o
 .rel.rodata.usb_kbd_ids
                0x000000004a04ff74        0x8 arch/arm/cpu/armv7/start.o
 .rel.rodata.uimage_arch
                0x000000004a04ff7c      0x1b0 arch/arm/cpu/armv7/start.o
 .rel.rodata.uimage_comp
                0x000000004a05012c       0x70 arch/arm/cpu/armv7/start.o
 .rel.rodata.uimage_os
                0x000000004a05019c       0xc0 arch/arm/cpu/armv7/start.o
 .rel.rodata.uimage_type
                0x000000004a05025c      0x240 arch/arm/cpu/armv7/start.o
 .rel.rodata.CSWTCH.19
                0x000000004a05049c       0x40 arch/arm/cpu/armv7/start.o
 .rel.data.reserved_list
                0x000000004a0504dc       0x58 arch/arm/cpu/armv7/start.o
 .rel.u_boot_list_2_cmd_2_showvar
                0x000000004a050534       0x20 arch/arm/cpu/armv7/start.o
 .rel.data.init_sequence_r
                0x000000004a050554       0xe0 arch/arm/cpu/armv7/start.o
 .rel.data.of_busses
                0x000000004a050634       0x28 arch/arm/cpu/armv7/start.o
 .rel.data.usb_scan_list
                0x000000004a05065c       0x10 arch/arm/cpu/armv7/start.o
 .rel.u_boot_list_2_driver_2_usb_generic_hub
                0x000000004a05066c       0x10 arch/arm/cpu/armv7/start.o
 .rel.u_boot_list_2_uclass_2_usb_hub
                0x000000004a05067c       0x20 arch/arm/cpu/armv7/start.o
 .rel.u_boot_list_2_usb_driver_entry_2_usb_generic_hub
                0x000000004a05069c       0x10 arch/arm/cpu/armv7/start.o
 .rel.u_boot_list_2_blk_driver_2_usb
                0x000000004a0506ac       0x10 arch/arm/cpu/armv7/start.o
 .rel.u_boot_list_2_driver_2_usb_mass_storage
                0x000000004a0506bc       0x18 arch/arm/cpu/armv7/start.o
 .rel.u_boot_list_2_uclass_2_usb_mass_storage
                0x000000004a0506d4        0x8 arch/arm/cpu/armv7/start.o
 .rel.u_boot_list_2_usb_driver_entry_2_usb_mass_storage
                0x000000004a0506dc       0x10 arch/arm/cpu/armv7/start.o
 .rel.u_boot_list_2_driver_2_usb_kbd
                0x000000004a0506ec       0x20 arch/arm/cpu/armv7/start.o
 .rel.u_boot_list_2_usb_driver_entry_2_usb_kbd
                0x000000004a05070c       0x10 arch/arm/cpu/armv7/start.o
 .rel.u_boot_list_2_env_clbk_2_console
                0x000000004a05071c       0x10 arch/arm/cpu/armv7/start.o
 .rel.data.av_  0x000000004a05072c      0x800 arch/arm/cpu/armv7/start.o
 .rel.u_boot_list_2_env_clbk_2_loadaddr
                0x000000004a050f2c       0x10 arch/arm/cpu/armv7/start.o
 .rel.data.stdio_names
                0x000000004a050f3c       0x18 arch/arm/cpu/armv7/start.o
 .rel.text.part_driver_lookup_type
                0x000000004a050f54       0x10 arch/arm/cpu/armv7/start.o
 .rel.text.dev_print
                0x000000004a050f64       0x88 arch/arm/cpu/armv7/start.o
 .rel.text.part_init
                0x000000004a050fec       0x10 arch/arm/cpu/armv7/start.o
 .rel.text.part_print
                0x000000004a050ffc       0x68 arch/arm/cpu/armv7/start.o
 .rel.text.part_get_info_whole_disk
                0x000000004a051064       0x10 arch/arm/cpu/armv7/start.o
 .rel.text.blk_get_device_by_str
                0x000000004a051074       0x10 arch/arm/cpu/armv7/start.o
 .rel.text.blk_get_device_part_str
                0x000000004a051084       0x58 arch/arm/cpu/armv7/start.o
 .rel.text.part_set_generic_name
                0x000000004a0510dc       0x18 arch/arm/cpu/armv7/start.o
 .rel.text.test_block_type
                0x000000004a0510f4       0x10 arch/arm/cpu/armv7/start.o
 .rel.text.print_partition_extended
                0x000000004a051104       0x30 arch/arm/cpu/armv7/start.o
 .rel.text.part_print_dos
                0x000000004a051134        0x8 arch/arm/cpu/armv7/start.o
 .rel.text.part_get_info_extended
                0x000000004a05113c       0x20 arch/arm/cpu/armv7/start.o
 .rel.text.part_get_info_iso_verb
                0x000000004a05115c       0x70 arch/arm/cpu/armv7/start.o
 .rel.text.part_print_iso
                0x000000004a0511cc       0x18 arch/arm/cpu/armv7/start.o
 .rel.text.print_efiname
                0x000000004a0511e4       0x10 arch/arm/cpu/armv7/start.o
 .rel.text.validate_gpt_entries
                0x000000004a0511f4       0x10 arch/arm/cpu/armv7/start.o
 .rel.text.validate_gpt_header
                0x000000004a051204       0x30 arch/arm/cpu/armv7/start.o
 .rel.text.is_gpt_valid
                0x000000004a051234       0x40 arch/arm/cpu/armv7/start.o
 .rel.text.is_pte_valid
                0x000000004a051274       0x10 arch/arm/cpu/armv7/start.o
 .rel.text.part_print_efi
                0x000000004a051284       0x60 arch/arm/cpu/armv7/start.o
 .rel.text.part_get_info_efi
                0x000000004a0512e4       0x40 arch/arm/cpu/armv7/start.o
 .rel.text.get_disk_guid
                0x000000004a051324       0x20 arch/arm/cpu/armv7/start.o
 .rel.text.write_gpt_table
                0x000000004a051344       0x20 arch/arm/cpu/armv7/start.o
 .rel.text.gpt_fill_pte
                0x000000004a051364       0x20 arch/arm/cpu/armv7/start.o
 .rel.text.gpt_fill_header
                0x000000004a051384        0x8 arch/arm/cpu/armv7/start.o
 .rel.text.gpt_restore
                0x000000004a05138c       0x10 arch/arm/cpu/armv7/start.o
 .rel.text.gpt_verify_headers
                0x000000004a05139c       0x18 arch/arm/cpu/armv7/start.o
 .rel.text.gpt_verify_partitions
                0x000000004a0513b4       0x20 arch/arm/cpu/armv7/start.o
 .rel.rodata.CSWTCH.14
                0x000000004a0513d4       0x40 arch/arm/cpu/armv7/start.o
 .rel.u_boot_list_2_part_driver_2_dos
                0x000000004a051414       0x20 arch/arm/cpu/armv7/start.o
 .rel.u_boot_list_2_part_driver_2_iso
                0x000000004a051434       0x20 arch/arm/cpu/armv7/start.o
 .rel.u_boot_list_2_part_driver_2_a_efi
                0x000000004a051454       0x20 arch/arm/cpu/armv7/start.o
 .rel.text.device_bind_common.isra.0
                0x000000004a051474       0x10 arch/arm/cpu/armv7/start.o
 .rel.text.device_probe
                0x000000004a051484       0x10 arch/arm/cpu/armv7/start.o
 .rel.text.dev_get_platdata
                0x000000004a051494       0x10 arch/arm/cpu/armv7/start.o
 .rel.text.dev_get_parent_platdata
                0x000000004a0514a4       0x10 arch/arm/cpu/armv7/start.o
 .rel.text.dev_get_uclass_platdata
                0x000000004a0514b4       0x10 arch/arm/cpu/armv7/start.o
 .rel.text.dev_get_priv
                0x000000004a0514c4       0x10 arch/arm/cpu/armv7/start.o
 .rel.text.dev_get_uclass_priv
                0x000000004a0514d4       0x10 arch/arm/cpu/armv7/start.o
 .rel.text.dev_get_parent_priv
                0x000000004a0514e4       0x10 arch/arm/cpu/armv7/start.o
 .rel.text.devfdt_get_addr_index
                0x000000004a0514f4        0x8 arch/arm/cpu/armv7/start.o
 .rel.text.devfdt_get_addr_name
                0x000000004a0514fc        0x8 arch/arm/cpu/armv7/start.o
 .rel.text.lists_driver_lookup_name
                0x000000004a051504       0x10 arch/arm/cpu/armv7/start.o
 .rel.text.lists_uclass_lookup
                0x000000004a051514       0x10 arch/arm/cpu/armv7/start.o
 .rel.text.lists_bind_drivers
                0x000000004a051524       0x18 arch/arm/cpu/armv7/start.o
 .rel.text.lists_bind_fdt
                0x000000004a05153c       0x28 arch/arm/cpu/armv7/start.o
 .rel.text.dm_scan_fdt_node
                0x000000004a051564       0x10 arch/arm/cpu/armv7/start.o
 .rel.text.dm_root
                0x000000004a051574        0x8 arch/arm/cpu/armv7/start.o
 .rel.text.dm_init
                0x000000004a05157c       0x10 arch/arm/cpu/armv7/start.o
 .rel.text.dm_scan_platdata
                0x000000004a05158c        0x8 arch/arm/cpu/armv7/start.o
 .rel.text.dm_extended_scan_fdt
                0x000000004a051594       0x10 arch/arm/cpu/armv7/start.o
 .rel.text.uclass_resolve_seq
                0x000000004a0515a4        0x8 arch/arm/cpu/armv7/start.o
 .rel.text.dm_fdt_pre_reloc
                0x000000004a0515ac       0x18 arch/arm/cpu/armv7/start.o
 .rel.text.device_remove
                0x000000004a0515c4       0x20 arch/arm/cpu/armv7/start.o
 .rel.text.simple_bus_post_bind
                0x000000004a0515e4        0x8 arch/arm/cpu/armv7/start.o
 .rel.text.show_devices
                0x000000004a0515ec       0x30 arch/arm/cpu/armv7/start.o
 .rel.text.dm_dump_all
                0x000000004a05161c       0x10 arch/arm/cpu/armv7/start.o
 .rel.text.dm_dump_uclass
                0x000000004a05162c       0x20 arch/arm/cpu/armv7/start.o
 .rel.text.generic_phy_get_by_index
                0x000000004a05164c       0x18 arch/arm/cpu/armv7/start.o
 .rel.text.generic_phy_get_by_name
                0x000000004a051664        0x8 arch/arm/cpu/armv7/start.o
 .rel.text.blk_driver_lookup_type
                0x000000004a05166c       0x10 arch/arm/cpu/armv7/start.o
 .rel.text.blk_list_devices
                0x000000004a05167c        0x8 arch/arm/cpu/armv7/start.o
 .rel.text.blk_print_device_num
                0x000000004a051684        0x8 arch/arm/cpu/armv7/start.o
 .rel.text.blk_show_device
                0x000000004a05168c       0x10 arch/arm/cpu/armv7/start.o
 .rel.text.blk_get_devnum_by_typename
                0x000000004a05169c       0x10 arch/arm/cpu/armv7/start.o
 .rel.text.fastboot_fail
                0x000000004a0516ac       0x10 arch/arm/cpu/armv7/start.o
 .rel.text.fastboot_okay
                0x000000004a0516bc       0x10 arch/arm/cpu/armv7/start.o
 .rel.text.fastboot_boot
                0x000000004a0516cc       0x30 arch/arm/cpu/armv7/start.o
 .rel.text.fastboot_init
                0x000000004a0516fc       0x18 arch/arm/cpu/armv7/start.o
 .rel.text.getvar_downloadsize
                0x000000004a051714       0x18 arch/arm/cpu/armv7/start.o
 .rel.text.getvar_has_slot
                0x000000004a05172c       0x20 arch/arm/cpu/armv7/start.o
 .rel.text.getvar_slot_suffixes
                0x000000004a05174c        0x8 arch/arm/cpu/armv7/start.o
 .rel.text.getvar_current_slot
                0x000000004a051754        0x8 arch/arm/cpu/armv7/start.o
 .rel.text.getvar_product
                0x000000004a05175c       0x10 arch/arm/cpu/armv7/start.o
 .rel.text.getvar_version_baseband
                0x000000004a05176c        0x8 arch/arm/cpu/armv7/start.o
 .rel.text.getvar_serialno
                0x000000004a051774       0x10 arch/arm/cpu/armv7/start.o
 .rel.text.getvar_bootloader_version
                0x000000004a051784        0x8 arch/arm/cpu/armv7/start.o
 .rel.text.getvar_version
                0x000000004a05178c        0x8 arch/arm/cpu/armv7/start.o
 .rel.text.fastboot_getvar
                0x000000004a051794       0x38 arch/arm/cpu/armv7/start.o
 .rel.text.reboot_bootloader
                0x000000004a0517cc        0x8 arch/arm/cpu/armv7/start.o
 .rel.text.download
                0x000000004a0517d4       0x40 arch/arm/cpu/armv7/start.o
 .rel.text.fastboot_handle_command
                0x000000004a051814       0x20 arch/arm/cpu/armv7/start.o
 .rel.text.fastboot_data_remaining
                0x000000004a051834       0x10 arch/arm/cpu/armv7/start.o
 .rel.text.fastboot_data_download
                0x000000004a051844       0x20 arch/arm/cpu/armv7/start.o
 .rel.text.fastboot_data_complete
                0x000000004a051864       0x20 arch/arm/cpu/armv7/start.o
 .rel.text.sun4i_usb_phy_power_on
                0x000000004a051884        0x8 arch/arm/cpu/armv7/start.o
 .rel.text.sun4i_usb_phy_probe
                0x000000004a05188c       0x30 arch/arm/cpu/armv7/start.o
 .rel.text.video_drawchars
                0x000000004a0518bc       0x50 arch/arm/cpu/armv7/start.o
 .rel.text.video_invertchar
                0x000000004a05190c       0x10 arch/arm/cpu/armv7/start.o
 .rel.text.console_cursor_fix
                0x000000004a05191c       0x18 arch/arm/cpu/armv7/start.o
 .rel.text.console_cursor_set_position
                0x000000004a051934       0x10 arch/arm/cpu/armv7/start.o
 .rel.text.console_swap_colors
                0x000000004a051944       0x18 arch/arm/cpu/armv7/start.o
 .rel.text.console_clear_line
                0x000000004a05195c       0x18 arch/arm/cpu/armv7/start.o
 .rel.text.console_newline
                0x000000004a051974       0x20 arch/arm/cpu/armv7/start.o
 .rel.text.console_cursor
                0x000000004a051994       0x38 arch/arm/cpu/armv7/start.o
 .rel.text.video_set_cursor
                0x000000004a0519cc        0x8 arch/arm/cpu/armv7/start.o
 .rel.text.parse_putc
                0x000000004a0519d4       0x28 arch/arm/cpu/armv7/start.o
 .rel.text.cfb_video_putc
                0x000000004a0519fc       0x50 arch/arm/cpu/armv7/start.o
 .rel.text.cfb_video_puts
                0x000000004a051a4c       0x10 arch/arm/cpu/armv7/start.o
 .rel.text.plot_logo_or_black
                0x000000004a051a5c       0x28 arch/arm/cpu/armv7/start.o
 .rel.text.do_clrlogo
                0x000000004a051a84        0x8 arch/arm/cpu/armv7/start.o
 .rel.text.video_clear
                0x000000004a051a8c       0x18 arch/arm/cpu/armv7/start.o
 .rel.text.drv_video_init
                0x000000004a051aa4       0x70 arch/arm/cpu/armv7/start.o
 .rel.text.sunxi_is_composite
                0x000000004a051b14        0x8 arch/arm/cpu/armv7/start.o
 .rel.text.video_hw_init
                0x000000004a051b1c       0xa8 arch/arm/cpu/armv7/start.o
 .rel.text.sunxi_simplefb_setup
                0x000000004a051bc4       0x40 arch/arm/cpu/armv7/start.o
 .rel.text.sunxi_simplefb_fdt_match
                0x000000004a051c04       0x10 arch/arm/cpu/armv7/start.o
 .rel.text.video_get_video_mode
                0x000000004a051c14       0x10 arch/arm/cpu/armv7/start.o
 .rel.text.video_get_ctfb_res_modes
                0x000000004a051c24       0x10 arch/arm/cpu/armv7/start.o
 .rel.text.keyboard_pre_probe
                0x000000004a051c34       0x20 arch/arm/cpu/armv7/start.o
 .rel.rodata.root_info
                0x000000004a051c54        0x8 arch/arm/cpu/armv7/start.o
 .rel.rodata.generic_simple_bus_ids
                0x000000004a051c5c       0x10 arch/arm/cpu/armv7/start.o
 .rel.rodata.bootm_args.7280
                0x000000004a051c6c       0x10 arch/arm/cpu/armv7/start.o
 .rel.rodata.getvar_dispatch
                0x000000004a051c7c       0xb0 arch/arm/cpu/armv7/start.o
 .rel.rodata.commands
                0x000000004a051d2c       0x70 arch/arm/cpu/armv7/start.o
 .rel.rodata.sun4i_usb_phy_ids
                0x000000004a051d9c       0xa0 arch/arm/cpu/armv7/start.o
 .rel.rodata.CSWTCH.56
                0x000000004a051e3c       0x48 arch/arm/cpu/armv7/start.o
 .rel.u_boot_list_2_driver_2_root_driver
                0x000000004a051e84        0x8 arch/arm/cpu/armv7/start.o
 .rel.u_boot_list_2_uclass_2_root
                0x000000004a051e8c        0x8 arch/arm/cpu/armv7/start.o
 .rel.u_boot_list_2_driver_2_simple_bus_drv
                0x000000004a051e94       0x10 arch/arm/cpu/armv7/start.o
 .rel.u_boot_list_2_uclass_2_simple_bus
                0x000000004a051ea4       0x10 arch/arm/cpu/armv7/start.o
 .rel.u_boot_list_2_uclass_2_phy
                0x000000004a051eb4        0x8 arch/arm/cpu/armv7/start.o
 .rel.data.phy_info
                0x000000004a051ebc       0x30 arch/arm/cpu/armv7/start.o
 .rel.data.sun4i_usb_phy_ops
                0x000000004a051eec       0x28 arch/arm/cpu/armv7/start.o
 .rel.u_boot_list_2_driver_2_sun4i_usb_phy
                0x000000004a051f14       0x20 arch/arm/cpu/armv7/start.o
 .rel.u_boot_list_2_cmd_2_clrlogo
                0x000000004a051f34       0x20 arch/arm/cpu/armv7/start.o
 .rel.u_boot_list_2_uclass_2_keyboard
                0x000000004a051f54       0x10 arch/arm/cpu/armv7/start.o
 .rel.text.gpio_axp_probe
                0x000000004a051f64        0x8 arch/arm/cpu/armv7/start.o
 .rel.text.axp_gpio_init
                0x000000004a051f6c       0x10 arch/arm/cpu/armv7/start.o
 .rel.text.check_reserved
                0x000000004a051f7c       0x10 arch/arm/cpu/armv7/start.o
 .rel.text.dm_gpio_lookup_name
                0x000000004a051f8c        0x8 arch/arm/cpu/armv7/start.o
 .rel.text.gpio_direction_input
                0x000000004a051f94        0x8 arch/arm/cpu/armv7/start.o
 .rel.text.gpio_direction_output
                0x000000004a051f9c        0x8 arch/arm/cpu/armv7/start.o
 .rel.text.dm_gpio_get_value
                0x000000004a051fa4        0x8 arch/arm/cpu/armv7/start.o
 .rel.text.dm_gpio_set_value
                0x000000004a051fac        0x8 arch/arm/cpu/armv7/start.o
 .rel.text.gpio_get_status
                0x000000004a051fb4       0x28 arch/arm/cpu/armv7/start.o
 .rel.text.sunxi_name_to_gpio
                0x000000004a051fdc       0x18 arch/arm/cpu/armv7/start.o
 .rel.rodata.gpio_axp_ops
                0x000000004a051ff4       0x20 arch/arm/cpu/armv7/start.o
 .rel.rodata.gpio_function
                0x000000004a052014       0x28 arch/arm/cpu/armv7/start.o
 .rel.rodata.gpio_sunxi_ops
                0x000000004a05203c       0x30 arch/arm/cpu/armv7/start.o
 .rel.rodata.sunxi_gpio_ids
                0x000000004a05206c      0x150 arch/arm/cpu/armv7/start.o
 .rel.u_boot_list_2_driver_2_gpio_axp
                0x000000004a0521bc       0x18 arch/arm/cpu/armv7/start.o
 .rel.u_boot_list_2_uclass_2_gpio
                0x000000004a0521d4       0x20 arch/arm/cpu/armv7/start.o
 .rel.u_boot_list_2_driver_2_gpio_sunxi
                0x000000004a0521f4       0x28 arch/arm/cpu/armv7/start.o
 .rel.text.serial_post_probe
                0x000000004a05221c       0x20 arch/arm/cpu/armv7/start.o
 .rel.text.serial_init
                0x000000004a05223c       0x18 arch/arm/cpu/armv7/start.o
 .rel.text.on_baudrate
                0x000000004a052254       0x18 arch/arm/cpu/armv7/start.o
 .rel.text.ns16550_serial_ofdata_to_platdata
                0x000000004a05226c       0x18 arch/arm/cpu/armv7/start.o
 .rel.rodata.ns16550_serial_ids
                0x000000004a052284       0x28 arch/arm/cpu/armv7/start.o
 .rel.rodata.ns16550_serial_ops
                0x000000004a0522ac       0x20 arch/arm/cpu/armv7/start.o
 .rel.u_boot_list_2_env_clbk_2_baudrate
                0x000000004a0522cc       0x10 arch/arm/cpu/armv7/start.o
 .rel.u_boot_list_2_uclass_2_serial
                0x000000004a0522dc       0x18 arch/arm/cpu/armv7/start.o
 .rel.u_boot_list_2_driver_2_ns16550_serial
                0x000000004a0522f4       0x28 arch/arm/cpu/armv7/start.o
 .rel.text.usb_ep_autoconfig
                0x000000004a05231c        0x8 arch/arm/cpu/armv7/start.o
 .rel.text.usb_ep_autoconfig_reset
                0x000000004a052324        0x8 arch/arm/cpu/armv7/start.o
 .rel.text.composite_suspend
                0x000000004a05232c        0x8 arch/arm/cpu/armv7/start.o
 .rel.text.composite_resume
                0x000000004a052334        0x8 arch/arm/cpu/armv7/start.o
 .rel.text.composite_unbind
                0x000000004a05233c       0x28 arch/arm/cpu/armv7/start.o
 .rel.text.composite_bind
                0x000000004a052364       0x10 arch/arm/cpu/armv7/start.o
 .rel.text.g_dnl_do_config
                0x000000004a052374        0x8 arch/arm/cpu/armv7/start.o
 .rel.text.composite_disconnect
                0x000000004a05237c        0x8 arch/arm/cpu/armv7/start.o
 .rel.text.composite_setup
                0x000000004a052384       0x10 arch/arm/cpu/armv7/start.o
 .rel.text.usb_composite_register
                0x000000004a052394       0x18 arch/arm/cpu/armv7/start.o
 .rel.text.usb_composite_unregister
                0x000000004a0523ac       0x10 arch/arm/cpu/armv7/start.o
 .rel.text.g_dnl_set_serialnumber
                0x000000004a0523bc        0x8 arch/arm/cpu/armv7/start.o
 .rel.text.g_dnl_bind
                0x000000004a0523c4       0x30 arch/arm/cpu/armv7/start.o
 .rel.text.g_dnl_detach
                0x000000004a0523f4        0x8 arch/arm/cpu/armv7/start.o
 .rel.text.g_dnl_trigger_detach
                0x000000004a0523fc        0x8 arch/arm/cpu/armv7/start.o
 .rel.text.g_dnl_clear_detach
                0x000000004a052404        0x8 arch/arm/cpu/armv7/start.o
 .rel.text.g_dnl_register
                0x000000004a05240c       0x18 arch/arm/cpu/armv7/start.o
 .rel.text.g_dnl_unregister
                0x000000004a052424        0x8 arch/arm/cpu/armv7/start.o
 .rel.text.fsg_setup
                0x000000004a05242c       0x18 arch/arm/cpu/armv7/start.o
 .rel.text.fsg_add
                0x000000004a052444       0x80 arch/arm/cpu/armv7/start.o
 .rel.text.fsg_bind
                0x000000004a0524c4       0x38 arch/arm/cpu/armv7/start.o
 .rel.text.fastboot_unbind
                0x000000004a0524fc        0x8 arch/arm/cpu/armv7/start.o
 .rel.text.fastboot_add
                0x000000004a052504       0x38 arch/arm/cpu/armv7/start.o
 .rel.text.fastboot_set_alt
                0x000000004a05253c       0x50 arch/arm/cpu/armv7/start.o
 .rel.text.fastboot_complete
                0x000000004a05258c        0x8 arch/arm/cpu/armv7/start.o
 .rel.text.fastboot_tx_write_str
                0x000000004a052594       0x10 arch/arm/cpu/armv7/start.o
 .rel.text.rx_handler_command
                0x000000004a0525a4       0x40 arch/arm/cpu/armv7/start.o
 .rel.text.rx_handler_dl_image
                0x000000004a0525e4       0x10 arch/arm/cpu/armv7/start.o
 .rel.text.fastboot_bind
                0x000000004a0525f4       0x48 arch/arm/cpu/armv7/start.o
 .rel.text.tx_complete
                0x000000004a05263c        0x8 arch/arm/cpu/armv7/start.o
 .rel.text.nibble
                0x000000004a052644        0x8 arch/arm/cpu/armv7/start.o
 .rel.text.usb_eth_recv
                0x000000004a05264c       0x18 arch/arm/cpu/armv7/start.o
 .rel.text.rx_complete
                0x000000004a052664        0x8 arch/arm/cpu/armv7/start.o
 .rel.text.usb_eth_send
                0x000000004a05266c       0x20 arch/arm/cpu/armv7/start.o
 .rel.text.rndis_command_complete
                0x000000004a05268c       0x10 arch/arm/cpu/armv7/start.o
 .rel.text.rndis_control_ack_complete
                0x000000004a05269c        0x8 arch/arm/cpu/armv7/start.o
 .rel.text.rndis_control_ack
                0x000000004a0526a4       0x10 arch/arm/cpu/armv7/start.o
 .rel.text.set_ether_config.isra.5
                0x000000004a0526b4       0x38 arch/arm/cpu/armv7/start.o
 .rel.text.eth_bind
                0x000000004a0526ec      0x128 arch/arm/cpu/armv7/start.o
 .rel.text.usb_eth_probe
                0x000000004a052814       0x18 arch/arm/cpu/armv7/start.o
 .rel.text.rx_submit.constprop.10
                0x000000004a05282c       0x18 arch/arm/cpu/armv7/start.o
 .rel.text.usb_eth_free_pkt
                0x000000004a052844        0x8 arch/arm/cpu/armv7/start.o
 .rel.text.eth_setup
                0x000000004a05284c       0x98 arch/arm/cpu/armv7/start.o
 .rel.text.dm_usb_init
                0x000000004a0528e4        0x8 arch/arm/cpu/armv7/start.o
 .rel.text.usb_eth_start
                0x000000004a0528ec       0x90 arch/arm/cpu/armv7/start.o
 .rel.text.usb_ether_init
                0x000000004a05297c       0x18 arch/arm/cpu/armv7/start.o
 .rel.text.rndis_add_response
                0x000000004a052994        0x8 arch/arm/cpu/armv7/start.o
 .rel.text.rndis_signal_connect
                0x000000004a05299c        0x8 arch/arm/cpu/armv7/start.o
 .rel.text.rndis_signal_disconnect
                0x000000004a0529a4        0x8 arch/arm/cpu/armv7/start.o
 .rel.text.rndis_set_host_mac
                0x000000004a0529ac        0x8 arch/arm/cpu/armv7/start.o
 .rel.text.rndis_get_state
                0x000000004a0529b4        0x8 arch/arm/cpu/armv7/start.o
 .rel.text.rndis_msg_parser
                0x000000004a0529bc       0x18 arch/arm/cpu/armv7/start.o
 .rel.text.rndis_register
                0x000000004a0529d4        0x8 arch/arm/cpu/armv7/start.o
 .rel.text.rndis_deregister
                0x000000004a0529dc        0x8 arch/arm/cpu/armv7/start.o
 .rel.text.rndis_set_param_dev
                0x000000004a0529e4        0x8 arch/arm/cpu/armv7/start.o
 .rel.text.rndis_set_param_vendor
                0x000000004a0529ec        0x8 arch/arm/cpu/armv7/start.o
 .rel.text.rndis_set_param_medium
                0x000000004a0529f4        0x8 arch/arm/cpu/armv7/start.o
 .rel.text.rndis_free_response
                0x000000004a0529fc        0x8 arch/arm/cpu/armv7/start.o
 .rel.text.rndis_get_next_response
                0x000000004a052a04        0x8 arch/arm/cpu/armv7/start.o
 .rel.text.rndis_uninit
                0x000000004a052a0c        0x8 arch/arm/cpu/armv7/start.o
 .rel.text.rndis_init
                0x000000004a052a14        0x8 arch/arm/cpu/armv7/start.o
 .rel.rodata.usb_eth_ops
                0x000000004a052a1c       0x28 arch/arm/cpu/armv7/start.o
 .rel.data.composite_driver
                0x000000004a052a44       0x38 arch/arm/cpu/armv7/start.o
 .rel.data.g_dnl_composite_strings
                0x000000004a052a7c        0x8 arch/arm/cpu/armv7/start.o
 .rel.data.g_dnl_driver
                0x000000004a052a84       0x20 arch/arm/cpu/armv7/start.o
 .rel.data.g_dnl_string_defs
                0x000000004a052aa4       0x18 arch/arm/cpu/armv7/start.o
 .rel.data.g_dnl_string_tab
                0x000000004a052abc        0x8 arch/arm/cpu/armv7/start.o
 .rel.u_boot_list_2_env_clbk_2_serialno
                0x000000004a052ac4       0x10 arch/arm/cpu/armv7/start.o
 .rel.data.fsg_fs_function
                0x000000004a052ad4       0x18 arch/arm/cpu/armv7/start.o
 .rel.data.fsg_hs_function
                0x000000004a052aec       0x18 arch/arm/cpu/armv7/start.o
 .rel.data.fsg_strings
                0x000000004a052b04        0x8 arch/arm/cpu/armv7/start.o
 .rel.data.fsg_strings_array
                0x000000004a052b0c        0x8 arch/arm/cpu/armv7/start.o
 .rel.data.fsg_stringtab
                0x000000004a052b14        0x8 arch/arm/cpu/armv7/start.o
 .rel.u_boot_list_2_g_dnl_bind_callbacks_2___usb_function_name_usb_dnl_ums
                0x000000004a052b1c       0x10 arch/arm/cpu/armv7/start.o
 .rel.data.fastboot_string_defs
                0x000000004a052b2c        0x8 arch/arm/cpu/armv7/start.o
 .rel.data.fastboot_strings
                0x000000004a052b34        0x8 arch/arm/cpu/armv7/start.o
 .rel.data.fb_fs_function
                0x000000004a052b3c       0x18 arch/arm/cpu/armv7/start.o
 .rel.data.fb_hs_function
                0x000000004a052b54       0x18 arch/arm/cpu/armv7/start.o
 .rel.data.stringtab_fastboot
                0x000000004a052b6c        0x8 arch/arm/cpu/armv7/start.o
 .rel.u_boot_list_2_g_dnl_bind_callbacks_2___usb_function_name_usb_dnl_fastboot
                0x000000004a052b74       0x10 arch/arm/cpu/armv7/start.o
 .rel.data.fs_eth_function
                0x000000004a052b84        0x8 arch/arm/cpu/armv7/start.o
 .rel.data.fs_rndis_function
                0x000000004a052b8c       0x50 arch/arm/cpu/armv7/start.o
 .rel.data.hs_eth_function
                0x000000004a052bdc        0x8 arch/arm/cpu/armv7/start.o
 .rel.data.hs_rndis_function
                0x000000004a052be4       0x50 arch/arm/cpu/armv7/start.o
 .rel.data.l_priv
                0x000000004a052c34        0x8 arch/arm/cpu/armv7/start.o
 .rel.data.strings
                0x000000004a052c3c       0x38 arch/arm/cpu/armv7/start.o
 .rel.data.stringtab
                0x000000004a052c74        0x8 arch/arm/cpu/armv7/start.o
 .rel.u_boot_list_2_driver_2_eth_usb
                0x000000004a052c7c       0x18 arch/arm/cpu/armv7/start.o
 .rel.text.usb_child_post_bind
                0x000000004a052c94       0x10 arch/arm/cpu/armv7/start.o
 .rel.text.usb_disable_asynch
                0x000000004a052ca4        0x8 arch/arm/cpu/armv7/start.o
 .rel.text.usb_stop
                0x000000004a052cac        0x8 arch/arm/cpu/armv7/start.o
 .rel.text.usb_scan_device
                0x000000004a052cb4       0x20 arch/arm/cpu/armv7/start.o
 .rel.text.usb_scan_bus.isra.3
                0x000000004a052cd4       0x20 arch/arm/cpu/armv7/start.o
 .rel.text.usb_init
                0x000000004a052cf4       0x38 arch/arm/cpu/armv7/start.o
 .rel.u_boot_list_2_driver_2_usb_dev_generic_drv
                0x000000004a052d2c        0x8 arch/arm/cpu/armv7/start.o
 .rel.u_boot_list_2_uclass_2_usb
                0x000000004a052d34       0x20 arch/arm/cpu/armv7/start.o
 .rel.u_boot_list_2_uclass_2_usb_dev_generic
                0x000000004a052d54        0x8 arch/arm/cpu/armv7/start.o
 .rel.text.init_peripheral_ep
                0x000000004a052d5c       0x30 arch/arm/cpu/armv7/start.o
 .rel.text.musb_gadget_setup
                0x000000004a052d8c       0x10 arch/arm/cpu/armv7/start.o
 .rel.text.musb_g_ep0_irq
                0x000000004a052d9c       0x88 arch/arm/cpu/armv7/start.o
 .rel.text.musb_load_testpacket
                0x000000004a052e24        0x8 arch/arm/cpu/armv7/start.o
 .rel.text.musb_init_controller
                0x000000004a052e2c       0xa8 arch/arm/cpu/armv7/start.o
 .rel.text.usb_gadget_handle_interrupts
                0x000000004a052ed4        0x8 arch/arm/cpu/armv7/start.o
 .rel.text.usb_gadget_register_driver
                0x000000004a052edc       0x28 arch/arm/cpu/armv7/start.o
 .rel.text.usb_gadget_unregister_driver
                0x000000004a052f04        0x8 arch/arm/cpu/armv7/start.o
 .rel.text.musb_register
                0x000000004a052f0c       0x10 arch/arm/cpu/armv7/start.o
 .rel.text.sunxi_musb_exit
                0x000000004a052f1c        0x8 arch/arm/cpu/armv7/start.o
 .rel.text.sunxi_musb_init
                0x000000004a052f24       0x10 arch/arm/cpu/armv7/start.o
 .rel.text.sunxi_musb_interrupt
                0x000000004a052f34        0x8 arch/arm/cpu/armv7/start.o
 .rel.text.musb_usb_probe
                0x000000004a052f3c       0x20 arch/arm/cpu/armv7/start.o
 .rel.text.sunxi_musb_disable
                0x000000004a052f5c       0x10 arch/arm/cpu/armv7/start.o
 .rel.text.sunxi_musb_enable
                0x000000004a052f6c       0x20 arch/arm/cpu/armv7/start.o
 .rel.rodata.musb_ep_ops
                0x000000004a052f8c       0x48 arch/arm/cpu/armv7/start.o
 .rel.rodata.musb_gadget_operations
                0x000000004a052fd4       0x28 arch/arm/cpu/armv7/start.o
 .rel.rodata.CSWTCH.6
                0x000000004a052ffc       0x38 arch/arm/cpu/armv7/start.o
 .rel.rodata.musb_g_ep0_ops
                0x000000004a053034       0x38 arch/arm/cpu/armv7/start.o
 .rel.rodata.CSWTCH.48
                0x000000004a05306c       0x30 arch/arm/cpu/armv7/start.o
 .rel.rodata.sun4i_a10_cfg
                0x000000004a05309c        0x8 arch/arm/cpu/armv7/start.o
 .rel.rodata.sun6i_a31_cfg
                0x000000004a0530a4        0x8 arch/arm/cpu/armv7/start.o
 .rel.rodata.sun8i_h3_cfg
                0x000000004a0530ac        0x8 arch/arm/cpu/armv7/start.o
 .rel.rodata.sunxi_musb_ids
                0x000000004a0530b4       0x40 arch/arm/cpu/armv7/start.o
 .rel.rodata.sunxi_musb_ops
                0x000000004a0530f4       0x30 arch/arm/cpu/armv7/start.o
 .rel.data.musb_config
                0x000000004a053124        0x8 arch/arm/cpu/armv7/start.o
 .rel.data.musb_config_h3
                0x000000004a05312c        0x8 arch/arm/cpu/armv7/start.o
 .rel.u_boot_list_2_driver_2_usb_musb
                0x000000004a053134       0x20 arch/arm/cpu/armv7/start.o
 .rel.text.set_default_env
                0x000000004a053154       0x28 arch/arm/cpu/armv7/start.o
 .rel.text.set_default_vars
                0x000000004a05317c       0x10 arch/arm/cpu/armv7/start.o
 .rel.text.env_complete
                0x000000004a05318c       0x18 arch/arm/cpu/armv7/start.o
 .rel.text.env_driver_lookup
                0x000000004a0531a4       0x10 arch/arm/cpu/armv7/start.o
 .rel.text.env_get_char
                0x000000004a0531b4        0x8 arch/arm/cpu/armv7/start.o
 .rel.text.env_load
                0x000000004a0531bc       0x10 arch/arm/cpu/armv7/start.o
 .rel.text.env_init
                0x000000004a0531cc        0x8 arch/arm/cpu/armv7/start.o
 .rel.text.regex_callback
                0x000000004a0531d4       0x10 arch/arm/cpu/armv7/start.o
 .rel.text.env_attr_lookup
                0x000000004a0531e4        0x8 arch/arm/cpu/armv7/start.o
 .rel.text.find_env_callback
                0x000000004a0531ec       0x10 arch/arm/cpu/armv7/start.o
 .rel.text.on_callbacks
                0x000000004a0531fc       0x20 arch/arm/cpu/armv7/start.o
 .rel.text.set_callback
                0x000000004a05321c        0x8 arch/arm/cpu/armv7/start.o
 .rel.text.env_callback_init
                0x000000004a053224       0x20 arch/arm/cpu/armv7/start.o
 .rel.text.skip_num
                0x000000004a053244        0x8 arch/arm/cpu/armv7/start.o
 .rel.text.on_flags
                0x000000004a05324c       0x20 arch/arm/cpu/armv7/start.o
 .rel.text.env_flags_parse_vartype
                0x000000004a05326c       0x10 arch/arm/cpu/armv7/start.o
 .rel.text.env_flags_parse_varaccess
                0x000000004a05327c       0x10 arch/arm/cpu/armv7/start.o
 .rel.text.set_flags
                0x000000004a05328c       0x10 arch/arm/cpu/armv7/start.o
 .rel.text.env_flags_init
                0x000000004a05329c       0x30 arch/arm/cpu/armv7/start.o
 .rel.text.env_flags_validate
                0x000000004a0532cc       0x38 arch/arm/cpu/armv7/start.o
 .rel.text.env_nowhere_init
                0x000000004a053304        0x8 arch/arm/cpu/armv7/start.o
 .rel.data.env_htab
                0x000000004a05330c        0x8 arch/arm/cpu/armv7/start.o
 .rel.u_boot_list_2_env_clbk_2_callbacks
                0x000000004a053314       0x10 arch/arm/cpu/armv7/start.o
 .rel.u_boot_list_2_env_clbk_2_flags
                0x000000004a053324       0x10 arch/arm/cpu/armv7/start.o
 .rel.u_boot_list_2_env_driver_2_nowhere
                0x000000004a053334       0x10 arch/arm/cpu/armv7/start.o
 .rel.text.fs_probe_unsupported
                0x000000004a053344        0x8 arch/arm/cpu/armv7/start.o
 .rel.text.fs_get_info.part.0
                0x000000004a05334c        0x8 arch/arm/cpu/armv7/start.o
 .rel.text.fs_close
                0x000000004a053354        0x8 arch/arm/cpu/armv7/start.o
 .rel.text.fs_set_blk_dev
                0x000000004a05335c       0x28 arch/arm/cpu/armv7/start.o
 .rel.text.fs_set_blk_dev_with_part
                0x000000004a053384       0x20 arch/arm/cpu/armv7/start.o
 .rel.text.fs_ls
                0x000000004a0533a4        0x8 arch/arm/cpu/armv7/start.o
 .rel.text.fs_exists
                0x000000004a0533ac        0x8 arch/arm/cpu/armv7/start.o
 .rel.text.fs_size
                0x000000004a0533b4        0x8 arch/arm/cpu/armv7/start.o
 .rel.text.fs_read
                0x000000004a0533bc        0x8 arch/arm/cpu/armv7/start.o
 .rel.text.fs_write
                0x000000004a0533c4       0x10 arch/arm/cpu/armv7/start.o
 .rel.text.fs_opendir
                0x000000004a0533d4       0x20 arch/arm/cpu/armv7/start.o
 .rel.text.fs_readdir
                0x000000004a0533f4       0x10 arch/arm/cpu/armv7/start.o
 .rel.text.fs_closedir
                0x000000004a053404        0x8 arch/arm/cpu/armv7/start.o
 .rel.text.fs_ls_generic
                0x000000004a05340c       0x20 arch/arm/cpu/armv7/start.o
 .rel.text.fs_unlink
                0x000000004a05342c        0x8 arch/arm/cpu/armv7/start.o
 .rel.text.fs_mkdir
                0x000000004a053434        0x8 arch/arm/cpu/armv7/start.o
 .rel.text.do_size
                0x000000004a05343c        0x8 arch/arm/cpu/armv7/start.o
 .rel.text.do_load
                0x000000004a053444       0x50 arch/arm/cpu/armv7/start.o
 .rel.text.do_ls
                0x000000004a053494        0x8 arch/arm/cpu/armv7/start.o
 .rel.text.do_save
                0x000000004a05349c       0x28 arch/arm/cpu/armv7/start.o
 .rel.text.do_fs_type
                0x000000004a0534c4       0x10 arch/arm/cpu/armv7/start.o
 .rel.text.do_mkdir
                0x000000004a0534d4        0x8 arch/arm/cpu/armv7/start.o
 .rel.text.get_fs
                0x000000004a0534dc        0x8 arch/arm/cpu/armv7/start.o
 .rel.text.ext4fs_free_node
                0x000000004a0534e4        0x8 arch/arm/cpu/armv7/start.o
 .rel.text.ext4fs_read_file
                0x000000004a0534ec        0x8 arch/arm/cpu/armv7/start.o
 .rel.text.ext4fs_ls
                0x000000004a0534f4       0x10 arch/arm/cpu/armv7/start.o
 .rel.text.ext4fs_read
                0x000000004a053504       0x10 arch/arm/cpu/armv7/start.o
 .rel.text.ext4_read_file
                0x000000004a053514        0x8 arch/arm/cpu/armv7/start.o
 .rel.text.ext4fs_uuid
                0x000000004a05351c        0x8 arch/arm/cpu/armv7/start.o
 .rel.text.read_allocated_block
                0x000000004a053524       0xd8 arch/arm/cpu/armv7/start.o
 .rel.text.ext4fs_reinit_global
                0x000000004a0535fc       0x48 arch/arm/cpu/armv7/start.o
 .rel.text.ext4fs_close
                0x000000004a053644       0x10 arch/arm/cpu/armv7/start.o
 .rel.text.ext4fs_iterate_dir
                0x000000004a053654       0x30 arch/arm/cpu/armv7/start.o
 .rel.text.ext4fs_find_file1
                0x000000004a053684       0x10 arch/arm/cpu/armv7/start.o
 .rel.text.ext4fs_find_file
                0x000000004a053694        0x8 arch/arm/cpu/armv7/start.o
 .rel.text.ext4fs_open
                0x000000004a05369c       0x10 arch/arm/cpu/armv7/start.o
 .rel.text.ext4fs_mount
                0x000000004a0536ac       0x10 arch/arm/cpu/armv7/start.o
 .rel.text.ext4fs_set_blk_dev
                0x000000004a0536bc       0x10 arch/arm/cpu/armv7/start.o
 .rel.text.ext4fs_devread
                0x000000004a0536cc        0x8 arch/arm/cpu/armv7/start.o
 .rel.text.downcase
                0x000000004a0536d4        0x8 arch/arm/cpu/armv7/start.o
 .rel.text.disk_read
                0x000000004a0536dc       0x10 arch/arm/cpu/armv7/start.o
 .rel.text.disk_write
                0x000000004a0536ec       0x20 arch/arm/cpu/armv7/start.o
 .rel.text.get_fatent
                0x000000004a05370c        0x8 arch/arm/cpu/armv7/start.o
 .rel.text.read_bootsectandvi
                0x000000004a053714       0x20 arch/arm/cpu/armv7/start.o
 .rel.text.fat_itr_root
                0x000000004a053734       0x10 arch/arm/cpu/armv7/start.o
 .rel.text.split_filename
                0x000000004a053744        0x8 arch/arm/cpu/armv7/start.o
 .rel.text.normalize_longname
                0x000000004a05374c        0x8 arch/arm/cpu/armv7/start.o
 .rel.text.set_name
                0x000000004a053754        0x8 arch/arm/cpu/armv7/start.o
 .rel.text.set_contents
                0x000000004a05375c       0x28 arch/arm/cpu/armv7/start.o
 .rel.text.fat_itr_resolve
                0x000000004a053784       0x10 arch/arm/cpu/armv7/start.o
 .rel.text.flush_dir_table
                0x000000004a053794        0x8 arch/arm/cpu/armv7/start.o
 .rel.text.fat_set_blk_dev
                0x000000004a05379c       0x28 arch/arm/cpu/armv7/start.o
 .rel.text.file_fat_detectfs
                0x000000004a0537c4       0x70 arch/arm/cpu/armv7/start.o
 .rel.text.file_fat_read_at
                0x000000004a053834       0x18 arch/arm/cpu/armv7/start.o
 .rel.text.fat_read_file
                0x000000004a05384c        0x8 arch/arm/cpu/armv7/start.o
 .rel.text.file_fat_write_at
                0x000000004a053854       0x48 arch/arm/cpu/armv7/start.o
 .rel.text.fat_unlink
                0x000000004a05389c       0x50 arch/arm/cpu/armv7/start.o
 .rel.text.fat_mkdir
                0x000000004a0538ec       0x68 arch/arm/cpu/armv7/start.o
 .rel.text.fs_devread
                0x000000004a053954       0x30 arch/arm/cpu/armv7/start.o
 .rel.data.fstypes
                0x000000004a053984      0x130 arch/arm/cpu/armv7/start.o
 .rel.text.efi_uc_destroy
                0x000000004a053ab4        0x8 arch/arm/cpu/armv7/start.o
 .rel.text.efi_uc_init
                0x000000004a053abc        0x8 arch/arm/cpu/armv7/start.o
 .rel.text.check_node_type
                0x000000004a053ac4       0x10 arch/arm/cpu/armv7/start.o
 .rel.text.efi_uc_start
                0x000000004a053ad4        0x8 arch/arm/cpu/armv7/start.o
 .rel.text.efi_uc_supported
                0x000000004a053adc        0x8 arch/arm/cpu/armv7/start.o
 .rel.text.disconnect_child
                0x000000004a053ae4        0x8 arch/arm/cpu/armv7/start.o
 .rel.text.efi_uc_stop
                0x000000004a053aec       0x20 arch/arm/cpu/armv7/start.o
 .rel.text.efi_driver_init
                0x000000004a053b0c       0x40 arch/arm/cpu/armv7/start.o
 .rel.text.get_var.constprop.0
                0x000000004a053b4c       0x10 arch/arm/cpu/armv7/start.o
 .rel.text.efi_bootmgr_load
                0x000000004a053b5c       0x30 arch/arm/cpu/armv7/start.o
 .rel.text.efi_is_event
                0x000000004a053b8c        0x8 arch/arm/cpu/armv7/start.o
 .rel.text.__efi_entry_check
                0x000000004a053b94       0x18 arch/arm/cpu/armv7/start.o
 .rel.text.__efi_exit_check
                0x000000004a053bac       0x10 arch/arm/cpu/armv7/start.o
 .rel.text.efi_queue_event
                0x000000004a053bbc        0x8 arch/arm/cpu/armv7/start.o
 .rel.text.efi_get_next_monotonic_count
                0x000000004a053bc4        0x8 arch/arm/cpu/armv7/start.o
 .rel.text.efi_start_image
                0x000000004a053bcc       0x10 arch/arm/cpu/armv7/start.o
 .rel.text.efi_raise_tpl
                0x000000004a053bdc        0x8 arch/arm/cpu/armv7/start.o
 .rel.text.efi_save_gd
                0x000000004a053be4        0x8 arch/arm/cpu/armv7/start.o
 .rel.text.efi_restore_gd
                0x000000004a053bec        0x8 arch/arm/cpu/armv7/start.o
 .rel.text.efi_exit
                0x000000004a053bf4        0x8 arch/arm/cpu/armv7/start.o
 .rel.text.efi_signal_event
                0x000000004a053bfc        0x8 arch/arm/cpu/armv7/start.o
 .rel.text.efi_exit_boot_services
                0x000000004a053c04       0x28 arch/arm/cpu/armv7/start.o
 .rel.text.efi_add_handle
                0x000000004a053c2c        0x8 arch/arm/cpu/armv7/start.o
 .rel.text.efi_create_event
                0x000000004a053c34        0x8 arch/arm/cpu/armv7/start.o
 .rel.text.efi_timer_check
                0x000000004a053c3c        0x8 arch/arm/cpu/armv7/start.o
 .rel.text.efi_wait_for_event
                0x000000004a053c44        0x8 arch/arm/cpu/armv7/start.o
 .rel.text.efi_restore_tpl
                0x000000004a053c4c        0x8 arch/arm/cpu/armv7/start.o
 .rel.text.efi_search_obj
                0x000000004a053c54        0x8 arch/arm/cpu/armv7/start.o
 .rel.text.efi_locate_protocol
                0x000000004a053c5c        0x8 arch/arm/cpu/armv7/start.o
 .rel.text.efi_locate_handle
                0x000000004a053c64        0x8 arch/arm/cpu/armv7/start.o
 .rel.text.efi_locate_device_path
                0x000000004a053c6c        0x8 arch/arm/cpu/armv7/start.o
 .rel.text.efi_disconnect_controller
                0x000000004a053c74        0x8 arch/arm/cpu/armv7/start.o
 .rel.text.efi_bind_controller
                0x000000004a053c7c        0x8 arch/arm/cpu/armv7/start.o
 .rel.text.efi_connect_controller
                0x000000004a053c84        0x8 arch/arm/cpu/armv7/start.o
 .rel.text.efi_add_protocol
                0x000000004a053c8c        0x8 arch/arm/cpu/armv7/start.o
 .rel.text.efi_install_configuration_table
                0x000000004a053c94       0x10 arch/arm/cpu/armv7/start.o
 .rel.text.efi_setup_loaded_image
                0x000000004a053ca4       0x20 arch/arm/cpu/armv7/start.o
 .rel.text.efi_load_image_from_path
                0x000000004a053cc4       0x10 arch/arm/cpu/armv7/start.o
 .rel.text.efi_load_image
                0x000000004a053cd4        0x8 arch/arm/cpu/armv7/start.o
 .rel.text.efi_initialize_system_table
                0x000000004a053cdc       0x18 arch/arm/cpu/armv7/start.o
 .rel.text.efi_cout_enable_cursor
                0x000000004a053cf4        0x8 arch/arm/cpu/armv7/start.o
 .rel.text.efi_cout_set_cursor_position
                0x000000004a053cfc       0x18 arch/arm/cpu/armv7/start.o
 .rel.text.efi_cout_clear_screen
                0x000000004a053d14       0x10 arch/arm/cpu/armv7/start.o
 .rel.text.efi_cout_set_attribute
                0x000000004a053d24       0x18 arch/arm/cpu/armv7/start.o
 .rel.text.efi_cout_set_mode
                0x000000004a053d3c        0x8 arch/arm/cpu/armv7/start.o
 .rel.text.efi_cout_reset
                0x000000004a053d44        0x8 arch/arm/cpu/armv7/start.o
 .rel.text.efi_cout_output_string
                0x000000004a053d4c       0x10 arch/arm/cpu/armv7/start.o
 .rel.text.efi_cin_unregister_key_notify
                0x000000004a053d5c        0x8 arch/arm/cpu/armv7/start.o
 .rel.text.efi_cin_empty_buffer
                0x000000004a053d64        0x8 arch/arm/cpu/armv7/start.o
 .rel.text.efi_cin_register_key_notify
                0x000000004a053d6c        0x8 arch/arm/cpu/armv7/start.o
 .rel.text.efi_cout_query_mode
                0x000000004a053d74       0x10 arch/arm/cpu/armv7/start.o
 .rel.text.analyze_modifiers.constprop.5
                0x000000004a053d84        0x8 arch/arm/cpu/armv7/start.o
 .rel.text.efi_cin_check
                0x000000004a053d8c      0x1a0 arch/arm/cpu/armv7/start.o
 .rel.text.efi_cin_read_key_stroke
                0x000000004a053f2c       0x18 arch/arm/cpu/armv7/start.o
 .rel.text.efi_cin_read_key_stroke_ex
                0x000000004a053f44       0x18 arch/arm/cpu/armv7/start.o
 .rel.text.efi_console_register
                0x000000004a053f5c       0xa0 arch/arm/cpu/armv7/start.o
 .rel.text.dp_fill.part.1
                0x000000004a053ffc        0x8 arch/arm/cpu/armv7/start.o
 .rel.text.find_obj
                0x000000004a054004       0x10 arch/arm/cpu/armv7/start.o
 .rel.text.efi_dp_append
                0x000000004a054014        0x8 arch/arm/cpu/armv7/start.o
 .rel.text.efi_dp_append_node
                0x000000004a05401c        0x8 arch/arm/cpu/armv7/start.o
 .rel.text.efi_dp_append_instance
                0x000000004a054024        0x8 arch/arm/cpu/armv7/start.o
 .rel.text.efi_dp_from_part
                0x000000004a05402c       0x10 arch/arm/cpu/armv7/start.o
 .rel.text.efi_dp_from_file
                0x000000004a05403c       0x10 arch/arm/cpu/armv7/start.o
 .rel.text.efi_dp_from_eth
                0x000000004a05404c        0x8 arch/arm/cpu/armv7/start.o
 .rel.text.efi_dp_from_mem
                0x000000004a054054        0x8 arch/arm/cpu/armv7/start.o
 .rel.text.dp_unknown
                0x000000004a05405c        0x8 arch/arm/cpu/armv7/start.o
 .rel.text.efi_convert_single_device_node_to_text
                0x000000004a054064       0x90 arch/arm/cpu/armv7/start.o
 .rel.text.efi_file_getinfo
                0x000000004a0540f4       0x10 arch/arm/cpu/armv7/start.o
 .rel.text.file_open
                0x000000004a054104       0x28 arch/arm/cpu/armv7/start.o
 .rel.text.efi_file_from_path
                0x000000004a05412c        0x8 arch/arm/cpu/armv7/start.o
 .rel.text.efi_simple_file_system
                0x000000004a054134        0x8 arch/arm/cpu/armv7/start.o
 .rel.text.efi_set_code_and_data_type
                0x000000004a05413c       0x10 arch/arm/cpu/armv7/start.o
 .rel.text.efi_print_image_infos
                0x000000004a05414c       0x38 arch/arm/cpu/armv7/start.o
 .rel.text.efi_load_pe
                0x000000004a054184       0x40 arch/arm/cpu/armv7/start.o
 .rel.text.efi_find_free_memory
                0x000000004a0541c4        0x8 arch/arm/cpu/armv7/start.o
 .rel.text.efi_add_memory_map
                0x000000004a0541cc       0x18 arch/arm/cpu/armv7/start.o
 .rel.text.efi_get_memory_map
                0x000000004a0541e4       0x10 arch/arm/cpu/armv7/start.o
 .rel.text.efi_memory_init
                0x000000004a0541f4       0x10 arch/arm/cpu/armv7/start.o
 .rel.text.efi_root_node_register
                0x000000004a054204       0x40 arch/arm/cpu/armv7/start.o
 .rel.text.efi_reset_system_boottime
                0x000000004a054244       0x10 arch/arm/cpu/armv7/start.o
 .rel.text.efi_runtime_relocate
                0x000000004a054254       0x28 arch/arm/cpu/armv7/start.o
 .rel.text.efi_set_virtual_address_map
                0x000000004a05427c       0x28 arch/arm/cpu/armv7/start.o
 .rel.text.efi_str_to_fat
                0x000000004a0542a4       0x10 arch/arm/cpu/armv7/start.o
 .rel.text.efi_fat_to_str
                0x000000004a0542b4        0x8 arch/arm/cpu/armv7/start.o
 .rel.text.efi_to_native
                0x000000004a0542bc       0x10 arch/arm/cpu/armv7/start.o
 .rel.text.parse_attr.part.0
                0x000000004a0542cc       0x20 arch/arm/cpu/armv7/start.o
 .rel.text.efi_get_variable
                0x000000004a0542ec       0x10 arch/arm/cpu/armv7/start.o
 .rel.text.efi_set_variable
                0x000000004a0542fc       0x40 arch/arm/cpu/armv7/start.o
 .rel.text.efi_watchdog_timer_notify
                0x000000004a05433c       0x10 arch/arm/cpu/armv7/start.o
 .rel.text.efi_set_watchdog
                0x000000004a05434c        0x8 arch/arm/cpu/armv7/start.o
 .rel.text.efi_watchdog_register
                0x000000004a054354       0x20 arch/arm/cpu/armv7/start.o
 .rel.text.efi_disk_add_dev.isra.0.part.1
                0x000000004a054374       0x38 arch/arm/cpu/armv7/start.o
 .rel.text.efi_fs_from_path
                0x000000004a0543ac        0x8 arch/arm/cpu/armv7/start.o
 .rel.text.efi_disk_create_partitions
                0x000000004a0543b4       0x18 arch/arm/cpu/armv7/start.o
 .rel.text.efi_disk_register
                0x000000004a0543cc       0x28 arch/arm/cpu/armv7/start.o
 .rel.text.efi_net_push
                0x000000004a0543f4       0x10 arch/arm/cpu/armv7/start.o
 .rel.text.efi_network_timer_notify
                0x000000004a054404       0x18 arch/arm/cpu/armv7/start.o
 .rel.text.efi_net_get_status
                0x000000004a05441c       0x10 arch/arm/cpu/armv7/start.o
 .rel.text.efi_net_receive
                0x000000004a05442c       0x18 arch/arm/cpu/armv7/start.o
 .rel.text.efi_net_transmit
                0x000000004a054444        0x8 arch/arm/cpu/armv7/start.o
 .rel.text.efi_net_set_dhcp_ack
                0x000000004a05444c        0x8 arch/arm/cpu/armv7/start.o
 .rel.text.efi_net_register
                0x000000004a054454       0xc0 arch/arm/cpu/armv7/start.o
 .rel.text.efi_smbios_register
                0x000000004a054514        0x8 arch/arm/cpu/armv7/start.o
 .rel.text.console_read_unicode
                0x000000004a05451c        0x8 arch/arm/cpu/armv7/start.o
 .rel.text.utf8_get
                0x000000004a054524        0x8 arch/arm/cpu/armv7/start.o
 .rel.text.utf_to_lower
                0x000000004a05452c        0x8 arch/arm/cpu/armv7/start.o
 .rel.text.utf_to_upper
                0x000000004a054534        0x8 arch/arm/cpu/armv7/start.o
 .rel.text.crc16_ccitt
                0x000000004a05453c        0x8 arch/arm/cpu/armv7/start.o
 .rel.text.smbios_write_type3
                0x000000004a054544        0x8 arch/arm/cpu/armv7/start.o
 .rel.text.smbios_write_type2
                0x000000004a05454c       0x10 arch/arm/cpu/armv7/start.o
 .rel.text.smbios_write_type0
                0x000000004a05455c       0x18 arch/arm/cpu/armv7/start.o
 .rel.text.smbios_write_type1
                0x000000004a054574       0x18 arch/arm/cpu/armv7/start.o
 .rel.text.smbios_write_type4
                0x000000004a05458c        0x8 arch/arm/cpu/armv7/start.o
 .rel.text.write_smbios_table
                0x000000004a054594       0x18 arch/arm/cpu/armv7/start.o
 .rel.text.initcall_run_list
                0x000000004a0545ac        0x8 arch/arm/cpu/armv7/start.o
 .rel.text.lmb_alloc_base
                0x000000004a0545b4        0x8 arch/arm/cpu/armv7/start.o
 .rel.text.list_sort
                0x000000004a0545bc        0x8 arch/arm/cpu/armv7/start.o
 .rel.text.inflate_fast
                0x000000004a0545c4       0x18 arch/arm/cpu/armv7/start.o
 .rel.text.inflate_table
                0x000000004a0545dc       0x20 arch/arm/cpu/armv7/start.o
 .rel.text.inflateInit2_
                0x000000004a0545fc       0x10 arch/arm/cpu/armv7/start.o
 .rel.text.inflate
                0x000000004a05460c       0xa0 arch/arm/cpu/armv7/start.o
 .rel.text.gzip_parse_header
                0x000000004a0546ac       0x10 arch/arm/cpu/armv7/start.o
 .rel.text.zunzip
                0x000000004a0546bc       0x28 arch/arm/cpu/armv7/start.o
 .rel.text.fdt_next_tag
                0x000000004a0546e4       0x48 arch/arm/cpu/armv7/start.o
 .rel.text.fdt_strerror
                0x000000004a05472c       0x20 arch/arm/cpu/armv7/start.o
 .rel.text.fdt_address_cells
                0x000000004a05474c        0x8 arch/arm/cpu/armv7/start.o
 .rel.text.fdt_size_cells
                0x000000004a054754        0x8 arch/arm/cpu/armv7/start.o
 .rel.text.overlay_adjust_node_phandles
                0x000000004a05475c       0x10 arch/arm/cpu/armv7/start.o
 .rel.text.overlay_get_target
                0x000000004a05476c       0x10 arch/arm/cpu/armv7/start.o
 .rel.text.fdt_overlay_apply
                0x000000004a05477c       0x38 arch/arm/cpu/armv7/start.o
 .rel.text.fdt_get_phandle
                0x000000004a0547b4       0x10 arch/arm/cpu/armv7/start.o
 .rel.text.fdt_get_alias_namelen
                0x000000004a0547c4        0x8 arch/arm/cpu/armv7/start.o
 .rel.text.fdt_node_check_compatible
                0x000000004a0547cc        0x8 arch/arm/cpu/armv7/start.o
 .rel.text.fdtdec_get_is_enabled
                0x000000004a0547d4       0x10 arch/arm/cpu/armv7/start.o
 .rel.text.fdtdec_get_alias_seq
                0x000000004a0547e4        0x8 arch/arm/cpu/armv7/start.o
 .rel.text.fdtdec_get_chosen_prop
                0x000000004a0547ec        0x8 arch/arm/cpu/armv7/start.o
 .rel.text.fdtdec_prepare_fdt
                0x000000004a0547f4        0x8 arch/arm/cpu/armv7/start.o
 .rel.text.fdtdec_get_config_int
                0x000000004a0547fc        0x8 arch/arm/cpu/armv7/start.o
 .rel.text.fdtdec_get_config_string
                0x000000004a054804        0x8 arch/arm/cpu/armv7/start.o
 .rel.text.board_fdt_blob_setup
                0x000000004a05480c        0x8 arch/arm/cpu/armv7/start.o
 .rel.text.fdtdec_setup
                0x000000004a054814        0x8 arch/arm/cpu/armv7/start.o
 .rel.text.match_string
                0x000000004a05481c        0x8 arch/arm/cpu/armv7/start.o
 .rel.text.match_entry
                0x000000004a054824        0x8 arch/arm/cpu/armv7/start.o
 .rel.text.hcreate_r
                0x000000004a05482c        0x8 arch/arm/cpu/armv7/start.o
 .rel.text.hdestroy_r
                0x000000004a054834        0x8 arch/arm/cpu/armv7/start.o
 .rel.text.hmatch_r
                0x000000004a05483c        0x8 arch/arm/cpu/armv7/start.o
 .rel.text.hsearch_r
                0x000000004a054844        0x8 arch/arm/cpu/armv7/start.o
 .rel.text.hdelete_r
                0x000000004a05484c        0x8 arch/arm/cpu/armv7/start.o
 .rel.text.hexport_r
                0x000000004a054854       0x18 arch/arm/cpu/armv7/start.o
 .rel.text.himport_r
                0x000000004a05486c       0x20 arch/arm/cpu/armv7/start.o
 .rel.text.display_options_get_banner_priv
                0x000000004a05488c       0x28 arch/arm/cpu/armv7/start.o
 .rel.text.display_options
                0x000000004a0548b4        0x8 arch/arm/cpu/armv7/start.o
 .rel.text.print_size
                0x000000004a0548bc       0x28 arch/arm/cpu/armv7/start.o
 .rel.text.print_buffer
                0x000000004a0548e4       0x28 arch/arm/cpu/armv7/start.o
 .rel.text.hang
                0x000000004a05490c        0x8 arch/arm/cpu/armv7/start.o
 .rel.text.skip_spaces
                0x000000004a054914        0x8 arch/arm/cpu/armv7/start.o
 .rel.text.strim
                0x000000004a05491c        0x8 arch/arm/cpu/armv7/start.o
 .rel.text.emit
                0x000000004a054924        0x8 arch/arm/cpu/armv7/start.o
 .rel.text.store_char_in_data
                0x000000004a05492c        0x8 arch/arm/cpu/armv7/start.o
 .rel.text.match
                0x000000004a054934       0x10 arch/arm/cpu/armv7/start.o
 .rel.text.quantifier
                0x000000004a054944        0x8 arch/arm/cpu/armv7/start.o
 .rel.text.fixup_branch
                0x000000004a05494c        0x8 arch/arm/cpu/armv7/start.o
 .rel.text.compile
                0x000000004a054954       0x28 arch/arm/cpu/armv7/start.o
 .rel.text.slre_compile
                0x000000004a05497c        0x8 arch/arm/cpu/armv7/start.o
 .rel.text.strncasecmp
                0x000000004a054984        0x8 arch/arm/cpu/armv7/start.o
 .rel.text.uuid_str_valid
                0x000000004a05498c        0x8 arch/arm/cpu/armv7/start.o
 .rel.text.uuid_bin_to_str
                0x000000004a054994       0x18 arch/arm/cpu/armv7/start.o
 .rel.text.rand
                0x000000004a0549ac        0x8 arch/arm/cpu/armv7/start.o
 .rel.text.number
                0x000000004a0549b4        0x8 arch/arm/cpu/armv7/start.o
 .rel.text.string16
                0x000000004a0549bc        0x8 arch/arm/cpu/armv7/start.o
 .rel.text.string
                0x000000004a0549c4        0x8 arch/arm/cpu/armv7/start.o
 .rel.text.vsnprintf_internal
                0x000000004a0549cc       0x18 arch/arm/cpu/armv7/start.o
 .rel.text.simple_itoa
                0x000000004a0549e4        0x8 arch/arm/cpu/armv7/start.o
 .rel.text._parse_integer_fixup_radix
                0x000000004a0549ec        0x8 arch/arm/cpu/armv7/start.o
 .rel.text.simple_strtoul
                0x000000004a0549f4        0x8 arch/arm/cpu/armv7/start.o
 .rel.text.simple_strtoull
                0x000000004a0549fc        0x8 arch/arm/cpu/armv7/start.o
 .rel.text.trailing_strtoln
                0x000000004a054a04        0x8 arch/arm/cpu/armv7/start.o
 .rel.rodata.efi_device_path_to_text
                0x000000004a054a0c       0x10 arch/arm/cpu/armv7/start.o
 .rel.rodata.efi_device_path_utilities
                0x000000004a054a1c       0x40 arch/arm/cpu/armv7/start.o
 .rel.rodata.efi_file_handle_protocol
                0x000000004a054a5c       0x50 arch/arm/cpu/armv7/start.o
 .rel.rodata.efi_runtime_detach_list
                0x000000004a054aac       0x80 arch/arm/cpu/armv7/start.o
 .rel.rodata.efi_unicode_collation_protocol
                0x000000004a054b2c       0x38 arch/arm/cpu/armv7/start.o
 .rel.rodata.smbios_write_funcs
                0x000000004a054b64       0x38 arch/arm/cpu/armv7/start.o
 .rel.rodata.fdt_errtable
                0x000000004a054b9c       0x88 arch/arm/cpu/armv7/start.o
 .rel.u_boot_list_2_uclass_2_efi
                0x000000004a054c24       0x18 arch/arm/cpu/armv7/start.o
 .rel.data.efi_boot_services
                0x000000004a054c3c      0x158 arch/arm/cpu/armv7/start.o
 .rel.data.efi_events
                0x000000004a054d94       0x10 arch/arm/cpu/armv7/start.o
 .rel.data.efi_obj_list
                0x000000004a054da4       0x10 arch/arm/cpu/armv7/start.o
 .rel.data.cin_notify_functions
                0x000000004a054db4       0x10 arch/arm/cpu/armv7/start.o
 .rel.data.efi_con_in
                0x000000004a054dc4       0x10 arch/arm/cpu/armv7/start.o
 .rel.data.efi_con_in_ex
                0x000000004a054dd4       0x28 arch/arm/cpu/armv7/start.o
 .rel.data.efi_con_out
                0x000000004a054dfc       0x50 arch/arm/cpu/armv7/start.o
 .rel.data.efi_mem
                0x000000004a054e4c       0x10 arch/arm/cpu/armv7/start.o
 .rel.data.efi_runtime_mmio
                0x000000004a054e5c       0x10 arch/arm/cpu/armv7/start.o
 .rel.text.arp_init
                0x000000004a054e6c       0x30 arch/arm/cpu/armv7/start.o
 .rel.text.arp_raw_request
                0x000000004a054e9c       0x18 arch/arm/cpu/armv7/start.o
 .rel.text.arp_request
                0x000000004a054eb4       0x38 arch/arm/cpu/armv7/start.o
 .rel.text.arp_timeout_check
                0x000000004a054eec       0x28 arch/arm/cpu/armv7/start.o
 .rel.text.arp_receive
                0x000000004a054f14       0x40 arch/arm/cpu/armv7/start.o
 .rel.text.dhcp_extended
                0x000000004a054f54       0x28 arch/arm/cpu/armv7/start.o
 .rel.text.dhcp_process_options
                0x000000004a054f7c       0x70 arch/arm/cpu/armv7/start.o
 .rel.text.dhcp_packet_process_options
                0x000000004a054fec        0x8 arch/arm/cpu/armv7/start.o
 .rel.text.dhcp_handler
                0x000000004a054ff4       0x98 arch/arm/cpu/armv7/start.o
 .rel.text.bootp_reset
                0x000000004a05508c       0x20 arch/arm/cpu/armv7/start.o
 .rel.text.bootp_request
                0x000000004a0550ac       0x78 arch/arm/cpu/armv7/start.o
 .rel.text.bootp_timeout_handler
                0x000000004a055124       0x28 arch/arm/cpu/armv7/start.o
 .rel.text.eth_post_probe
                0x000000004a05514c       0x30 arch/arm/cpu/armv7/start.o
 .rel.text.eth_write_hwaddr
                0x000000004a05517c       0x10 arch/arm/cpu/armv7/start.o
 .rel.text.eth_post_bind
                0x000000004a05518c        0x8 arch/arm/cpu/armv7/start.o
 .rel.text.eth_get_dev
                0x000000004a055194        0x8 arch/arm/cpu/armv7/start.o
 .rel.text.eth_set_dev
                0x000000004a05519c        0x8 arch/arm/cpu/armv7/start.o
 .rel.text.eth_get_dev_by_name
                0x000000004a0551a4        0x8 arch/arm/cpu/armv7/start.o
 .rel.text.eth_init
                0x000000004a0551ac       0x28 arch/arm/cpu/armv7/start.o
 .rel.text.eth_initialize
                0x000000004a0551d4       0x28 arch/arm/cpu/armv7/start.o
 .rel.text.eth_env_get_enetaddr_by_index
                0x000000004a0551fc       0x10 arch/arm/cpu/armv7/start.o
 .rel.text.eth_env_set_enetaddr_by_index
                0x000000004a05520c       0x10 arch/arm/cpu/armv7/start.o
 .rel.text.eth_mac_skip
                0x000000004a05521c       0x10 arch/arm/cpu/armv7/start.o
 .rel.text.eth_get_name
                0x000000004a05522c        0x8 arch/arm/cpu/armv7/start.o
 .rel.text.eth_current_changed
                0x000000004a055234       0x18 arch/arm/cpu/armv7/start.o
 .rel.text.eth_try_another
                0x000000004a05524c       0x20 arch/arm/cpu/armv7/start.o
 .rel.text.eth_set_current
                0x000000004a05526c       0x20 arch/arm/cpu/armv7/start.o
 .rel.text.net_clear_handlers
                0x000000004a05528c       0x20 arch/arm/cpu/armv7/start.o
 .rel.text.start_again_timeout_handler
                0x000000004a0552ac        0x8 arch/arm/cpu/armv7/start.o
 .rel.text.on_ipaddr
                0x000000004a0552b4        0x8 arch/arm/cpu/armv7/start.o
 .rel.text.on_gatewayip
                0x000000004a0552bc        0x8 arch/arm/cpu/armv7/start.o
 .rel.text.on_netmask
                0x000000004a0552c4        0x8 arch/arm/cpu/armv7/start.o
 .rel.text.on_serverip
                0x000000004a0552cc        0x8 arch/arm/cpu/armv7/start.o
 .rel.text.net_init_loop.part.0
                0x000000004a0552d4        0x8 arch/arm/cpu/armv7/start.o
 .rel.text.net_init
                0x000000004a0552dc       0x20 arch/arm/cpu/armv7/start.o
 .rel.text.net_start_again
                0x000000004a0552fc       0x78 arch/arm/cpu/armv7/start.o
 .rel.text.net_set_udp_handler
                0x000000004a055374       0x10 arch/arm/cpu/armv7/start.o
 .rel.text.net_get_arp_handler
                0x000000004a055384        0x8 arch/arm/cpu/armv7/start.o
 .rel.text.net_set_timeout_handler
                0x000000004a05538c       0x18 arch/arm/cpu/armv7/start.o
 .rel.text.net_process_received_packet
                0x000000004a0553a4       0x40 arch/arm/cpu/armv7/start.o
 .rel.text.net_eth_hdr_size
                0x000000004a0553e4        0x8 arch/arm/cpu/armv7/start.o
 .rel.text.net_set_ether
                0x000000004a0553ec       0x10 arch/arm/cpu/armv7/start.o
 .rel.text.net_update_ether
                0x000000004a0553fc        0x8 arch/arm/cpu/armv7/start.o
 .rel.text.net_set_ip_header
                0x000000004a055404        0x8 arch/arm/cpu/armv7/start.o
 .rel.text.net_set_udp_header
                0x000000004a05540c        0x8 arch/arm/cpu/armv7/start.o
 .rel.text.net_send_udp_packet
                0x000000004a055414       0x40 arch/arm/cpu/armv7/start.o
 .rel.text.is_serverip_in_cmd
                0x000000004a055454        0x8 arch/arm/cpu/armv7/start.o
 .rel.text.net_check_prereq
                0x000000004a05545c       0x58 arch/arm/cpu/armv7/start.o
 .rel.text.net_auto_load
                0x000000004a0554b4       0x28 arch/arm/cpu/armv7/start.o
 .rel.text.net_loop
                0x000000004a0554dc       0x80 arch/arm/cpu/armv7/start.o
 .rel.text.net_parse_bootfile
                0x000000004a05555c        0x8 arch/arm/cpu/armv7/start.o
 .rel.text.ip_to_string
                0x000000004a055564        0x8 arch/arm/cpu/armv7/start.o
 .rel.text.on_nvlan
                0x000000004a05556c        0x8 arch/arm/cpu/armv7/start.o
 .rel.text.on_vlan
                0x000000004a055574        0x8 arch/arm/cpu/armv7/start.o
 .rel.text.rpc_lookup_reply
                0x000000004a05557c       0x18 arch/arm/cpu/armv7/start.o
 .rel.text.nfs_mount_reply
                0x000000004a055594       0x18 arch/arm/cpu/armv7/start.o
 .rel.text.nfs_umountall_reply
                0x000000004a0555ac       0x18 arch/arm/cpu/armv7/start.o
 .rel.text.nfs_lookup_reply
                0x000000004a0555c4       0x30 arch/arm/cpu/armv7/start.o
 .rel.text.nfs_readlink_reply
                0x000000004a0555f4       0x20 arch/arm/cpu/armv7/start.o
 .rel.text.rpc_req
                0x000000004a055614       0x40 arch/arm/cpu/armv7/start.o
 .rel.text.nfs_read_req
                0x000000004a055654       0x18 arch/arm/cpu/armv7/start.o
 .rel.text.nfs_read_reply.isra.0
                0x000000004a05566c       0x30 arch/arm/cpu/armv7/start.o
 .rel.text.nfs_umountall_req
                0x000000004a05569c       0x10 arch/arm/cpu/armv7/start.o
 .rel.text.nfs_readlink_req
                0x000000004a0556ac       0x18 arch/arm/cpu/armv7/start.o
 .rel.text.nfs_lookup_req
                0x000000004a0556c4       0x10 arch/arm/cpu/armv7/start.o
 .rel.text.nfs_send
                0x000000004a0556d4       0x30 arch/arm/cpu/armv7/start.o
 .rel.text.nfs_handler
                0x000000004a055704       0x70 arch/arm/cpu/armv7/start.o
 .rel.text.nfs_timeout_handler
                0x000000004a055774       0x20 arch/arm/cpu/armv7/start.o
 .rel.text.nfs_start
                0x000000004a055794       0xd0 arch/arm/cpu/armv7/start.o
 .rel.text.ping_timeout_handler
                0x000000004a055864        0x8 arch/arm/cpu/armv7/start.o
 .rel.text.ping_start
                0x000000004a05586c       0x58 arch/arm/cpu/armv7/start.o
 .rel.text.ping_receive
                0x000000004a0558c4       0x20 arch/arm/cpu/armv7/start.o
 .rel.text.tftp_send
                0x000000004a0558e4       0x80 arch/arm/cpu/armv7/start.o
 .rel.text.tftp_handler
                0x000000004a055964       0xd0 arch/arm/cpu/armv7/start.o
 .rel.text.tftp_timeout_handler
                0x000000004a055a34       0x40 arch/arm/cpu/armv7/start.o
 .rel.text.tftp_start
                0x000000004a055a74      0x140 arch/arm/cpu/armv7/start.o
 .rel.u_boot_list_2_env_clbk_2_ethaddr
                0x000000004a055bb4       0x10 arch/arm/cpu/armv7/start.o
 .rel.u_boot_list_2_uclass_2_eth
                0x000000004a055bc4       0x28 arch/arm/cpu/armv7/start.o
 .rel.u_boot_list_2_env_clbk_2_gatewayip
                0x000000004a055bec       0x10 arch/arm/cpu/armv7/start.o
 .rel.u_boot_list_2_env_clbk_2_ipaddr
                0x000000004a055bfc       0x10 arch/arm/cpu/armv7/start.o
 .rel.u_boot_list_2_env_clbk_2_netmask
                0x000000004a055c0c       0x10 arch/arm/cpu/armv7/start.o
 .rel.u_boot_list_2_env_clbk_2_nvlan
                0x000000004a055c1c       0x10 arch/arm/cpu/armv7/start.o
 .rel.u_boot_list_2_env_clbk_2_serverip
                0x000000004a055c2c       0x10 arch/arm/cpu/armv7/start.o
 .rel.u_boot_list_2_env_clbk_2_vlan
                0x000000004a055c3c       0x10 arch/arm/cpu/armv7/start.o
 .rel.text.do_dm
                0x000000004a055c4c        0x8 arch/arm/cpu/armv7/start.o
 .rel.data.test_commands
                0x000000004a055c54       0x60 arch/arm/cpu/armv7/start.o
 .rel.u_boot_list_2_cmd_2_dm
                0x000000004a055cb4       0x20 arch/arm/cpu/armv7/start.o

.rel_dyn_end    0x000000004a055cd4        0x0
 *(.__rel_dyn_end)
 .__rel_dyn_end
                0x000000004a055cd4        0x0 arch/arm/lib/built-in.o

.end            0x000000004a055cd4        0x0
 *(.__end)
 .__end         0x000000004a055cd4        0x0 arch/arm/lib/built-in.o
                0x000000004a055cd4                _image_binary_end = .
                0x000000004a056000                . = ALIGN (0x1000)

.mmutable
 *(.mmutable)

.bss_start      0x000000004a04be6c        0x0
 *(.__bss_start)
 .__bss_start   0x000000004a04be6c        0x0 arch/arm/lib/built-in.o
                0x000000004a04be6c                __bss_start
                0x000000004a04be6c                __bss_base = .

.bss            0x000000004a04be6c    0x2b574
 *(.bss*)
 .bss.params    0x000000004a04be6c        0x4 arch/arm/lib/built-in.o
 .bss.bootefi_device_path
                0x000000004a04be70        0x4 cmd/built-in.o
 .bss.bootefi_image_path
                0x000000004a04be74        0x4 cmd/built-in.o
 .bss.is_nonsec
                0x000000004a04be78        0x1 cmd/built-in.o
 *fill*         0x000000004a04be79        0x3 
 .bss.data.8205
                0x000000004a04be7c      0x400 cmd/built-in.o
 .bss.working_fdt
                0x000000004a04c27c        0x4 cmd/built-in.o
                0x000000004a04c27c                working_fdt
 .bss.a_b       0x000000004a04c280       0x18 cmd/built-in.o
 .bss.bin_start_address
                0x000000004a04c298        0x4 cmd/built-in.o
 .bss.his_eol   0x000000004a04c29c        0x1 cmd/built-in.o
 .bss.his_pad_char
                0x000000004a04c29d        0x1 cmd/built-in.o
 *fill*         0x000000004a04c29e        0x2 
 .bss.his_pad_count
                0x000000004a04c2a0        0x4 cmd/built-in.o
 .bss.his_quote
                0x000000004a04c2a4        0x1 cmd/built-in.o
 *fill*         0x000000004a04c2a5        0x3 
 .bss.k_data_escape
                0x000000004a04c2a8        0x4 cmd/built-in.o
 .bss.k_data_escape_saved
                0x000000004a04c2ac        0x4 cmd/built-in.o
 .bss.os_data_addr
                0x000000004a04c2b0        0x4 cmd/built-in.o
 .bss.os_data_addr_saved
                0x000000004a04c2b4        0x4 cmd/built-in.o
 .bss.os_data_char
                0x000000004a04c2b8        0x4 cmd/built-in.o
 .bss.os_data_init
                0x000000004a04c2bc        0x4 cmd/built-in.o
 .bss.os_data_state
                0x000000004a04c2c0        0x4 cmd/built-in.o
 .bss.os_data_state_saved
                0x000000004a04c2c4        0x4 cmd/built-in.o
 .bss.send_parms
                0x000000004a04c2c8       0x14 cmd/built-in.o
 .bss.send_ptr  0x000000004a04c2dc        0x4 cmd/built-in.o
 .bss.base_address
                0x000000004a04c2e0        0x4 cmd/built-in.o
 .bss.dp_last_addr
                0x000000004a04c2e4        0x4 cmd/built-in.o
 .bss.dp_last_size
                0x000000004a04c2e8        0x4 cmd/built-in.o
 .bss.mm_last_addr
                0x000000004a04c2ec        0x4 cmd/built-in.o
 .bss.mm_last_size
                0x000000004a04c2f0        0x4 cmd/built-in.o
 .bss.last_addr_hi
                0x000000004a04c2f4        0x4 cmd/built-in.o
 .bss.last_addr_lo
                0x000000004a04c2f8        0x4 cmd/built-in.o
 .bss.last_data
                0x000000004a04c2fc        0x4 cmd/built-in.o
 .bss.last_mask
                0x000000004a04c300        0x4 cmd/built-in.o
 .bss.last_op   0x000000004a04c304        0x2 cmd/built-in.o
 *fill*         0x000000004a04c306        0x2 
 .bss.last_reg_hi
                0x000000004a04c308        0x4 cmd/built-in.o
 .bss.last_reg_lo
                0x000000004a04c30c        0x4 cmd/built-in.o
 .bss.do_getfile
                0x000000004a04c310        0x4 cmd/built-in.o
 .bss.fs_argv   0x000000004a04c314       0x14 cmd/built-in.o
 .bss.is_pxe    0x000000004a04c328        0x1 cmd/built-in.o
 .bss.buf.7811  0x000000004a04c329       0x28 common/built-in.o
 *fill*         0x000000004a04c351        0x3 
 .bss.do_repeat
                0x000000004a04c354        0x4 common/built-in.o
 .bss.flag_repeat
                0x000000004a04c358        0x4 common/built-in.o
 .bss.ifs       0x000000004a04c35c        0x4 common/built-in.o
 .bss.last_return_code
                0x000000004a04c360        0x4 common/built-in.o
 .bss.map       0x000000004a04c364      0x100 common/built-in.o
 .bss.the_command.7611
                0x000000004a04c464      0x401 common/built-in.o
 *fill*         0x000000004a04c865        0x3 
 .bss.top_vars  0x000000004a04c868        0x4 common/built-in.o
 .bss.stored_bootdelay
                0x000000004a04c86c        0x4 common/built-in.o
 .bss.monitor_flash_len
                0x000000004a04c870        0x4 common/built-in.o
                0x000000004a04c870                monitor_flash_len
 .bss.images    0x000000004a04c874      0x130 common/built-in.o
                0x000000004a04c874                images
 .bss.current_mii
                0x000000004a04c9a4        0x4 common/built-in.o
 .bss.mii_devs  0x000000004a04c9a8        0x8 common/built-in.o
 .bss.usb_started
                0x000000004a04c9b0        0x1 common/built-in.o
                0x000000004a04c9b0                usb_started
 *fill*         0x000000004a04c9b1        0x3 
 .bss.running.10280
                0x000000004a04c9b4        0x4 common/built-in.o
 .bss.CBWTag    0x000000004a04c9b8        0x4 common/built-in.o
 *fill*         0x000000004a04c9bc        0x4 
 .bss.usb_ccb   0x000000004a04c9c0       0xc0 common/built-in.o
 .bss.usb_dev_desc
                0x000000004a04ca80      0x3b8 common/built-in.o
 .bss.usb_max_devs
                0x000000004a04ce38        0x4 common/built-in.o
 .bss.usb_stor  0x000000004a04ce3c      0x188 common/built-in.o
 .bss.kbd_testc_tms
                0x000000004a04cfc4        0x4 common/built-in.o
 .bss.console_buffer
                0x000000004a04cfc8      0x401 common/built-in.o
                0x000000004a04cfc8                console_buffer
 *fill*         0x000000004a04d3c9        0x3 
 .bss.hist_add_idx
                0x000000004a04d3cc        0x4 common/built-in.o
 .bss.hist_lines
                0x000000004a04d3d0     0x5014 common/built-in.o
 .bss.hist_list
                0x000000004a0523e4       0x50 common/built-in.o
 .bss.hist_max  0x000000004a052434        0x4 common/built-in.o
 .bss.hist_num  0x000000004a052438        0x4 common/built-in.o
 .bss.initted.7418
                0x000000004a05243c        0x4 common/built-in.o
 .bss.cd_count  0x000000004a052440        0xc common/built-in.o
                0x000000004a052440                cd_count
 .bss.console_devices
                0x000000004a05244c        0xc common/built-in.o
                0x000000004a05244c                console_devices
 .bss.ctrlc_disabled
                0x000000004a052458        0x4 common/built-in.o
 .bss.ctrlc_was_pressed
                0x000000004a05245c        0x4 common/built-in.o
 .bss.tstcdev   0x000000004a052460        0x4 common/built-in.o
 .bss.current_mallinfo
                0x000000004a052464       0x28 common/built-in.o
 .bss.max_sbrked_mem
                0x000000004a05248c        0x4 common/built-in.o
 .bss.max_total_mem
                0x000000004a052490        0x4 common/built-in.o
 .bss.mem_malloc_brk
                0x000000004a052494        0x4 common/built-in.o
                0x000000004a052494                mem_malloc_brk
 .bss.mem_malloc_end
                0x000000004a052498        0x4 common/built-in.o
                0x000000004a052498                mem_malloc_end
 .bss.mem_malloc_start
                0x000000004a05249c        0x4 common/built-in.o
                0x000000004a05249c                mem_malloc_start
 .bss.top_pad   0x000000004a0524a0        0x4 common/built-in.o
 .bss.andr_tmp_str
                0x000000004a0524a4      0x201 common/built-in.o
 *fill*         0x000000004a0526a5        0x3 
 .bss.devs      0x000000004a0526a8       0x4c common/built-in.o
 .bss.stdio_devices
                0x000000004a0526f4        0xc common/built-in.o
                0x000000004a0526f4                stdio_devices
 .bss.tmp_buf   0x000000004a052700      0x401 common/built-in.o
 .bss.tmp_buf.7370
                0x000000004a052b01      0x200 common/built-in.o
 *fill*         0x000000004a052d01        0x3 
 .bss.xyz       0x000000004a052d04      0x434 common/built-in.o
 *fill*         0x000000004a053138        0x8 
 .bss.tmpbuf    0x000000004a053140      0x800 disk/built-in.o
 .bss.name.8545
                0x000000004a053940       0x25 disk/built-in.o
 .bss.boot_addr_start.7279
                0x000000004a053965        0xc drivers/built-in.o
 *fill*         0x000000004a053971        0x3 
 .bss.fastboot_buf_addr
                0x000000004a053974        0x4 drivers/built-in.o
                0x000000004a053974                fastboot_buf_addr
 .bss.fastboot_buf_size
                0x000000004a053978        0x4 drivers/built-in.o
                0x000000004a053978                fastboot_buf_size
 .bss.fastboot_progress_callback
                0x000000004a05397c        0x4 drivers/built-in.o
                0x000000004a05397c                fastboot_progress_callback
 .bss.fastboot_bytes_expected
                0x000000004a053980        0x4 drivers/built-in.o
 .bss.fastboot_bytes_received
                0x000000004a053984        0x4 drivers/built-in.o
 .bss.initial_usb_scan_delay
                0x000000004a053988        0x4 drivers/built-in.o
 .bss.ansi_buf  0x000000004a05398c        0xa drivers/built-in.o
 *fill*         0x000000004a053996        0x2 
 .bss.ansi_buf_size
                0x000000004a053998        0x4 drivers/built-in.o
 .bss.ansi_colors_need_revert
                0x000000004a05399c        0x4 drivers/built-in.o
 .bss.ansi_cursor_hidden
                0x000000004a0539a0        0x4 drivers/built-in.o
 .bss.bgx       0x000000004a0539a4        0x4 drivers/built-in.o
 .bss.cfb_do_flush_cache
                0x000000004a0539a8        0x4 drivers/built-in.o
 .bss.console_col
                0x000000004a0539ac        0x4 drivers/built-in.o
 .bss.console_row
                0x000000004a0539b0        0x4 drivers/built-in.o
 .bss.cursor_state
                0x000000004a0539b4        0x4 drivers/built-in.o
 .bss.eorx      0x000000004a0539b8        0x4 drivers/built-in.o
 .bss.fgx       0x000000004a0539bc        0x4 drivers/built-in.o
 .bss.old_col   0x000000004a0539c0        0x4 drivers/built-in.o
 .bss.old_row   0x000000004a0539c4        0x4 drivers/built-in.o
 .bss.pGD       0x000000004a0539c8        0x4 drivers/built-in.o
 .bss.video_console_address
                0x000000004a0539cc        0x4 drivers/built-in.o
 .bss.video_fb_address
                0x000000004a0539d0        0x4 drivers/built-in.o
 .bss.sunxi_display
                0x000000004a0539d4       0xa0 drivers/built-in.o
                0x000000004a0539d4                sunxi_display
 .bss.epnum     0x000000004a053a74        0x4 drivers/usb/gadget/built-in.o
 .bss.composite
                0x000000004a053a78        0x4 drivers/usb/gadget/built-in.o
 .bss.g_dnl_detach_request
                0x000000004a053a7c        0x1 drivers/usb/gadget/built-in.o
 .bss.g_dnl_serial
                0x000000004a053a7d      0x100 drivers/usb/gadget/built-in.o
 *fill*         0x000000004a053b7d        0x3 
 .bss.the_fsg_common
                0x000000004a053b80        0x4 drivers/usb/gadget/built-in.o
 .bss.ums       0x000000004a053b84        0x4 drivers/usb/gadget/built-in.o
 .bss.ums_count
                0x000000004a053b88        0x4 drivers/usb/gadget/built-in.o
 .bss.fastboot_func
                0x000000004a053b8c        0x4 drivers/usb/gadget/built-in.o
 *fill*         0x000000004a053b90       0x30 
 .bss.__control_req
                0x000000004a053bc0      0x100 drivers/usb/gadget/built-in.o
 .bss.__status_req
                0x000000004a053cc0       0x40 drivers/usb/gadget/built-in.o
 .bss.dev_addr  0x000000004a053d00       0x12 drivers/usb/gadget/built-in.o
 *fill*         0x000000004a053d12        0x2 
 .bss.eth_priv  0x000000004a053d14       0xd8 drivers/usb/gadget/built-in.o
                0x000000004a053d14                eth_priv
 .bss.ethaddr   0x000000004a053dec        0xd drivers/usb/gadget/built-in.o
 .bss.host_addr
                0x000000004a053df9       0x12 drivers/usb/gadget/built-in.o
 .bss.manufacturer
                0x000000004a053e0b       0x32 drivers/usb/gadget/built-in.o
 *fill*         0x000000004a053e3d        0x3 
 .bss.packet_received
                0x000000004a053e40        0x4 drivers/usb/gadget/built-in.o
                0x000000004a053e40                packet_received
 .bss.packet_sent
                0x000000004a053e44        0x4 drivers/usb/gadget/built-in.o
                0x000000004a053e44                packet_sent
 .bss.rndis_resp_buf
                0x000000004a053e48        0x8 drivers/usb/gadget/built-in.o
 .bss.serial_number
                0x000000004a053e50       0x14 drivers/usb/gadget/built-in.o
 .bss.rndis_per_dev_params
                0x000000004a053e64       0x3c drivers/usb/gadget/built-in.o
 .bss.asynch_allowed
                0x000000004a053ea0        0x1 drivers/usb/host/built-in.o
 *fill*         0x000000004a053ea1        0x3 
 .bss.gadget    0x000000004a053ea4        0x4 drivers/usb/musb-new/built-in.o
 .bss.enabled   0x000000004a053ea8        0x1 drivers/usb/musb-new/built-in.o
 .bss.last_int_usb
                0x000000004a053ea9        0x1 drivers/usb/musb-new/built-in.o
 *fill*         0x000000004a053eaa        0x2 
 .bss.callback_list
                0x000000004a053eac        0x4 env/built-in.o
 .bss.flags_list
                0x000000004a053eb0        0x4 env/built-in.o
 .bss.fs_dev_desc
                0x000000004a053eb4        0x4 fs/built-in.o
 .bss.fs_dev_part
                0x000000004a053eb8        0x4 fs/built-in.o
 .bss.fs_partition
                0x000000004a053ebc       0x78 fs/built-in.o
 .bss.fs_type   0x000000004a053f34        0x4 fs/built-in.o
 .bss.ext_fs    0x000000004a053f38       0x48 fs/built-in.o
                0x000000004a053f38                ext_fs
 .bss.ext4fs_file
                0x000000004a053f80        0x4 fs/built-in.o
                0x000000004a053f80                ext4fs_file
 .bss.ext4fs_indir1_block
                0x000000004a053f84        0x4 fs/built-in.o
                0x000000004a053f84                ext4fs_indir1_block
 .bss.ext4fs_indir1_size
                0x000000004a053f88        0x4 fs/built-in.o
                0x000000004a053f88                ext4fs_indir1_size
 .bss.ext4fs_indir2_block
                0x000000004a053f8c        0x4 fs/built-in.o
                0x000000004a053f8c                ext4fs_indir2_block
 .bss.ext4fs_indir2_size
                0x000000004a053f90        0x4 fs/built-in.o
                0x000000004a053f90                ext4fs_indir2_size
 .bss.ext4fs_indir3_block
                0x000000004a053f94        0x4 fs/built-in.o
                0x000000004a053f94                ext4fs_indir3_block
 .bss.ext4fs_indir3_size
                0x000000004a053f98        0x4 fs/built-in.o
                0x000000004a053f98                ext4fs_indir3_size
 .bss.ext4fs_root
                0x000000004a053f9c        0x4 fs/built-in.o
                0x000000004a053f9c                ext4fs_root
 .bss.symlinknest
                0x000000004a053fa0        0x4 fs/built-in.o
 .bss.part_info
                0x000000004a053fa4        0x4 fs/built-in.o
 .bss.part_offset
                0x000000004a053fa8        0x4 fs/built-in.o
                0x000000004a053fa8                part_offset
 .bss.cur_dev   0x000000004a053fac        0x4 fs/built-in.o
 .bss.cur_part_info
                0x000000004a053fb0       0x78 fs/built-in.o
 *fill*         0x000000004a054028       0x18 
 .bss.get_contents_vfatname_block
                0x000000004a054040    0x10000 fs/built-in.o
                0x000000004a054040                get_contents_vfatname_block
 .bss.tmpbuf_cluster
                0x000000004a064040    0x10000 fs/built-in.o
 .bss.total_sector
                0x000000004a074040        0x4 fs/built-in.o
 .bss.rs        0x000000004a074044        0x4 lib/built-in.o
 .bss.app_gd    0x000000004a074048        0x4 lib/built-in.o
 .bss.efi_gd    0x000000004a07404c        0x4 lib/built-in.o
 .bss.entry_count
                0x000000004a074050        0x4 lib/built-in.o
 *fill*         0x000000004a074054        0x4 
 .bss.mono.9327
                0x000000004a074058        0x8 lib/built-in.o
 .bss.ret.9237  0x000000004a074060        0x4 lib/built-in.o
 .bss.console_timer_event
                0x000000004a074064        0x4 lib/built-in.o
 .bss.key_available
                0x000000004a074068        0x1 lib/built-in.o
 *fill*         0x000000004a074069        0x3 
 .bss.next_key  0x000000004a07406c        0xc lib/built-in.o
 .bss.efi_memory_map_key
                0x000000004a074078        0x4 lib/built-in.o
                0x000000004a074078                efi_memory_map_key
 .bss.watchdog_timer_event
                0x000000004a07407c        0x4 lib/built-in.o
 .bss.dhcp_ack  0x000000004a074080        0x4 lib/built-in.o
 .bss.network_timer_event
                0x000000004a074084        0x4 lib/built-in.o
 .bss.new_rx_packet
                0x000000004a074088        0x1 lib/built-in.o
 *fill*         0x000000004a074089        0x3 
 .bss.new_tx_packet
                0x000000004a07408c        0x4 lib/built-in.o
 .bss.wait_for_packet
                0x000000004a074090        0x4 lib/built-in.o
 .bss.errno     0x000000004a074094        0x4 lib/built-in.o
                0x000000004a074094                errno
 .bss.local.8968
                0x000000004a074098       0x16 lib/built-in.o
 *fill*         0x000000004a0740ae        0x2 
 .bss.arp_tx_packet
                0x000000004a0740b0        0x4 net/built-in.o
 .bss.arp_tx_packet_buf
                0x000000004a0740b4      0x640 net/built-in.o
 .bss.arp_wait_packet_ethaddr
                0x000000004a0746f4        0x4 net/built-in.o
                0x000000004a0746f4                arp_wait_packet_ethaddr
 .bss.arp_wait_timer_start
                0x000000004a0746f8        0x4 net/built-in.o
                0x000000004a0746f8                arp_wait_timer_start
 .bss.arp_wait_try
                0x000000004a0746fc        0x4 net/built-in.o
                0x000000004a0746fc                arp_wait_try
 .bss.arp_wait_tx_packet_size
                0x000000004a074700        0x4 net/built-in.o
                0x000000004a074700                arp_wait_tx_packet_size
 .bss.net_arp_wait_packet_ip
                0x000000004a074704        0x4 net/built-in.o
                0x000000004a074704                net_arp_wait_packet_ip
 .bss.net_arp_wait_reply_ip
                0x000000004a074708        0x4 net/built-in.o
 .bss.bootp_ids
                0x000000004a07470c       0x10 net/built-in.o
                0x000000004a07470c                bootp_ids
 .bss.bootp_num_ids
                0x000000004a07471c        0x4 net/built-in.o
                0x000000004a07471c                bootp_num_ids
 .bss.bootp_start
                0x000000004a074720        0x4 net/built-in.o
                0x000000004a074720                bootp_start
 .bss.bootp_timeout
                0x000000004a074724        0x4 net/built-in.o
                0x000000004a074724                bootp_timeout
 .bss.bootp_try
                0x000000004a074728        0x4 net/built-in.o
                0x000000004a074728                bootp_try
 .bss.dhcp_leasetime
                0x000000004a07472c        0x4 net/built-in.o
 .bss.dhcp_option_overload
                0x000000004a074730        0x1 net/built-in.o
 *fill*         0x000000004a074731        0x3 
 .bss.dhcp_server_ip
                0x000000004a074734        0x4 net/built-in.o
 .bss.dhcp_state
                0x000000004a074738        0x4 net/built-in.o
 .bss.net_hostname
                0x000000004a07473c       0x20 net/built-in.o
                0x000000004a07473c                net_hostname
 .bss.net_nis_domain
                0x000000004a07475c       0x20 net/built-in.o
                0x000000004a07475c                net_nis_domain
 .bss.net_root_path
                0x000000004a07477c       0x40 net/built-in.o
                0x000000004a07477c                net_root_path
 .bss.time_taken_max
                0x000000004a0747bc        0x4 net/built-in.o
 .bss.eth_errno
                0x000000004a0747c0        0x4 net/built-in.o
 .bss.act.9976  0x000000004a0747c4        0x4 net/built-in.o
 .bss.env_changed_id.9977
                0x000000004a0747c8        0x4 net/built-in.o
 .bss.first_failed.9971
                0x000000004a0747cc        0x4 net/built-in.o
 .bss.arp_packet_handler
                0x000000004a0747d0        0x4 net/built-in.o
 .bss.net_boot_file_expected_size_in_blocks
                0x000000004a0747d4        0x4 net/built-in.o
                0x000000004a0747d4                net_boot_file_expected_size_in_blocks
 .bss.net_boot_file_name
                0x000000004a0747d8      0x400 net/built-in.o
                0x000000004a0747d8                net_boot_file_name
 .bss.net_boot_file_name_explicit
                0x000000004a074bd8        0x1 net/built-in.o
                0x000000004a074bd8                net_boot_file_name_explicit
 *fill*         0x000000004a074bd9        0x3 
 .bss.net_boot_file_size
                0x000000004a074bdc        0x4 net/built-in.o
                0x000000004a074bdc                net_boot_file_size
 .bss.net_busy_flag
                0x000000004a074be0        0x4 net/built-in.o
                0x000000004a074be0                net_busy_flag
 .bss.net_dev_exists
                0x000000004a074be4        0x4 net/built-in.o
 .bss.net_dns_server
                0x000000004a074be8        0x4 net/built-in.o
                0x000000004a074be8                net_dns_server
 .bss.net_ethaddr
                0x000000004a074bec        0x6 net/built-in.o
                0x000000004a074bec                net_ethaddr
 *fill*         0x000000004a074bf2        0x2 
 .bss.net_gateway
                0x000000004a074bf4        0x4 net/built-in.o
                0x000000004a074bf4                net_gateway
 .bss.net_ip    0x000000004a074bf8        0x4 net/built-in.o
                0x000000004a074bf8                net_ip
 .bss.net_ip_id
                0x000000004a074bfc        0x4 net/built-in.o
 .bss.net_netmask
                0x000000004a074c00        0x4 net/built-in.o
                0x000000004a074c00                net_netmask
 .bss.net_pkt_buf
                0x000000004a074c04     0x1e40 net/built-in.o
 .bss.net_restart_wrap
                0x000000004a076a44        0x4 net/built-in.o
                0x000000004a076a44                net_restart_wrap
 .bss.net_restarted
                0x000000004a076a48        0x4 net/built-in.o
 .bss.net_rx_packet
                0x000000004a076a4c        0x4 net/built-in.o
                0x000000004a076a4c                net_rx_packet
 .bss.net_rx_packet_len
                0x000000004a076a50        0x4 net/built-in.o
                0x000000004a076a50                net_rx_packet_len
 .bss.net_rx_packets
                0x000000004a076a54       0x10 net/built-in.o
                0x000000004a076a54                net_rx_packets
 .bss.net_server_ethaddr
                0x000000004a076a64        0x6 net/built-in.o
                0x000000004a076a64                net_server_ethaddr
 *fill*         0x000000004a076a6a        0x2 
 .bss.net_server_ip
                0x000000004a076a6c        0x4 net/built-in.o
                0x000000004a076a6c                net_server_ip
 .bss.net_state
                0x000000004a076a70        0x4 net/built-in.o
                0x000000004a076a70                net_state
 .bss.net_try_count
                0x000000004a076a74        0x4 net/built-in.o
 .bss.net_tx_packet
                0x000000004a076a78        0x4 net/built-in.o
                0x000000004a076a78                net_tx_packet
 .bss.push_packet
                0x000000004a076a7c        0x4 net/built-in.o
                0x000000004a076a7c                push_packet
 .bss.time_delta
                0x000000004a076a80        0x4 net/built-in.o
 .bss.time_handler
                0x000000004a076a84        0x4 net/built-in.o
 .bss.time_start
                0x000000004a076a88        0x8 net/built-in.o
 .bss.udp_packet_handler
                0x000000004a076a90        0x4 net/built-in.o
 .bss.dirfh     0x000000004a076a94       0x20 net/built-in.o
 .bss.filefh    0x000000004a076ab4       0x40 net/built-in.o
 .bss.filefh3_length
                0x000000004a076af4        0x4 net/built-in.o
 .bss.fs_mounted
                0x000000004a076af8        0x4 net/built-in.o
 .bss.nfs_download_state
                0x000000004a076afc        0x4 net/built-in.o
 .bss.nfs_filename
                0x000000004a076b00        0x4 net/built-in.o
 .bss.nfs_len   0x000000004a076b04        0x4 net/built-in.o
 .bss.nfs_our_port
                0x000000004a076b08        0x4 net/built-in.o
 .bss.nfs_path  0x000000004a076b0c        0x4 net/built-in.o
 .bss.nfs_path_buff
                0x000000004a076b10      0x800 net/built-in.o
 .bss.nfs_server_ip
                0x000000004a077310        0x4 net/built-in.o
 .bss.nfs_server_mount_port
                0x000000004a077314        0x4 net/built-in.o
 .bss.nfs_server_port
                0x000000004a077318        0x4 net/built-in.o
 .bss.nfs_state
                0x000000004a07731c        0x4 net/built-in.o
 .bss.nfs_timeout_count
                0x000000004a077320        0x4 net/built-in.o
 .bss.rpc_id    0x000000004a077324        0x4 net/built-in.o
 .bss.net_ping_ip
                0x000000004a077328        0x4 net/built-in.o
                0x000000004a077328                net_ping_ip
 .bss.ping_seq_number
                0x000000004a07732c        0x2 net/built-in.o
 .bss.default_filename
                0x000000004a07732e        0xd net/built-in.o
 *fill*         0x000000004a07733b        0x1 
 .bss.tftp_block_wrap
                0x000000004a07733c        0x4 net/built-in.o
 .bss.tftp_block_wrap_offset
                0x000000004a077340        0x4 net/built-in.o
 .bss.tftp_cur_block
                0x000000004a077344        0x4 net/built-in.o
 .bss.tftp_filename
                0x000000004a077348       0x80 net/built-in.o
 .bss.tftp_our_port
                0x000000004a0773c8        0x4 net/built-in.o
 .bss.tftp_prev_block
                0x000000004a0773cc        0x4 net/built-in.o
 .bss.tftp_remote_ip
                0x000000004a0773d0        0x4 net/built-in.o
 .bss.tftp_remote_port
                0x000000004a0773d4        0x4 net/built-in.o
 .bss.tftp_state
                0x000000004a0773d8        0x4 net/built-in.o
 .bss.timeout_count
                0x000000004a0773dc        0x4 net/built-in.o
                0x000000004a0773e0                . = ALIGN (0x4)
                0x000000004a0773e0                __bss_limit = .

.bss_end        0x000000004a0773e0        0x0
 *(.__bss_end)
 .__bss_end     0x000000004a0773e0        0x0 arch/arm/lib/built-in.o
                0x000000004a0773e0                __bss_end

.dynsym         0x000000004a055cd4       0x30
 *(.dynsym)
 .dynsym        0x000000004a055cd4       0x30 arch/arm/cpu/armv7/start.o

.dynbss         0x000000004a055d04        0x0
 *(.dynbss)
 .dynbss        0x000000004a055d04        0x0 arch/arm/cpu/armv7/start.o

.dynstr         0x000000004a055d04        0x1
 *(.dynstr*)
 .dynstr        0x000000004a055d04        0x1 arch/arm/cpu/armv7/start.o

.dynamic        0x000000004a055d08       0x88
 *(.dynamic*)
 .dynamic       0x000000004a055d08       0x88 arch/arm/cpu/armv7/start.o
                0x000000004a055d08                _DYNAMIC

.plt            0x000000004a055d90        0x0
 *(.plt*)
 .plt           0x000000004a055d90        0x0 arch/arm/cpu/armv7/start.o

.interp
 *(.interp*)

.gnu.hash
 *(.gnu.hash)

.gnu            0x000000004a055d90        0x0
 *(.gnu*)
 .gnu.version_d
                0x000000004a055d90        0x0 arch/arm/cpu/armv7/start.o
 .gnu.version   0x000000004a055d90        0x0 arch/arm/cpu/armv7/start.o
 .gnu.version_r
                0x000000004a055d90        0x0 arch/arm/cpu/armv7/start.o

.ARM.exidx
 *(.ARM.exidx*)

.gnu.linkonce.armexidx
 *(.gnu.linkonce.armexidx.*)
LOAD arch/arm/cpu/armv7/start.o
START GROUP
LOAD arch/arm/cpu/built-in.o
LOAD arch/arm/cpu/armv7/built-in.o
LOAD arch/arm/lib/built-in.o
LOAD arch/arm/mach-sunxi/built-in.o
LOAD board/sunxi/built-in.o
LOAD cmd/built-in.o
LOAD common/built-in.o
LOAD disk/built-in.o
LOAD drivers/built-in.o
LOAD drivers/dma/built-in.o
LOAD drivers/gpio/built-in.o
LOAD drivers/i2c/built-in.o
LOAD drivers/mtd/built-in.o
LOAD drivers/mtd/onenand/built-in.o
LOAD drivers/mtd/spi/built-in.o
LOAD drivers/net/built-in.o
LOAD drivers/net/phy/built-in.o
LOAD drivers/pci/built-in.o
LOAD drivers/power/built-in.o
LOAD drivers/power/battery/built-in.o
LOAD drivers/power/domain/built-in.o
LOAD drivers/power/fuel_gauge/built-in.o
LOAD drivers/power/mfd/built-in.o
LOAD drivers/power/pmic/built-in.o
LOAD drivers/power/regulator/built-in.o
LOAD drivers/serial/built-in.o
LOAD drivers/spi/built-in.o
LOAD drivers/usb/common/built-in.o
LOAD drivers/usb/dwc3/built-in.o
LOAD drivers/usb/emul/built-in.o
LOAD drivers/usb/eth/built-in.o
LOAD drivers/usb/gadget/built-in.o
LOAD drivers/usb/gadget/udc/built-in.o
LOAD drivers/usb/host/built-in.o
LOAD drivers/usb/musb-new/built-in.o
LOAD drivers/usb/musb/built-in.o
LOAD drivers/usb/phy/built-in.o
LOAD drivers/usb/ulpi/built-in.o
LOAD env/built-in.o
LOAD fs/built-in.o
LOAD lib/built-in.o
LOAD net/built-in.o
LOAD test/built-in.o
LOAD test/dm/built-in.o
END GROUP
LOAD arch/arm/lib/eabi_compat.o
LOAD arch/arm/lib/lib.a
OUTPUT(u-boot elf32-littlearm)

.ARM.attributes
                0x0000000000000000       0x2d
 .ARM.attributes
                0x0000000000000000       0x1d arch/arm/cpu/armv7/start.o
 .ARM.attributes
                0x000000000000001d       0x2f arch/arm/cpu/armv7/built-in.o
 .ARM.attributes
                0x000000000000004c       0x29 arch/arm/lib/built-in.o
 .ARM.attributes
                0x0000000000000075       0x2d arch/arm/mach-sunxi/built-in.o
 .ARM.attributes
                0x00000000000000a2       0x2d board/sunxi/built-in.o
 .ARM.attributes
                0x00000000000000cf       0x2d cmd/built-in.o
 .ARM.attributes
                0x00000000000000fc       0x2d common/built-in.o
 .ARM.attributes
                0x0000000000000129       0x2d disk/built-in.o
 .ARM.attributes
                0x0000000000000156       0x2d drivers/built-in.o
 .ARM.attributes
                0x0000000000000183       0x2d drivers/gpio/built-in.o
 .ARM.attributes
                0x00000000000001b0       0x2d drivers/power/built-in.o
 .ARM.attributes
                0x00000000000001dd       0x2d drivers/serial/built-in.o
 .ARM.attributes
                0x000000000000020a       0x2d drivers/usb/gadget/built-in.o
 .ARM.attributes
                0x0000000000000237       0x2d drivers/usb/host/built-in.o
 .ARM.attributes
                0x0000000000000264       0x2d drivers/usb/musb-new/built-in.o
 .ARM.attributes
                0x0000000000000291       0x2d env/built-in.o
 .ARM.attributes
                0x00000000000002be       0x2d fs/built-in.o
 .ARM.attributes
                0x00000000000002eb       0x2d lib/built-in.o
 .ARM.attributes
                0x0000000000000318       0x2d net/built-in.o
 .ARM.attributes
                0x0000000000000345       0x2d test/dm/built-in.o
 .ARM.attributes
                0x0000000000000372       0x1d arch/arm/lib/lib.a(lib1funcs.o)
 .ARM.attributes
                0x000000000000038f       0x2d arch/arm/lib/lib.a(div0.o)

.comment        0x0000000000000000       0x75
 .comment       0x0000000000000000       0x75 arch/arm/cpu/armv7/built-in.o
                                        0x426 (size before relaxing)
 .comment       0x0000000000000075      0x49c arch/arm/lib/built-in.o
 .comment       0x0000000000000075      0x426 arch/arm/mach-sunxi/built-in.o
 .comment       0x0000000000000075       0x76 board/sunxi/built-in.o
 .comment       0x0000000000000075     0x1098 cmd/built-in.o
 .comment       0x0000000000000075     0x1022 common/built-in.o
 .comment       0x0000000000000075      0x1d8 disk/built-in.o
 .comment       0x0000000000000075      0xdd4 drivers/built-in.o
 .comment       0x0000000000000075      0x162 drivers/gpio/built-in.o
 .comment       0x0000000000000075       0x76 drivers/power/built-in.o
 .comment       0x0000000000000075       0xec drivers/serial/built-in.o
 .comment       0x0000000000000075      0x3b0 drivers/usb/gadget/built-in.o
 .comment       0x0000000000000075       0x76 drivers/usb/host/built-in.o
 .comment       0x0000000000000075      0x24e drivers/usb/musb-new/built-in.o
 .comment       0x0000000000000075      0x2c4 env/built-in.o
 .comment       0x0000000000000075      0x2c4 fs/built-in.o
 .comment       0x0000000000000075     0x1df6 lib/built-in.o
 .comment       0x0000000000000075      0x426 net/built-in.o
 .comment       0x0000000000000075       0x76 test/dm/built-in.o
 .comment       0x0000000000000075       0x76 arch/arm/lib/lib.a(div0.o)

.debug_line     0x0000000000000000    0x7168f
 .debug_line    0x0000000000000000       0x8c arch/arm/cpu/armv7/start.o
 .debug_line    0x000000000000008c     0x16ec arch/arm/cpu/armv7/built-in.o
 .debug_line    0x0000000000001778     0x2342 arch/arm/lib/built-in.o
 .debug_line    0x0000000000003aba     0x167a arch/arm/mach-sunxi/built-in.o
 .debug_line    0x0000000000005134      0x6ad board/sunxi/built-in.o
 .debug_line    0x00000000000057e1     0xcb97 cmd/built-in.o
 .debug_line    0x0000000000012378    0x13e06 common/built-in.o
 .debug_line    0x000000000002617e     0x2d0c disk/built-in.o
 .debug_line    0x0000000000028e8a     0xc7af drivers/built-in.o
 .debug_line    0x0000000000035639     0x1cb6 drivers/gpio/built-in.o
 .debug_line    0x00000000000372ef      0x736 drivers/power/built-in.o
 .debug_line    0x0000000000037a25      0xf8e drivers/serial/built-in.o
 .debug_line    0x00000000000389b3     0x8a99 drivers/usb/gadget/built-in.o
 .debug_line    0x000000000004144c      0xfe9 drivers/usb/host/built-in.o
 .debug_line    0x0000000000042435     0x5281 drivers/usb/musb-new/built-in.o
 .debug_line    0x00000000000476b6     0x190c env/built-in.o
 .debug_line    0x0000000000048fc2     0x5d6f fs/built-in.o
 .debug_line    0x000000000004ed31    0x1cd3b lib/built-in.o
 .debug_line    0x000000000006ba6c     0x5806 net/built-in.o
 .debug_line    0x0000000000071272      0x2e5 test/dm/built-in.o
 .debug_line    0x0000000000071557       0xf1 arch/arm/lib/lib.a(lib1funcs.o)
 .debug_line    0x0000000000071648       0x47 arch/arm/lib/lib.a(div0.o)

.debug_info     0x0000000000000000   0x1cbb4c
 .debug_info    0x0000000000000000       0x26 arch/arm/cpu/armv7/start.o
 .debug_info    0x0000000000000026     0x74a9 arch/arm/cpu/armv7/built-in.o
 .debug_info    0x00000000000074cf     0xc0dd arch/arm/lib/built-in.o
 .debug_info    0x00000000000135ac     0x8d75 arch/arm/mach-sunxi/built-in.o
 .debug_info    0x000000000001c321     0x22cb board/sunxi/built-in.o
 .debug_info    0x000000000001e5ec    0x3cae8 cmd/built-in.o
 .debug_info    0x000000000005b0d4    0x49fe8 common/built-in.o
 .debug_info    0x00000000000a50bc     0x976b disk/built-in.o
 .debug_info    0x00000000000ae827    0x35369 drivers/built-in.o
 .debug_info    0x00000000000e3b90     0x77f9 drivers/gpio/built-in.o
 .debug_info    0x00000000000eb389     0x1630 drivers/power/built-in.o
 .debug_info    0x00000000000ec9b9     0x4f8a drivers/serial/built-in.o
 .debug_info    0x00000000000f1943    0x1aa44 drivers/usb/gadget/built-in.o
 .debug_info    0x000000000010c387     0x3b60 drivers/usb/host/built-in.o
 .debug_info    0x000000000010fee7    0x18c3b drivers/usb/musb-new/built-in.o
 .debug_info    0x0000000000128b22     0x7c19 env/built-in.o
 .debug_info    0x000000000013073b    0x11a56 fs/built-in.o
 .debug_info    0x0000000000142191    0x73353 lib/built-in.o
 .debug_info    0x00000000001b54e4    0x14e14 net/built-in.o
 .debug_info    0x00000000001ca2f8     0x17d8 test/dm/built-in.o
 .debug_info    0x00000000001cbad0       0x22 arch/arm/lib/lib.a(lib1funcs.o)
 .debug_info    0x00000000001cbaf2       0x5a arch/arm/lib/lib.a(div0.o)

.debug_abbrev   0x0000000000000000    0x3bae7
 .debug_abbrev  0x0000000000000000       0x14 arch/arm/cpu/armv7/start.o
 .debug_abbrev  0x0000000000000014     0x19ef arch/arm/cpu/armv7/built-in.o
 .debug_abbrev  0x0000000000001a03     0x1e14 arch/arm/lib/built-in.o
 .debug_abbrev  0x0000000000003817     0x1a44 arch/arm/mach-sunxi/built-in.o
 .debug_abbrev  0x000000000000525b      0x52d board/sunxi/built-in.o
 .debug_abbrev  0x0000000000005788     0x896c cmd/built-in.o
 .debug_abbrev  0x000000000000e0f4     0x9d9c common/built-in.o
 .debug_abbrev  0x0000000000017e90     0x1588 disk/built-in.o
 .debug_abbrev  0x0000000000019418     0x74a6 drivers/built-in.o
 .debug_abbrev  0x00000000000208be      0xf76 drivers/gpio/built-in.o
 .debug_abbrev  0x0000000000021834      0x31d drivers/power/built-in.o
 .debug_abbrev  0x0000000000021b51      0xbf4 drivers/serial/built-in.o
 .debug_abbrev  0x0000000000022745     0x2c04 drivers/usb/gadget/built-in.o
 .debug_abbrev  0x0000000000025349      0x65c drivers/usb/host/built-in.o
 .debug_abbrev  0x00000000000259a5     0x2042 drivers/usb/musb-new/built-in.o
 .debug_abbrev  0x00000000000279e7     0x1657 env/built-in.o
 .debug_abbrev  0x000000000002903e     0x1d82 fs/built-in.o
 .debug_abbrev  0x000000000002adc0     0xdeb3 lib/built-in.o
 .debug_abbrev  0x0000000000038c73     0x2acd net/built-in.o
 .debug_abbrev  0x000000000003b740      0x331 test/dm/built-in.o
 .debug_abbrev  0x000000000003ba71       0x12 arch/arm/lib/lib.a(lib1funcs.o)
 .debug_abbrev  0x000000000003ba83       0x64 arch/arm/lib/lib.a(div0.o)

.debug_aranges  0x0000000000000000     0x5b98
 .debug_aranges
                0x0000000000000000       0x20 arch/arm/cpu/armv7/start.o
 .debug_aranges
                0x0000000000000020      0x2a0 arch/arm/cpu/armv7/built-in.o
 .debug_aranges
                0x00000000000002c0      0x338 arch/arm/lib/built-in.o
 .debug_aranges
                0x00000000000005f8      0x218 arch/arm/mach-sunxi/built-in.o
 .debug_aranges
                0x0000000000000810       0x58 board/sunxi/built-in.o
 .debug_aranges
                0x0000000000000868      0x8c0 cmd/built-in.o
 .debug_aranges
                0x0000000000001128      0xfa0 common/built-in.o
 .debug_aranges
                0x00000000000020c8      0x1b0 disk/built-in.o
 .debug_aranges
                0x0000000000002278      0xb78 drivers/built-in.o
 .debug_aranges
                0x0000000000002df0      0x228 drivers/gpio/built-in.o
 .debug_aranges
                0x0000000000003018       0x80 drivers/power/built-in.o
 .debug_aranges
                0x0000000000003098      0x140 drivers/serial/built-in.o
 .debug_aranges
                0x00000000000031d8      0x490 drivers/usb/gadget/built-in.o
 .debug_aranges
                0x0000000000003668       0xd0 drivers/usb/host/built-in.o
 .debug_aranges
                0x0000000000003738      0x228 drivers/usb/musb-new/built-in.o
 .debug_aranges
                0x0000000000003960      0x1a0 env/built-in.o
 .debug_aranges
                0x0000000000003b00      0x398 fs/built-in.o
 .debug_aranges
                0x0000000000003e98     0x1840 lib/built-in.o
 .debug_aranges
                0x00000000000056d8      0x420 net/built-in.o
 .debug_aranges
                0x0000000000005af8       0x38 test/dm/built-in.o
 .debug_aranges
                0x0000000000005b30       0x48 arch/arm/lib/lib.a(lib1funcs.o)
 .debug_aranges
                0x0000000000005b78       0x20 arch/arm/lib/lib.a(div0.o)

.debug_str      0x0000000000000000    0x1e821
 .debug_str     0x0000000000000000       0x4a arch/arm/cpu/armv7/start.o
 .debug_str     0x000000000000004a     0x1939 arch/arm/cpu/armv7/built-in.o
                                       0x5f06 (size before relaxing)
 .debug_str     0x0000000000001983     0x1e95 arch/arm/lib/built-in.o
                                       0x9ef0 (size before relaxing)
 .debug_str     0x0000000000003818      0xe48 arch/arm/mach-sunxi/built-in.o
                                       0x70e1 (size before relaxing)
 .debug_str     0x0000000000004660      0x3a3 board/sunxi/built-in.o
                                       0x1985 (size before relaxing)
 .debug_str     0x0000000000004a03     0x456c cmd/built-in.o
                                      0x2af68 (size before relaxing)
 .debug_str     0x0000000000008f6f     0x4bc8 common/built-in.o
                                      0x3037d (size before relaxing)
 .debug_str     0x000000000000db37      0x9dc disk/built-in.o
                                       0x4e9a (size before relaxing)
 .debug_str     0x000000000000e513     0x37d5 drivers/built-in.o
                                      0x2531b (size before relaxing)
 .debug_str     0x0000000000011ce8      0x614 drivers/gpio/built-in.o
                                       0x46a4 (size before relaxing)
 .debug_str     0x00000000000122fc       0xee drivers/power/built-in.o
                                        0xa76 (size before relaxing)
 .debug_str     0x00000000000123ea      0x543 drivers/serial/built-in.o
                                       0x3053 (size before relaxing)
 .debug_str     0x000000000001292d     0x267e drivers/usb/gadget/built-in.o
                                       0xccbf (size before relaxing)
 .debug_str     0x0000000000014fab      0x26e drivers/usb/host/built-in.o
                                       0x1eaa (size before relaxing)
 .debug_str     0x0000000000015219     0x14a8 drivers/usb/musb-new/built-in.o
                                       0xd25d (size before relaxing)
 .debug_str     0x00000000000166c1      0x6c3 env/built-in.o
                                       0x60c8 (size before relaxing)
 .debug_str     0x0000000000016d84     0x1038 fs/built-in.o
                                       0x8c3f (size before relaxing)
 .debug_str     0x0000000000017dbc     0x56c4 lib/built-in.o
                                      0x45acf (size before relaxing)
 .debug_str     0x000000000001d480     0x12f4 net/built-in.o
                                       0xed75 (size before relaxing)
 .debug_str     0x000000000001e774       0x79 test/dm/built-in.o
                                       0x1417 (size before relaxing)
 .debug_str     0x000000000001e7ed       0x19 arch/arm/lib/lib.a(lib1funcs.o)
                                         0x48 (size before relaxing)
 .debug_str     0x000000000001e806       0x1b arch/arm/lib/lib.a(div0.o)
                                        0x1e4 (size before relaxing)

.debug_frame    0x0000000000000000    0x108b4
 .debug_frame   0x0000000000000000      0x418 arch/arm/cpu/armv7/built-in.o
 .debug_frame   0x0000000000000418      0x4f8 arch/arm/lib/built-in.o
 .debug_frame   0x0000000000000910      0x418 arch/arm/mach-sunxi/built-in.o
 .debug_frame   0x0000000000000d28       0xec board/sunxi/built-in.o
 .debug_frame   0x0000000000000e14     0x1848 cmd/built-in.o
 .debug_frame   0x000000000000265c     0x3020 common/built-in.o
 .debug_frame   0x000000000000567c      0x664 disk/built-in.o
 .debug_frame   0x0000000000005ce0     0x2020 drivers/built-in.o
 .debug_frame   0x0000000000007d00      0x750 drivers/gpio/built-in.o
 .debug_frame   0x0000000000008450      0x1f0 drivers/power/built-in.o
 .debug_frame   0x0000000000008640      0x354 drivers/serial/built-in.o
 .debug_frame   0x0000000000008994      0xd98 drivers/usb/gadget/built-in.o
 .debug_frame   0x000000000000972c      0x2b8 drivers/usb/host/built-in.o
 .debug_frame   0x00000000000099e4      0x660 drivers/usb/musb-new/built-in.o
 .debug_frame   0x000000000000a044      0x440 env/built-in.o
 .debug_frame   0x000000000000a484      0xd00 fs/built-in.o
 .debug_frame   0x000000000000b184     0x49a0 lib/built-in.o
 .debug_frame   0x000000000000fb24      0xcf8 net/built-in.o
 .debug_frame   0x000000000001081c       0x78 test/dm/built-in.o
 .debug_frame   0x0000000000010894       0x20 arch/arm/lib/lib.a(div0.o)

.debug_loc      0x0000000000000000    0x9f4d1
 .debug_loc     0x0000000000000000      0xcfb arch/arm/cpu/armv7/built-in.o
 .debug_loc     0x0000000000000cfb     0x16bf arch/arm/lib/built-in.o
 .debug_loc     0x00000000000023ba     0x10d8 arch/arm/mach-sunxi/built-in.o
 .debug_loc     0x0000000000003492      0x363 board/sunxi/built-in.o
 .debug_loc     0x00000000000037f5    0x12106 cmd/built-in.o
 .debug_loc     0x00000000000158fb    0x1bb5e common/built-in.o
 .debug_loc     0x0000000000031459     0x3de8 disk/built-in.o
 .debug_loc     0x0000000000035241     0xebbe drivers/built-in.o
 .debug_loc     0x0000000000043dff     0x2d0d drivers/gpio/built-in.o
 .debug_loc     0x0000000000046b0c     0x146f drivers/power/built-in.o
 .debug_loc     0x0000000000047f7b     0x1309 drivers/serial/built-in.o
 .debug_loc     0x0000000000049284     0xd466 drivers/usb/gadget/built-in.o
 .debug_loc     0x00000000000566ea     0x1cd0 drivers/usb/host/built-in.o
 .debug_loc     0x00000000000583ba     0x89e0 drivers/usb/musb-new/built-in.o
 .debug_loc     0x0000000000060d9a     0x19fe env/built-in.o
 .debug_loc     0x0000000000062798     0x9fac fs/built-in.o
 .debug_loc     0x000000000006c744    0x2c626 lib/built-in.o
 .debug_loc     0x0000000000098d6a     0x64b9 net/built-in.o
 .debug_loc     0x000000000009f223      0x2ae test/dm/built-in.o

.debug_ranges   0x0000000000000000    0x109d0
 .debug_ranges  0x0000000000000000      0x3b0 arch/arm/cpu/armv7/built-in.o
 .debug_ranges  0x00000000000003b0      0x520 arch/arm/lib/built-in.o
 .debug_ranges  0x00000000000008d0      0x288 arch/arm/mach-sunxi/built-in.o
 .debug_ranges  0x0000000000000b58       0x80 board/sunxi/built-in.o
 .debug_ranges  0x0000000000000bd8     0x1a38 cmd/built-in.o
 .debug_ranges  0x0000000000002610     0x2d28 common/built-in.o
 .debug_ranges  0x0000000000005338      0x7f0 disk/built-in.o
 .debug_ranges  0x0000000000005b28     0x1ca0 drivers/built-in.o
 .debug_ranges  0x00000000000077c8      0x3a0 drivers/gpio/built-in.o
 .debug_ranges  0x0000000000007b68      0x160 drivers/power/built-in.o
 .debug_ranges  0x0000000000007cc8      0x248 drivers/serial/built-in.o
 .debug_ranges  0x0000000000007f10     0x1b10 drivers/usb/gadget/built-in.o
 .debug_ranges  0x0000000000009a20      0x268 drivers/usb/host/built-in.o
 .debug_ranges  0x0000000000009c88      0xf60 drivers/usb/musb-new/built-in.o
 .debug_ranges  0x000000000000abe8      0x2d8 env/built-in.o
 .debug_ranges  0x000000000000aec0      0xdf8 fs/built-in.o
 .debug_ranges  0x000000000000bcb8     0x4020 lib/built-in.o
 .debug_ranges  0x000000000000fcd8      0xc80 net/built-in.o
 .debug_ranges  0x0000000000010958       0x28 test/dm/built-in.o
 .debug_ranges  0x0000000000010980       0x40 arch/arm/lib/lib.a(lib1funcs.o)
 .debug_ranges  0x00000000000109c0       0x10 arch/arm/lib/lib.a(div0.o)
