Archive member included because of file (symbol)

/home/taga/NuttX/brandy/gcc-linaro/bin/../lib/gcc/arm-linux-gnueabi/4.6.3/libgcc.a(_udivsi3.o)
                              arch/arm/cpu/armv7/sun8iw11p1/built-in.o (__aeabi_uidiv)
/home/taga/NuttX/brandy/gcc-linaro/bin/../lib/gcc/arm-linux-gnueabi/4.6.3/libgcc.a(_divsi3.o)
                              arch/arm/cpu/armv7/sun8iw11p1/built-in.o (__aeabi_idiv)
/home/taga/NuttX/brandy/gcc-linaro/bin/../lib/gcc/arm-linux-gnueabi/4.6.3/libgcc.a(_lshrdi3.o)
                              fs/built-in.o (__aeabi_llsr)
/home/taga/NuttX/brandy/gcc-linaro/bin/../lib/gcc/arm-linux-gnueabi/4.6.3/libgcc.a(_ashrdi3.o)
                              drivers/built-in.o (__aeabi_lasr)
/home/taga/NuttX/brandy/gcc-linaro/bin/../lib/gcc/arm-linux-gnueabi/4.6.3/libgcc.a(_ashldi3.o)
                              drivers/mmc/built-in.o (__aeabi_llsl)
/home/taga/NuttX/brandy/gcc-linaro/bin/../lib/gcc/arm-linux-gnueabi/4.6.3/libgcc.a(_arm_addsubdf3.o)
                              common/built-in.o (__aeabi_dadd)
/home/taga/NuttX/brandy/gcc-linaro/bin/../lib/gcc/arm-linux-gnueabi/4.6.3/libgcc.a(_arm_muldivdf3.o)
                              common/built-in.o (__aeabi_dmul)
/home/taga/NuttX/brandy/gcc-linaro/bin/../lib/gcc/arm-linux-gnueabi/4.6.3/libgcc.a(_arm_fixdfsi.o)
                              drivers/power/built-in.o (__aeabi_d2iz)
/home/taga/NuttX/brandy/gcc-linaro/bin/../lib/gcc/arm-linux-gnueabi/4.6.3/libgcc.a(_arm_fixunsdfsi.o)
                              common/built-in.o (__aeabi_d2uiz)
/home/taga/NuttX/brandy/gcc-linaro/bin/../lib/gcc/arm-linux-gnueabi/4.6.3/libgcc.a(_arm_truncdfsf2.o)
                              board/sunxi/cartoon/built-in.o (__aeabi_d2f)
/home/taga/NuttX/brandy/gcc-linaro/bin/../lib/gcc/arm-linux-gnueabi/4.6.3/libgcc.a(_arm_addsubsf3.o)
                              board/sunxi/cartoon/built-in.o (__aeabi_fsub)
/home/taga/NuttX/brandy/gcc-linaro/bin/../lib/gcc/arm-linux-gnueabi/4.6.3/libgcc.a(_arm_muldivsf3.o)
                              board/sunxi/cartoon/built-in.o (__aeabi_fmul)
/home/taga/NuttX/brandy/gcc-linaro/bin/../lib/gcc/arm-linux-gnueabi/4.6.3/libgcc.a(_arm_fixsfsi.o)
                              board/sunxi/cartoon/built-in.o (__aeabi_f2iz)
/home/taga/NuttX/brandy/gcc-linaro/bin/../lib/gcc/arm-linux-gnueabi/4.6.3/libgcc.a(_dvmd_lnx.o)
                              /home/taga/NuttX/brandy/gcc-linaro/bin/../lib/gcc/arm-linux-gnueabi/4.6.3/libgcc.a(_udivsi3.o) (__aeabi_idiv0)

Discarded input sections

 .text          0x00000000        0x0 arch/arm/cpu/armv7/spare_head.o
 .data          0x00000000        0x0 arch/arm/cpu/armv7/spare_head.o
 .bss           0x00000000        0x0 arch/arm/cpu/armv7/spare_head.o
 .text          0x00000000        0x0 arch/arm/cpu/armv7/uboot_hash.o
 .data          0x00000000        0x0 arch/arm/cpu/armv7/uboot_hash.o
 .bss           0x00000000        0x0 arch/arm/cpu/armv7/uboot_hash.o
 .data          0x00000000        0x0 arch/arm/cpu/armv7/start.o
 .bss           0x00000000        0x0 arch/arm/cpu/armv7/start.o
 .text.mmu_page_table_flush
                0x00000000       0x24 arch/arm/cpu/armv7/built-in.o
 .text.cleanup_before_powerdown
                0x00000000       0x38 arch/arm/cpu/armv7/built-in.o
 .text.sdelay   0x00000000        0xc arch/arm/cpu/armv7/built-in.o
 .text.wait_on_value
                0x00000000       0x34 arch/arm/cpu/armv7/built-in.o
 .data          0x00000000        0x0 arch/arm/cpu/armv7/built-in.o
 .bss           0x00000000        0x0 arch/arm/cpu/armv7/built-in.o
 .text          0x00000000        0x0 arch/arm/cpu/armv7/sun8iw11p1/built-in.o
 .text.ccm_clock_disable
                0x00000000       0x4c arch/arm/cpu/armv7/sun8iw11p1/built-in.o
 .text.sunxi_set_bootmode_flag
                0x00000000       0x34 arch/arm/cpu/armv7/sun8iw11p1/built-in.o
 .text.sunxi_get_bootmode_flag
                0x00000000       0x10 arch/arm/cpu/armv7/sun8iw11p1/built-in.o
 .data          0x00000000        0x0 arch/arm/cpu/armv7/sun8iw11p1/built-in.o
 .bss           0x00000000        0x0 arch/arm/cpu/armv7/sun8iw11p1/built-in.o
 .text          0x00000000        0x0 arch/arm/cpu/armv7/sunxi-common/built-in.o
 .text.disable_caches
                0x00000000       0x10 arch/arm/cpu/armv7/sunxi-common/built-in.o
 .text.display_inner
                0x00000000       0x20 arch/arm/cpu/armv7/sunxi-common/built-in.o
 .text.sunxi_clear_fel_flag
                0x00000000       0x14 arch/arm/cpu/armv7/sunxi-common/built-in.o
 .text.sunxi_set_rtc_flag
                0x00000000       0x10 arch/arm/cpu/armv7/sunxi-common/built-in.o
 .text.cpu_spin_lock
                0x00000000        0x4 arch/arm/cpu/armv7/sunxi-common/built-in.o
 .text.cpu_spin_trylock
                0x00000000        0x8 arch/arm/cpu/armv7/sunxi-common/built-in.o
 .text.cpu_spin_unlock
                0x00000000        0x4 arch/arm/cpu/armv7/sunxi-common/built-in.o
 .data          0x00000000        0x0 arch/arm/cpu/armv7/sunxi-common/built-in.o
 .bss           0x00000000        0x0 arch/arm/cpu/armv7/sunxi-common/built-in.o
 .text.flush_cache
                0x00000000        0x4 arch/arm/lib/built-in.o
 .text.flush_dcache_all
                0x00000000        0xc arch/arm/lib/built-in.o
 .text.enable_caches
                0x00000000        0xc arch/arm/lib/built-in.o
 .text.arm_init_before_mmu
                0x00000000        0x4 arch/arm/lib/built-in.o
 .text.mmu_page_table_flush
                0x00000000        0x4 arch/arm/lib/built-in.o
 .text.mmu_set_region_dcache_behaviour
                0x00000000       0x50 arch/arm/lib/built-in.o
 .text.icache_status
                0x00000000        0xc arch/arm/lib/built-in.o
 .data          0x00000000        0x0 arch/arm/lib/built-in.o
 .bss           0x00000000        0x0 arch/arm/lib/built-in.o
 .text          0x00000000        0x0 board/sunxi/cartoon/built-in.o
 .text.sprite_cartoon_destroy
                0x00000000       0x1c board/sunxi/cartoon/built-in.o
 .text.sprite_cartoon_progressbar_destroy
                0x00000000       0x44 board/sunxi/cartoon/built-in.o
 .text.sprite_cartoon_ui_draw_line
                0x00000000      0x2b8 board/sunxi/cartoon/built-in.o
 .text.sprite_cartoon_ui_draw_lineto
                0x00000000       0x38 board/sunxi/cartoon/built-in.o
 .text.sprite_cartoon_ui_draw_point
                0x00000000       0x30 board/sunxi/cartoon/built-in.o
 .text.sprite_cartoon_ui_moveto
                0x00000000       0x18 board/sunxi/cartoon/built-in.o
 .text.sprite_cartoon_ui_clear
                0x00000000       0x24 board/sunxi/cartoon/built-in.o
 .text.close_font
                0x00000000       0x48 board/sunxi/cartoon/built-in.o
 .text.draw_cursor
                0x00000000       0xd4 board/sunxi/cartoon/built-in.o
 .text.SFTE_Get_Pixel_Sizes
                0x00000000       0x38 board/sunxi/cartoon/built-in.o
 .text.SFTE_Get_Pixel_Size_List
                0x00000000       0x6c board/sunxi/cartoon/built-in.o
 .text.SFTE_Get_Pixel_Size_Count
                0x00000000       0x1c board/sunxi/cartoon/built-in.o
 .text.SFTE_Get_XAdvance
                0x00000000       0x90 board/sunxi/cartoon/built-in.o
 .data          0x00000000        0x0 board/sunxi/cartoon/built-in.o
 .bss           0x00000000        0x0 board/sunxi/cartoon/built-in.o
 .bss.progress  0x00000000       0x3c board/sunxi/cartoon/built-in.o
 .text          0x00000000        0x0 board/sunxi/common/built-in.o
 .text.PIO_REG_DATA
                0x00000000       0x18 board/sunxi/common/built-in.o
 .text.PIO_REG_DLEVEL_VALUE
                0x00000000       0x18 board/sunxi/common/built-in.o
 .text.PIO_REG_PULL_VALUE
                0x00000000       0x18 board/sunxi/common/built-in.o
 .text.PIO_REG_DATA_VALUE
                0x00000000       0x18 board/sunxi/common/built-in.o
 .text.gpio_get_all_pin_status
                0x00000000      0x2c0 board/sunxi/common/built-in.o
 .text.gpio_get_one_pin_status
                0x00000000      0x16c board/sunxi/common/built-in.o
 .text.gpio_set_one_pin_status
                0x00000000      0x198 board/sunxi/common/built-in.o
 .text.gpio_set_one_pin_driver_level
                0x00000000       0xbc board/sunxi/common/built-in.o
 .text.gpio_read_one_pin_value
                0x00000000       0xc4 board/sunxi/common/built-in.o
 .text.fdt_get_pin_num
                0x00000000      0x118 board/sunxi/common/built-in.o
 .text.fdt_set_all_pin_by_offset
                0x00000000       0x7c board/sunxi/common/built-in.o
 .text.fdt_set_pin_byname
                0x00000000       0x5c board/sunxi/common/built-in.o
 .text.fdt_get_one_gpio_by_offset
                0x00000000       0xa4 board/sunxi/common/built-in.o
 .text.fdt_set_one_gpio
                0x00000000       0x34 board/sunxi/common/built-in.o
 .text.fdt_set_normal_gpio
                0x00000000       0x1c board/sunxi/common/built-in.o
 .text.sw_cfg_get_subkey
                0x00000000       0x90 board/sunxi/common/built-in.o
 .text.set_script_reloc_buf
                0x00000000       0x14 board/sunxi/common/built-in.o
 .text.set_script_reloc_size
                0x00000000       0x14 board/sunxi/common/built-in.o
 .text.get_script_reloc_size
                0x00000000       0x14 board/sunxi/common/built-in.o
 .text.sw_cfg_get_int
                0x00000000       0x30 board/sunxi/common/built-in.o
 .text.sw_cfg_get_str
                0x00000000       0x4c board/sunxi/common/built-in.o
 .text.script_get_length
                0x00000000        0xc board/sunxi/common/built-in.o
 .text.script_parser_exit
                0x00000000       0x20 board/sunxi/common/built-in.o
 .text.script_parser_subkey
                0x00000000       0x58 board/sunxi/common/built-in.o
 .text.script_parser_fetch_subkey_start
                0x00000000       0x40 board/sunxi/common/built-in.o
 .text.script_parser_patch_all
                0x00000000       0x58 board/sunxi/common/built-in.o
 .text.script_parser_subkey_count
                0x00000000       0xc4 board/sunxi/common/built-in.o
 .text.script_parser_mainkey_count
                0x00000000       0x2c board/sunxi/common/built-in.o
 .text.script_probe_mainkey_gpio
                0x00000000       0x58 board/sunxi/common/built-in.o
 .text.gpio_request_by_function
                0x00000000       0xb4 board/sunxi/common/built-in.o
 .text.bd_script_parser_init
                0x00000000       0x24 board/sunxi/common/built-in.o
 .text.upper    0x00000000       0x20 board/sunxi/common/built-in.o
 .text.lower    0x00000000       0x20 board/sunxi/common/built-in.o
 .text.sunxi_partition_get_info_byname
                0x00000000       0x1c board/sunxi/common/built-in.o
 .text.sunxi_partition_fetch_mbr
                0x00000000       0x1c board/sunxi/common/built-in.o
 .text.sunxi_partition_refresh
                0x00000000       0x1c board/sunxi/common/built-in.o
 .text.__sunxi_bmp_display
                0x00000000        0x8 board/sunxi/common/built-in.o
 .text.debug_mode_get
                0x00000000        0x8 board/sunxi/common/built-in.o
 .text.board_display_layer_release
                0x00000000        0x8 board/sunxi/common/built-in.o
 .text.board_display_eink_update
                0x00000000      0x168 board/sunxi/common/built-in.o
 .text.board_display_framebuffer_change
                0x00000000        0x8 board/sunxi/common/built-in.o
 .text.board_display_setenv
                0x00000000       0x20 board/sunxi/common/built-in.o
 .text.graphic_buffer_alloc
                0x00000000       0x98 board/sunxi/common/built-in.o
 .text.graphic_buffer_free
                0x00000000       0x18 board/sunxi/common/built-in.o
 .text.sunxi_fastboot_status_read
                0x00000000        0x8 board/sunxi/common/built-in.o
 .text.mmc_request_update_boot0
                0x00000000        0x8 board/sunxi/common/built-in.o
 .text.mmc_update_config_for_sdly
                0x00000000        0x4 board/sunxi/common/built-in.o
 .text.mmc_update_config_for_dragonboard
                0x00000000        0x4 board/sunxi/common/built-in.o
 .text.find_mmc_device
                0x00000000        0x8 board/sunxi/common/built-in.o
 .text.check_physical_key_early
                0x00000000      0x270 board/sunxi/common/built-in.o
 .text.dragonboard_handler
                0x00000000        0x8 board/sunxi/common/built-in.o
 .text.get_boot_dram_para_addr
                0x00000000        0xc board/sunxi/common/built-in.o
 .text.get_boot_dram_para_size
                0x00000000        0x8 board/sunxi/common/built-in.o
 .text.get_parameter_addr
                0x00000000        0x8 board/sunxi/common/built-in.o
 .text.get_boot_dram_update_flag
                0x00000000       0x18 board/sunxi/common/built-in.o
 .text.get_pmu_byte_from_boot0
                0x00000000       0x10 board/sunxi/common/built-in.o
 .text.write_recovery_msg_to_misc
                0x00000000      0x140 board/sunxi/common/built-in.o
 .text.respond_physical_key_action
                0x00000000       0x8c board/sunxi/common/built-in.o
 .text.update_dram_para_for_ota
                0x00000000       0xbc board/sunxi/common/built-in.o
 .rodata.__func__.5330
                0x00000000       0x1a board/sunxi/common/built-in.o
 .rodata.__func__.5305
                0x00000000       0x10 board/sunxi/common/built-in.o
 .rodata.__func__.4048
                0x00000000       0x15 board/sunxi/common/built-in.o
 .bss           0x00000000        0x0 board/sunxi/common/built-in.o
 .bss.cimage    0x00000000       0x34 board/sunxi/common/built-in.o
 .bss.misc_message.6383
                0x00000000        0x4 board/sunxi/common/built-in.o
 .text          0x00000000        0x0 board/sunxi/sun8iw11p1/built-in.o
 .text.board_mmc_get_num
                0x00000000        0x8 board/sunxi/sun8iw11p1/built-in.o
 .text.cpu0_set_detected_paras
                0x00000000        0x8 board/sunxi/sun8iw11p1/built-in.o
 .text.get_spare_head_size
                0x00000000        0x8 board/sunxi/sun8iw11p1/built-in.o
 .data          0x00000000        0x0 board/sunxi/sun8iw11p1/built-in.o
 .bss           0x00000000        0x0 board/sunxi/sun8iw11p1/built-in.o
 .text          0x00000000        0x0 common/built-in.o
 .text.cmd_process_error
                0x00000000       0x30 common/built-in.o
 .text.hash_finish_crc32
                0x00000000       0x30 common/built-in.o
 .text.hash_update_crc32
                0x00000000       0x24 common/built-in.o
 .text.hash_init_crc32
                0x00000000       0x24 common/built-in.o
 .text.hash_lookup_algo
                0x00000000       0x28 common/built-in.o
 .text.hash_show
                0x00000000       0x58 common/built-in.o
 .text.hash_block
                0x00000000       0x6c common/built-in.o
 .text.unset_local_var
                0x00000000       0xa0 common/built-in.o
 .text.cli_simple_parse_line
                0x00000000       0x80 common/built-in.o
 .text.cli_simple_run_command
                0x00000000      0x338 common/built-in.o
 .text.cli_simple_loop
                0x00000000       0x78 common/built-in.o
 .text.cli_simple_run_command_list
                0x00000000       0x74 common/built-in.o
 .text.run_command_repeatable
                0x00000000       0x18 common/built-in.o
 .text.cli_process_fdt
                0x00000000       0x40 common/built-in.o
 .text.cli_secure_boot_cmd
                0x00000000       0x78 common/built-in.o
 .text.hex1_bin
                0x00000000       0x38 common/built-in.o
 .text.hex2_bin
                0x00000000       0x34 common/built-in.o
 .text.srec_decode
                0x00000000      0x260 common/built-in.o
 .text.CYGACC_COMM_IF_GETC_TIMEOUT.isra.1
                0x00000000       0x4c common/built-in.o
 .text.xyzModem_flush
                0x00000000       0x18 common/built-in.o
 .text.xyzModem_get_hdr
                0x00000000      0x244 common/built-in.o
 .text.xyzModem_stream_open
                0x00000000      0x24c common/built-in.o
 .text.xyzModem_stream_read
                0x00000000      0x244 common/built-in.o
 .text.xyzModem_stream_close
                0x00000000       0x50 common/built-in.o
 .text.xyzModem_stream_terminate
                0x00000000       0x94 common/built-in.o
 .text.xyzModem_error
                0x00000000       0x20 common/built-in.o
 .text.__board_flash_wp_on
                0x00000000        0x8 common/built-in.o
 .text.fixup_cpu
                0x00000000        0x8 common/built-in.o
 .text.initr_mmc
                0x00000000       0x20 common/built-in.o
 .text.__red_led_off
                0x00000000        0x4 common/built-in.o
 .text.__green_led_on
                0x00000000        0x4 common/built-in.o
 .text.__green_led_off
                0x00000000        0x4 common/built-in.o
 .text.__yellow_led_on
                0x00000000        0x4 common/built-in.o
 .text.__yellow_led_off
                0x00000000        0x4 common/built-in.o
 .text.__blue_led_on
                0x00000000        0x4 common/built-in.o
 .text.__blue_led_off
                0x00000000        0x4 common/built-in.o
 .text.__board_add_ram_info
                0x00000000        0x4 common/built-in.o
 .text.__dram_init_banksize
                0x00000000       0x20 common/built-in.o
 .text.bootm_disable_interrupts
                0x00000000       0x18 common/built-in.o
 .text.get_arch_type
                0x00000000       0x1c common/built-in.o
 .text.nand_uboot_init_force_sprite
                0x00000000        0x8 common/built-in.o
 .text.sunxi_sprite_download_boot0
                0x00000000        0x8 common/built-in.o
 .text.spinor_download_boot0
                0x00000000        0x8 common/built-in.o
 .text.sunxi_usb_dev_register
                0x00000000        0x8 common/built-in.o
 .text.sunxi_usb_main_loop
                0x00000000        0x4 common/built-in.o
 .text.check_sum.constprop.2
                0x00000000       0xc0 common/built-in.o
 .text.fat_read_file_ex.constprop.3
                0x00000000      0x114 common/built-in.o
 .text.sunxi_advert_verify_head
                0x00000000       0x88 common/built-in.o
 .text.bmp_buffer_change2Gray
                0x00000000      0x1b4 common/built-in.o
 .text.sunxi_bmp_dipslay_screen
                0x00000000       0x14 common/built-in.o
 .text.sunxi_bmp_display_mem
                0x00000000       0x3c common/built-in.o
 .text.sunxi_Eink_Get_bmp_buffer
                0x00000000      0x118 common/built-in.o
 .text.sunxi_advert_logo_load
                0x00000000       0x54 common/built-in.o
 .text.sunxi_advert_display
                0x00000000       0x7c common/built-in.o
 .text.sunxi_bmp_load
                0x00000000       0xb0 common/built-in.o
 .text.env_flags_parse_varaccess_from_binflags
                0x00000000       0x4c common/built-in.o
 .text.of_bus_default_map
                0x00000000       0xf0 common/built-in.o
 .text.of_bus_default_count_cells
                0x00000000       0x74 common/built-in.o
 .text.fdt_read_prop
                0x00000000       0x8c common/built-in.o
 .text.of_bus_default_translate
                0x00000000       0x9c common/built-in.o
 .text.fdt_getprop_u32_default_node
                0x00000000       0x3c common/built-in.o
 .text.fdt_getprop_u32_default
                0x00000000       0x38 common/built-in.o
 .text.do_fixup_by_path_u32
                0x00000000       0x2c common/built-in.o
 .text.do_fixup_by_prop
                0x00000000       0x90 common/built-in.o
 .text.do_fixup_by_prop_u32
                0x00000000       0x3c common/built-in.o
 .text.do_fixup_by_compat
                0x00000000       0x80 common/built-in.o
 .text.do_fixup_by_compat_u32
                0x00000000       0x2c common/built-in.o
 .text.fdt_increase_size
                0x00000000       0x14 common/built-in.o
 .text.fdt_del_node_and_alias
                0x00000000       0x44 common/built-in.o
 .text.fdt_translate_address
                0x00000000      0x294 common/built-in.o
 .text.fdt_node_offset_by_compat_reg
                0x00000000       0x88 common/built-in.o
 .text.fdt_alloc_phandle
                0x00000000       0x58 common/built-in.o
 .text.fdt_set_phandle
                0x00000000       0x60 common/built-in.o
 .text.fdt_create_phandle
                0x00000000       0x64 common/built-in.o
 .text.fdt_set_status_by_alias
                0x00000000       0x2c common/built-in.o
 .text.fdt_verify_alias_address
                0x00000000       0xd0 common/built-in.o
 .text.fdt_get_base_address
                0x00000000       0x78 common/built-in.o
 .text.fdt_read_range
                0x00000000      0x13c common/built-in.o
 .text.usb_submit_int_msg
                0x00000000        0x4 common/built-in.o
 .text.usb_set_protocol
                0x00000000       0x4c common/built-in.o
 .text.usb_set_idle
                0x00000000       0x50 common/built-in.o
 .text.usb_get_report
                0x00000000       0x58 common/built-in.o
 .text.usb_get_class_descriptor
                0x00000000       0x58 common/built-in.o
 .text.board_usb_init
                0x00000000        0x8 common/built-in.o
 .text.__splash_screen_prepare
                0x00000000        0x8 common/built-in.o
 .text.get_env_id
                0x00000000       0x10 common/built-in.o
 .text.__env_get_char_spec
                0x00000000        0xc common/built-in.o
 .text.set_sunxi_debug_level
                0x00000000       0x14 common/built-in.o
 .text.get_sunxi_debug_level
                0x00000000       0x10 common/built-in.o
 .text.serial_printf
                0x00000000       0x40 common/built-in.o
 .text.display_time
                0x00000000       0x58 common/built-in.o
 .text.sunxi_printf_all
                0x00000000       0x2c common/built-in.o
 .text.confirm_yesno
                0x00000000       0xc4 common/built-in.o
 .text.disable_ctrlc
                0x00000000       0x18 common/built-in.o
 .text.dbg      0x00000000        0xc common/built-in.o
 .text.cfree    0x00000000        0x4 common/built-in.o
 .text.pvalloc  0x00000000       0x18 common/built-in.o
 .text.valloc   0x00000000        0xc common/built-in.o
 .text.malloc_usable_size
                0x00000000       0x3c common/built-in.o
 .text.mallopt  0x00000000       0x70 common/built-in.o
 .text.get_table_entry_id
                0x00000000       0x4c common/built-in.o
 .text.genimg_get_os_id
                0x00000000       0x18 common/built-in.o
 .text.genimg_get_arch_id
                0x00000000       0x18 common/built-in.o
 .text.genimg_get_type_id
                0x00000000       0x18 common/built-in.o
 .text.genimg_get_comp_id
                0x00000000       0x18 common/built-in.o
 .text.genimg_has_config
                0x00000000        0x8 common/built-in.o
 .text.boot_get_fdt
                0x00000000      0x270 common/built-in.o
 .text.arch_fixup_memory_node
                0x00000000        0x8 common/built-in.o
 .text.malloc_align
                0x00000000       0x8c common/built-in.o
 .text.free_align
                0x00000000        0x8 common/built-in.o
 .rodata.CSWTCH.13
                0x00000000       0x20 common/built-in.o
 .rodata.__FUNCTION__.5059
                0x00000000       0x17 common/built-in.o
 .data.hash_algo
                0x00000000       0x1c common/built-in.o
 .data.env_size
                0x00000000        0x4 common/built-in.o
 .data.of_busses
                0x00000000       0x14 common/built-in.o
 .data.mmap_threshold
                0x00000000        0x4 common/built-in.o
 .data.IGNORE_ENV_VARIABLE
                0x00000000       0x2c common/built-in.o
 .bss           0x00000000        0x0 common/built-in.o
 .bss.lastcommand.4065
                0x00000000      0x100 common/built-in.o
 .bss.xyz       0x00000000      0x434 common/built-in.o
 .bss.env_ptr   0x00000000        0x4 common/built-in.o
 .bss.n_mmaps_max
                0x00000000        0x4 common/built-in.o
 .bss.save_addr
                0x00000000        0x4 common/built-in.o
 .bss.save_size
                0x00000000        0x4 common/built-in.o
 .bss.USER_DATA_NAME
                0x00000000      0x140 common/built-in.o
 .bss.USER_DATA_NUM
                0x00000000        0x4 common/built-in.o
 .text          0x00000000        0x0 disk/built-in.o
 .text.get_dev  0x00000000        0x8 disk/built-in.o
 .text.set_protective_mbr
                0x00000000       0xc0 disk/built-in.o
 .text.get_partition_info_efi_by_name
                0x00000000       0x60 disk/built-in.o
 .text.write_gpt_table
                0x00000000      0x30c disk/built-in.o
 .text.gpt_fill_pte
                0x00000000      0x274 disk/built-in.o
 .text.gpt_fill_header
                0x00000000      0x19c disk/built-in.o
 .text.gpt_restore
                0x00000000       0xfc disk/built-in.o
 .rodata        0x00000000       0x10 disk/built-in.o
 .rodata.__func__.4237
                0x00000000        0xc disk/built-in.o
 .rodata.__func__.4188
                0x00000000       0x13 disk/built-in.o
 .data          0x00000000        0x0 disk/built-in.o
 .bss           0x00000000        0x0 disk/built-in.o
 .text          0x00000000        0x0 drivers/built-in.o
 .text.drv_lcd_close_callback
                0x00000000       0x8c drivers/built-in.o
 .text.disp_set_hdmi_detect
                0x00000000        0x4 drivers/built-in.o
 .text.drv_disp_standby
                0x00000000      0x154 drivers/built-in.o
 .text.disp_sys_cache_flush
                0x00000000        0x4 drivers/built-in.o
 .text.mutex_destroy
                0x00000000        0x4 drivers/built-in.o
 .text.disp_sys_get_ic_ver
                0x00000000        0x8 drivers/built-in.o
 .text.disp_sys_gpio_get_value
                0x00000000        0x4 drivers/built-in.o
 .text.disp_sys_pwm_free
                0x00000000        0x8 drivers/built-in.o
 .text.disp_device_attached
                0x00000000       0xec drivers/built-in.o
 .text.disp_device_detach
                0x00000000       0x9c drivers/built-in.o
 .text.bsp_disp_eink_update
                0x00000000       0x3c drivers/built-in.o
 .text.bsp_disp_sync_with_hw
                0x00000000       0xf8 drivers/built-in.o
 .text.bsp_disp_set_print_level
                0x00000000       0x14 drivers/built-in.o
 .text.bsp_disp_get_print_level
                0x00000000       0x10 drivers/built-in.o
 .text.bsp_disp_get_screen_physical_width
                0x00000000       0x48 drivers/built-in.o
 .text.bsp_disp_get_screen_physical_height
                0x00000000       0x48 drivers/built-in.o
 .text.bsp_disp_get_screen_width
                0x00000000        0x8 drivers/built-in.o
 .text.bsp_disp_get_screen_height
                0x00000000        0x8 drivers/built-in.o
 .text.bsp_disp_get_screen_width_from_output_type
                0x00000000      0x1bc drivers/built-in.o
 .text.bsp_disp_get_screen_height_from_output_type
                0x00000000      0x1bc drivers/built-in.o
 .text.bsp_disp_set_edp_func
                0x00000000       0x98 drivers/built-in.o
 .text.bsp_disp_hdmi_set_detect
                0x00000000       0x58 drivers/built-in.o
 .text.bsp_disp_lcd_get_close_flow
                0x00000000       0x30 drivers/built-in.o
 .text.bsp_disp_get_lcd_registered
                0x00000000       0x14 drivers/built-in.o
 .text.bsp_disp_get_hdmi_registered
                0x00000000       0x10 drivers/built-in.o
 .text.bsp_disp_get_tv_registered
                0x00000000       0x10 drivers/built-in.o
 .text.bsp_disp_lcd_set_bright
                0x00000000       0x38 drivers/built-in.o
 .text.bsp_disp_get_fb_info
                0x00000000        0x4 drivers/built-in.o
 .text.bsp_disp_get_display_size
                0x00000000        0x4 drivers/built-in.o
 .text.bsp_disp_feat_is_support_capture
                0x00000000        0x4 drivers/built-in.o
 .text.disp_device_get_list_head
                0x00000000        0xc drivers/built-in.o
 .text.disp_device_unregister
                0x00000000       0x20 drivers/built-in.o
 .text.disp_lcd_gpio_get_value
                0x00000000       0x68 drivers/built-in.o
 .text.dump_layer_config
                0x00000000      0x260 drivers/built-in.o
 .text.disp_get_hdmi
                0x00000000       0x5c drivers/built-in.o
 .text.sunxi_lcd_dsi_mode_switch
                0x00000000       0x20 drivers/built-in.o
 .text.sunxi_lcd_cpu_write
                0x00000000       0x28 drivers/built-in.o
 .text.sunxi_lcd_dsi_gen_write_0para
                0x00000000       0x18 drivers/built-in.o
 .text.sunxi_lcd_dsi_gen_write_3para
                0x00000000       0x28 drivers/built-in.o
 .text.sunxi_lcd_dsi_gen_write_4para
                0x00000000       0x30 drivers/built-in.o
 .text.sunxi_lcd_dsi_set_max_ret_size
                0x00000000       0x2c drivers/built-in.o
 .text.sunxi_lcd_dsi_dcs_read
                0x00000000       0x28 drivers/built-in.o
 .text.sunxi_lcd_dsi_gen_short_read0p
                0x00000000       0x30 drivers/built-in.o
 .text.sunxi_lcd_dsi_gen_short_read1p
                0x00000000       0x34 drivers/built-in.o
 .text.sunxi_lcd_dsi_gen_short_read2p
                0x00000000       0x34 drivers/built-in.o
 .text.sunxi_lcd_gpio_set_direction
                0x00000000       0x28 drivers/built-in.o
 .text.EINK_user_defined_func
                0x00000000        0x8 drivers/built-in.o
 .text.EINK_close_flow
                0x00000000       0x34 drivers/built-in.o
 .text.EINK_power_off
                0x00000000       0x84 drivers/built-in.o
 .text.EINK_power_on
                0x00000000       0x84 drivers/built-in.o
 .text.EINK_open_flow
                0x00000000       0x34 drivers/built-in.o
 .text.EINK_cfg_panel_info
                0x00000000       0xc8 drivers/built-in.o
 .text.de_gsu_set_reg_base
                0x00000000       0x1c drivers/built-in.o
 .text.de_gsu_enable
                0x00000000       0x40 drivers/built-in.o
 .text.de_al_query_irq
                0x00000000        0x4 drivers/built-in.o
 .text.de_al_enable_irq
                0x00000000        0x4 drivers/built-in.o
 .text.disp_al_set_eink_base
                0x00000000        0x8 drivers/built-in.o
 .text.disp_al_eink_irq_enable
                0x00000000        0x4 drivers/built-in.o
 .text.disp_al_eink_irq_disable
                0x00000000        0x4 drivers/built-in.o
 .text.disp_al_eink_irq_query
                0x00000000        0x4 drivers/built-in.o
 .text.disp_al_eink_config
                0x00000000       0x18 drivers/built-in.o
 .text.disp_al_eink_disable
                0x00000000        0x8 drivers/built-in.o
 .text.disp_al_eink_start_calculate_index
                0x00000000       0xc0 drivers/built-in.o
 .text.disp_al_is_calculate_index_finish
                0x00000000        0x4 drivers/built-in.o
 .text.disp_al_get_update_area
                0x00000000        0x8 drivers/built-in.o
 .text.disp_al_eink_pipe_enable
                0x00000000        0x8 drivers/built-in.o
 .text.disp_al_eink_pipe_disable
                0x00000000        0x8 drivers/built-in.o
 .text.disp_al_eink_pipe_config
                0x00000000       0x20 drivers/built-in.o
 .text.disp_al_eink_pipe_config_wavefile
                0x00000000        0xc drivers/built-in.o
 .text.disp_al_eink_start_decode
                0x00000000       0x10 drivers/built-in.o
 .text.disp_al_edma_init
                0x00000000        0x8 drivers/built-in.o
 .text.disp_al_eink_edma_cfg_addr
                0x00000000        0x8 drivers/built-in.o
 .text.disp_al_edma_config
                0x00000000        0xc drivers/built-in.o
 .text.disp_al_edma_write
                0x00000000        0x8 drivers/built-in.o
 .text.disp_al_dbuf_rdy
                0x00000000        0x4 drivers/built-in.o
 .text.disp_al_eink_set_wb
                0x00000000        0x4 drivers/built-in.o
 .text.disp_al_init_waveform
                0x00000000        0x4 drivers/built-in.o
 .text.disp_al_free_waveform
                0x00000000        0x4 drivers/built-in.o
 .text.disp_al_get_waveform_data
                0x00000000       0x14 drivers/built-in.o
 .text.disp_al_get_eink_panel_bit_num
                0x00000000        0x8 drivers/built-in.o
 .text.disp_al_init_eink_ctrl_data_8
                0x00000000       0x10 drivers/built-in.o
 .text.disp_al_init_eink_ctrl_data_16
                0x00000000        0xc drivers/built-in.o
 .text.disp_al_de_clk_enable
                0x00000000        0x8 drivers/built-in.o
 .text.disp_al_de_clk_disable
                0x00000000        0x8 drivers/built-in.o
 .text.disp_al_manager_query_irq
                0x00000000        0x4 drivers/built-in.o
 .text.disp_al_manager_enable_irq
                0x00000000        0x8 drivers/built-in.o
 .text.disp_al_manager_disable_irq
                0x00000000        0x8 drivers/built-in.o
 .text.disp_al_capture_init
                0x00000000        0x8 drivers/built-in.o
 .text.disp_al_capture_exit
                0x00000000        0x8 drivers/built-in.o
 .text.disp_al_capture_sync
                0x00000000       0x20 drivers/built-in.o
 .text.disp_al_capture_apply
                0x00000000        0x4 drivers/built-in.o
 .text.disp_al_capture_get_status
                0x00000000        0x4 drivers/built-in.o
 .text.disp_al_write_back_clk_init
                0x00000000        0x8 drivers/built-in.o
 .text.disp_al_write_back_clk_exit
                0x00000000        0x8 drivers/built-in.o
 .text.disp_al_smbl_sync
                0x00000000        0x8 drivers/built-in.o
 .text.disp_al_vdevice_cfg
                0x00000000      0x19c drivers/built-in.o
 .text.disp_al_vdevice_enable
                0x00000000       0x3c drivers/built-in.o
 .text.disp_al_vdevice_disable
                0x00000000       0x2c drivers/built-in.o
 .text.disp_al_device_enable_irq
                0x00000000       0x20 drivers/built-in.o
 .text.disp_al_device_disable_irq
                0x00000000       0x20 drivers/built-in.o
 .text.disp_al_device_src_select
                0x00000000        0x8 drivers/built-in.o
 .text.disp_al_get_fb_info
                0x00000000        0x8 drivers/built-in.o
 .text.disp_al_get_display_size
                0x00000000       0x28 drivers/built-in.o
 .text.de_rtmx_set_gld_reg_base
                0x00000000       0x1c drivers/built-in.o
 .text.de_rtmx_set_bld_reg_base
                0x00000000       0x1c drivers/built-in.o
 .text.de_rtmx_query_irq
                0x00000000       0x28 drivers/built-in.o
 .text.de_rtmx_enable_irq
                0x00000000       0x2c drivers/built-in.o
 .text.de_rtmx_set_colorkey
                0x00000000       0x7c drivers/built-in.o
 .text.de_rtmx_trimcoord
                0x00000000      0x17c drivers/built-in.o
 .text.de_rtmx_mux
                0x00000000       0x2c drivers/built-in.o
 .text.de_rtmx_get_mux
                0x00000000       0x1c drivers/built-in.o
 .text.de_rtmx_get_lay_enabled
                0x00000000       0x64 drivers/built-in.o
 .text.de_rtmx_get_lay_address
                0x00000000       0xd4 drivers/built-in.o
 .text.de_rtmx_get_lay_size
                0x00000000      0x10c drivers/built-in.o
 .text.de_rtmx_get_lay_win
                0x00000000       0x80 drivers/built-in.o
 .text.de_rtmx_get_lay_format
                0x00000000      0x100 drivers/built-in.o
 .text.de_vsu_set_reg_base
                0x00000000       0x18 drivers/built-in.o
 .text.de_vsu_enable
                0x00000000       0x38 drivers/built-in.o
 .text.de_feat_is_support_vep
                0x00000000       0x80 drivers/built-in.o
 .text.de_feat_is_support_wb
                0x00000000       0x18 drivers/built-in.o
 .text.de_feat_is_support_scale_by_chn
                0x00000000       0x70 drivers/built-in.o
 .text.de_feat_get_scale_linebuf_for_rgb
                0x00000000       0x70 drivers/built-in.o
 .text.de_feat_get_scale_linebuf_for_ed
                0x00000000       0x70 drivers/built-in.o
 .text.tcon_ceu_range_cut
                0x00000000       0x2c drivers/built-in.o
 .text.tcon_ceu_rect_multi
                0x00000000       0xa0 drivers/built-in.o
 .text.tcon_ceu_calc.constprop.2
                0x00000000      0x310 drivers/built-in.o
 .text.rgb_src_sel
                0x00000000       0x28 drivers/built-in.o
 .text.dsi_src_sel
                0x00000000       0x30 drivers/built-in.o
 .text.tcon0_dsi_clk_enable
                0x00000000       0x24 drivers/built-in.o
 .text.tcon_top_get_reg_base
                0x00000000       0x10 drivers/built-in.o
 .text.tcon_get_cur_field
                0x00000000       0x3c drivers/built-in.o
 .text.tcon_get_timing
                0x00000000      0x1c8 drivers/built-in.o
 .text.tcon_get_reg_base
                0x00000000       0x10 drivers/built-in.o
 .text.tcon0_src_get
                0x00000000       0x18 drivers/built-in.o
 .text.tcon0_simple_close
                0x00000000       0x54 drivers/built-in.o
 .text.tcon0_simple_open
                0x00000000       0x3c drivers/built-in.o
 .text.tcon0_cpu_24b_to_16b
                0x00000000       0x24 drivers/built-in.o
 .text.tcon0_cpu_rd_24b
                0x00000000        0x8 drivers/built-in.o
 .text.tcon0_cpu_rd_24b_data
                0x00000000       0xfc drivers/built-in.o
 .text.tcon0_cpu_rd_16b
                0x00000000        0x8 drivers/built-in.o
 .text.tcon0_get_dclk_div
                0x00000000       0x18 drivers/built-in.o
 .text.tcon_set_sync_pol
                0x00000000       0x24 drivers/built-in.o
 .text.tcon1_cfg_ex
                0x00000000       0xa4 drivers/built-in.o
 .text.tcon1_set_tv_mode
                0x00000000        0x8 drivers/built-in.o
 .text.tcon1_src_get
                0x00000000       0x28 drivers/built-in.o
 .text.tcon_ceu
                0x00000000      0x420 drivers/built-in.o
 .text.de_enhance_demo_enable
                0x00000000        0x8 drivers/built-in.o
 .text.de_enhance_set_mode
                0x00000000        0x8 drivers/built-in.o
 .text.de_smbl_set_reg_base
                0x00000000        0x8 drivers/built-in.o
 .text.de_smbl_sync
                0x00000000        0x8 drivers/built-in.o
 .text.de_smbl_enable
                0x00000000        0x8 drivers/built-in.o
 .text.de_smbl_set_window
                0x00000000       0x18 drivers/built-in.o
 .text.de_smbl_set_para
                0x00000000        0x8 drivers/built-in.o
 .text.de_smbl_set_lut
                0x00000000        0x8 drivers/built-in.o
 .text.de_smbl_get_hist
                0x00000000        0x8 drivers/built-in.o
 .text.in_tright_shift
                0x00000000       0x30 drivers/built-in.o
 .text.IntRightShift64
                0x00000000       0x70 drivers/built-in.o
 .text.wb_ebios_update_regs
                0x00000000        0x8 drivers/built-in.o
 .text.wb_ebios_writeback_enable
                0x00000000        0x8 drivers/built-in.o
 .text.wb_ebios_apply
                0x00000000        0x8 drivers/built-in.o
 .text.wb_ebios_get_status
                0x00000000        0x8 drivers/built-in.o
 .text.dsi_delay_ms
                0x00000000       0x10 drivers/built-in.o
 .text.dsi_delay_us
                0x00000000       0x10 drivers/built-in.o
 .text.dsi_get_reg_base
                0x00000000       0x10 drivers/built-in.o
 .text.dsi_dcs_wr_index
                0x00000000        0x8 drivers/built-in.o
 .text.dsi_dcs_wr_data
                0x00000000        0x8 drivers/built-in.o
 .text.dsi_exit
                0x00000000        0x8 drivers/built-in.o
 .text.dsi_dcs_rd_memory
                0x00000000       0xc4 drivers/built-in.o
 .text.dsi_dcs_wr_memory
                0x00000000       0x9c drivers/built-in.o
 .text.dsi_dcs_wr_5para
                0x00000000       0x38 drivers/built-in.o
 .text.dsi_dcs_wr_4para
                0x00000000       0x30 drivers/built-in.o
 .text.dsi_dcs_wr_3para
                0x00000000       0x28 drivers/built-in.o
 .text.dsi_dcs_wr_2para
                0x00000000       0x20 drivers/built-in.o
 .text.dsi_dcs_wr_1para
                0x00000000       0x20 drivers/built-in.o
 .text.dsi_dcs_wr_0para
                0x00000000       0x18 drivers/built-in.o
 .text.eink_set_base
                0x00000000       0x14 drivers/built-in.o
 .text.eink_config
                0x00000000       0x24 drivers/built-in.o
 .text.eink_irq_enable
                0x00000000       0x1c drivers/built-in.o
 .text.eink_irq_disable
                0x00000000       0x18 drivers/built-in.o
 .text.eink_irq_query
                0x00000000       0x3c drivers/built-in.o
 .text.eink_irq_query_index
                0x00000000       0x28 drivers/built-in.o
 .text.eink_start_idx
                0x00000000       0xd8 drivers/built-in.o
 .text.eink_index_finish
                0x00000000       0x18 drivers/built-in.o
 .text.eink_get_updata_area
                0x00000000       0x44 drivers/built-in.o
 .text.eink_pipe_enable
                0x00000000       0x20 drivers/built-in.o
 .text.eink_pipe_disable
                0x00000000       0x20 drivers/built-in.o
 .text.eink_pipe_config
                0x00000000       0x50 drivers/built-in.o
 .text.eink_pipe_config_wavefile
                0x00000000       0x1c drivers/built-in.o
 .text.eink_decoder_start
                0x00000000       0xbc drivers/built-in.o
 .text.eink_edma_init
                0x00000000       0x28 drivers/built-in.o
 .text.eink_edma_cfg
                0x00000000       0xd4 drivers/built-in.o
 .text.eink_edma_cfg_addr
                0x00000000       0x18 drivers/built-in.o
 .text.eink_edma_en
                0x00000000       0x24 drivers/built-in.o
 .text.eink_dbuf_rdy
                0x00000000       0x20 drivers/built-in.o
 .text.eink_set_wb
                0x00000000       0x30 drivers/built-in.o
 .text.init_eink_ctrl_data_8
                0x00000000      0x27c drivers/built-in.o
 .text.init_eink_ctrl_data_16
                0x00000000      0x2ac drivers/built-in.o
 .text.init_waveform
                0x00000000      0x1e8 drivers/built-in.o
 .text.get_eink_panel_type
                0x00000000       0x4c drivers/built-in.o
 .text.get_eink_panel_bit_num
                0x00000000       0x5c drivers/built-in.o
 .text.get_waveform_data
                0x00000000      0x264 drivers/built-in.o
 .text.free_waveform
                0x00000000       0x34 drivers/built-in.o
 .text.hdmi_get_vic
                0x00000000       0x58 drivers/built-in.o
 .text.hdmi_exit
                0x00000000       0x7c drivers/built-in.o
 .text.hdmi_core_exit
                0x00000000        0xc drivers/built-in.o
 .text.hdmi_core_get_audio_info
                0x00000000      0x248 drivers/built-in.o
 .text.hdmi_core_get_hdcp_enable
                0x00000000       0x10 drivers/built-in.o
 .text.hdmi_core_get_cts_enable
                0x00000000       0x10 drivers/built-in.o
 .text.hdmi_core_get_video_mode
                0x00000000       0x3c drivers/built-in.o
 .text.hdmi_core_get_video_enable
                0x00000000       0x30 drivers/built-in.o
 .text.hdmi_core_enter_lp
                0x00000000       0x60 drivers/built-in.o
 .text.hdmi_core_exit_lp
                0x00000000       0x10 drivers/built-in.o
 .text.hdmi_core_dvi_support
                0x00000000       0x34 drivers/built-in.o
 .text.hdmi_core_cec_get_simple_msg
                0x00000000       0x34 drivers/built-in.o
 .text.hdmi_edid_get_data
                0x00000000        0xc drivers/built-in.o
 .text.bsp_hdmi_set_bias_source
                0x00000000       0x14 drivers/built-in.o
 .text.bsp_hdmi_audio
                0x00000000      0x2f4 drivers/built-in.o
 .text.bsp_hdmi_hdcp_err_check
                0x00000000       0xbc drivers/built-in.o
 .text.bsp_hdmi_cec_get_simple_msg
                0x00000000       0xe8 drivers/built-in.o
 .text.bsp_hdmi_cec_sta_check
                0x00000000       0x98 drivers/built-in.o
 .text.tv_report_hpd_work
                0x00000000        0x4 drivers/built-in.o
 .text.tv_detect_thread
                0x00000000        0x8 drivers/built-in.o
 .text.tv_detect_enable
                0x00000000       0x10 drivers/built-in.o
 .text.tv_detect_disable
                0x00000000       0x10 drivers/built-in.o
 .text.tv_get_video_info
                0x00000000       0x3c drivers/built-in.o
 .text.tv_get_list_num
                0x00000000        0x8 drivers/built-in.o
 .text.tv_exit  0x00000000       0x58 drivers/built-in.o
 .text.tve_low_dac_disable
                0x00000000       0x48 drivers/built-in.o
 .text.arisc_dvfs_cfg_vf_table
                0x00000000      0x2ec drivers/built-in.o
 .text.sunxi_arisc_probe
                0x00000000      0x614 drivers/built-in.o
 .text.sunxi_arisc_wait_ready
                0x00000000       0x1c drivers/built-in.o
 .text.sunxi_arisc_fake_poweroff
                0x00000000       0x10 drivers/built-in.o
 .text.spinor_erase
                0x00000000      0x120 drivers/built-in.o
 .text.spinor_datafinish
                0x00000000      0x14c drivers/built-in.o
 .rodata.eink_ctrl_line_index_tbl
                0x00000000      0x9b8 drivers/built-in.o
 .rodata.eink_ctrl_tbl_GC16_COMMON
                0x00000000     0x2040 drivers/built-in.o
 .rodata.__func__.7129
                0x00000000       0x17 drivers/built-in.o
 .rodata.__func__.7085
                0x00000000       0x16 drivers/built-in.o
 .rodata.n_table
                0x00000000       0x54 drivers/built-in.o
 .rodata.ca_table
                0x00000000       0x40 drivers/built-in.o
 .rodata.sf     0x00000000       0x50 drivers/built-in.o
 .rodata.__func__.5376
                0x00000000       0x18 drivers/built-in.o
 .data          0x00000000        0x0 drivers/built-in.o
 .data.default_eink
                0x00000000       0x34 drivers/built-in.o
 .data.ce_bypass_lut
                0x00000000      0x100 drivers/built-in.o
 .data.fcc_range_gain
                0x00000000       0x18 drivers/built-in.o
 .data.ce_constant_lut
                0x00000000      0x100 drivers/built-in.o
 .data.dts_cfg_64
                0x00000000      0x318 drivers/built-in.o
 .data.arisc_debug_level
                0x00000000        0x4 drivers/built-in.o
 .data.dts_cfg  0x00000000      0x290 drivers/built-in.o
 .bss           0x00000000        0x0 drivers/built-in.o
 .bss.cimage    0x00000000        0x4 drivers/built-in.o
 .bss.ee_base   0x00000000        0x4 drivers/built-in.o
 .bss.g_waveform_file
                0x00000000       0x54 drivers/built-in.o
 .bss.hdmi_print
                0x00000000        0x4 drivers/built-in.o
 .bss.audio_cfged
                0x00000000        0x1 drivers/built-in.o
 .bss.audio_enable
                0x00000000        0x1 drivers/built-in.o
 .bss.rgb_only  0x00000000        0x4 drivers/built-in.o
 .bss.EDID_Buf  0x00000000      0x400 drivers/built-in.o
 .bss.total_write_bytes
                0x00000000        0x4 drivers/built-in.o
 .text          0x00000000        0x0 drivers/clk/built-in.o
 .text.sunxi_clk_get_common_factors
                0x00000000       0xe8 drivers/clk/built-in.o
 .text.sunxi_clk_get_periph_ops
                0x00000000       0x10 drivers/clk/built-in.o
 .text.__clk_get_rate
                0x00000000        0xc drivers/clk/built-in.o
 .data.sunxi_clk_maxreg
                0x00000000        0x4 drivers/clk/built-in.o
 .bss           0x00000000        0x0 drivers/clk/built-in.o
 .bss.cpus_clk_maxreg
                0x00000000        0x4 drivers/clk/built-in.o
 .bss.sunxi_clk_cpus_base
                0x00000000        0x4 drivers/clk/built-in.o
 .text          0x00000000        0x0 drivers/dma/built-in.o
 .text.sunxi_dma_request_from_last
                0x00000000       0x44 drivers/dma/built-in.o
 .text.sunxi_dma_stop
                0x00000000       0x1c drivers/dma/built-in.o
 .data          0x00000000        0x0 drivers/dma/built-in.o
 .bss           0x00000000        0x0 drivers/dma/built-in.o
 .text          0x00000000        0x0 drivers/gic/built-in.o
 .text.sunxi_gic_cpu_interface_init
                0x00000000       0x10 drivers/gic/built-in.o
 .text.sunxi_gic_cpu_interface_exit
                0x00000000       0x14 drivers/gic/built-in.o
 .data          0x00000000        0x0 drivers/gic/built-in.o
 .bss           0x00000000        0x0 drivers/gic/built-in.o
 .text          0x00000000        0x0 drivers/i2c/built-in.o
 .text.sunxi_i2c_exit
                0x00000000       0x2c drivers/i2c/built-in.o
 .bss           0x00000000        0x0 drivers/i2c/built-in.o
 .text          0x00000000        0x0 drivers/input/built-in.o
 .text.sort_array_by_ordering
                0x00000000       0xec drivers/input/built-in.o
 .text.input_tstc
                0x00000000       0x44 drivers/input/built-in.o
 .text.input_getc
                0x00000000       0x60 drivers/input/built-in.o
 .text.input_send_keycodes
                0x00000000      0x2f0 drivers/input/built-in.o
 .text.input_add_table
                0x00000000       0x40 drivers/input/built-in.o
 .text.input_set_delays
                0x00000000        0xc drivers/input/built-in.o
 .text.input_init
                0x00000000       0x98 drivers/input/built-in.o
 .text.input_stdio_register
                0x00000000       0x54 drivers/input/built-in.o
 .text.create_keymap
                0x00000000       0x88 drivers/input/built-in.o
 .text.key_matrix_decode
                0x00000000       0xec drivers/input/built-in.o
 .text.key_matrix_decode_fdt
                0x00000000       0xc4 drivers/input/built-in.o
 .text.key_matrix_init
                0x00000000       0x38 drivers/input/built-in.o
 .rodata.kbd_to_ansi364
                0x00000000       0x20 drivers/input/built-in.o
 .rodata.kbd_plain_xlate
                0x00000000       0x63 drivers/input/built-in.o
 .rodata.str1.1
                0x00000000       0x33 drivers/input/built-in.o
 .rodata.CSWTCH.25
                0x00000000        0xd drivers/input/built-in.o
 .data          0x00000000        0x0 drivers/input/built-in.o
 .data.kbd_ctrl_xlate
                0x00000000       0x63 drivers/input/built-in.o
 .data.kbd_shift_xlate
                0x00000000       0x63 drivers/input/built-in.o
 .bss           0x00000000        0x0 drivers/input/built-in.o
 .comment       0x00000000       0xca drivers/input/built-in.o
 .note.GNU-stack
                0x00000000        0x0 drivers/input/built-in.o
 .ARM.attributes
                0x00000000       0x2f drivers/input/built-in.o
 .debug_aranges
                0x00000000       0x90 drivers/input/built-in.o
 .debug_info    0x00000000     0x17fc drivers/input/built-in.o
 .debug_abbrev  0x00000000      0x59d drivers/input/built-in.o
 .debug_line    0x00000000      0x4dc drivers/input/built-in.o
 .debug_frame   0x00000000      0x190 drivers/input/built-in.o
 .debug_str     0x00000000      0xad2 drivers/input/built-in.o
 .debug_loc     0x00000000      0xc47 drivers/input/built-in.o
 .debug_ranges  0x00000000      0x1a8 drivers/input/built-in.o
 .text          0x00000000        0x0 drivers/key/built-in.o
 .text.sunxi_key_clock_open
                0x00000000        0x8 drivers/key/built-in.o
 .text.sunxi_key_init
                0x00000000       0x74 drivers/key/built-in.o
 .bss           0x00000000        0x0 drivers/key/built-in.o
 .text          0x00000000        0x0 drivers/mmc/built-in.o
 .text.mmc_register
                0x00000000       0x20 drivers/mmc/built-in.o
 .text.mmc_destroy
                0x00000000        0x4 drivers/mmc/built-in.o
 .text.mmc_set_preinit
                0x00000000        0x8 drivers/mmc/built-in.o
 .text.sunxi_mmc_exit
                0x00000000       0x54 drivers/mmc/built-in.o
 .text.mmc_sd_erase_timeout
                0x00000000        0x8 drivers/mmc/built-in.o
 .text.mmc_request_update_boot0
                0x00000000       0x4c drivers/mmc/built-in.o
 .rodata.__func__.5735
                0x00000000        0xd drivers/mmc/built-in.o
 .bss           0x00000000        0x0 drivers/mmc/built-in.o
 .text          0x00000000        0x0 drivers/power/built-in.o
 .text.PowerCheck
                0x00000000        0x8 drivers/power/built-in.o
 .text.power_limit_init
                0x00000000        0x8 drivers/power/built-in.o
 .text.sunxi_axp_dummy_init
                0x00000000       0x3c drivers/power/built-in.o
 .text.axp_get_power_vol_level
                0x00000000        0x8 drivers/power/built-in.o
 .text.axp_power_get_dcin_battery_exist
                0x00000000       0x3c drivers/power/built-in.o
 .text.axp_probe_charge_current
                0x00000000       0x1c drivers/power/built-in.o
 .text.axp_set_charge_current
                0x00000000       0x1c drivers/power/built-in.o
 .text.axp_set_charge_control
                0x00000000       0x1c drivers/power/built-in.o
 .text.axp_set_vbus_limit_dc
                0x00000000       0x5c drivers/power/built-in.o
 .text.axp_set_suspend_chgcur
                0x00000000       0x20 drivers/power/built-in.o
 .text.axp_slave_set_power_supply_output
                0x00000000      0x148 drivers/power/built-in.o
 .text.axp_int_enable
                0x00000000        0x8 drivers/power/built-in.o
 .text.axp_int_disable
                0x00000000        0x8 drivers/power/built-in.o
 .text.axp_int_query
                0x00000000        0x8 drivers/power/built-in.o
 .text.axp_probe_supply_status
                0x00000000       0x28 drivers/power/built-in.o
 .text.axp_probe_supply_status_byname
                0x00000000       0x7c drivers/power/built-in.o
 .text.axp_probe_supply_pmu_name
                0x00000000       0x8c drivers/power/built-in.o
 .text.axp_probe_vbus_cur_limit
                0x00000000       0x1c drivers/power/built-in.o
 .text.axp_probe_vbus_type
                0x00000000        0x8 drivers/power/built-in.o
 .text.axp20_config_charge_current
                0x00000000        0x8 drivers/power/built-in.o
 .data.current_pmu.5399
                0x00000000        0x4 drivers/power/built-in.o
 .bss           0x00000000        0x0 drivers/power/built-in.o
 .text          0x00000000        0x0 drivers/pwm/built-in.o
 .text.sunxi_pwm_init
                0x00000000        0x4 drivers/pwm/built-in.o
 .text.pwm_init
                0x00000000        0x8 drivers/pwm/built-in.o
 .data          0x00000000        0x0 drivers/pwm/built-in.o
 .data.pwm_active_sta
                0x00000000       0x10 drivers/pwm/built-in.o
 .bss           0x00000000        0x0 drivers/pwm/built-in.o
 .bss.pwm_gpio_info
                0x00000000       0xe0 drivers/pwm/built-in.o
 .bss.pwm_pin_count
                0x00000000       0x10 drivers/pwm/built-in.o
 .text          0x00000000        0x0 drivers/serial/built-in.o
 .text.serial_reinit_all
                0x00000000       0x2c drivers/serial/built-in.o
 .text.default_serial_puts
                0x00000000       0x2c drivers/serial/built-in.o
 .text._serial_putc_raw
                0x00000000       0x1c drivers/serial/built-in.o
 .data          0x00000000        0x0 drivers/serial/built-in.o
 .bss           0x00000000        0x0 drivers/serial/built-in.o
 .text.arm_svc_set_cpu_on
                0x00000000       0x24 drivers/smc/built-in.o
 .text.arm_svc_set_cpu_off
                0x00000000       0x20 drivers/smc/built-in.o
 .text.arm_svc_set_cpu_wfi
                0x00000000       0x24 drivers/smc/built-in.o
 .text.arm_svc_version
                0x00000000       0x54 drivers/smc/built-in.o
 .text.arm_svc_call_count
                0x00000000       0x24 drivers/smc/built-in.o
 .text.arm_svc_uuid
                0x00000000       0x24 drivers/smc/built-in.o
 .text.arm_svc_arisc_startup
                0x00000000       0x24 drivers/smc/built-in.o
 .text.arm_svc_arisc_wait_ready
                0x00000000       0x24 drivers/smc/built-in.o
 .text.arm_svc_arisc_fake_poweroff
                0x00000000       0x24 drivers/smc/built-in.o
 .text.arm_svc_arisc_read_pmu
                0x00000000       0x24 drivers/smc/built-in.o
 .text.arm_svc_arisc_write_pmu
                0x00000000       0x28 drivers/smc/built-in.o
 .text.arm_svc_probe_secure_mode
                0x00000000       0x24 drivers/smc/built-in.o
 .text.smc_efuse_readl
                0x00000000       0x18 drivers/smc/built-in.o
 .text.smc_efuse_writel
                0x00000000       0x18 drivers/smc/built-in.o
 .text.smc_tee_ssk_encrypt
                0x00000000      0x11c drivers/smc/built-in.o
 .text.smc_tee_ssk_decrypt
                0x00000000       0xf8 drivers/smc/built-in.o
 .text.smc_tee_rssk_encrypt
                0x00000000      0x120 drivers/smc/built-in.o
 .text.smc_aes_rssk_decrypt_to_keysram
                0x00000000       0xb8 drivers/smc/built-in.o
 .text.smc_aes_algorithm
                0x00000000      0x140 drivers/smc/built-in.o
 .text.smc_tee_keybox_store
                0x00000000      0x110 drivers/smc/built-in.o
 .ARM.extab     0x00000000        0x0 drivers/smc/built-in.o
 .data          0x00000000        0x0 drivers/smc/built-in.o
 .bss           0x00000000        0x0 drivers/smc/built-in.o
 .text          0x00000000        0x0 drivers/spi/built-in.o
 .text.spi_set_wordlen
                0x00000000       0x30 drivers/spi/built-in.o
 .text.spi_do_alloc_slave
                0x00000000       0x4c drivers/spi/built-in.o
 .data          0x00000000        0x0 drivers/spi/built-in.o
 .bss           0x00000000        0x0 drivers/spi/built-in.o
 .text          0x00000000        0x0 drivers/sunxi_crypto/built-in.o
 .text.sid_read_key
                0x00000000        0x4 drivers/sunxi_crypto/built-in.o
 .text.sid_set_security_mode
                0x00000000        0x4 drivers/sunxi_crypto/built-in.o
 .text.sid_probe_security_mode
                0x00000000        0x8 drivers/sunxi_crypto/built-in.o
 .text.sid_get_security_status
                0x00000000        0x8 drivers/sunxi_crypto/built-in.o
 .data          0x00000000        0x0 drivers/sunxi_crypto/built-in.o
 .bss           0x00000000        0x0 drivers/sunxi_crypto/built-in.o
 .text          0x00000000        0x0 drivers/sunxi_flash/built-in.o
 .text.sunxi_null_datafinish
                0x00000000        0x8 drivers/sunxi_flash/built-in.o
 .text.nand_uboot_probe
                0x00000000        0x8 drivers/sunxi_flash/built-in.o
 .text.nand_get_mbr
                0x00000000        0x8 drivers/sunxi_flash/built-in.o
 .text.NAND_GetLogicPageSize
                0x00000000        0x8 drivers/sunxi_flash/built-in.o
 .text.nand_read_uboot_data
                0x00000000        0x8 drivers/sunxi_flash/built-in.o
 .text.nand_read_boot0
                0x00000000        0x8 drivers/sunxi_flash/built-in.o
 .text.sunxi_download_boot0_atfter_ota
                0x00000000        0x8 drivers/sunxi_flash/built-in.o
 .text.sunxi_sprite_download_uboot
                0x00000000        0x8 drivers/sunxi_flash/built-in.o
 .text.card_erase
                0x00000000        0x8 drivers/sunxi_flash/built-in.o
 .text.spinor_read_uboot
                0x00000000        0x8 drivers/sunxi_flash/built-in.o
 .text.sunxi_sprite_flush
                0x00000000       0x18 drivers/sunxi_flash/built-in.o
 .text.sunxi_nor_flash_update_fdt
                0x00000000       0x18 drivers/sunxi_flash/built-in.o
 .text.sunxi_nor_flash_update_boot0
                0x00000000       0x18 drivers/sunxi_flash/built-in.o
 .text.sunxi_nand_emmc_flash_update_boot0
                0x00000000       0xcc drivers/sunxi_flash/built-in.o
 .text.sunxi_flash_update_boot0
                0x00000000       0x34 drivers/sunxi_flash/built-in.o
 .text.sunxi_secstorage_read
                0x00000000       0x18 drivers/sunxi_flash/built-in.o
 .text.sunxi_secstorage_write
                0x00000000       0x18 drivers/sunxi_flash/built-in.o
 .text.sunxi_sprite_mmc_phywipe
                0x00000000       0x60 drivers/sunxi_flash/built-in.o
 .text.sunxi_sprite_setdata_finish
                0x00000000        0x4 drivers/sunxi_flash/built-in.o
 .rodata.__func__.5964
                0x00000000       0x23 drivers/sunxi_flash/built-in.o
 .rodata.__FUNCTION__.5139
                0x00000000       0x19 drivers/sunxi_flash/built-in.o
 .data          0x00000000        0x0 drivers/sunxi_flash/built-in.o
 .data.sunxi_sprite_datafinish_pt
                0x00000000        0x4 drivers/sunxi_flash/built-in.o
 .bss           0x00000000        0x0 drivers/sunxi_flash/built-in.o
 .text          0x00000000        0x0 drivers/sunxi_usb/built-in.o
 .text.USBC_GetVbusStatus
                0x00000000       0x30 drivers/sunxi_usb/built-in.o
 .text.USBC_OTG_SelectMode
                0x00000000        0x4 drivers/sunxi_usb/built-in.o
 .text.USBC_GetPortFifoStartAddr
                0x00000000       0x30 drivers/sunxi_usb/built-in.o
 .text.USBC_GetPortFifoSize
                0x00000000       0x24 drivers/sunxi_usb/built-in.o
 .text.__USBC_ConfigFifo_RxEp_Default
                0x00000000       0x10 drivers/sunxi_usb/built-in.o
 .text.USBC_ConfigFifo_Default
                0x00000000       0x38 drivers/sunxi_usb/built-in.o
 .text.USBC_GetLastFrameNumber
                0x00000000       0x14 drivers/sunxi_usb/built-in.o
 .text.USBC_GetStatus_Dp
                0x00000000       0x18 drivers/sunxi_usb/built-in.o
 .text.USBC_GetStatus_Dm
                0x00000000       0x18 drivers/sunxi_usb/built-in.o
 .text.USBC_GetStatus_DpDm
                0x00000000       0x20 drivers/sunxi_usb/built-in.o
 .text.USBC_GetOtgMode_Form_ID
                0x00000000       0x20 drivers/sunxi_usb/built-in.o
 .text.USBC_GetOtgMode_Form_BDevice
                0x00000000       0x20 drivers/sunxi_usb/built-in.o
 .text.USBC_INT_DisableEp
                0x00000000       0x4c drivers/sunxi_usb/built-in.o
 .text.USBC_EnterMode_TestPacket
                0x00000000       0x20 drivers/sunxi_usb/built-in.o
 .text.USBC_EnterMode_Test_K
                0x00000000       0x20 drivers/sunxi_usb/built-in.o
 .text.USBC_EnterMode_Test_J
                0x00000000       0x20 drivers/sunxi_usb/built-in.o
 .text.USBC_EnterMode_Test_SE0_NAK
                0x00000000       0x20 drivers/sunxi_usb/built-in.o
 .text.USBC_EnterMode_Idle
                0x00000000       0x5c drivers/sunxi_usb/built-in.o
 .text.USBC_SetWakeUp_Default
                0x00000000        0x4 drivers/sunxi_usb/built-in.o
 .text.USBC_DisableIdPullUp
                0x00000000       0x1c drivers/sunxi_usb/built-in.o
 .text.USBC_DisableDpDmPullUp
                0x00000000       0x1c drivers/sunxi_usb/built-in.o
 .text.USBC_A_valid_InputSelect
                0x00000000        0x4 drivers/sunxi_usb/built-in.o
 .text.USBC_EnableUsbLineStateBypass
                0x00000000        0x4 drivers/sunxi_usb/built-in.o
 .text.USBC_DisableUsbLineStateBypass
                0x00000000        0x4 drivers/sunxi_usb/built-in.o
 .text.USBC_EnableHosc
                0x00000000       0x1c drivers/sunxi_usb/built-in.o
 .text.USBC_DisableHosc
                0x00000000       0x18 drivers/sunxi_usb/built-in.o
 .text.USBC_IsVbusChange
                0x00000000       0x20 drivers/sunxi_usb/built-in.o
 .text.USBC_IsIdChange
                0x00000000       0x20 drivers/sunxi_usb/built-in.o
 .text.USBC_IsDpDmChange
                0x00000000       0x20 drivers/sunxi_usb/built-in.o
 .text.USBC_DisableWakeIrq
                0x00000000       0x18 drivers/sunxi_usb/built-in.o
 .text.USBC_DisableVbusChange
                0x00000000       0x18 drivers/sunxi_usb/built-in.o
 .text.USBC_DisableIdChange
                0x00000000       0x18 drivers/sunxi_usb/built-in.o
 .text.USBC_DisableDpDmChange
                0x00000000       0x18 drivers/sunxi_usb/built-in.o
 .text.USBC_EnableWakeIrq
                0x00000000       0x1c drivers/sunxi_usb/built-in.o
 .text.USBC_EnableVbusChange
                0x00000000       0x1c drivers/sunxi_usb/built-in.o
 .text.USBC_EnableIdChange
                0x00000000       0x1c drivers/sunxi_usb/built-in.o
 .text.USBC_EnableDpDmChange
                0x00000000       0x1c drivers/sunxi_usb/built-in.o
 .text.USBC_TestMode_ReadReg
                0x00000000       0x44 drivers/sunxi_usb/built-in.o
 .text.USBC_PrintAllReg
                0x00000000      0x360 drivers/sunxi_usb/built-in.o
 .text.USBC_init
                0x00000000        0x8 drivers/sunxi_usb/built-in.o
 .text.USBC_exit
                0x00000000       0x48 drivers/sunxi_usb/built-in.o
 .text.USBC_Dev_QueryPowerStatus
                0x00000000       0x18 drivers/sunxi_usb/built-in.o
 .text.USBC_Dev_ConfigEp_Default
                0x00000000       0x68 drivers/sunxi_usb/built-in.o
 .text.USBC_Dev_IsWriteDataReady_FifoEmpty
                0x00000000       0x44 drivers/sunxi_usb/built-in.o
 .text.USBC_Dev_IsoUpdateEnable
                0x00000000       0x28 drivers/sunxi_usb/built-in.o
 .text.USBC_Dev_FlushFifo
                0x00000000       0x4c drivers/sunxi_usb/built-in.o
 .text.USBC_Host_SetFunctionAddress_Deafult
                0x00000000       0x5c drivers/sunxi_usb/built-in.o
 .text.USBC_Host_SetFunctionAddress
                0x00000000       0x88 drivers/sunxi_usb/built-in.o
 .text.USBC_Host_SetHubAddress_Deafult
                0x00000000       0x3c drivers/sunxi_usb/built-in.o
 .text.USBC_Host_SetHubAddress
                0x00000000       0x48 drivers/sunxi_usb/built-in.o
 .text.USBC_Host_SetHPortAddress_Deafult
                0x00000000       0x3c drivers/sunxi_usb/built-in.o
 .text.USBC_Host_SetHPortAddress
                0x00000000       0x34 drivers/sunxi_usb/built-in.o
 .text.USBC_Host_QueryTransferMode
                0x00000000       0x20 drivers/sunxi_usb/built-in.o
 .text.USBC_Host_ConfigTransferMode
                0x00000000       0x38 drivers/sunxi_usb/built-in.o
 .text.USBC_Host_ResetPort
                0x00000000       0x20 drivers/sunxi_usb/built-in.o
 .text.USBC_Host_ClearResetPortFlag
                0x00000000       0x20 drivers/sunxi_usb/built-in.o
 .text.USBC_Host_RusumePort
                0x00000000       0x20 drivers/sunxi_usb/built-in.o
 .text.USBC_Host_ClearRusumePortFlag
                0x00000000       0x20 drivers/sunxi_usb/built-in.o
 .text.USBC_Host_SuspendPort
                0x00000000       0x20 drivers/sunxi_usb/built-in.o
 .text.USBC_Host_QueryPowerStatus
                0x00000000       0x14 drivers/sunxi_usb/built-in.o
 .text.USBC_Host_StartSession
                0x00000000       0x20 drivers/sunxi_usb/built-in.o
 .text.USBC_Host_EndSession
                0x00000000       0x20 drivers/sunxi_usb/built-in.o
 .text.USBC_Host_PeripheralType
                0x00000000       0x20 drivers/sunxi_usb/built-in.o
 .text.USBC_Host_FlushFifo
                0x00000000       0x4c drivers/sunxi_usb/built-in.o
 .text.USBC_Host_ConfigEp_Default
                0x00000000       0x84 drivers/sunxi_usb/built-in.o
 .text.USBC_Host_ConfigEp
                0x00000000      0x15c drivers/sunxi_usb/built-in.o
 .text.USBC_Host_ConfigEpDma
                0x00000000       0x44 drivers/sunxi_usb/built-in.o
 .text.USBC_Host_ClearEpDma
                0x00000000       0x50 drivers/sunxi_usb/built-in.o
 .text.USBC_Host_IsEpNakTimeOut
                0x00000000       0x48 drivers/sunxi_usb/built-in.o
 .text.USBC_Host_ClearEpNakTimeOut
                0x00000000       0x50 drivers/sunxi_usb/built-in.o
 .text.USBC_Host_IsEpError
                0x00000000       0x54 drivers/sunxi_usb/built-in.o
 .text.USBC_Host_ClearEpError
                0x00000000       0x60 drivers/sunxi_usb/built-in.o
 .text.USBC_Host_IsEpStall
                0x00000000       0x58 drivers/sunxi_usb/built-in.o
 .text.USBC_Host_ClearEpStall
                0x00000000       0x60 drivers/sunxi_usb/built-in.o
 .text.USBC_Host_ClearEpCSR
                0x00000000       0x40 drivers/sunxi_usb/built-in.o
 .text.USBC_Host_IsReadDataReady
                0x00000000       0x40 drivers/sunxi_usb/built-in.o
 .text.USBC_Host_IsWriteDataReady
                0x00000000       0x50 drivers/sunxi_usb/built-in.o
 .text.USBC_Host_ReadDataStatus
                0x00000000       0x9c drivers/sunxi_usb/built-in.o
 .text.USBC_Host_WriteDataStatus
                0x00000000       0x84 drivers/sunxi_usb/built-in.o
 .text.USBC_Host_IsReqPktSet
                0x00000000       0x40 drivers/sunxi_usb/built-in.o
 .text.USBC_Host_StartInToken
                0x00000000       0x44 drivers/sunxi_usb/built-in.o
 .text.USBC_Host_StopInToken
                0x00000000       0x4c drivers/sunxi_usb/built-in.o
 .text.USBC_Host_ConfigRqPktCount
                0x00000000       0x18 drivers/sunxi_usb/built-in.o
 .text.USBC_Host_ClearRqPktCount
                0x00000000       0x18 drivers/sunxi_usb/built-in.o
 .text.USBC_Host_EnablePing
                0x00000000       0x20 drivers/sunxi_usb/built-in.o
 .text.USBC_Host_DisablePing
                0x00000000       0x1c drivers/sunxi_usb/built-in.o
 .text.USBC_Host_SendCtrlStatus
                0x00000000       0x24 drivers/sunxi_usb/built-in.o
 .text.USBC_Host_SendSetupPkt
                0x00000000       0x1c drivers/sunxi_usb/built-in.o
 .text.usb_phy0_write.constprop.0
                0x00000000       0x34 drivers/sunxi_usb/built-in.o
 .text.USBC_PHY_SetCommonConfig
                0x00000000        0x4 drivers/sunxi_usb/built-in.o
 .text.USBC_PHY_SetPrivateConfig
                0x00000000        0x4 drivers/sunxi_usb/built-in.o
 .text.USBC_PHY_GetCommonConfig
                0x00000000        0x8 drivers/sunxi_usb/built-in.o
 .text.USBC_phy_Standby
                0x00000000       0x54 drivers/sunxi_usb/built-in.o
 .text.USBC_Phy_Standby_Recover
                0x00000000        0x4 drivers/sunxi_usb/built-in.o
 .rodata.str1.1
                0x00000000      0x5f0 drivers/sunxi_usb/built-in.o
 .rodata.CSWTCH.35
                0x00000000        0x3 drivers/sunxi_usb/built-in.o
 .rodata.CSWTCH.5
                0x00000000        0x3 drivers/sunxi_usb/built-in.o
 .rodata.CSWTCH.7
                0x00000000        0x3 drivers/sunxi_usb/built-in.o
 .rodata.CSWTCH.9
                0x00000000        0x3 drivers/sunxi_usb/built-in.o
 .data          0x00000000        0x0 drivers/sunxi_usb/built-in.o
 .bss           0x00000000        0x0 drivers/sunxi_usb/built-in.o
 .text          0x00000000        0x0 drivers/timer/built-in.o
 .text.stick_printf
                0x00000000       0x3c drivers/timer/built-in.o
 .text.tick0_printf
                0x00000000       0x70 drivers/timer/built-in.o
 .data          0x00000000        0x0 drivers/timer/built-in.o
 .bss           0x00000000        0x0 drivers/timer/built-in.o
 .text          0x00000000        0x0 drivers/usb/host/built-in.o
 .text.__ehci_get_port_speed
                0x00000000        0x8 drivers/usb/host/built-in.o
 .text.__ehci_set_usbmode
                0x00000000       0x24 drivers/usb/host/built-in.o
 .text.axp_usb_vbus_output
                0x00000000        0x8 drivers/usb/host/built-in.o
 .data          0x00000000        0x0 drivers/usb/host/built-in.o
 .bss           0x00000000        0x0 drivers/usb/host/built-in.o
 .text          0x00000000        0x0 fs/built-in.o
 .text.fs_write
                0x00000000       0x78 fs/built-in.o
 .text.do_save  0x00000000      0x128 fs/built-in.o
 .text.fat_register_device
                0x00000000       0x88 fs/built-in.o
 .text.file_fat_read
                0x00000000       0x14 fs/built-in.o
 .text.file_getfsname
                0x00000000       0x18 fs/built-in.o
 .text.file_cd  0x00000000      0x1f4 fs/built-in.o
 .text.file_detectfs
                0x00000000       0x40 fs/built-in.o
 .text.file_ls  0x00000000       0x8c fs/built-in.o
 .text.file_read
                0x00000000       0x9c fs/built-in.o
 .rodata.filesystems
                0x00000000       0x18 fs/built-in.o
 .data          0x00000000        0x0 fs/built-in.o
 .data.file_cwd
                0x00000000      0x200 fs/built-in.o
 .data.current_filesystem
                0x00000000        0x4 fs/built-in.o
 .bss           0x00000000        0x0 fs/built-in.o
 .bss.ext4fs_symlinknest
                0x00000000        0x4 fs/built-in.o
 .bss.g_parent_inode
                0x00000000        0x4 fs/built-in.o
 .text          0x00000000        0x0 lib/built-in.o
 .text.inflateInit_
                0x00000000       0x14 lib/built-in.o
 .text.crc7     0x00000000       0x30 lib/built-in.o
 .text.crc8     0x00000000       0x44 lib/built-in.o
 .text.cyg_crc16
                0x00000000       0x44 lib/built-in.o
 .text.get_prop_check_min_len
                0x00000000       0x38 lib/built-in.o
 .text.fdtdec_get_compatible
                0x00000000       0x10 lib/built-in.o
 .text.fdtdec_get_addr_size
                0x00000000       0x58 lib/built-in.o
 .text.fdtdec_get_addr
                0x00000000        0x8 lib/built-in.o
 .text.fdtdec_get_uint64
                0x00000000       0x5c lib/built-in.o
 .text.fdtdec_get_is_enabled
                0x00000000       0x3c lib/built-in.o
 .text.fdtdec_lookup
                0x00000000       0x4c lib/built-in.o
 .text.fdtdec_next_compatible
                0x00000000       0x10 lib/built-in.o
 .text.fdtdec_next_compatible_subnode
                0x00000000       0x64 lib/built-in.o
 .text.fdtdec_next_alias
                0x00000000       0x94 lib/built-in.o
 .text.fdtdec_add_aliases_for_id
                0x00000000      0x280 lib/built-in.o
 .text.fdtdec_find_aliases_for_id
                0x00000000       0x44 lib/built-in.o
 .text.fdtdec_lookup_phandle
                0x00000000       0x34 lib/built-in.o
 .text.fdtdec_get_int_array
                0x00000000       0x68 lib/built-in.o
 .text.fdtdec_locate_array
                0x00000000       0x28 lib/built-in.o
 .text.fdtdec_get_bool
                0x00000000       0x18 lib/built-in.o
 .text.fdtdec_decode_gpios
                0x00000000       0x98 lib/built-in.o
 .text.fdtdec_decode_gpio
                0x00000000       0x2c lib/built-in.o
 .text.fdtdec_get_gpio
                0x00000000       0x28 lib/built-in.o
 .text.fdtdec_set_gpio
                0x00000000       0x20 lib/built-in.o
 .text.fdtdec_setup_gpio
                0x00000000       0x30 lib/built-in.o
 .text.fdtdec_get_byte_array
                0x00000000       0x48 lib/built-in.o
 .text.fdtdec_locate_byte_array
                0x00000000       0x24 lib/built-in.o
 .text.fdtdec_get_config_bool
                0x00000000       0x44 lib/built-in.o
 .text.fdtdec_get_config_string
                0x00000000       0x38 lib/built-in.o
 .text.fdtdec_decode_region
                0x00000000       0x50 lib/built-in.o
 .text.fdtdec_read_fmap_entry
                0x00000000       0x40 lib/built-in.o
 .text.lmb_dump_all
                0x00000000        0x4 lib/built-in.o
 .text.lmb_is_reserved
                0x00000000       0x60 lib/built-in.o
 .text.__arch_lmb_reserve
                0x00000000        0x4 lib/built-in.o
 .text.ldiv     0x00000000       0x50 lib/built-in.o
 .text.string_to_ip
                0x00000000       0x5c lib/built-in.o
 .text.strmhz   0x00000000       0x6c lib/built-in.o
 .text.crc32_wd_buf
                0x00000000       0x3c lib/built-in.o
 .text.strncasecmp
                0x00000000       0x78 lib/built-in.o
 .text.strcasecmp
                0x00000000        0x8 lib/built-in.o
 .text.strrchr  0x00000000       0x3c lib/built-in.o
 .text.strspn   0x00000000       0x40 lib/built-in.o
 .text.strtok   0x00000000       0x78 lib/built-in.o
 .text.strsep   0x00000000       0x34 lib/built-in.o
 .text.strswab  0x00000000       0x4c lib/built-in.o
 .text.bcopy    0x00000000       0x28 lib/built-in.o
 .text.memscan  0x00000000       0x2c lib/built-in.o
 .text.memchr_inv
                0x00000000      0x130 lib/built-in.o
 .text.tick_to_time
                0x00000000       0x60 lib/built-in.o
 .text.get_ticks
                0x00000000       0x38 lib/built-in.o
 .text.timer_init
                0x00000000        0x8 lib/built-in.o
 .text.get_timer
                0x00000000       0x18 lib/built-in.o
 .text.timer_get_us
                0x00000000       0x24 lib/built-in.o
 .text.uuid_str_valid
                0x00000000       0x98 lib/built-in.o
 .text.uuid_str_to_bin
                0x00000000      0x1a0 lib/built-in.o
 .text.ustrtoul
                0x00000000       0x74 lib/built-in.o
 .text.ustrtoull
                0x00000000       0x8c lib/built-in.o
 .text.__assert_fail
                0x00000000       0x14 lib/built-in.o
 .text.print_grouped_ull
                0x00000000       0x88 lib/built-in.o
 .rodata.z_errmsg
                0x00000000       0x28 lib/built-in.o
 .rodata.crc7_syndrome_table
                0x00000000      0x100 lib/built-in.o
 .rodata.crc16_tab
                0x00000000      0x200 lib/built-in.o
 .rodata.compat_names
                0x00000000       0xc0 lib/built-in.o
 .data          0x00000000        0x0 lib/built-in.o
 .bss           0x00000000        0x0 lib/built-in.o
 .bss.___strtok
                0x00000000        0x4 lib/built-in.o
 .text          0x00000000        0x0 lib/libfdt/built-in.o
 .text.fdt_first_subnode
                0x00000000       0x30 lib/libfdt/built-in.o
 .text.fdt_next_subnode
                0x00000000       0x4c lib/libfdt/built-in.o
 .text.fdt_getprop_by_offset
                0x00000000       0x48 lib/libfdt/built-in.o
 .text.fdt_get_alias
                0x00000000       0x28 lib/libfdt/built-in.o
 .text.fdt_parent_offset
                0x00000000       0x30 lib/libfdt/built-in.o
 .text.fdt_node_offset_by_prop_value
                0x00000000       0x94 lib/libfdt/built-in.o
 .text.fdt_stringlist_contains
                0x00000000       0x7c lib/libfdt/built-in.o
 .text.fdt_node_check_compatible
                0x00000000       0x3c lib/libfdt/built-in.o
 .text.fdt_node_offset_by_compatible
                0x00000000       0x78 lib/libfdt/built-in.o
 .text.fdt_set_name
                0x00000000       0x88 lib/libfdt/built-in.o
 .text.fdt_appendprop
                0x00000000       0xe0 lib/libfdt/built-in.o
 .text.fdt_pack
                0x00000000       0x5c lib/libfdt/built-in.o
 .text._fdt_sw_check_header
                0x00000000       0x20 lib/libfdt/built-in.o
 .text._fdt_grab_space
                0x00000000       0x54 lib/libfdt/built-in.o
 .text.fdt_create
                0x00000000       0x64 lib/libfdt/built-in.o
 .text.fdt_add_reservemap_entry
                0x00000000       0xbc lib/libfdt/built-in.o
 .text.fdt_finish_reservemap
                0x00000000       0x18 lib/libfdt/built-in.o
 .text.fdt_begin_node
                0x00000000       0x64 lib/libfdt/built-in.o
 .text.fdt_end_node
                0x00000000       0x38 lib/libfdt/built-in.o
 .text.fdt_property
                0x00000000      0x104 lib/libfdt/built-in.o
 .text.fdt_finish
                0x00000000       0xfc lib/libfdt/built-in.o
 .text.fdt_setprop_inplace
                0x00000000       0x40 lib/libfdt/built-in.o
 .text.fdt_nop_property
                0x00000000       0x3c lib/libfdt/built-in.o
 .text.fdt_nop_node
                0x00000000       0x50 lib/libfdt/built-in.o
 .text.fdt_find_regions
                0x00000000      0x3d8 lib/libfdt/built-in.o
 .text.fdt_create_empty_tree
                0x00000000       0x74 lib/libfdt/built-in.o
 .data          0x00000000        0x0 lib/libfdt/built-in.o
 .bss           0x00000000        0x0 lib/libfdt/built-in.o
 .text          0x00000000        0x0 memtest/built-in.o
 .data          0x00000000        0x0 memtest/built-in.o
 .bss           0x00000000        0x0 memtest/built-in.o
 .text          0x00000000        0x0 nand_sunxi/built-in.o
 .text.get_wvalue
                0x00000000        0x4 nand_sunxi/built-in.o
 .text.put_wvalue
                0x00000000       0x10 nand_sunxi/built-in.o
 .text.NAND_FreeMemoryForDMADescs
                0x00000000       0x24 nand_sunxi/built-in.o
 .text.NAND_WaitDmaFinish
                0x00000000        0x8 nand_sunxi/built-in.o
 .text._cfg_ndfc_gpio_v1
                0x00000000       0xcc nand_sunxi/built-in.o
 .text.NAND_PIOFuncChange_DQSc
                0x00000000       0x18 nand_sunxi/built-in.o
 .text.NAND_PIOFuncChange_REc
                0x00000000       0x18 nand_sunxi/built-in.o
 .text.NAND_AllocMemoryForDMADescs
                0x00000000       0x50 nand_sunxi/built-in.o
 .text.OSAL_IrqUnLock
                0x00000000        0x4 nand_sunxi/built-in.o
 .text.OSAL_IrqLock
                0x00000000        0x4 nand_sunxi/built-in.o
 .text.NAND_WaitRbReady
                0x00000000        0x8 nand_sunxi/built-in.o
 .text.NAND_IORemap
                0x00000000        0x4 nand_sunxi/built-in.o
 .text.NAND_VA_TO_PA
                0x00000000        0x4 nand_sunxi/built-in.o
 .text.NAND_PhysicLockInit
                0x00000000        0x8 nand_sunxi/built-in.o
 .text.NAND_PhysicLockExit
                0x00000000        0x8 nand_sunxi/built-in.o
 .text.NAND_GetPlatform
                0x00000000        0x8 nand_sunxi/built-in.o
 .text.nand_cond_resched
                0x00000000        0x4 nand_sunxi/built-in.o
 .text.nand_rb_wake_up
                0x00000000        0x8 nand_sunxi/built-in.o
 .text.nand_dma_wake_up
                0x00000000        0x8 nand_sunxi/built-in.o
 .text.NAND_IS_Secure_sys
                0x00000000       0x24 nand_sunxi/built-in.o
 .text.NAND_Get_Version
                0x00000000        0xc nand_sunxi/built-in.o
 .text.__NAND_UpdatePhyArch
                0x00000000       0x18 nand_sunxi/built-in.o
 .text.msg      0x00000000       0x20 nand_sunxi/built-in.o
 .text.NAND_LogicWrite
                0x00000000        0x4 nand_sunxi/built-in.o
 .text.NAND_LogicRead
                0x00000000        0x4 nand_sunxi/built-in.o
 .text.NAND_build_all_partition
                0x00000000       0xc0 nand_sunxi/built-in.o
 .text.NAND_BadBlockScan
                0x00000000        0x8 nand_sunxi/built-in.o
 .text.nand_write_boot0
                0x00000000       0x50 nand_sunxi/built-in.o
 .text.nand_uboot_set_flash_info
                0x00000000        0x8 nand_sunxi/built-in.o
 .text.nand_write_uboot
                0x00000000       0x28 nand_sunxi/built-in.o
 .text.nand_read_uboot
                0x00000000       0x28 nand_sunxi/built-in.o
 .text.nand_get_dev
                0x00000000       0x20 nand_sunxi/built-in.o
 .text.nand_erase_uboot
                0x00000000        0x8 nand_sunxi/built-in.o
 .text.nand_init_uboot
                0x00000000       0x54 nand_sunxi/built-in.o
 .rodata.__func__.5406
                0x00000000       0x11 nand_sunxi/built-in.o
 .data          0x00000000        0x0 nand_sunxi/built-in.o
 .bss           0x00000000        0x0 nand_sunxi/built-in.o
 .bss.nand_blk_dev
                0x00000000       0xc4 nand_sunxi/built-in.o
 .text          0x00000000        0x0 sprite/built-in.o
 .text.initqueue
                0x00000000       0xb0 sprite/built-in.o
 .text.destroyqueue
                0x00000000       0x30 sprite/built-in.o
 .text.resetqueue
                0x00000000       0x54 sprite/built-in.o
 .text.enqueue  0x00000000        0x4 sprite/built-in.o
 .text.outqueue
                0x00000000        0x4 sprite/built-in.o
 .text.isqueueempty
                0x00000000       0x18 sprite/built-in.o
 .text.isqueuefull
                0x00000000       0x28 sprite/built-in.o
 .text.inqueue_query
                0x00000000       0x28 sprite/built-in.o
 .text.inqueue_ex
                0x00000000       0x2c sprite/built-in.o
 .text.outqueue_query
                0x00000000       0x18 sprite/built-in.o
 .text.outqueue_ex
                0x00000000       0x34 sprite/built-in.o
 .text.sunxi_queue_init
                0x00000000       0x48 sprite/built-in.o
 .text.sunxi_queue_destroy
                0x00000000       0x10 sprite/built-in.o
 .text.sunxi_queue_reset
                0x00000000       0x10 sprite/built-in.o
 .text.sunxi_queue_isempty
                0x00000000       0x10 sprite/built-in.o
 .text.sunxi_queue_isfull
                0x00000000       0x10 sprite/built-in.o
 .text.sunxi_inqueue_query
                0x00000000       0x14 sprite/built-in.o
 .text.sunxi_queue_in
                0x00000000       0x10 sprite/built-in.o
 .text.sunxi_outqueue_query
                0x00000000       0x1c sprite/built-in.o
 .text.sunxi_queue_out
                0x00000000       0x10 sprite/built-in.o
 .text.card_download_standard_mbr
                0x00000000      0x2a0 sprite/built-in.o
 .text.sunxi_card_fill_boot0_magic
                0x00000000      0x198 sprite/built-in.o
 .text.sunxi_sprite_deal_fullimg
                0x00000000      0x314 sprite/built-in.o
 .text.nand_force_download_uboot
                0x00000000        0x8 sprite/built-in.o
 .text.nand_download_uboot
                0x00000000        0x8 sprite/built-in.o
 .text.nand_write_boot0
                0x00000000        0x8 sprite/built-in.o
 .text.nand_uboot_get_flash_info
                0x00000000        0x8 sprite/built-in.o
 .text.nand_download_boot0
                0x00000000        0x8 sprite/built-in.o
 .text.spinor_download_uboot
                0x00000000        0x8 sprite/built-in.o
 .text.spinor_download_boot0
                0x00000000        0x8 sprite/built-in.o
 .text.mmc_write_info
                0x00000000        0x8 sprite/built-in.o
 .text.sunxi_download_boot0_atfter_ota
                0x00000000      0x260 sprite/built-in.o
 .text.Img_Fat_Open
                0x00000000      0x118 sprite/built-in.o
 .text.Img_GetItemOffset
                0x00000000       0x7c sprite/built-in.o
 .text.Img_Fat_ReadItem
                0x00000000      0x134 sprite/built-in.o
 .rodata.__FUNCTION__.4724
                0x00000000       0x20 sprite/built-in.o
 .data          0x00000000        0x0 sprite/built-in.o
 .bss           0x00000000        0x0 sprite/built-in.o
 .bss.Q         0x00000000        0x4 sprite/built-in.o
 .text          0x00000000        0x0 usb_sunxi/built-in.o
 .text.sunxi_mass_reset
                0x00000000       0x20 usb_sunxi/built-in.o
 .text.sunxi_mass_usb_rx_dma_isr
                0x00000000       0x14 usb_sunxi/built-in.o
 .text.sunxi_mass_usb_tx_dma_isr
                0x00000000        0x4 usb_sunxi/built-in.o
 .text.sunxi_mass_state_loop
                0x00000000      0x590 usb_sunxi/built-in.o
 .text.sunxi_mass_standard_req_op
                0x00000000      0x4dc usb_sunxi/built-in.o
 .text.sunxi_mass_exit
                0x00000000       0x34 usb_sunxi/built-in.o
 .text.sunxi_mass_nonstandard_req_op
                0x00000000       0x60 usb_sunxi/built-in.o
 .text.sunxi_mass_init
                0x00000000       0x94 usb_sunxi/built-in.o
 .text.buf_queue_init
                0x00000000      0x194 usb_sunxi/built-in.o
 .text.buf_queue_exit
                0x00000000       0x94 usb_sunxi/built-in.o
 .text.buf_queue_empty
                0x00000000       0x18 usb_sunxi/built-in.o
 .text.buf_queue_full
                0x00000000       0x28 usb_sunxi/built-in.o
 .text.buf_queue_free_size
                0x00000000       0x20 usb_sunxi/built-in.o
 .text.buf_queue_get_page_size
                0x00000000       0x10 usb_sunxi/built-in.o
 .text.buf_enqueue
                0x00000000       0x8c usb_sunxi/built-in.o
 .text.buf_dequeue
                0x00000000       0x70 usb_sunxi/built-in.o
 .text.efex_queue_init
                0x00000000       0x78 usb_sunxi/built-in.o
 .text.efex_queue_exit
                0x00000000       0x24 usb_sunxi/built-in.o
 .text.efex_queue_write_one_page
                0x00000000       0x54 usb_sunxi/built-in.o
 .text.efex_queue_write_all_page
                0x00000000       0x68 usb_sunxi/built-in.o
 .text.efex_save_buff_to_queue
                0x00000000       0xe0 usb_sunxi/built-in.o
 .text.sunxi_key_ladder_verify_rotpk_hash
                0x00000000       0x20 usb_sunxi/built-in.o
 .text.smc_set_sst_crypt_name
                0x00000000       0x20 usb_sunxi/built-in.o
 .text.sunxi_efuse_write
                0x00000000       0x20 usb_sunxi/built-in.o
 .text.sunxi_efuse_read
                0x00000000       0x20 usb_sunxi/built-in.o
 .rodata.RequestSense
                0x00000000       0x14 usb_sunxi/built-in.o
 .rodata.InquiryData
                0x00000000       0x28 usb_sunxi/built-in.o
 .rodata.pburn_RequestSense
                0x00000000       0x14 usb_sunxi/built-in.o
 .rodata.__func__.6382
                0x00000000       0x12 usb_sunxi/built-in.o
 .rodata.__func__.6360
                0x00000000       0x17 usb_sunxi/built-in.o
 .rodata.__func__.6356
                0x00000000       0x23 usb_sunxi/built-in.o
 .rodata.pburn_InquiryData
                0x00000000       0x28 usb_sunxi/built-in.o
 .rodata.__func__.6388
                0x00000000       0x11 usb_sunxi/built-in.o
 .data          0x00000000        0x0 usb_sunxi/built-in.o
 .data.sunxi_usb_mass_iManufacturer
                0x00000000       0x20 usb_sunxi/built-in.o
 .data.sunxi_usb_mass_iSerialNum0
                0x00000000       0x20 usb_sunxi/built-in.o
 .data.sunxi_usb_mass_iProduct
                0x00000000       0x20 usb_sunxi/built-in.o
 .data.normal_LangID
                0x00000000        0x8 usb_sunxi/built-in.o
 .data.setup_req_SUNXI_USB_DEVICE_MASS
                0x00000000       0x20 usb_sunxi/built-in.o
 .data.sunxi_usb_mass_dev
                0x00000000       0x10 usb_sunxi/built-in.o
 .data.buf_queue_max_len
                0x00000000        0x4 usb_sunxi/built-in.o
 .data.buf_queue_page_size
                0x00000000        0x4 usb_sunxi/built-in.o
 .data.sunxi_usb_pburn_iSerialNum0
                0x00000000       0x20 usb_sunxi/built-in.o
 .data.sunxi_usb_pburn_iManufacturer
                0x00000000       0x20 usb_sunxi/built-in.o
 .data.sunxi_usb_pbur_normal_LangID
                0x00000000        0x8 usb_sunxi/built-in.o
 .data.sunxi_usb_pburn_dev
                0x00000000       0x10 usb_sunxi/built-in.o
 .data.sunxi_usb_pburn_iProduct
                0x00000000       0x20 usb_sunxi/built-in.o
 .bss           0x00000000        0x0 usb_sunxi/built-in.o
 .bss.sunxi_usb_mass_write_enable
                0x00000000        0x4 usb_sunxi/built-in.o
 .bss.mass_flash_start.5422
                0x00000000        0x4 usb_sunxi/built-in.o
 .bss.cbw.5420  0x00000000        0x4 usb_sunxi/built-in.o
 .bss.mass_flash_sectors.5423
                0x00000000        0x4 usb_sunxi/built-in.o
 .bss.sunxi_usb_mass_status
                0x00000000        0x4 usb_sunxi/built-in.o
 .bss.csw.5421  0x00000000        0xd usb_sunxi/built-in.o
 .bss.buf_queue_base_buf
                0x00000000        0x4 usb_sunxi/built-in.o
 .bss.buf_queue_tail
                0x00000000        0x4 usb_sunxi/built-in.o
 .bss.buf_queue_init_flag
                0x00000000        0x4 usb_sunxi/built-in.o
 .bss.buf_queue_head
                0x00000000        0x4 usb_sunxi/built-in.o
 .bss.buf_queue_current_len
                0x00000000        0x4 usb_sunxi/built-in.o
 .bss.buf_queue_element
                0x00000000        0xc usb_sunxi/built-in.o
 .text          0x00000000        0x0 arch/arm/lib/eabi_compat.o
 .data          0x00000000        0x0 arch/arm/lib/eabi_compat.o
 .bss           0x00000000        0x0 arch/arm/lib/eabi_compat.o
 .text.__aeabi_unwind_cpp_pr1
                0x00000000        0x4 arch/arm/lib/eabi_compat.o
 .data          0x00000000        0x0 /home/taga/NuttX/brandy/gcc-linaro/bin/../lib/gcc/arm-linux-gnueabi/4.6.3/libgcc.a(_udivsi3.o)
 .bss           0x00000000        0x0 /home/taga/NuttX/brandy/gcc-linaro/bin/../lib/gcc/arm-linux-gnueabi/4.6.3/libgcc.a(_udivsi3.o)
 .data          0x00000000        0x0 /home/taga/NuttX/brandy/gcc-linaro/bin/../lib/gcc/arm-linux-gnueabi/4.6.3/libgcc.a(_divsi3.o)
 .bss           0x00000000        0x0 /home/taga/NuttX/brandy/gcc-linaro/bin/../lib/gcc/arm-linux-gnueabi/4.6.3/libgcc.a(_divsi3.o)
 .data          0x00000000        0x0 /home/taga/NuttX/brandy/gcc-linaro/bin/../lib/gcc/arm-linux-gnueabi/4.6.3/libgcc.a(_lshrdi3.o)
 .bss           0x00000000        0x0 /home/taga/NuttX/brandy/gcc-linaro/bin/../lib/gcc/arm-linux-gnueabi/4.6.3/libgcc.a(_lshrdi3.o)
 .data          0x00000000        0x0 /home/taga/NuttX/brandy/gcc-linaro/bin/../lib/gcc/arm-linux-gnueabi/4.6.3/libgcc.a(_ashrdi3.o)
 .bss           0x00000000        0x0 /home/taga/NuttX/brandy/gcc-linaro/bin/../lib/gcc/arm-linux-gnueabi/4.6.3/libgcc.a(_ashrdi3.o)
 .data          0x00000000        0x0 /home/taga/NuttX/brandy/gcc-linaro/bin/../lib/gcc/arm-linux-gnueabi/4.6.3/libgcc.a(_ashldi3.o)
 .bss           0x00000000        0x0 /home/taga/NuttX/brandy/gcc-linaro/bin/../lib/gcc/arm-linux-gnueabi/4.6.3/libgcc.a(_ashldi3.o)
 .data          0x00000000        0x0 /home/taga/NuttX/brandy/gcc-linaro/bin/../lib/gcc/arm-linux-gnueabi/4.6.3/libgcc.a(_arm_addsubdf3.o)
 .bss           0x00000000        0x0 /home/taga/NuttX/brandy/gcc-linaro/bin/../lib/gcc/arm-linux-gnueabi/4.6.3/libgcc.a(_arm_addsubdf3.o)
 .data          0x00000000        0x0 /home/taga/NuttX/brandy/gcc-linaro/bin/../lib/gcc/arm-linux-gnueabi/4.6.3/libgcc.a(_arm_muldivdf3.o)
 .bss           0x00000000        0x0 /home/taga/NuttX/brandy/gcc-linaro/bin/../lib/gcc/arm-linux-gnueabi/4.6.3/libgcc.a(_arm_muldivdf3.o)
 .data          0x00000000        0x0 /home/taga/NuttX/brandy/gcc-linaro/bin/../lib/gcc/arm-linux-gnueabi/4.6.3/libgcc.a(_arm_fixdfsi.o)
 .bss           0x00000000        0x0 /home/taga/NuttX/brandy/gcc-linaro/bin/../lib/gcc/arm-linux-gnueabi/4.6.3/libgcc.a(_arm_fixdfsi.o)
 .text          0x00000000       0x40 /home/taga/NuttX/brandy/gcc-linaro/bin/../lib/gcc/arm-linux-gnueabi/4.6.3/libgcc.a(_arm_fixunsdfsi.o)
 .data          0x00000000        0x0 /home/taga/NuttX/brandy/gcc-linaro/bin/../lib/gcc/arm-linux-gnueabi/4.6.3/libgcc.a(_arm_fixunsdfsi.o)
 .bss           0x00000000        0x0 /home/taga/NuttX/brandy/gcc-linaro/bin/../lib/gcc/arm-linux-gnueabi/4.6.3/libgcc.a(_arm_fixunsdfsi.o)
 .note.GNU-stack
                0x00000000        0x0 /home/taga/NuttX/brandy/gcc-linaro/bin/../lib/gcc/arm-linux-gnueabi/4.6.3/libgcc.a(_arm_fixunsdfsi.o)
 .ARM.attributes
                0x00000000       0x23 /home/taga/NuttX/brandy/gcc-linaro/bin/../lib/gcc/arm-linux-gnueabi/4.6.3/libgcc.a(_arm_fixunsdfsi.o)
 .text          0x00000000       0xa0 /home/taga/NuttX/brandy/gcc-linaro/bin/../lib/gcc/arm-linux-gnueabi/4.6.3/libgcc.a(_arm_truncdfsf2.o)
 .data          0x00000000        0x0 /home/taga/NuttX/brandy/gcc-linaro/bin/../lib/gcc/arm-linux-gnueabi/4.6.3/libgcc.a(_arm_truncdfsf2.o)
 .bss           0x00000000        0x0 /home/taga/NuttX/brandy/gcc-linaro/bin/../lib/gcc/arm-linux-gnueabi/4.6.3/libgcc.a(_arm_truncdfsf2.o)
 .note.GNU-stack
                0x00000000        0x0 /home/taga/NuttX/brandy/gcc-linaro/bin/../lib/gcc/arm-linux-gnueabi/4.6.3/libgcc.a(_arm_truncdfsf2.o)
 .ARM.attributes
                0x00000000       0x23 /home/taga/NuttX/brandy/gcc-linaro/bin/../lib/gcc/arm-linux-gnueabi/4.6.3/libgcc.a(_arm_truncdfsf2.o)
 .text          0x00000000      0x21c /home/taga/NuttX/brandy/gcc-linaro/bin/../lib/gcc/arm-linux-gnueabi/4.6.3/libgcc.a(_arm_addsubsf3.o)
 .data          0x00000000        0x0 /home/taga/NuttX/brandy/gcc-linaro/bin/../lib/gcc/arm-linux-gnueabi/4.6.3/libgcc.a(_arm_addsubsf3.o)
 .bss           0x00000000        0x0 /home/taga/NuttX/brandy/gcc-linaro/bin/../lib/gcc/arm-linux-gnueabi/4.6.3/libgcc.a(_arm_addsubsf3.o)
 .note.GNU-stack
                0x00000000        0x0 /home/taga/NuttX/brandy/gcc-linaro/bin/../lib/gcc/arm-linux-gnueabi/4.6.3/libgcc.a(_arm_addsubsf3.o)
 .ARM.attributes
                0x00000000       0x23 /home/taga/NuttX/brandy/gcc-linaro/bin/../lib/gcc/arm-linux-gnueabi/4.6.3/libgcc.a(_arm_addsubsf3.o)
 .text          0x00000000      0x2a0 /home/taga/NuttX/brandy/gcc-linaro/bin/../lib/gcc/arm-linux-gnueabi/4.6.3/libgcc.a(_arm_muldivsf3.o)
 .data          0x00000000        0x0 /home/taga/NuttX/brandy/gcc-linaro/bin/../lib/gcc/arm-linux-gnueabi/4.6.3/libgcc.a(_arm_muldivsf3.o)
 .bss           0x00000000        0x0 /home/taga/NuttX/brandy/gcc-linaro/bin/../lib/gcc/arm-linux-gnueabi/4.6.3/libgcc.a(_arm_muldivsf3.o)
 .note.GNU-stack
                0x00000000        0x0 /home/taga/NuttX/brandy/gcc-linaro/bin/../lib/gcc/arm-linux-gnueabi/4.6.3/libgcc.a(_arm_muldivsf3.o)
 .ARM.attributes
                0x00000000       0x23 /home/taga/NuttX/brandy/gcc-linaro/bin/../lib/gcc/arm-linux-gnueabi/4.6.3/libgcc.a(_arm_muldivsf3.o)
 .text          0x00000000       0x4c /home/taga/NuttX/brandy/gcc-linaro/bin/../lib/gcc/arm-linux-gnueabi/4.6.3/libgcc.a(_arm_fixsfsi.o)
 .data          0x00000000        0x0 /home/taga/NuttX/brandy/gcc-linaro/bin/../lib/gcc/arm-linux-gnueabi/4.6.3/libgcc.a(_arm_fixsfsi.o)
 .bss           0x00000000        0x0 /home/taga/NuttX/brandy/gcc-linaro/bin/../lib/gcc/arm-linux-gnueabi/4.6.3/libgcc.a(_arm_fixsfsi.o)
 .note.GNU-stack
                0x00000000        0x0 /home/taga/NuttX/brandy/gcc-linaro/bin/../lib/gcc/arm-linux-gnueabi/4.6.3/libgcc.a(_arm_fixsfsi.o)
 .ARM.attributes
                0x00000000       0x23 /home/taga/NuttX/brandy/gcc-linaro/bin/../lib/gcc/arm-linux-gnueabi/4.6.3/libgcc.a(_arm_fixsfsi.o)
 .data          0x00000000        0x0 /home/taga/NuttX/brandy/gcc-linaro/bin/../lib/gcc/arm-linux-gnueabi/4.6.3/libgcc.a(_dvmd_lnx.o)
 .bss           0x00000000        0x0 /home/taga/NuttX/brandy/gcc-linaro/bin/../lib/gcc/arm-linux-gnueabi/4.6.3/libgcc.a(_dvmd_lnx.o)
 .text          0x00000000        0x0 nand_sunxi/sun8iw11p1/libnand-sun8iw11p1
 .text.del_block_count_list
                0x00000000       0x1c nand_sunxi/sun8iw11p1/libnand-sun8iw11p1
 .text.del_block_count_by_block
                0x00000000       0x48 nand_sunxi/sun8iw11p1/libnand-sun8iw11p1
 .text.print_block_count_list
                0x00000000       0x58 nand_sunxi/sun8iw11p1/libnand-sun8iw11p1
 .text.get_max_erase_time_from_free_list
                0x00000000       0x44 nand_sunxi/sun8iw11p1/libnand-sun8iw11p1
 .text.get_block_max_erase_time_from_free_list
                0x00000000       0x38 nand_sunxi/sun8iw11p1/libnand-sun8iw11p1
 .text.get_block_max_erase_time_from_invalid_list
                0x00000000       0x38 nand_sunxi/sun8iw11p1/libnand-sun8iw11p1
 .text.get_block_min_erase_time_from_invalid_list
                0x00000000       0x4c nand_sunxi/sun8iw11p1/libnand-sun8iw11p1
 .text.get_block_max_count_from_invalid_list
                0x00000000       0x30 nand_sunxi/sun8iw11p1/libnand-sun8iw11p1
 .text.get_block_min_count_from_invalid_list
                0x00000000       0x30 nand_sunxi/sun8iw11p1/libnand-sun8iw11p1
 .text.current_block_at_first_page
                0x00000000       0x10 nand_sunxi/sun8iw11p1/libnand-sun8iw11p1
 .text.fill_no_use_data_to_page
                0x00000000      0x11c nand_sunxi/sun8iw11p1/libnand-sun8iw11p1
 .text.fill_no_use_data_to_current_block
                0x00000000       0x3c nand_sunxi/sun8iw11p1/libnand-sun8iw11p1
 .text.fill_no_use_page_to_current_block
                0x00000000       0x38 nand_sunxi/sun8iw11p1/libnand-sun8iw11p1
 .text.nand_before_shutdown
                0x00000000        0x8 nand_sunxi/sun8iw11p1/libnand-sun8iw11p1
 .text.check_static_wear_leveling
                0x00000000      0x14c nand_sunxi/sun8iw11p1/libnand-sun8iw11p1
 .text.prio_gc_one
                0x00000000       0x3c nand_sunxi/sun8iw11p1/libnand-sun8iw11p1
 .text.get_total_invalid_page
                0x00000000       0x24 nand_sunxi/sun8iw11p1/libnand-sun8iw11p1
 .text.gc_all   0x00000000       0x34 nand_sunxi/sun8iw11p1/libnand-sun8iw11p1
 .text.done_static_wear_leveling
                0x00000000      0x114 nand_sunxi/sun8iw11p1/libnand-sun8iw11p1
 .text.do_static_wear_leveling
                0x00000000       0x50 nand_sunxi/sun8iw11p1/libnand-sun8iw11p1
 .text.prio_gc_all
                0x00000000       0x2c nand_sunxi/sun8iw11p1/libnand-sun8iw11p1
 .text.static_wear_leveling
                0x00000000       0x80 nand_sunxi/sun8iw11p1/libnand-sun8iw11p1
 .text.nftl_cache_exit
                0x00000000       0x44 nand_sunxi/sun8iw11p1/libnand-sun8iw11p1
 .text.nftl_cache_clean
                0x00000000       0xa0 nand_sunxi/sun8iw11p1/libnand-sun8iw11p1
 .text.print_logic_page_map
                0x00000000       0x7c nand_sunxi/sun8iw11p1/libnand-sun8iw11p1
 .text.get_last_nftl
                0x00000000       0x1c nand_sunxi/sun8iw11p1/libnand-sun8iw11p1
 .text.get_nftl_need_read_claim
                0x00000000       0x4c nand_sunxi/sun8iw11p1/libnand-sun8iw11p1
 .text.get_nftl_read_claim_page_no
                0x00000000       0x28 nand_sunxi/sun8iw11p1/libnand-sun8iw11p1
 .text.clean_read_reclaim_complete_flag
                0x00000000       0x28 nand_sunxi/sun8iw11p1/libnand-sun8iw11p1
 .text.set_nftl_read_claim_complete
                0x00000000       0x70 nand_sunxi/sun8iw11p1/libnand-sun8iw11p1
 .text.set_nftl_read_claim_flag
                0x00000000       0x24 nand_sunxi/sun8iw11p1/libnand-sun8iw11p1
 .text.get_cold_logic_page
                0x00000000       0x64 nand_sunxi/sun8iw11p1/libnand-sun8iw11p1
 .text.read_reclaim
                0x00000000       0x74 nand_sunxi/sun8iw11p1/libnand-sun8iw11p1
 .text.nftl_sector_cache_init
                0x00000000       0xa4 nand_sunxi/sun8iw11p1/libnand-sun8iw11p1
 .text.nftl_sector_cache_exit
                0x00000000       0x14 nand_sunxi/sun8iw11p1/libnand-sun8iw11p1
 .text.search_from_sector_cache_write_list
                0x00000000       0x24 nand_sunxi/sun8iw11p1/libnand-sun8iw11p1
 .text.get_empty_sector_cahce_node
                0x00000000       0x40 nand_sunxi/sun8iw11p1/libnand-sun8iw11p1
 .text.add_to_sector_cache_write_list_tail
                0x00000000       0x40 nand_sunxi/sun8iw11p1/libnand-sun8iw11p1
 .text.del_from_sector_cache_write_list
                0x00000000       0x44 nand_sunxi/sun8iw11p1/libnand-sun8iw11p1
 .text.nand_sector_cache_read
                0x00000000       0x6c nand_sunxi/sun8iw11p1/libnand-sun8iw11p1
 .text.__nand_sector_read
                0x00000000       0x4c nand_sunxi/sun8iw11p1/libnand-sun8iw11p1
 .text.nand_sector_cache_write
                0x00000000       0xe8 nand_sunxi/sun8iw11p1/libnand-sun8iw11p1
 .text.__nand_sector_write
                0x00000000       0x4c nand_sunxi/sun8iw11p1/libnand-sun8iw11p1
 .text.__nand_flush_sector_write_cache
                0x00000000       0x70 nand_sunxi/sun8iw11p1/libnand-sun8iw11p1
 .text.set_no_use_page
                0x00000000       0x3c nand_sunxi/sun8iw11p1/libnand-sun8iw11p1
 .text.get_bad_flag_from_oob
                0x00000000       0x1c nand_sunxi/sun8iw11p1/libnand-sun8iw11p1
 .text.free_logic_page_map
                0x00000000       0x30 nand_sunxi/sun8iw11p1/libnand-sun8iw11p1
 .text.zone_param_exit
                0x00000000       0x3c nand_sunxi/sun8iw11p1/libnand-sun8iw11p1
 .text.do_write_error_in_build_list
                0x00000000      0x11c nand_sunxi/sun8iw11p1/libnand-sun8iw11p1
 .text.get_vaild_blocks
                0x00000000       0x80 nand_sunxi/sun8iw11p1/libnand-sun8iw11p1
 .text.is_phy_block_valid
                0x00000000       0x1c nand_sunxi/sun8iw11p1/libnand-sun8iw11p1
 .text.check_cross_talk
                0x00000000       0x94 nand_sunxi/sun8iw11p1/libnand-sun8iw11p1
 .text.get_used_block_count
                0x00000000       0x54 nand_sunxi/sun8iw11p1/libnand-sun8iw11p1
 .text.block_last_page_ecc_error
                0x00000000      0x2b8 nand_sunxi/sun8iw11p1/libnand-sun8iw11p1
 .text.adjust_free_list
                0x00000000       0x68 nand_sunxi/sun8iw11p1/libnand-sun8iw11p1
 .text.nand_dbg_phy_read
                0x00000000      0x118 nand_sunxi/sun8iw11p1/libnand-sun8iw11p1
 .text.nand_dbg_zone_phy_read
                0x00000000      0x138 nand_sunxi/sun8iw11p1/libnand-sun8iw11p1
 .text.nand_dbg_zone_phy_write
                0x00000000       0xd8 nand_sunxi/sun8iw11p1/libnand-sun8iw11p1
 .text.nand_dbg_phy_write
                0x00000000       0xb4 nand_sunxi/sun8iw11p1/libnand-sun8iw11p1
 .text.nand_dbg_zone_erase
                0x00000000       0x34 nand_sunxi/sun8iw11p1/libnand-sun8iw11p1
 .text.nand_dbg_phy_erase
                0x00000000        0x4 nand_sunxi/sun8iw11p1/libnand-sun8iw11p1
 .text.nand_dbg_single_phy_erase
                0x00000000        0x4 nand_sunxi/sun8iw11p1/libnand-sun8iw11p1
 .text.clean_block_list
                0x00000000       0x84 nand_sunxi/sun8iw11p1/libnand-sun8iw11p1
 .text.nand_clean_zone_table2
                0x00000000      0x174 nand_sunxi/sun8iw11p1/libnand-sun8iw11p1
 .text.nand_clean_zone_table
                0x00000000       0x30 nand_sunxi/sun8iw11p1/libnand-sun8iw11p1
 .text.nand_find_zone_table
                0x00000000       0x74 nand_sunxi/sun8iw11p1/libnand-sun8iw11p1
 .text.write_data_to_nand
                0x00000000       0x6c nand_sunxi/sun8iw11p1/libnand-sun8iw11p1
 .text.nand_check_table
                0x00000000       0x60 nand_sunxi/sun8iw11p1/libnand-sun8iw11p1
 .text.nftl_zone_release
                0x00000000       0x34 nand_sunxi/sun8iw11p1/libnand-sun8iw11p1
 .text.nftl_set_zone_test
                0x00000000        0x8 nand_sunxi/sun8iw11p1/libnand-sun8iw11p1
 .text.nftl_get_zone_write_cache_nums
                0x00000000        0xc nand_sunxi/sun8iw11p1/libnand-sun8iw11p1
 .text.del_last_nftl_blk
                0x00000000       0x2c nand_sunxi/sun8iw11p1/libnand-sun8iw11p1
 .text.nftl_exit
                0x00000000       0x28 nand_sunxi/sun8iw11p1/libnand-sun8iw11p1
 .text.nand_ftl_exit
                0x00000000       0x30 nand_sunxi/sun8iw11p1/libnand-sun8iw11p1
 .text.print_all_nftl_blk
                0x00000000       0x34 nand_sunxi/sun8iw11p1/libnand-sun8iw11p1
 .text.get_nftl_num
                0x00000000       0x24 nand_sunxi/sun8iw11p1/libnand-sun8iw11p1
 .text.get_first_nftl_cap
                0x00000000       0x14 nand_sunxi/sun8iw11p1/libnand-sun8iw11p1
 .text.nftl_discard
                0x00000000       0x6c nand_sunxi/sun8iw11p1/libnand-sun8iw11p1
 .text.nftl_write_end
                0x00000000       0x34 nand_sunxi/sun8iw11p1/libnand-sun8iw11p1
 .text.free_nand_partition
                0x00000000       0x20 nand_sunxi/sun8iw11p1/libnand-sun8iw11p1
 .text.bitmap_change
                0x00000000       0x10 nand_sunxi/sun8iw11p1/libnand-sun8iw11p1
 .text.free_phy_partition
                0x00000000       0x28 nand_sunxi/sun8iw11p1/libnand-sun8iw11p1
 .text.get_next_phy_partition
                0x00000000        0x8 nand_sunxi/sun8iw11p1/libnand-sun8iw11p1
 .text.get_disk_from_phy_partition
                0x00000000        0x8 nand_sunxi/sun8iw11p1/libnand-sun8iw11p1
 .text.get_partitionNO
                0x00000000        0x8 nand_sunxi/sun8iw11p1/libnand-sun8iw11p1
 .text.get_phy_partition_from_num
                0x00000000       0x20 nand_sunxi/sun8iw11p1/libnand-sun8iw11p1
 .text.erase_phy_partition
                0x00000000       0xb8 nand_sunxi/sun8iw11p1/libnand-sun8iw11p1
 .text.erase_last_phy_partition
                0x00000000       0x64 nand_sunxi/sun8iw11p1/libnand-sun8iw11p1
 .text.test_mbr
                0x00000000       0x7c nand_sunxi/sun8iw11p1/libnand-sun8iw11p1
 .text.write_new_block_table
                0x00000000       0xe8 nand_sunxi/sun8iw11p1/libnand-sun8iw11p1
 .text.calc_crc32
                0x00000000       0xa8 nand_sunxi/sun8iw11p1/libnand-sun8iw11p1
 .text.get_head_phy_partition_from_nand_info
                0x00000000        0x8 nand_sunxi/sun8iw11p1/libnand-sun8iw11p1
 .text.set_cache_level
                0x00000000        0xc nand_sunxi/sun8iw11p1/libnand-sun8iw11p1
 .text.set_read_reclaim_interval
                0x00000000        0x8 nand_sunxi/sun8iw11p1/libnand-sun8iw11p1
 .text.debug_read_block
                0x00000000       0xd0 nand_sunxi/sun8iw11p1/libnand-sun8iw11p1
 .text.debug_read_chip
                0x00000000       0x68 nand_sunxi/sun8iw11p1/libnand-sun8iw11p1
 .text.print_mbr_data
                0x00000000       0xa8 nand_sunxi/sun8iw11p1/libnand-sun8iw11p1
 .text.show_spare
                0x00000000      0x3b8 nand_sunxi/sun8iw11p1/libnand-sun8iw11p1
 .text.nand_show_data
                0x00000000       0x5c nand_sunxi/sun8iw11p1/libnand-sun8iw11p1
 .text.show_dict_page
                0x00000000       0xe4 nand_sunxi/sun8iw11p1/libnand-sun8iw11p1
 .text.show_logic_page_all_history
                0x00000000      0x16c nand_sunxi/sun8iw11p1/libnand-sun8iw11p1
 .text.nand_super_page_test
                0x00000000      0x1c0 nand_sunxi/sun8iw11p1/libnand-sun8iw11p1
 .text.nand_phy_page_test
                0x00000000      0x19c nand_sunxi/sun8iw11p1/libnand-sun8iw11p1
 .text.nand_phy_block_test
                0x00000000      0x268 nand_sunxi/sun8iw11p1/libnand-sun8iw11p1
 .text.nand_phy_block_erase_test
                0x00000000      0x1d4 nand_sunxi/sun8iw11p1/libnand-sun8iw11p1
 .text.nand_phy_erase_all
                0x00000000       0x70 nand_sunxi/sun8iw11p1/libnand-sun8iw11p1
 .text.nand_phy_check_all
                0x00000000       0xd4 nand_sunxi/sun8iw11p1/libnand-sun8iw11p1
 .text.nand_phy_read_block_test
                0x00000000       0xf0 nand_sunxi/sun8iw11p1/libnand-sun8iw11p1
 .text.nand_update_end
                0x00000000       0x7c nand_sunxi/sun8iw11p1/libnand-sun8iw11p1
 .text.NandHwSuperStandby
                0x00000000       0x60 nand_sunxi/sun8iw11p1/libnand-sun8iw11p1
 .text.NandHwSuperResume
                0x00000000       0xa8 nand_sunxi/sun8iw11p1/libnand-sun8iw11p1
 .text.NandHwNormalStandby
                0x00000000       0x20 nand_sunxi/sun8iw11p1/libnand-sun8iw11p1
 .text.NandHwNormalResume
                0x00000000       0x1c nand_sunxi/sun8iw11p1/libnand-sun8iw11p1
 .text.NandHwShutDown
                0x00000000       0x24 nand_sunxi/sun8iw11p1/libnand-sun8iw11p1
 .text.NAND_GetLogicPageSize
                0x00000000       0x14 nand_sunxi/sun8iw11p1/libnand-sun8iw11p1
 .text.do_nand_interrupt
                0x00000000       0x58 nand_sunxi/sun8iw11p1/libnand-sun8iw11p1
 .text.check_nboot_table
                0x00000000        0x8 nand_sunxi/sun8iw11p1/libnand-sun8iw11p1
 .text.nand_check_nboot
                0x00000000      0x174 nand_sunxi/sun8iw11p1/libnand-sun8iw11p1
 .text.nand_get_nboot_total_len
                0x00000000        0x8 nand_sunxi/sun8iw11p1/libnand-sun8iw11p1
 .text.nand_dragonborad_test_one
                0x00000000      0x1bc nand_sunxi/sun8iw11p1/libnand-sun8iw11p1
 .text.change_uboot_start_block
                0x00000000       0x74 nand_sunxi/sun8iw11p1/libnand-sun8iw11p1
 .text.get_physic_block_reserved
                0x00000000       0x1c nand_sunxi/sun8iw11p1/libnand-sun8iw11p1
 .text.print_uboot_info
                0x00000000       0xd0 nand_sunxi/sun8iw11p1/libnand-sun8iw11p1
 .text.get_uboot_offset
                0x00000000        0x8 nand_sunxi/sun8iw11p1/libnand-sun8iw11p1
 .text.is_uboot_magic
                0x00000000       0x1c nand_sunxi/sun8iw11p1/libnand-sun8iw11p1
 .text.check_magic_physic_info
                0x00000000       0x34 nand_sunxi/sun8iw11p1/libnand-sun8iw11p1
 .text.nand_check_uboot
                0x00000000      0x298 nand_sunxi/sun8iw11p1/libnand-sun8iw11p1
 .text.print_physic_info
                0x00000000       0x50 nand_sunxi/sun8iw11p1/libnand-sun8iw11p1
 .text.physic_info_add_to_uboot_tail
                0x00000000       0x54 nand_sunxi/sun8iw11p1/libnand-sun8iw11p1
 .text.uboot_info_init
                0x00000000      0x234 nand_sunxi/sun8iw11p1/libnand-sun8iw11p1
 .text.nand_get_uboot_total_len
                0x00000000       0x3c nand_sunxi/sun8iw11p1/libnand-sun8iw11p1
 .text.NAND_Get_SecureBlock_Start
                0x00000000       0x14 nand_sunxi/sun8iw11p1/libnand-sun8iw11p1
 .text.nand_is_support_secure_storage
                0x00000000        0x8 nand_sunxi/sun8iw11p1/libnand-sun8iw11p1
 .text.nand_secure_storage_clean_data
                0x00000000       0x38 nand_sunxi/sun8iw11p1/libnand-sun8iw11p1
 .text.nand_secure_storage_clean
                0x00000000       0x1c nand_sunxi/sun8iw11p1/libnand-sun8iw11p1
 .text.is_nand_secure_storage_build
                0x00000000       0x20 nand_sunxi/sun8iw11p1/libnand-sun8iw11p1
 .text.get_nand_secure_storage_max_item
                0x00000000       0x14 nand_sunxi/sun8iw11p1/libnand-sun8iw11p1
 .text.nand_secure_storage_test
                0x00000000      0x138 nand_sunxi/sun8iw11p1/libnand-sun8iw11p1
 .text.nand_secure_storage_test_read
                0x00000000       0xb4 nand_sunxi/sun8iw11p1/libnand-sun8iw11p1
 .text.nand_read_scan_data
                0x00000000        0x4 nand_sunxi/sun8iw11p1/libnand-sun8iw11p1
 .text.nand_sync_reset_chip
                0x00000000       0x6c nand_sunxi/sun8iw11p1/libnand-sun8iw11p1
 .text.is_chip_rb_ready
                0x00000000       0x18 nand_sunxi/sun8iw11p1/libnand-sun8iw11p1
 .text.switch_ddrtype_from_ddr_to_sdr
                0x00000000       0x68 nand_sunxi/sun8iw11p1/libnand-sun8iw11p1
 .text.nand_physic_bad_block_mark
                0x00000000       0x50 nand_sunxi/sun8iw11p1/libnand-sun8iw11p1
 .text.nand_write_data_in_whole_block
                0x00000000      0x124 nand_sunxi/sun8iw11p1/libnand-sun8iw11p1
 .text.nand_read_data_in_whole_block
                0x00000000      0x110 nand_sunxi/sun8iw11p1/libnand-sun8iw11p1
 .text.write_nand_structure
                0x00000000      0x1e0 nand_sunxi/sun8iw11p1/libnand-sun8iw11p1
 .text.set_nand_structure
                0x00000000       0xdc nand_sunxi/sun8iw11p1/libnand-sun8iw11p1
 .text.NAND_UsedLsbPages
                0x00000000       0x50 nand_sunxi/sun8iw11p1/libnand-sun8iw11p1
 .text.nand_reset_super_chip
                0x00000000        0x8 nand_sunxi/sun8iw11p1/libnand-sun8iw11p1
 .text.nand_read_super_chip_status
                0x00000000        0x8 nand_sunxi/sun8iw11p1/libnand-sun8iw11p1
 .text.is_super_chip_rb_ready
                0x00000000        0x8 nand_sunxi/sun8iw11p1/libnand-sun8iw11p1
 .text.nctri_get
                0x00000000       0x1c nand_sunxi/sun8iw11p1/libnand-sun8iw11p1
 .text.gen_rand_num
                0x00000000       0xc0 nand_sunxi/sun8iw11p1/libnand-sun8iw11p1
 .text._cal_random_seed
                0x00000000       0x14 nand_sunxi/sun8iw11p1/libnand-sun8iw11p1
 .text.ndfc_deselect_chip
                0x00000000        0x4 nand_sunxi/sun8iw11p1/libnand-sun8iw11p1
 .text.ndfc_deselect_rb
                0x00000000        0x4 nand_sunxi/sun8iw11p1/libnand-sun8iw11p1
 .text.ndfc_get_selected_rb_no
                0x00000000       0x10 nand_sunxi/sun8iw11p1/libnand-sun8iw11p1
 .text.ndfc_get_rb_sta
                0x00000000       0x24 nand_sunxi/sun8iw11p1/libnand-sun8iw11p1
 .text.ndfc_get_page_size
                0x00000000       0x10 nand_sunxi/sun8iw11p1/libnand-sun8iw11p1
 .text.ndfc_set_page_size
                0x00000000       0x20 nand_sunxi/sun8iw11p1/libnand-sun8iw11p1
 .text.ndfc_clear_rb_b2r_int
                0x00000000       0x10 nand_sunxi/sun8iw11p1/libnand-sun8iw11p1
 .text.ndfc_get_rb_b2r_int_sta
                0x00000000       0x10 nand_sunxi/sun8iw11p1/libnand-sun8iw11p1
 .text.ndfc_check_rb_b2r_int_occur
                0x00000000       0x20 nand_sunxi/sun8iw11p1/libnand-sun8iw11p1
 .text.ndfc_enable_cmd_int
                0x00000000       0x14 nand_sunxi/sun8iw11p1/libnand-sun8iw11p1
 .text.ndfc_disable_cmd_int
                0x00000000       0x14 nand_sunxi/sun8iw11p1/libnand-sun8iw11p1
 .text.ndfc_clear_cmd_int
                0x00000000       0x10 nand_sunxi/sun8iw11p1/libnand-sun8iw11p1
 .text.ndfc_get_cmd_int_sta
                0x00000000       0x10 nand_sunxi/sun8iw11p1/libnand-sun8iw11p1
 .text.ndfc_check_cmd_int_occur
                0x00000000       0x20 nand_sunxi/sun8iw11p1/libnand-sun8iw11p1
 .text.ndfc_get_dma_int_sta
                0x00000000       0x10 nand_sunxi/sun8iw11p1/libnand-sun8iw11p1
 .text.ndfc_check_dma_int_occur
                0x00000000       0x20 nand_sunxi/sun8iw11p1/libnand-sun8iw11p1
 .text.recover_nctri
                0x00000000       0x5c nand_sunxi/sun8iw11p1/libnand-sun8iw11p1
 .text.print_cmd_seq
                0x00000000      0x170 nand_sunxi/sun8iw11p1/libnand-sun8iw11p1
 .text._setup_ndfc_ddr2_para
                0x00000000        0x4 nand_sunxi/sun8iw11p1/libnand-sun8iw11p1
 .text._set_ndfc_def_timing_param
                0x00000000       0x68 nand_sunxi/sun8iw11p1/libnand-sun8iw11p1
 .text.m0_read_two_plane_page_start
                0x00000000      0x144 nand_sunxi/sun8iw11p1/libnand-sun8iw11p1
 .text.m0_read_two_plane_page_end
                0x00000000        0x8 nand_sunxi/sun8iw11p1/libnand-sun8iw11p1
 .text.m1_vender_get_param
                0x00000000       0x70 nand_sunxi/sun8iw11p1/libnand-sun8iw11p1
 .text.m4_readretry_exit
                0x00000000       0x20 nand_sunxi/sun8iw11p1/libnand-sun8iw11p1
 .text.m5_readretry_exit
                0x00000000        0x8 nand_sunxi/sun8iw11p1/libnand-sun8iw11p1
 .text.m6_readretry_exit
                0x00000000        0x8 nand_sunxi/sun8iw11p1/libnand-sun8iw11p1
 .text.m7_readretry_exit
                0x00000000        0x8 nand_sunxi/sun8iw11p1/libnand-sun8iw11p1
 .text.m9_readretry_exit
                0x00000000        0x8 nand_sunxi/sun8iw11p1/libnand-sun8iw11p1
 .text.m9_read_retry_clock_save
                0x00000000       0x40 nand_sunxi/sun8iw11p1/libnand-sun8iw11p1
 .text.m9_read_retry_clock_recover
                0x00000000       0x30 nand_sunxi/sun8iw11p1/libnand-sun8iw11p1
 .rodata.__func__.5250
                0x00000000       0x17 nand_sunxi/sun8iw11p1/libnand-sun8iw11p1
 .rodata.__func__.5821
                0x00000000       0x13 nand_sunxi/sun8iw11p1/libnand-sun8iw11p1
 .rodata.__func__.5713
                0x00000000       0x12 nand_sunxi/sun8iw11p1/libnand-sun8iw11p1
 .rodata.__func__.5681
                0x00000000       0x1a nand_sunxi/sun8iw11p1/libnand-sun8iw11p1
 .rodata.__func__.5727
                0x00000000       0x17 nand_sunxi/sun8iw11p1/libnand-sun8iw11p1
 .rodata.__func__.5739
                0x00000000       0x18 nand_sunxi/sun8iw11p1/libnand-sun8iw11p1
 .rodata.__func__.5748
                0x00000000       0x13 nand_sunxi/sun8iw11p1/libnand-sun8iw11p1
 .rodata.__func__.5553
                0x00000000       0x19 nand_sunxi/sun8iw11p1/libnand-sun8iw11p1
 .rodata.__func__.5570
                0x00000000       0x1e nand_sunxi/sun8iw11p1/libnand-sun8iw11p1
 .rodata.default_random_seed
                0x00000000        0x4 nand_sunxi/sun8iw11p1/libnand-sun8iw11p1
 .data          0x00000000        0x0 nand_sunxi/sun8iw11p1/libnand-sun8iw11p1
 .data.m2_read_retry_reg_adr_1
                0x00000000        0x8 nand_sunxi/sun8iw11p1/libnand-sun8iw11p1
 .data.m2_read_retry_reg_adr_2
                0x00000000        0x8 nand_sunxi/sun8iw11p1/libnand-sun8iw11p1
 .data.m7_read_retry_enable_cmd_19
                0x00000000        0x1 nand_sunxi/sun8iw11p1/libnand-sun8iw11p1
 .data.m7_read_retry_exit_cmd_1y
                0x00000000        0x1 nand_sunxi/sun8iw11p1/libnand-sun8iw11p1
 .data.m7_read_retry_enable_cmd_1y
                0x00000000        0x1 nand_sunxi/sun8iw11p1/libnand-sun8iw11p1
 .data.m7_read_retry_cmd_24
                0x00000000        0x3 nand_sunxi/sun8iw11p1/libnand-sun8iw11p1
 .data.m9_read_retry_enable_cmd_1y
                0x00000000        0x1 nand_sunxi/sun8iw11p1/libnand-sun8iw11p1
 .data.m9_read_retry_exit_cmd_1y
                0x00000000        0x1 nand_sunxi/sun8iw11p1/libnand-sun8iw11p1
 .bss           0x00000000        0x0 nand_sunxi/sun8iw11p1/libnand-sun8iw11p1
 .bss.uboot_info
                0x00000000      0x100 nand_sunxi/sun8iw11p1/libnand-sun8iw11p1
 .bss.m9_sclk1_bak
                0x00000000        0x4 nand_sunxi/sun8iw11p1/libnand-sun8iw11p1
 .bss.m9_sclk0_bak
                0x00000000        0x4 nand_sunxi/sun8iw11p1/libnand-sun8iw11p1

Memory Configuration

Name             Origin             Length             Attributes
*default*        0x00000000         0xffffffff

Linker script and memory map

                0x4a000000                . = 0x4a000000
                0x4a000000                . = ALIGN (0x4)

.head           0x4a000000      0x600
 *(.__image_copy_start)
 .__image_copy_start
                0x4a000000        0x0 arch/arm/lib/built-in.o
                0x4a000000                __image_copy_start
 arch/arm/cpu/armv7/spare_head.o(.data*)
 .data.uboot_spare_head
                0x4a000000      0x600 arch/arm/cpu/armv7/spare_head.o
                0x4a000000                uboot_spare_head

.hash           0x4a000600       0x40
 arch/arm/cpu/armv7/uboot_hash.o(.data*)
 .data.uboot_hash_value
                0x4a000600       0x40 arch/arm/cpu/armv7/uboot_hash.o
                0x4a000600                uboot_hash_value
                0x4a000640                . = ALIGN (0x4)

.text           0x4a000640    0x93834
 *(.vectors)
 .vectors       0x4a000640      0x2c0 arch/arm/lib/built-in.o
                0x4a000640                _start
                0x4a000660                _reset_vec
                0x4a000664                _undefined_instruction
                0x4a000668                _software_interrupt
                0x4a00066c                _prefetch_abort
                0x4a000670                _data_abort
                0x4a000674                _not_used
                0x4a000678                _irq
                0x4a00067c                _fiq
                0x4a000680                IRQ_STACK_START_IN
                0x4a000684                IRQ_STACK_START
                0x4a000688                FIQ_STACK_START
 arch/arm/cpu/armv7/start.o(.text*)
 .text          0x4a000900       0xd8 arch/arm/cpu/armv7/start.o
                0x4a000900                _TEXT_BASE
                0x4a000904                reset
                0x4a000944                c_runtime_cpu_setup
                0x4a00095c                save_boot_params
                0x4a000960                cpu_init_cp15
                0x4a000998                cpu_init_crit
                0x4a00099c                get_core_pos
                0x4a0009b0                cpu0_set_irq_stack
 *(.text*)
 .text          0x4a0009d8       0x24 arch/arm/cpu/armv7/built-in.o
                0x4a0009d8                lowlevel_init
 .text.v7_maint_dcache_all
                0x4a0009fc       0xe8 arch/arm/cpu/armv7/built-in.o
 .text.v7_dcache_maint_range
                0x4a000ae4       0xc8 arch/arm/cpu/armv7/built-in.o
 .text.invalidate_icache_all
                0x4a000bac       0x18 arch/arm/cpu/armv7/built-in.o
                0x4a000bac                invalidate_icache_all
 .text.v7_outer_cache_enable
                0x4a000bc4        0x4 arch/arm/cpu/armv7/built-in.o
                0x4a000bc4                v7_outer_cache_enable
 .text.v7_outer_cache_disable
                0x4a000bc8        0x4 arch/arm/cpu/armv7/built-in.o
                0x4a000bc8                v7_outer_cache_disable
 .text.v7_outer_cache_flush_all
                0x4a000bcc        0x4 arch/arm/cpu/armv7/built-in.o
                0x4a000bcc                v7_outer_cache_flush_all
 .text.flush_dcache_all
                0x4a000bd0       0x14 arch/arm/cpu/armv7/built-in.o
                0x4a000bd0                flush_dcache_all
 .text.v7_outer_cache_inval_all
                0x4a000be4        0x4 arch/arm/cpu/armv7/built-in.o
                0x4a000be4                v7_outer_cache_inval_all
 .text.invalidate_dcache_all
                0x4a000be8       0x14 arch/arm/cpu/armv7/built-in.o
                0x4a000be8                invalidate_dcache_all
 .text.arm_init_before_mmu
                0x4a000bfc       0x28 arch/arm/cpu/armv7/built-in.o
                0x4a000bfc                arm_init_before_mmu
 .text.v7_outer_cache_flush_range
                0x4a000c24        0x4 arch/arm/cpu/armv7/built-in.o
                0x4a000c24                v7_outer_cache_flush_range
 .text.flush_dcache_range
                0x4a000c28       0x24 arch/arm/cpu/armv7/built-in.o
                0x4a000c28                flush_dcache_range
 .text.flush_cache
                0x4a000c4c        0x8 arch/arm/cpu/armv7/built-in.o
                0x4a000c4c                flush_cache
 .text.v7_outer_cache_inval_range
                0x4a000c54        0x4 arch/arm/cpu/armv7/built-in.o
                0x4a000c54                v7_outer_cache_inval_range
 .text.invalidate_dcache_range
                0x4a000c58       0x24 arch/arm/cpu/armv7/built-in.o
                0x4a000c58                invalidate_dcache_range
 .text.cpu_cache_initialization
                0x4a000c7c        0x4 arch/arm/cpu/armv7/built-in.o
                0x4a000c7c                cpu_cache_initialization
 .text.cleanup_before_linux
                0x4a000c80       0x28 arch/arm/cpu/armv7/built-in.o
                0x4a000c80                cleanup_before_linux
 .text.sunxi_clock_get_pll6
                0x4a000ca8       0x30 arch/arm/cpu/armv7/sun8iw11p1/built-in.o
                0x4a000ca8                sunxi_clock_get_pll6
 .text.sunxi_clock_get_corepll
                0x4a000cd8       0x6c arch/arm/cpu/armv7/sun8iw11p1/built-in.o
                0x4a000cd8                sunxi_clock_get_corepll
 .text.sunxi_clock_get_axi
                0x4a000d44       0x24 arch/arm/cpu/armv7/sun8iw11p1/built-in.o
                0x4a000d44                sunxi_clock_get_axi
 .text.sunxi_clock_get_ahb
                0x4a000d68       0x58 arch/arm/cpu/armv7/sun8iw11p1/built-in.o
                0x4a000d68                sunxi_clock_get_ahb
 .text.sunxi_clock_get_apb
                0x4a000dc0       0x28 arch/arm/cpu/armv7/sun8iw11p1/built-in.o
                0x4a000dc0                sunxi_clock_get_apb
 .text.sunxi_clock_get_mbus
                0x4a000de8       0x48 arch/arm/cpu/armv7/sun8iw11p1/built-in.o
                0x4a000de8                sunxi_clock_get_mbus
 .text.pll_lock_is_new_mode
                0x4a000e30       0x14 arch/arm/cpu/armv7/sun8iw11p1/built-in.o
                0x4a000e30                pll_lock_is_new_mode
 .text.enable_pll_lock_bit
                0x4a000e44       0x18 arch/arm/cpu/armv7/sun8iw11p1/built-in.o
                0x4a000e44                enable_pll_lock_bit
 .text.disable_pll_lock_bit
                0x4a000e5c       0x18 arch/arm/cpu/armv7/sun8iw11p1/built-in.o
                0x4a000e5c                disable_pll_lock_bit
 .text.sunxi_clock_set_corepll
                0x4a000e74      0x108 arch/arm/cpu/armv7/sun8iw11p1/built-in.o
                0x4a000e74                sunxi_clock_set_corepll
 .text.ccm_module_disable
                0x4a000f7c       0x24 arch/arm/cpu/armv7/sun8iw11p1/built-in.o
                0x4a000f7c                ccm_module_disable
 .text.ccm_module_enable
                0x4a000fa0       0x24 arch/arm/cpu/armv7/sun8iw11p1/built-in.o
                0x4a000fa0                ccm_module_enable
 .text.ccm_clock_enable
                0x4a000fc4       0x4c arch/arm/cpu/armv7/sun8iw11p1/built-in.o
                0x4a000fc4                ccm_clock_enable
 .text.ccm_module_reset
                0x4a001010       0x18 arch/arm/cpu/armv7/sun8iw11p1/built-in.o
                0x4a001010                ccm_module_reset
 .text.ccm_get_pll_periph_clk
                0x4a001028        0x4 arch/arm/cpu/armv7/sun8iw11p1/built-in.o
                0x4a001028                ccm_get_pll_periph_clk
 .text.power_source_init
                0x4a00102c      0x158 arch/arm/cpu/armv7/sun8iw11p1/built-in.o
                0x4a00102c                power_source_init
 .text.sunxi_probe_securemode
                0x4a001184       0x14 arch/arm/cpu/armv7/sun8iw11p1/built-in.o
                0x4a001184                sunxi_probe_securemode
 .text.sunxi_set_secure_mode
                0x4a001198        0x8 arch/arm/cpu/armv7/sun8iw11p1/built-in.o
                0x4a001198                sunxi_set_secure_mode
 .text.axp_usb_vbus_output
                0x4a0011a0       0x44 arch/arm/cpu/armv7/sun8iw11p1/built-in.o
                0x4a0011a0                axp_usb_vbus_output
 .text.usb_open_clock
                0x4a0011e4       0x80 arch/arm/cpu/armv7/sun8iw11p1/built-in.o
                0x4a0011e4                usb_open_clock
 .text.usb_close_clock
                0x4a001264       0x54 arch/arm/cpu/armv7/sun8iw11p1/built-in.o
                0x4a001264                usb_close_clock
 .text.s_init   0x4a0012b8       0x14 arch/arm/cpu/armv7/sunxi-common/built-in.o
                0x4a0012b8                s_init
 .text.reset_cpu
                0x4a0012cc       0x14 arch/arm/cpu/armv7/sunxi-common/built-in.o
                0x4a0012cc                reset_cpu
 .text.enable_caches
                0x4a0012e0       0x10 arch/arm/cpu/armv7/sunxi-common/built-in.o
                0x4a0012e0                enable_caches
 .text.script_init
                0x4a0012f0       0x40 arch/arm/cpu/armv7/sunxi-common/built-in.o
                0x4a0012f0                script_init
 .text.sunxi_set_fel_flag
                0x4a001330       0x1c arch/arm/cpu/armv7/sunxi-common/built-in.o
                0x4a001330                sunxi_set_fel_flag
 .text.sunxi_board_close_source
                0x4a00134c       0x2c arch/arm/cpu/armv7/sunxi-common/built-in.o
                0x4a00134c                sunxi_board_close_source
 .text.sunxi_pmu_reset
                0x4a001378        0xc arch/arm/cpu/armv7/sunxi-common/built-in.o
                0x4a001378                sunxi_pmu_reset
 .text.sunxi_board_restart
                0x4a001384       0x50 arch/arm/cpu/armv7/sunxi-common/built-in.o
                0x4a001384                sunxi_board_restart
 .text.sunxi_board_shutdown
                0x4a0013d4       0x58 arch/arm/cpu/armv7/sunxi-common/built-in.o
                0x4a0013d4                sunxi_board_shutdown
 .text.sunxi_board_prepare_kernel
                0x4a00142c       0x24 arch/arm/cpu/armv7/sunxi-common/built-in.o
                0x4a00142c                sunxi_board_prepare_kernel
 .text.sunxi_flush_allcaches
                0x4a001450       0x14 arch/arm/cpu/armv7/sunxi-common/built-in.o
                0x4a001450                sunxi_flush_allcaches
 .text.sunxi_board_run_fel
                0x4a001464       0x5c arch/arm/cpu/armv7/sunxi-common/built-in.o
                0x4a001464                sunxi_board_run_fel
 .text.sunxi_board_run_fel_eraly
                0x4a0014c0       0x44 arch/arm/cpu/armv7/sunxi-common/built-in.o
                0x4a0014c0                sunxi_board_run_fel_eraly
 .text.sunxi_probe_secure_monitor
                0x4a001504       0x1c arch/arm/cpu/armv7/sunxi-common/built-in.o
                0x4a001504                sunxi_probe_secure_monitor
 .text.sunxi_probe_secure_os
                0x4a001520       0x10 arch/arm/cpu/armv7/sunxi-common/built-in.o
                0x4a001520                sunxi_probe_secure_os
 .text.sunxi_get_securemode
                0x4a001530        0x8 arch/arm/cpu/armv7/sunxi-common/built-in.o
                0x4a001530                sunxi_get_securemode
 *fill*         0x4a001538        0x8 00
 .text          0x4a001540      0x58c arch/arm/lib/built-in.o
                0x4a001540                _main
                0x4a0015c4                relocate_code
                0x4a001660                memset
                0x4a001720                memcpy
 .text.arch_fixup_memory_node
                0x4a001acc       0x38 arch/arm/lib/built-in.o
                0x4a001acc                arch_fixup_memory_node
 .text.boot_jump_linux
                0x4a001b04       0xd8 arch/arm/lib/built-in.o
 .text.arch_lmb_reserve
                0x4a001bdc       0x24 arch/arm/lib/built-in.o
                0x4a001bdc                arch_lmb_reserve
 .text.setup_board_tags
                0x4a001c00        0x4 arch/arm/lib/built-in.o
                0x4a001c00                setup_board_tags
 .text.boot_prep_linux
                0x4a001c04      0x178 arch/arm/lib/built-in.o
 .text.do_bootm_linux
                0x4a001d7c       0x5c arch/arm/lib/built-in.o
                0x4a001d7c                do_bootm_linux
 .text.boot_prep_vxworks
                0x4a001dd8       0x4c arch/arm/lib/built-in.o
                0x4a001dd8                boot_prep_vxworks
 .text.boot_jump_vxworks
                0x4a001e24       0x14 arch/arm/lib/built-in.o
                0x4a001e24                boot_jump_vxworks
 .text.interrupt_init
                0x4a001e38       0x4c arch/arm/lib/built-in.o
                0x4a001e38                interrupt_init
 .text.interrupt_exit
                0x4a001e84        0x4 arch/arm/lib/built-in.o
                0x4a001e84                interrupt_exit
 .text.enable_interrupts
                0x4a001e88       0x10 arch/arm/lib/built-in.o
                0x4a001e88                enable_interrupts
 .text.interrupts_is_open
                0x4a001e98       0x14 arch/arm/lib/built-in.o
                0x4a001e98                interrupts_is_open
 .text.disable_interrupts
                0x4a001eac       0x1c arch/arm/lib/built-in.o
                0x4a001eac                disable_interrupts
 .text.bad_mode
                0x4a001ec8       0x10 arch/arm/lib/built-in.o
                0x4a001ec8                bad_mode
 .text.show_regs
                0x4a001ed8      0x140 arch/arm/lib/built-in.o
                0x4a001ed8                show_regs
 .text.do_undefined_instruction
                0x4a002018       0x20 arch/arm/lib/built-in.o
                0x4a002018                do_undefined_instruction
 .text.do_software_interrupt
                0x4a002038       0x20 arch/arm/lib/built-in.o
                0x4a002038                do_software_interrupt
 .text.do_prefetch_abort
                0x4a002058       0x20 arch/arm/lib/built-in.o
                0x4a002058                do_prefetch_abort
 .text.do_data_abort
                0x4a002078       0x20 arch/arm/lib/built-in.o
                0x4a002078                do_data_abort
 .text.do_not_used
                0x4a002098       0x20 arch/arm/lib/built-in.o
                0x4a002098                do_not_used
 .text.do_fiq   0x4a0020b8       0x20 arch/arm/lib/built-in.o
                0x4a0020b8                do_fiq
 .text.do_reset
                0x4a0020d8       0x2c arch/arm/lib/built-in.o
                0x4a0020d8                do_reset
 .text.cp_delay
                0x4a002104       0x30 arch/arm/lib/built-in.o
 .text.cache_disable
                0x4a002134       0x4c arch/arm/lib/built-in.o
 .text.arm_init_domains
                0x4a002180        0x4 arch/arm/lib/built-in.o
                0x4a002180                arm_init_domains
 .text.set_section_dcache
                0x4a002184       0x14 arch/arm/lib/built-in.o
                0x4a002184                set_section_dcache
 .text.dram_bank_mmu_setup
                0x4a002198       0x88 arch/arm/lib/built-in.o
                0x4a002198                dram_bank_mmu_setup
 .text.cache_enable
                0x4a002220       0x90 arch/arm/lib/built-in.o
 .text.icache_enable
                0x4a0022b0        0x8 arch/arm/lib/built-in.o
                0x4a0022b0                icache_enable
 .text.icache_disable
                0x4a0022b8        0x8 arch/arm/lib/built-in.o
                0x4a0022b8                icache_disable
 .text.dcache_enable
                0x4a0022c0        0x8 arch/arm/lib/built-in.o
                0x4a0022c0                dcache_enable
 .text.dcache_disable
                0x4a0022c8        0x8 arch/arm/lib/built-in.o
                0x4a0022c8                dcache_disable
 .text.dcache_status
                0x4a0022d0        0xc arch/arm/lib/built-in.o
                0x4a0022d0                dcache_status
 .text.sprite_cartoon_screen_set
                0x4a0022dc       0xa8 board/sunxi/cartoon/built-in.o
                0x4a0022dc                sprite_cartoon_screen_set
 .text.sprite_cartoon_test
                0x4a002384      0x1e4 board/sunxi/cartoon/built-in.o
                0x4a002384                sprite_cartoon_test
 .text.do_sunxi_screen_char
                0x4a002568       0x28 board/sunxi/cartoon/built-in.o
                0x4a002568                do_sunxi_screen_char
 .text.sprite_cartoon_create
                0x4a002590      0x14c board/sunxi/cartoon/built-in.o
                0x4a002590                sprite_cartoon_create
 .text.sprite_cartoon_upgrade
                0x4a0026dc       0x38 board/sunxi/cartoon/built-in.o
                0x4a0026dc                sprite_cartoon_upgrade
 .text.sprite_cartoon_progressbar_create
                0x4a002714       0xb8 board/sunxi/cartoon/built-in.o
                0x4a002714                sprite_cartoon_progressbar_create
 .text.sprite_cartoon_progressbar_config
                0x4a0027cc       0x90 board/sunxi/cartoon/built-in.o
                0x4a0027cc                sprite_cartoon_progressbar_config
 .text.sprite_cartoon_progressbar_active
                0x4a00285c       0x64 board/sunxi/cartoon/built-in.o
                0x4a00285c                sprite_cartoon_progressbar_active
 .text.sprite_cartoon_progressbar_upgrate
                0x4a0028c0      0x144 board/sunxi/cartoon/built-in.o
                0x4a0028c0                sprite_cartoon_progressbar_upgrate
 .text.sprite_cartoon_ui_draw_hollowrectangle
                0x4a002a04       0xd4 board/sunxi/cartoon/built-in.o
                0x4a002a04                sprite_cartoon_ui_draw_hollowrectangle
 .text.sprite_cartoon_ui_draw_solidrectangle
                0x4a002ad8       0xac board/sunxi/cartoon/built-in.o
                0x4a002ad8                sprite_cartoon_ui_draw_solidrectangle
 .text.sprite_cartoon_ui_set_color
                0x4a002b84       0x14 board/sunxi/cartoon/built-in.o
                0x4a002b84                sprite_cartoon_ui_set_color
 .text.sprite_cartoon_ui_get_color
                0x4a002b98       0x10 board/sunxi/cartoon/built-in.o
                0x4a002b98                sprite_cartoon_ui_get_color
 .text.uichar_change_newline
                0x4a002ba8       0x74 board/sunxi/cartoon/built-in.o
 .text.sprite_uichar_init
                0x4a002c1c      0x124 board/sunxi/cartoon/built-in.o
                0x4a002c1c                sprite_uichar_init
 .text.sprite_uichar_printf
                0x4a002d40      0x128 board/sunxi/cartoon/built-in.o
                0x4a002d40                sprite_uichar_printf
 .text.draw_pixel
                0x4a002e68       0x60 board/sunxi/cartoon/built-in.o
 .text.open_font
                0x4a002ec8       0xe0 board/sunxi/cartoon/built-in.o
                0x4a002ec8                open_font
 .text.check_change_line
                0x4a002fa8       0x60 board/sunxi/cartoon/built-in.o
                0x4a002fa8                check_change_line
 .text.draw_bmp_ulc
                0x4a003008       0xd4 board/sunxi/cartoon/built-in.o
                0x4a003008                draw_bmp_ulc
 .text.is_valid_face
                0x4a0030dc       0x28 board/sunxi/cartoon/built-in.o
 .text.release_hdl_res
                0x4a003104       0xb4 board/sunxi/cartoon/built-in.o
 .text.SFTE_New_Face
                0x4a0031b8      0x214 board/sunxi/cartoon/built-in.o
                0x4a0031b8                SFTE_New_Face
 .text.SFTE_Done_Face
                0x4a0033cc       0x40 board/sunxi/cartoon/built-in.o
                0x4a0033cc                SFTE_Done_Face
 .text.SFTE_Set_Pixel_Sizes
                0x4a00340c      0x170 board/sunxi/cartoon/built-in.o
                0x4a00340c                SFTE_Set_Pixel_Sizes
 .text.SFTE_Get_Glyph
                0x4a00357c      0x208 board/sunxi/cartoon/built-in.o
                0x4a00357c                SFTE_Get_Glyph
 .text.sunxi_dump
                0x4a003784       0x5c board/sunxi/common/built-in.o
                0x4a003784                sunxi_dump
 .text.PIO_REG_CFG
                0x4a0037e0       0x1c board/sunxi/common/built-in.o
                0x4a0037e0                PIO_REG_CFG
 .text.PIO_REG_PULL
                0x4a0037fc       0x20 board/sunxi/common/built-in.o
                0x4a0037fc                PIO_REG_PULL
 .text.PIO_REG_DLEVEL
                0x4a00381c       0x20 board/sunxi/common/built-in.o
                0x4a00381c                PIO_REG_DLEVEL
 .text.PIO_REG_CFG_VALUE
                0x4a00383c       0x18 board/sunxi/common/built-in.o
                0x4a00383c                PIO_REG_CFG_VALUE
 .text.gpio_set_one_pin_io_status
                0x4a003854       0xbc board/sunxi/common/built-in.o
                0x4a003854                gpio_set_one_pin_io_status
 .text.gpio_set_one_pin_pull
                0x4a003910       0xbc board/sunxi/common/built-in.o
                0x4a003910                gpio_set_one_pin_pull
 .text.gpio_write_one_pin_value
                0x4a0039cc       0xe0 board/sunxi/common/built-in.o
                0x4a0039cc                gpio_write_one_pin_value
 .text.gpio_request_early
                0x4a003aac      0x3c0 board/sunxi/common/built-in.o
                0x4a003aac                gpio_request_early
 .text.gpio_request
                0x4a003e6c      0x4a8 board/sunxi/common/built-in.o
                0x4a003e6c                gpio_request
 .text.gpio_release
                0x4a004314       0x30 board/sunxi/common/built-in.o
                0x4a004314                gpio_release
 .text.fdt_get_all_pin
                0x4a004344      0x420 board/sunxi/common/built-in.o
                0x4a004344                fdt_get_all_pin
 .text.fdt_set_all_pin
                0x4a004764       0x88 board/sunxi/common/built-in.o
                0x4a004764                fdt_set_all_pin
 .text.fdt_get_one_gpio
                0x4a0047ec       0xac board/sunxi/common/built-in.o
                0x4a0047ec                fdt_get_one_gpio
 .text._test_str_length
                0x4a004898       0x30 board/sunxi/common/built-in.o
 .text.__script_parser_mainkey_get_gpio_count
                0x4a0048c8       0xd0 board/sunxi/common/built-in.o
 .text.__script_parser_patch_all
                0x4a004998       0xc4 board/sunxi/common/built-in.o
 .text.__script_parser_fetch_subkey_next
                0x4a004a5c       0xac board/sunxi/common/built-in.o
 .text.__script_probe_mainkey_gpio
                0x4a004b08      0x1b4 board/sunxi/common/built-in.o
 .text.__script_parser_fetch_by_offset
                0x4a004cbc      0x13c board/sunxi/common/built-in.o
 .text.__script_parser_mainkey_get_gpio_cfg
                0x4a004df8      0x144 board/sunxi/common/built-in.o
 .text.__script_parser_patch
                0x4a004f3c      0x1f8 board/sunxi/common/built-in.o
 .text.__script_parser_fetch_ex
                0x4a005134      0x20c board/sunxi/common/built-in.o
 .text.__script_parser_fetch
                0x4a005340      0x1e8 board/sunxi/common/built-in.o
 .text.__script_parser_offset
                0x4a005528       0xa8 board/sunxi/common/built-in.o
 .text.__script_parser_fetch_subkey_start
                0x4a0055d0       0xa8 board/sunxi/common/built-in.o
 .text.__script_parser_subkey
                0x4a005678       0x98 board/sunxi/common/built-in.o
 .text.get_script_reloc_buf
                0x4a005710       0x14 board/sunxi/common/built-in.o
                0x4a005710                get_script_reloc_buf
 .text.script_parser_fetch_subkey_next
                0x4a005724       0x88 board/sunxi/common/built-in.o
                0x4a005724                script_parser_fetch_subkey_next
 .text.script_parser_fetch
                0x4a0057ac       0x5c board/sunxi/common/built-in.o
                0x4a0057ac                script_parser_fetch
 .text.script_parser_fetch_ex
                0x4a005808       0x68 board/sunxi/common/built-in.o
                0x4a005808                script_parser_fetch_ex
 .text.script_parser_offset
                0x4a005870       0x40 board/sunxi/common/built-in.o
                0x4a005870                script_parser_offset
 .text.script_parser_fetch_by_offset
                0x4a0058b0       0x58 board/sunxi/common/built-in.o
                0x4a0058b0                script_parser_fetch_by_offset
 .text.script_parser_patch
                0x4a005908       0x5c board/sunxi/common/built-in.o
                0x4a005908                script_parser_patch
 .text.script_parser_mainkey_get_gpio_count
                0x4a005964       0x40 board/sunxi/common/built-in.o
                0x4a005964                script_parser_mainkey_get_gpio_count
 .text.script_parser_mainkey_get_gpio_cfg
                0x4a0059a4       0x58 board/sunxi/common/built-in.o
                0x4a0059a4                script_parser_mainkey_get_gpio_cfg
 .text.gpio_request_ex
                0x4a0059fc       0xa0 board/sunxi/common/built-in.o
                0x4a0059fc                gpio_request_ex
 .text.gpio_request_simple
                0x4a005a9c       0xb4 board/sunxi/common/built-in.o
                0x4a005a9c                gpio_request_simple
 .text.script_parser_func_init
                0x4a005b50       0xd8 board/sunxi/common/built-in.o
                0x4a005b50                script_parser_func_init
 .text.soc_script_parser_init
                0x4a005c28       0x24 board/sunxi/common/built-in.o
                0x4a005c28                soc_script_parser_init
 .text.gpt_partition_get_total_num
                0x4a005c4c       0xdc board/sunxi/common/built-in.o
                0x4a005c4c                gpt_partition_get_total_num
 .text.gpt_partition_get_offset
                0x4a005d28       0x78 board/sunxi/common/built-in.o
                0x4a005d28                gpt_partition_get_offset
 .text.gpt_partition_get_size
                0x4a005da0       0x98 board/sunxi/common/built-in.o
                0x4a005da0                gpt_partition_get_size
 .text.gpt_partition_fetch_mbr
                0x4a005e38       0x1c board/sunxi/common/built-in.o
                0x4a005e38                gpt_partition_fetch_mbr
 .text.aw_partition_get_total_num
                0x4a005e54       0x3c board/sunxi/common/built-in.o
                0x4a005e54                aw_partition_get_total_num
 .text.aw_partition_get_offset
                0x4a005e90       0x74 board/sunxi/common/built-in.o
                0x4a005e90                aw_partition_get_offset
 .text.aw_partition_get_size
                0x4a005f04       0x74 board/sunxi/common/built-in.o
                0x4a005f04                aw_partition_get_size
 .text.aw_partition_fetch_mbr
                0x4a005f78       0x1c board/sunxi/common/built-in.o
                0x4a005f78                aw_partition_fetch_mbr
 .text.aw_partition_get_info_byname
                0x4a005f94       0xd4 board/sunxi/common/built-in.o
                0x4a005f94                aw_partition_get_info_byname
 .text.aw_partition_get_size_byname
                0x4a006068       0xa0 board/sunxi/common/built-in.o
                0x4a006068                aw_partition_get_size_byname
 .text.aw_partition_get_partno_byname
                0x4a006108       0x78 board/sunxi/common/built-in.o
                0x4a006108                aw_partition_get_partno_byname
 .text.aw_partition_get_offset_byname
                0x4a006180       0xa0 board/sunxi/common/built-in.o
                0x4a006180                aw_partition_get_offset_byname
 .text.aw_partition_refresh
                0x4a006220       0x4c board/sunxi/common/built-in.o
                0x4a006220                aw_partition_refresh
 .text.gpt_partition_refresh
                0x4a00626c       0x4c board/sunxi/common/built-in.o
                0x4a00626c                gpt_partition_refresh
 .text.aw_partition_get_name
                0x4a0062b8       0x50 board/sunxi/common/built-in.o
                0x4a0062b8                aw_partition_get_name
 .text.gpt_partition_get_name
                0x4a006308       0xb0 board/sunxi/common/built-in.o
                0x4a006308                gpt_partition_get_name
 .text.sunxi_partition_get_total_num
                0x4a0063b8       0x1c board/sunxi/common/built-in.o
                0x4a0063b8                sunxi_partition_get_total_num
 .text.sunxi_partition_get_name
                0x4a0063d4       0x1c board/sunxi/common/built-in.o
                0x4a0063d4                sunxi_partition_get_name
 .text.sunxi_partition_get_offset
                0x4a0063f0       0x1c board/sunxi/common/built-in.o
                0x4a0063f0                sunxi_partition_get_offset
 .text.sunxi_partition_get_size
                0x4a00640c       0x1c board/sunxi/common/built-in.o
                0x4a00640c                sunxi_partition_get_size
 .text.sunxi_partition_get_offset_byname
                0x4a006428       0x1c board/sunxi/common/built-in.o
                0x4a006428                sunxi_partition_get_offset_byname
 .text.sunxi_partition_get_partno_byname
                0x4a006444       0x1c board/sunxi/common/built-in.o
                0x4a006444                sunxi_partition_get_partno_byname
 .text.sunxi_partition_get_size_byname
                0x4a006460       0x1c board/sunxi/common/built-in.o
                0x4a006460                sunxi_partition_get_size_byname
 .text.sunxi_partition_get_type
                0x4a00647c       0x14 board/sunxi/common/built-in.o
                0x4a00647c                sunxi_partition_get_type
 .text.sunxi_is_gpt_valid
                0x4a006490       0xe8 board/sunxi/common/built-in.o
                0x4a006490                sunxi_is_gpt_valid
 .text.sunxi_is_awpart_valid
                0x4a006578       0x70 board/sunxi/common/built-in.o
                0x4a006578                sunxi_is_awpart_valid
 .text.check_card0_partition
                0x4a0065e8       0xbc board/sunxi/common/built-in.o
                0x4a0065e8                check_card0_partition
 .text.sunxi_partition_init
                0x4a0066a4      0x27c board/sunxi/common/built-in.o
                0x4a0066a4                sunxi_partition_init
 .text.char8_char16_compare
                0x4a006920       0x68 board/sunxi/common/built-in.o
                0x4a006920                char8_char16_compare
 .text.gpt_partition_get_info_byname
                0x4a006988       0xec board/sunxi/common/built-in.o
                0x4a006988                gpt_partition_get_info_byname
 .text.gpt_partition_get_size_byname
                0x4a006a74       0x24 board/sunxi/common/built-in.o
                0x4a006a74                gpt_partition_get_size_byname
 .text.gpt_partition_get_offset_byname
                0x4a006a98       0x24 board/sunxi/common/built-in.o
                0x4a006a98                gpt_partition_get_offset_byname
 .text.gpt_partition_get_partno_byname
                0x4a006abc       0x80 board/sunxi/common/built-in.o
                0x4a006abc                gpt_partition_get_partno_byname
 .text.sunxi_str_replace
                0x4a006b3c      0x1c8 board/sunxi/common/built-in.o
                0x4a006b3c                sunxi_str_replace
 .text.power_limit_init
                0x4a006d04        0xc board/sunxi/common/built-in.o
                0x4a006d04                power_limit_init
 .text.power_limit_for_vbus
                0x4a006d10        0x4 board/sunxi/common/built-in.o
                0x4a006d10                power_limit_for_vbus
 .text.EnterAndroidChargeMode
                0x4a006d14       0x28 board/sunxi/common/built-in.o
 .text.EnterNormalBootMode
                0x4a006d3c       0x20 board/sunxi/common/built-in.o
 .text.ProbePreSystemMode
                0x4a006d5c       0x4c board/sunxi/common/built-in.o
                0x4a006d5c                ProbePreSystemMode
 .text.PowerCheck
                0x4a006da8      0x2b4 board/sunxi/common/built-in.o
                0x4a006da8                PowerCheck
 .text.check_update_key
                0x4a00705c       0xc0 board/sunxi/common/built-in.o
                0x4a00705c                check_update_key
 .text.debug_mode_set
                0x4a00711c        0x8 board/sunxi/common/built-in.o
                0x4a00711c                debug_mode_set
 .text.debug_mode_update_info
                0x4a007124        0x4 board/sunxi/common/built-in.o
                0x4a007124                debug_mode_update_info
 .text.do_efuse_read
                0x4a007128       0xa8 board/sunxi/common/built-in.o
                0x4a007128                do_efuse_read
 .text.sunxi_keydata_burn_by_usb
                0x4a0071d0      0x148 board/sunxi/common/built-in.o
                0x4a0071d0                sunxi_keydata_burn_by_usb
 .text.get_serial_num_from_file
                0x4a007318      0x12c board/sunxi/common/built-in.o
                0x4a007318                get_serial_num_from_file
 .text.get_serial_num_from_chipid
                0x4a007444       0x64 board/sunxi/common/built-in.o
                0x4a007444                get_serial_num_from_chipid
 .text.sunxi_set_serial_num
                0x4a0074a8       0x88 board/sunxi/common/built-in.o
                0x4a0074a8                sunxi_set_serial_num
 .text.board_display_update_para_for_kernel
                0x4a007530       0xac board/sunxi/common/built-in.o
 .text.board_display_layer_request
                0x4a0075dc        0xc board/sunxi/common/built-in.o
                0x4a0075dc                board_display_layer_request
 .text.board_display_wait_lcd_open
                0x4a0075e8       0x64 board/sunxi/common/built-in.o
                0x4a0075e8                board_display_wait_lcd_open
 .text.board_display_wait_lcd_close
                0x4a00764c       0x64 board/sunxi/common/built-in.o
                0x4a00764c                board_display_wait_lcd_close
 .text.board_display_set_exit_mode
                0x4a0076b0       0x5c board/sunxi/common/built-in.o
                0x4a0076b0                board_display_set_exit_mode
 .text.board_display_layer_open
                0x4a00770c       0x58 board/sunxi/common/built-in.o
                0x4a00770c                board_display_layer_open
 .text.board_display_layer_close
                0x4a007764       0x5c board/sunxi/common/built-in.o
                0x4a007764                board_display_layer_close
 .text.board_display_layer_para_set
                0x4a0077c0       0x48 board/sunxi/common/built-in.o
                0x4a0077c0                board_display_layer_para_set
 .text.board_display_show_until_lcd_open
                0x4a007808       0x3c board/sunxi/common/built-in.o
                0x4a007808                board_display_show_until_lcd_open
 .text.board_display_show
                0x4a007844       0x14 board/sunxi/common/built-in.o
                0x4a007844                board_display_show
 .text.board_display_framebuffer_set
                0x4a007858      0x22c board/sunxi/common/built-in.o
                0x4a007858                board_display_framebuffer_set
 .text.board_display_set_alpha_mode
                0x4a007a84       0x18 board/sunxi/common/built-in.o
                0x4a007a84                board_display_set_alpha_mode
 .text.board_display_device_open
                0x4a007a9c      0x49c board/sunxi/common/built-in.o
                0x4a007a9c                board_display_device_open
 .text.borad_display_get_screen_width
                0x4a007f38       0x3c board/sunxi/common/built-in.o
                0x4a007f38                borad_display_get_screen_width
 .text.borad_display_get_screen_height
                0x4a007f74       0x3c board/sunxi/common/built-in.o
                0x4a007f74                borad_display_get_screen_height
 .text.update_fdt_dram_para
                0x4a007fb0      0x440 board/sunxi/common/built-in.o
                0x4a007fb0                update_fdt_dram_para
 .text.sunxi_update_subsequent_processing
                0x4a0083f0       0x8c board/sunxi/common/built-in.o
                0x4a0083f0                sunxi_update_subsequent_processing
 .text.switch_boot_partition
                0x4a00847c       0xd4 board/sunxi/common/built-in.o
                0x4a00847c                switch_boot_partition
 .text.do_switch_boot_partition
                0x4a008550       0x20 board/sunxi/common/built-in.o
 .text.disable_node
                0x4a008570       0x68 board/sunxi/common/built-in.o
                0x4a008570                disable_node
 .text.update_fdt_para_for_kernel
                0x4a0085d8      0x23c board/sunxi/common/built-in.o
                0x4a0085d8                update_fdt_para_for_kernel
 .text.set_bootcmd_from_misc
                0x4a008814      0x2d4 board/sunxi/common/built-in.o
                0x4a008814                set_bootcmd_from_misc
 .text.get_boot_work_mode
                0x4a008ae8       0x10 board/sunxi/common/built-in.o
                0x4a008ae8                get_boot_work_mode
 .text.get_boot_storage_type_ext
                0x4a008af8       0x10 board/sunxi/common/built-in.o
                0x4a008af8                get_boot_storage_type_ext
 .text.get_boot_storage_type
                0x4a008b08       0x1c board/sunxi/common/built-in.o
                0x4a008b08                get_boot_storage_type
 .text.update_bootcmd
                0x4a008b24      0x294 board/sunxi/common/built-in.o
                0x4a008b24                update_bootcmd
 .text.update_setargs
                0x4a008db8       0x70 board/sunxi/common/built-in.o
                0x4a008db8                update_setargs
 .text.sunxi_fastboot_init
                0x4a008e28      0x344 board/sunxi/common/built-in.o
                0x4a008e28                sunxi_fastboot_init
 .text.set_boot_storage_type
                0x4a00916c       0x10 board/sunxi/common/built-in.o
                0x4a00916c                set_boot_storage_type
 .text.set_boot_dram_update_flag
                0x4a00917c       0x10 board/sunxi/common/built-in.o
                0x4a00917c                set_boot_dram_update_flag
 .text.get_debugmode_flag
                0x4a00918c       0x60 board/sunxi/common/built-in.o
                0x4a00918c                get_debugmode_flag
 .text.sunxi_update_rotpk_info
                0x4a0091ec       0x50 board/sunxi/common/built-in.o
                0x4a0091ec                sunxi_update_rotpk_info
 .text.board_late_init
                0x4a00923c       0x48 board/sunxi/common/built-in.o
                0x4a00923c                board_late_init
 .text.sunxi_generate_checksum
                0x4a009284       0x84 board/sunxi/common/built-in.o
                0x4a009284                sunxi_generate_checksum
 .text.sunxi_verify_checksum
                0x4a009308       0x1c board/sunxi/common/built-in.o
                0x4a009308                sunxi_verify_checksum
 .text.sunxi_led_init
                0x4a009324       0x44 board/sunxi/common/built-in.o
                0x4a009324                sunxi_led_init
 .text.enable_smp
                0x4a009368       0x10 board/sunxi/sun8iw11p1/built-in.o
                0x4a009368                enable_smp
 .text.board_init
                0x4a009378       0x10 board/sunxi/sun8iw11p1/built-in.o
                0x4a009378                board_init
 .text.dram_init_banksize
                0x4a009388       0x1c board/sunxi/sun8iw11p1/built-in.o
                0x4a009388                dram_init_banksize
 .text.dram_init
                0x4a0093a4       0x5c board/sunxi/sun8iw11p1/built-in.o
                0x4a0093a4                dram_init
 .text.board_mmc_init
                0x4a009400       0x14 board/sunxi/sun8iw11p1/built-in.o
                0x4a009400                board_mmc_init
 .text.board_mmc_pre_init
                0x4a009414       0x14 board/sunxi/sun8iw11p1/built-in.o
                0x4a009414                board_mmc_pre_init
 .text.board_mmc_set_num
                0x4a009428        0x8 board/sunxi/sun8iw11p1/built-in.o
                0x4a009428                board_mmc_set_num
 .text.platform_axp_probe
                0x4a009430       0x6c board/sunxi/sun8iw11p1/built-in.o
                0x4a009430                platform_axp_probe
 .text.board_hardware_info
                0x4a00949c        0xc board/sunxi/sun8iw11p1/built-in.o
                0x4a00949c                board_hardware_info
 .text.__show_boot_progress
                0x4a0094a8        0x4 common/built-in.o
                0x4a0094a8                __show_boot_progress
                0x4a0094a8                show_boot_progress
 .text.main_loop
                0x4a0094ac       0x20 common/built-in.o
                0x4a0094ac                main_loop
 .text.find_cmd_tbl
                0x4a0094cc       0x9c common/built-in.o
                0x4a0094cc                find_cmd_tbl
 .text.find_cmd
                0x4a009568       0x28 common/built-in.o
                0x4a009568                find_cmd
 .text.cmd_usage
                0x4a009590       0x5c common/built-in.o
                0x4a009590                cmd_usage
 .text._do_help
                0x4a0095ec      0x188 common/built-in.o
                0x4a0095ec                _do_help
 .text.var_complete
                0x4a009774       0x84 common/built-in.o
                0x4a009774                var_complete
 .text.cmd_auto_complete
                0x4a0097f8      0x480 common/built-in.o
                0x4a0097f8                cmd_auto_complete
 .text.cmd_get_data_size
                0x4a009c78       0x50 common/built-in.o
                0x4a009c78                cmd_get_data_size
 .text.cmd_process
                0x4a009cc8       0xec common/built-in.o
                0x4a009cc8                cmd_process
 .text.dummy    0x4a009db4        0x4 common/built-in.o
 .text.get_version
                0x4a009db8        0x8 common/built-in.o
                0x4a009db8                get_version
 .text.jumptable_init
                0x4a009dc0      0x190 common/built-in.o
                0x4a009dc0                jumptable_init
 .text.hash_command
                0x4a009f50       0xa0 common/built-in.o
                0x4a009f50                hash_command
 .text.b_reset  0x4a009ff0       0x1c common/built-in.o
 .text.static_get
                0x4a00a00c       0x1c common/built-in.o
 .text.static_peek
                0x4a00a028        0xc common/built-in.o
 .text.file_peek
                0x4a00a034        0xc common/built-in.o
 .text.mapset   0x4a00a040       0x20 common/built-in.o
 .text.syntax_err
                0x4a00a060        0xc common/built-in.o
 .text.do_showvar
                0x4a00a06c       0xf0 common/built-in.o
 .text.free_pipe_list
                0x4a00a15c       0xe8 common/built-in.o
 .text.b_addchr
                0x4a00a244       0x78 common/built-in.o
 .text.b_addqchr
                0x4a00a2bc       0x4c common/built-in.o
 .text.is_assignment.part.0
                0x4a00a308       0x30 common/built-in.o
 .text.xmalloc  0x4a00a338       0x20 common/built-in.o
 .text.new_pipe
                0x4a00a358       0x28 common/built-in.o
 .text.file_get
                0x4a00a380      0x1c4 common/built-in.o
 .text.xrealloc
                0x4a00a544       0x20 common/built-in.o
 .text.done_command
                0x4a00a564       0x8c common/built-in.o
 .text.done_pipe
                0x4a00a5f0       0x48 common/built-in.o
 .text.done_word
                0x4a00a638      0x2cc common/built-in.o
 .text.get_local_var
                0x4a00a904       0x94 common/built-in.o
                0x4a00a904                get_local_var
 .text.set_local_var
                0x4a00a998      0x1bc common/built-in.o
                0x4a00a998                set_local_var
 .text.insert_var_value_sub
                0x4a00ab54      0x2c0 common/built-in.o
 .text.parse_string_outer
                0x4a00ae14       0xf0 common/built-in.o
                0x4a00ae14                parse_string_outer
 .text.run_list_real
                0x4a00af04      0x87c common/built-in.o
 .text.parse_stream_outer
                0x4a00b780      0x6e8 common/built-in.o
 .text.parse_file_outer
                0x4a00be68       0x44 common/built-in.o
                0x4a00be68                parse_file_outer
 .text.u_boot_hush_start
                0x4a00beac       0x54 common/built-in.o
                0x4a00beac                u_boot_hush_start
 .text.run_command
                0x4a00bf00        0x8 common/built-in.o
                0x4a00bf00                run_command
 .text.run_command_list
                0x4a00bf08       0x5c common/built-in.o
                0x4a00bf08                run_command_list
 .text.do_run   0x4a00bf64       0x78 common/built-in.o
                0x4a00bf64                do_run
 .text.cli_loop
                0x4a00bfdc        0xc common/built-in.o
                0x4a00bfdc                cli_loop
 .text.cli_init
                0x4a00bfe8        0x4 common/built-in.o
                0x4a00bfe8                cli_init
 .text.delete_char.part.0
                0x4a00bfec       0xd4 common/built-in.o
 .text.cread_add_char
                0x4a00c0c0       0xec common/built-in.o
 .text.cli_readline_into_buffer
                0x4a00c1ac      0x9b0 common/built-in.o
                0x4a00c1ac                cli_readline_into_buffer
 .text.cli_readline
                0x4a00cb5c       0x14 common/built-in.o
                0x4a00cb5c                cli_readline
 .text.common_diskboot
                0x4a00cb70      0x238 common/built-in.o
                0x4a00cb70                common_diskboot
 .text.bootdelay_process
                0x4a00cda8       0x48 common/built-in.o
                0x4a00cda8                bootdelay_process
 .text.autoboot_command
                0x4a00cdf0       0xf4 common/built-in.o
                0x4a00cdf0                autoboot_command
 .text.bootstage_relocate
                0x4a00cee4        0x8 common/built-in.o
 .text.initr_trace
                0x4a00ceec        0x8 common/built-in.o
 .text.initr_reloc_global_data
                0x4a00cef4       0x28 common/built-in.o
 .text.initr_announce
                0x4a00cf1c        0x8 common/built-in.o
 .text.usb_net_init
                0x4a00cf24        0x8 common/built-in.o
 .text.show_platform_info
                0x4a00cf2c        0x8 common/built-in.o
                0x4a00cf2c                show_platform_info
 .text.run_main_loop
                0x4a00cf34       0x1c common/built-in.o
 .text.initr_sunxi_base
                0x4a00cf50       0x10 common/built-in.o
 .text.initr_env
                0x4a00cf60       0x54 common/built-in.o
 .text.sunxi_burn_key
                0x4a00cfb4       0x20 common/built-in.o
 .text.platform_dma_init
                0x4a00cfd4       0x10 common/built-in.o
 .text.initr_enable_interrupts
                0x4a00cfe4       0x10 common/built-in.o
 .text.initr_jumptable
                0x4a00cff4       0x10 common/built-in.o
 .text.initr_malloc
                0x4a00d004       0x30 common/built-in.o
 .text.initr_caches
                0x4a00d034       0x10 common/built-in.o
 .text.initr_serial
                0x4a00d044       0x10 common/built-in.o
 .text.initr_reloc
                0x4a00d054       0x28 common/built-in.o
 .text.power_init_board
                0x4a00d07c       0x10 common/built-in.o
                0x4a00d07c                power_init_board
 .text.sunxi_hdcp_keybox_install
                0x4a00d08c        0x8 common/built-in.o
                0x4a00d08c                sunxi_hdcp_keybox_install
 .text.sunxi_widevine_keybox_install
                0x4a00d094        0x8 common/built-in.o
                0x4a00d094                sunxi_widevine_keybox_install
 .text.sunxi_get_hdcp_cfg
                0x4a00d09c        0x8 common/built-in.o
                0x4a00d09c                sunxi_get_hdcp_cfg
 .text.sunxi_keymaster_keybox_install
                0x4a00d0a4        0x8 common/built-in.o
                0x4a00d0a4                sunxi_keymaster_keybox_install
 .text.initr_sunxi_flash
                0x4a00d0ac       0x58 common/built-in.o
 .text.initr_sunxi_display
                0x4a00d104       0x70 common/built-in.o
                0x4a00d104                initr_sunxi_display
 .text.initr_single_core
                0x4a00d174       0x44 common/built-in.o
 .text.intr_vector_fix
                0x4a00d1b8       0xa8 common/built-in.o
                0x4a00d1b8                intr_vector_fix
 .text.board_init_r
                0x4a00d260       0x1c common/built-in.o
                0x4a00d260                board_init_r
 .text.print_cpuinfo
                0x4a00d27c        0x8 common/built-in.o
 .text.trace_early_init
                0x4a00d284        0x8 common/built-in.o
 .text.setup_mon_len
                0x4a00d28c       0x24 common/built-in.o
 .text.arch_cpu_init
                0x4a00d2b0        0x8 common/built-in.o
                0x4a00d2b0                arch_cpu_init
 .text.reserve_debugbuffer
                0x4a00d2b8       0x14 common/built-in.o
 .text.reserve_round_4k
                0x4a00d2cc       0x18 common/built-in.o
 .text.reserve_mmu
                0x4a00d2e4       0x38 common/built-in.o
 .text.reserve_trace
                0x4a00d31c        0x8 common/built-in.o
 .text.reserve_uboot
                0x4a00d324       0x30 common/built-in.o
 .text.reserve_malloc
                0x4a00d354       0x3c common/built-in.o
 .text.setup_machine
                0x4a00d390       0x14 common/built-in.o
 .text.reserve_global_data
                0x4a00d3a4       0x1c common/built-in.o
 .text.reserve_sysconfig
                0x4a00d3c0        0x8 common/built-in.o
 .text.reserve_parameter
                0x4a00d3c8        0x8 common/built-in.o
 .text.reserve_stacks
                0x4a00d3d0       0x4c common/built-in.o
 .text.display_new_sp
                0x4a00d41c        0x8 common/built-in.o
 .text.setup_dram_config
                0x4a00d424       0x10 common/built-in.o
 .text.reloc_sysconfig
                0x4a00d434        0x8 common/built-in.o
 .text.reloc_parameter
                0x4a00d43c        0x8 common/built-in.o
 .text.reserve_board
                0x4a00d444       0x30 common/built-in.o
 .text.setup_reloc
                0x4a00d474       0x38 common/built-in.o
 .text.announce_dram_init
                0x4a00d4ac       0x18 common/built-in.o
 .text.display_text_info
                0x4a00d4c4       0x20 common/built-in.o
 .text.reloc_fdt
                0x4a00d4e4       0x70 common/built-in.o
 .text.reserve_fdt
                0x4a00d554       0x84 common/built-in.o
 .text.init_func_pmubus
                0x4a00d5d8       0x30 common/built-in.o
 .text.mark_bootstage
                0x4a00d608       0x14 common/built-in.o
 .text.init_baud_rate
                0x4a00d61c       0x2c common/built-in.o
 .text.setup_fdt
                0x4a00d648       0x40 common/built-in.o
 .text.__coloured_LED_init
                0x4a00d688        0x4 common/built-in.o
                0x4a00d688                __coloured_LED_init
                0x4a00d688                coloured_LED_init
 .text.__red_led_on
                0x4a00d68c        0x4 common/built-in.o
                0x4a00d68c                red_led_on
                0x4a00d68c                __red_led_on
 .text.board_get_usable_ram_top
                0x4a00d690        0x8 common/built-in.o
                0x4a00d690                board_get_usable_ram_top
 .text.setup_dest_addr
                0x4a00d698       0x40 common/built-in.o
 .text.board_init_f
                0x4a00d6d8       0x64 common/built-in.o
                0x4a00d6d8                board_init_f
 .text.do_go_exec
                0x4a00d73c       0x18 common/built-in.o
                0x4a00d73c                do_go_exec
 .text.do_go    0x4a00d754       0x6c common/built-in.o
                0x4a00d754                do_go
 .text.do_bootd
                0x4a00d7c0       0x20 common/built-in.o
                0x4a00d7c0                do_bootd
 .text.update_bootargs
                0x4a00d7e0      0x390 common/built-in.o
                0x4a00d918                update_bootargs
 .text.do_bootm
                0x4a00db70       0xfc common/built-in.o
                0x4a00db70                do_bootm
 .text.bootm_maybe_autostart
                0x4a00dc6c       0x74 common/built-in.o
                0x4a00dc6c                bootm_maybe_autostart
 .text.bootm_find_ramdisk_fdt
                0x4a00dce0       0x88 common/built-in.o
                0x4a00dce0                bootm_find_ramdisk_fdt
 .text.do_bootm_states
                0x4a00dd68      0x7fc common/built-in.o
                0x4a00dd68                do_bootm_states
 .text.copy_args
                0x4a00e564       0x4c common/built-in.o
 .text.do_bootm_rtems
                0x4a00e5b0       0x40 common/built-in.o
 .text.do_bootm_plan9
                0x4a00e5f0       0xa4 common/built-in.o
 .text.do_bootm_standalone
                0x4a00e694       0x64 common/built-in.o
 .text.do_bootm_qnxelf
                0x4a00e6f8       0x5c common/built-in.o
 .text.do_bootm_netbsd
                0x4a00e754       0xf4 common/built-in.o
 .text.do_bootvx_fdt
                0x4a00e848      0x104 common/built-in.o
                0x4a00e848                do_bootvx_fdt
 .text.do_bootm_vxworks
                0x4a00e94c       0x24 common/built-in.o
 .text.__arch_preboot_os
                0x4a00e970        0x4 common/built-in.o
                0x4a00e970                arch_preboot_os
 .text.boot_selected_os
                0x4a00e974       0x58 common/built-in.o
                0x4a00e974                boot_selected_os
 .text.bootm_os_get_boot_func
                0x4a00e9cc       0x10 common/built-in.o
                0x4a00e9cc                bootm_os_get_boot_func
 .text.do_help  0x4a00e9dc       0x44 common/built-in.o
 .text.do_version
                0x4a00ea20       0x38 common/built-in.o
 .text.clean_timestamp_counter
                0x4a00ea58       0x10 common/built-in.o
                0x4a00ea58                clean_timestamp_counter
 .text.do_boota_linux
                0x4a00ea68       0xb4 common/built-in.o
                0x4a00ea68                do_boota_linux
 .text.memcpy2  0x4a00eb1c       0x54 common/built-in.o
                0x4a00eb1c                memcpy2
 .text.do_boota
                0x4a00eb70      0x13c common/built-in.o
                0x4a00eb70                do_boota
 .text.get_partition_flash_info
                0x4a00ecac       0x68 common/built-in.o
 .text.do_sunxi_flash
                0x4a00ed14      0x61c common/built-in.o
                0x4a00ed14                do_sunxi_flash
 .text.do_sprite_test
                0x4a00f330      0x104 common/built-in.o
                0x4a00f330                do_sprite_test
 .text.timer1_test_func
                0x4a00f434       0x30 common/built-in.o
 .text.timer0_test_func
                0x4a00f464       0x30 common/built-in.o
 .text.do_delay_test
                0x4a00f494       0x50 common/built-in.o
                0x4a00f494                do_delay_test
 .text.do_timer_test1
                0x4a00f4e4       0x84 common/built-in.o
                0x4a00f4e4                do_timer_test1
 .text.do_timer_test
                0x4a00f568       0x84 common/built-in.o
                0x4a00f568                do_timer_test
 .text.do_efex  0x4a00f5ec       0x1c common/built-in.o
                0x4a00f5ec                do_efex
 .text.do_shutdown
                0x4a00f608        0x4 common/built-in.o
                0x4a00f608                do_shutdown
 .text.memtester_pagesize
                0x4a00f60c       0x18 common/built-in.o
                0x4a00f60c                memtester_pagesize
 .text.usage    0x4a00f624       0x10 common/built-in.o
                0x4a00f624                usage
 .text.do_memtester
                0x4a00f634      0x310 common/built-in.o
 .text.do_sunxi_bmp_info
                0x4a00f944      0x198 common/built-in.o
 .text.sunxi_bmp_show
                0x4a00fadc       0x40 common/built-in.o
 .text.sunxi_bmp_decode
                0x4a00fb1c      0x298 common/built-in.o
                0x4a00fb1c                sunxi_bmp_decode
 .text.do_sunxi_bmp_display
                0x4a00fdb4      0x188 common/built-in.o
 .text.sunxi_bmp_display
                0x4a00ff3c      0x104 common/built-in.o
                0x4a00ff3c                sunxi_bmp_display
 .text.do_sunxi_logo
                0x4a010040        0xc common/built-in.o
                0x4a010040                do_sunxi_logo
 .text.do_read_from_boot
                0x4a01004c        0x8 common/built-in.o
                0x4a01004c                do_read_from_boot
 .text.do_burn_from_boot
                0x4a010054      0x220 common/built-in.o
                0x4a010054                do_burn_from_boot
 .text.reverse_strstr.part.0
                0x4a010274       0x50 common/built-in.o
 .text.env_attr_walk
                0x4a0102c4      0x10c common/built-in.o
                0x4a0102c4                env_attr_walk
 .text.env_attr_lookup
                0x4a0103d0      0x144 common/built-in.o
                0x4a0103d0                env_attr_lookup
 .text.clear_callback
                0x4a010514       0x10 common/built-in.o
 .text.on_callbacks
                0x4a010524       0x48 common/built-in.o
 .text.find_env_callback
                0x4a01056c       0x64 common/built-in.o
 .text.set_callback
                0x4a0105d0       0x94 common/built-in.o
 .text.env_callback_init
                0x4a010664       0xc0 common/built-in.o
                0x4a010664                env_callback_init
 .text.clear_flags
                0x4a010724       0x10 common/built-in.o
 .text.on_flags
                0x4a010734       0x48 common/built-in.o
 .text.skip_num.constprop.0
                0x4a01077c       0x70 common/built-in.o
 .text.env_flags_parse_vartype
                0x4a0107ec       0x4c common/built-in.o
                0x4a0107ec                env_flags_parse_vartype
 .text.env_flags_parse_varaccess
                0x4a010838       0x54 common/built-in.o
                0x4a010838                env_flags_parse_varaccess
 .text.set_flags
                0x4a01088c       0xac common/built-in.o
 .text.env_flags_init
                0x4a010938       0xd0 common/built-in.o
                0x4a010938                env_flags_init
 .text.env_flags_validate
                0x4a010a08      0x214 common/built-in.o
                0x4a010a08                env_flags_validate
 .text.env_get_char_spec
                0x4a010c1c        0xc common/built-in.o
                0x4a010c1c                env_get_char_spec
 .text.env_init
                0x4a010c28       0x1c common/built-in.o
                0x4a010c28                env_init
 .text.saveenv  0x4a010c44       0xf8 common/built-in.o
                0x4a010c44                saveenv
 .text.recover_env
                0x4a010d3c       0x78 common/built-in.o
                0x4a010d3c                recover_env
 .text.flash_env_relocate_spec
                0x4a010db4      0x260 common/built-in.o
 .text.env_relocate_spec
                0x4a011014       0x10 common/built-in.o
                0x4a011014                env_relocate_spec
 .text.load_elf_image_shdr
                0x4a011024       0x90 common/built-in.o
 .text.do_bootelf_exec
                0x4a0110b4       0x44 common/built-in.o
                0x4a0110b4                do_bootelf_exec
 .text.valid_elf_image
                0x4a0110f8       0x4c common/built-in.o
                0x4a0110f8                valid_elf_image
 .text.do_bootvx
                0x4a011144      0x254 common/built-in.o
                0x4a011144                do_bootvx
 .text.do_bootelf
                0x4a011398      0x154 common/built-in.o
                0x4a011398                do_bootelf
 .text.do_exit  0x4a0114ec       0x30 common/built-in.o
 .text.do_ext4_ls
                0x4a01151c       0x14 common/built-in.o
                0x4a01151c                do_ext4_ls
 .text.do_ext4_load
                0x4a011530       0x14 common/built-in.o
                0x4a011530                do_ext4_load
 .text.do_fat_ls
                0x4a011544       0x14 common/built-in.o
 .text.do_fat_fsload
                0x4a011558       0x14 common/built-in.o
                0x4a011558                do_fat_fsload
 .text.do_fat_fsinfo
                0x4a01156c       0x90 common/built-in.o
 .text.get_cells_len
                0x4a0115fc       0x3c common/built-in.o
 .text.fdt_find_or_add_subnode.constprop.6
                0x4a011638       0x6c common/built-in.o
 .text.set_working_fdt_addr
                0x4a0116a4       0x1c common/built-in.o
                0x4a0116a4                set_working_fdt_addr
 .text.fdt_getprop_u32
                0x4a0116c0       0xb4 common/built-in.o
                0x4a0116c0                fdt_getprop_u32
 .text.fdt_getprop_u64
                0x4a011774       0xa4 common/built-in.o
                0x4a011774                fdt_getprop_u64
 .text.fdt_getprop_string
                0x4a011818       0x64 common/built-in.o
                0x4a011818                fdt_getprop_string
 .text.fdt_find_and_setprop
                0x4a01187c       0x70 common/built-in.o
                0x4a01187c                fdt_find_and_setprop
 .text.fdt_initrd
                0x4a0118ec      0x1e4 common/built-in.o
                0x4a0118ec                fdt_initrd
 .text.fdt_chosen
                0x4a011ad0       0xa0 common/built-in.o
                0x4a011ad0                fdt_chosen
 .text.do_fixup_by_path
                0x4a011b70       0x54 common/built-in.o
                0x4a011b70                do_fixup_by_path
 .text.fdt_fixup_memory_banks
                0x4a011bc4      0x1cc common/built-in.o
                0x4a011bc4                fdt_fixup_memory_banks
 .text.fdt_fixup_memory
                0x4a011d90       0x20 common/built-in.o
                0x4a011d90                fdt_fixup_memory
 .text.fdt_fixup_ethernet
                0x4a011db0      0x158 common/built-in.o
                0x4a011db0                fdt_fixup_ethernet
 .text.fdt_resize
                0x4a011f08       0xd0 common/built-in.o
                0x4a011f08                fdt_resize
 .text.fdt_set_node_status
                0x4a011fd8      0x10c common/built-in.o
                0x4a011fd8                fdt_set_node_status
 .text.do_fdt_test
                0x4a0120e4      0x390 common/built-in.o
 .text.fdt_valid
                0x4a012474       0xc4 common/built-in.o
 .text.is_printable_string
                0x4a012538       0x98 common/built-in.o
 .text.print_data
                0x4a0125d0      0x174 common/built-in.o
 .text.save_fdt_to_flash
                0x4a012744       0x38 common/built-in.o
                0x4a012744                save_fdt_to_flash
 .text.do_fdt   0x4a01277c      0xf5c common/built-in.o
 .text.do_interrupts
                0x4a0136d8       0x44 common/built-in.o
 .text.do_mem_loop
                0x4a01371c      0x104 common/built-in.o
 .text.do_mem_mw
                0x4a013820       0xb8 common/built-in.o
 .text.do_mem_base
                0x4a0138d8       0x40 common/built-in.o
 .text.do_mem_cmp
                0x4a013918      0x160 common/built-in.o
 .text.do_mem_crc
                0x4a013a78       0x44 common/built-in.o
 .text.do_mem_cp
                0x4a013abc       0xdc common/built-in.o
 .text.do_mem_md
                0x4a013b98       0xe4 common/built-in.o
 .text.mod_mem.isra.2
                0x4a013c7c      0x15c common/built-in.o
 .text.do_mem_nm
                0x4a013dd8        0x8 common/built-in.o
 .text.do_mem_mm
                0x4a013de0        0x8 common/built-in.o
 .text.do_mmcops
                0x4a013de8       0xb8 common/built-in.o
 .text.do_mmc_list
                0x4a013ea0       0x14 common/built-in.o
 .text.init_mmc_device
                0x4a013eb4       0x50 common/built-in.o
 .text.do_mmc_rescan
                0x4a013f04       0x24 common/built-in.o
 .text.do_mmcinfo
                0x4a013f28      0x16c common/built-in.o
 .text.do_mmc_dev
                0x4a014094       0xec common/built-in.o
 .text.do_mmc_part
                0x4a014180       0x64 common/built-in.o
 .text.do_mmc_erase
                0x4a0141e4       0xec common/built-in.o
 .text.do_mmc_write
                0x4a0142d0      0x104 common/built-in.o
 .text.do_mmc_read
                0x4a0143d4       0xe8 common/built-in.o
 .text.do_mmc_setdsr
                0x4a0144bc       0xa8 common/built-in.o
 .text.do_card1_probe
                0x4a014564       0x8c common/built-in.o
                0x4a014564                do_card1_probe
 .text.do_card0_probe
                0x4a0145f0       0x8c common/built-in.o
                0x4a0145f0                do_card0_probe
 .text.do_false
                0x4a01467c        0x8 common/built-in.o
 .text.do_true  0x4a014684        0x8 common/built-in.o
 .text.do_test  0x4a01468c      0x330 common/built-in.o
 .text.usb_get_class_desc
                0x4a0149bc       0xac common/built-in.o
 .text.do_usbboot
                0x4a014a68        0xc common/built-in.o
 .text.usb_display_class_sub
                0x4a014a74      0x174 common/built-in.o
 .text.usb_find_device
                0x4a014be8       0x3c common/built-in.o
 .text.usb_show_tree_graph
                0x4a014c24      0x218 common/built-in.o
 .text.usb_display_string
                0x4a014e3c       0x44 common/built-in.o
 .text.usb_display_config
                0x4a014e80      0x220 common/built-in.o
 .text.usb_display_desc.part.1
                0x4a0150a0      0x11c common/built-in.o
 .text.do_usb   0x4a0151bc      0x764 common/built-in.o
 .text.usb_set_maxpacket_ep
                0x4a015920       0x6c common/built-in.o
 .text.usb_stop
                0x4a01598c       0x5c common/built-in.o
                0x4a01598c                usb_stop
 .text.usb_disable_asynch
                0x4a0159e8       0x20 common/built-in.o
                0x4a0159e8                usb_disable_asynch
 .text.usb_control_msg
                0x4a015a08       0xc0 common/built-in.o
                0x4a015a08                usb_control_msg
 .text.usb_get_descriptor
                0x4a015ac8       0x50 common/built-in.o
 .text.usb_get_string
                0x4a015b18       0x68 common/built-in.o
 .text.usb_string_sub
                0x4a015b80      0x104 common/built-in.o
 .text.usb_bulk_msg
                0x4a015c84       0x74 common/built-in.o
                0x4a015c84                usb_bulk_msg
 .text.usb_maxpacket
                0x4a015cf8       0x1c common/built-in.o
                0x4a015cf8                usb_maxpacket
 .text.usb_clear_halt
                0x4a015d14       0xa0 common/built-in.o
                0x4a015d14                usb_clear_halt
 .text.usb_get_configuration_no
                0x4a015db4       0xb8 common/built-in.o
                0x4a015db4                usb_get_configuration_no
 .text.usb_set_interface
                0x4a015e6c       0xb4 common/built-in.o
                0x4a015e6c                usb_set_interface
 .text.usb_string
                0x4a015f20      0x100 common/built-in.o
                0x4a015f20                usb_string
 .text.usb_get_dev_index
                0x4a016020       0x24 common/built-in.o
                0x4a016020                usb_get_dev_index
 .text.usb_alloc_new_device
                0x4a016044       0x84 common/built-in.o
                0x4a016044                usb_alloc_new_device
 .text.usb_free_device
                0x4a0160c8       0x48 common/built-in.o
                0x4a0160c8                usb_free_device
 .text.usb_alloc_device
                0x4a016110        0x8 common/built-in.o
                0x4a016110                usb_alloc_device
 .text.usb_new_device
                0x4a016118      0x608 common/built-in.o
                0x4a016118                usb_new_device
 .text.usb_init
                0x4a016720      0x130 common/built-in.o
                0x4a016720                usb_init
 .text.usb_get_hub_descriptor
                0x4a016850       0x50 common/built-in.o
 .text.usb_get_port_status
                0x4a0168a0       0x4c common/built-in.o
 .text.usb_set_port_feature
                0x4a0168ec       0x4c common/built-in.o
 .text.usb_clear_port_feature
                0x4a016938       0x4c common/built-in.o
 .text.usb_hub_power_on
                0x4a016984       0xac common/built-in.o
 .text.usb_hub_reset_devices
                0x4a016a30        0x4 common/built-in.o
                0x4a016a30                usb_hub_reset_devices
 .text.usb_hub_reset
                0x4a016a34       0x14 common/built-in.o
                0x4a016a34                usb_hub_reset
 .text.hub_port_reset
                0x4a016a48       0xac common/built-in.o
                0x4a016a48                hub_port_reset
 .text.usb_hub_port_connect_change
                0x4a016af4      0x124 common/built-in.o
                0x4a016af4                usb_hub_port_connect_change
 .text.usb_hub_configure
                0x4a016c18      0x2dc common/built-in.o
 .text.usb_hub_probe
                0x4a016ef4       0x58 common/built-in.o
                0x4a016ef4                usb_hub_probe
 .text.usb_stor_irq
                0x4a016f4c       0x1c common/built-in.o
 .text.usb_request_sense
                0x4a016f68       0x68 common/built-in.o
 .text.usb_stor_BBB_clear_endpt_stall
                0x4a016fd0       0x44 common/built-in.o
 .text.usb_stor_BBB_reset
                0x4a017014       0xd0 common/built-in.o
 .text.usb_stor_CB_reset
                0x4a0170e4       0xcc common/built-in.o
 .text.usb_stor_BBB_transport
                0x4a0171b0      0x264 common/built-in.o
 .text.usb_stor_CB_comdat
                0x4a017414      0x220 common/built-in.o
 .text.usb_stor_CBI_get_status.isra.0
                0x4a017634       0xc8 common/built-in.o
 .text.usb_stor_CB_transport
                0x4a0176fc      0x208 common/built-in.o
 .text.usb_stor_write
                0x4a017904      0x1b0 common/built-in.o
                0x4a017904                usb_stor_write
 .text.usb_stor_read
                0x4a017ab4      0x1b0 common/built-in.o
                0x4a017ab4                usb_stor_read
 .text.usb_stor_get_dev
                0x4a017c64       0x28 common/built-in.o
                0x4a017c64                usb_stor_get_dev
 .text.usb_stor_info
                0x4a017c8c       0x74 common/built-in.o
                0x4a017c8c                usb_stor_info
 .text.usb_storage_probe
                0x4a017d00      0x218 common/built-in.o
                0x4a017d00                usb_storage_probe
 .text.usb_stor_get_info
                0x4a017f18      0x324 common/built-in.o
                0x4a017f18                usb_stor_get_info
 .text.usb_stor_scan
                0x4a01823c      0x1ec common/built-in.o
                0x4a01823c                usb_stor_scan
 .text.do_fastboot
                0x4a018428       0x38 common/built-in.o
 .text.do_env_delete
                0x4a018460       0xa8 common/built-in.o
 .text.env_print
                0x4a018508       0xc8 common/built-in.o
 .text.do_env_print
                0x4a0185d0       0xc4 common/built-in.o
 .text.do_env   0x4a018694       0x60 common/built-in.o
 .text.do_env_import
                0x4a0186f4      0x270 common/built-in.o
 .text.do_env_default
                0x4a018964       0xb4 common/built-in.o
 .text.do_env_save
                0x4a018a18       0x2c common/built-in.o
 .text._do_env_set.isra.1
                0x4a018a44      0x1d8 common/built-in.o
 .text.do_env_set
                0x4a018c1c       0x1c common/built-in.o
 .text.setenv   0x4a018c38       0x58 common/built-in.o
                0x4a018c38                setenv
 .text.setenv_ulong
                0x4a018c90       0x20 common/built-in.o
                0x4a018c90                setenv_ulong
 .text.setenv_hex
                0x4a018cb0       0x34 common/built-in.o
                0x4a018cb0                setenv_hex
 .text.do_env_export
                0x4a018ce4      0x26c common/built-in.o
 .text.envmatch
                0x4a018f50       0x6c common/built-in.o
                0x4a018f50                envmatch
 .text.getenv_f
                0x4a018fbc       0xbc common/built-in.o
                0x4a018fbc                getenv_f
 .text.getenv   0x4a019078       0x78 common/built-in.o
                0x4a019078                getenv
 .text.getenv_ulong
                0x4a0190f0       0x30 common/built-in.o
                0x4a0190f0                getenv_ulong
 .text.getenv_hex
                0x4a019120       0x34 common/built-in.o
                0x4a019120                getenv_hex
 .text.env_get_addr
                0x4a019154       0x24 common/built-in.o
                0x4a019154                env_get_addr
 .text.env_get_char_memory
                0x4a019178       0x10 common/built-in.o
                0x4a019178                env_get_char_memory
 .text.env_get_char
                0x4a019188       0x30 common/built-in.o
                0x4a019188                env_get_char
 .text.getenv_yesno
                0x4a0191b8       0x54 common/built-in.o
                0x4a0191b8                getenv_yesno
 .text.getenv_default
                0x4a01920c       0x30 common/built-in.o
                0x4a01920c                getenv_default
 .text.set_default_env
                0x4a01923c       0xb8 common/built-in.o
                0x4a01923c                set_default_env
 .text.set_default_vars
                0x4a0192f4       0x34 common/built-in.o
                0x4a0192f4                set_default_vars
 .text.env_import
                0x4a019328       0xdc common/built-in.o
                0x4a019328                env_import
 .text.env_export
                0x4a019404       0xa4 common/built-in.o
                0x4a019404                env_export
 .text.env_relocate
                0x4a0194a8       0x30 common/built-in.o
                0x4a0194a8                env_relocate
 .text.env_complete
                0x4a0194d8       0xe4 common/built-in.o
                0x4a0194d8                env_complete
 .text.console_setfile
                0x4a0195bc       0xa4 common/built-in.o
 .text.fgetc    0x4a019660       0x2c common/built-in.o
                0x4a019660                fgetc
 .text.ftstc    0x4a01968c       0x2c common/built-in.o
                0x4a01968c                ftstc
 .text.fputc    0x4a0196b8       0x28 common/built-in.o
                0x4a0196b8                fputc
 .text.fputs    0x4a0196e0       0x28 common/built-in.o
                0x4a0196e0                fputs
 .text.fprintf  0x4a019708       0x48 common/built-in.o
                0x4a019708                fprintf
 .text.getc     0x4a019750       0x24 common/built-in.o
                0x4a019750                getc
 .text.tstc     0x4a019774       0x24 common/built-in.o
                0x4a019774                tstc
 .text.putc     0x4a019798       0x28 common/built-in.o
                0x4a019798                putc
 .text.puts     0x4a0197c0       0x28 common/built-in.o
                0x4a0197c0                puts
 .text.printf   0x4a0197e8       0xe4 common/built-in.o
                0x4a0197e8                printf
 .text.uprintf  0x4a0198cc       0xf8 common/built-in.o
                0x4a0198cc                uprintf
 .text.tick_printf
                0x4a0199c4       0x9c common/built-in.o
                0x4a0199c4                tick_printf
 .text.vprintf  0x4a019a60       0x40 common/built-in.o
                0x4a019a60                vprintf
 .text.ctrlc    0x4a019aa0       0x54 common/built-in.o
                0x4a019aa0                ctrlc
 .text.had_ctrlc
                0x4a019af4       0x10 common/built-in.o
                0x4a019af4                had_ctrlc
 .text.clear_ctrlc
                0x4a019b04       0x14 common/built-in.o
                0x4a019b04                clear_ctrlc
 .text.search_device
                0x4a019b18       0x28 common/built-in.o
                0x4a019b18                search_device
 .text.console_assign
                0x4a019b40       0x40 common/built-in.o
                0x4a019b40                console_assign
 .text.on_console
                0x4a019b80       0xc4 common/built-in.o
 .text.console_init_f
                0x4a019c44       0xc0 common/built-in.o
                0x4a019c44                console_init_f
 .text.stdio_print_current_devices
                0x4a019d04       0x58 common/built-in.o
                0x4a019d04                stdio_print_current_devices
 .text.console_init_r
                0x4a019d5c       0xe0 common/built-in.o
                0x4a019d5c                console_init_r
 .text.sbrk     0x4a019e3c       0x6c common/built-in.o
                0x4a019e3c                sbrk
 .text.mem_malloc_init
                0x4a019ea8       0x34 common/built-in.o
                0x4a019ea8                mem_malloc_init
 .text.malloc_trim
                0x4a019edc       0xd8 common/built-in.o
                0x4a019edc                malloc_trim
 .text.__free   0x4a019fb4      0x228 common/built-in.o
 .text.free     0x4a01a1dc        0x4 common/built-in.o
                0x4a01a1dc                free
 .text.__malloc
                0x4a01a1e0      0x5f8 common/built-in.o
 .text.malloc   0x4a01a7d8        0x4 common/built-in.o
                0x4a01a7d8                malloc
 .text.calloc   0x4a01a7dc       0xd4 common/built-in.o
                0x4a01a7dc                calloc
 .text.memalign
                0x4a01a8b0      0x110 common/built-in.o
                0x4a01a8b0                memalign
 .text.realloc  0x4a01a9c0      0x408 common/built-in.o
                0x4a01a9c0                realloc
 .text.on_loadaddr
                0x4a01adc8       0x38 common/built-in.o
 .text.image_check_hcrc
                0x4a01ae00       0x4c common/built-in.o
                0x4a01ae00                image_check_hcrc
 .text.image_check_dcrc
                0x4a01ae4c       0x38 common/built-in.o
                0x4a01ae4c                image_check_dcrc
 .text.image_multi_count
                0x4a01ae84       0x24 common/built-in.o
                0x4a01ae84                image_multi_count
 .text.image_multi_getimg
                0x4a01aea8       0x7c common/built-in.o
                0x4a01aea8                image_multi_getimg
 .text.getenv_bootm_low
                0x4a01af24       0x30 common/built-in.o
                0x4a01af24                getenv_bootm_low
 .text.getenv_bootm_size
                0x4a01af54       0x5c common/built-in.o
                0x4a01af54                getenv_bootm_size
 .text.getenv_bootm_mapsize
                0x4a01afb0       0x30 common/built-in.o
                0x4a01afb0                getenv_bootm_mapsize
 .text.memmove_wd
                0x4a01afe0        0xc common/built-in.o
                0x4a01afe0                memmove_wd
 .text.genimg_print_size
                0x4a01afec       0x30 common/built-in.o
                0x4a01afec                genimg_print_size
 .text.get_table_entry_name
                0x4a01b01c       0x2c common/built-in.o
                0x4a01b01c                get_table_entry_name
 .text.genimg_get_os_name
                0x4a01b048       0x18 common/built-in.o
                0x4a01b048                genimg_get_os_name
 .text.genimg_get_arch_name
                0x4a01b060       0x18 common/built-in.o
                0x4a01b060                genimg_get_arch_name
 .text.genimg_get_type_name
                0x4a01b078       0x18 common/built-in.o
                0x4a01b078                genimg_get_type_name
 .text.genimg_get_comp_name
                0x4a01b090       0x18 common/built-in.o
                0x4a01b090                genimg_get_comp_name
 .text.image_print_contents
                0x4a01b0a8      0x170 common/built-in.o
                0x4a01b0a8                image_print_contents
 .text.genimg_get_format
                0x4a01b218       0x50 common/built-in.o
                0x4a01b218                genimg_get_format
 .text.genimg_get_image
                0x4a01b268        0x4 common/built-in.o
                0x4a01b268                genimg_get_image
 .text.boot_get_ramdisk
                0x4a01b26c      0x268 common/built-in.o
                0x4a01b26c                boot_get_ramdisk
 .text.boot_ramdisk_high
                0x4a01b4d4      0x120 common/built-in.o
                0x4a01b4d4                boot_ramdisk_high
 .text.boot_get_cmdline
                0x4a01b5f4       0x80 common/built-in.o
                0x4a01b5f4                boot_get_cmdline
 .text.image_setup_linux
                0x4a01b674       0xb4 common/built-in.o
                0x4a01b674                image_setup_linux
 .text.android_image_get_kernel
                0x4a01b728      0x1a4 common/built-in.o
                0x4a01b728                android_image_get_kernel
 .text.android_image_check_header
                0x4a01b8cc       0x14 common/built-in.o
                0x4a01b8cc                android_image_check_header
 .text.android_image_get_end
                0x4a01b8e0       0x48 common/built-in.o
                0x4a01b8e0                android_image_get_end
 .text.android_image_get_kload
                0x4a01b928        0x8 common/built-in.o
                0x4a01b928                android_image_get_kload
 .text.android_image_get_ramdisk
                0x4a01b930       0x48 common/built-in.o
                0x4a01b930                android_image_get_ramdisk
 .text.fdt_error
                0x4a01b978       0x2c common/built-in.o
 .text.boot_fdt_add_mem_rsv_regions
                0x4a01b9a4       0x88 common/built-in.o
                0x4a01b9a4                boot_fdt_add_mem_rsv_regions
 .text.boot_relocate_fdt
                0x4a01ba2c      0x19c common/built-in.o
                0x4a01ba2c                boot_relocate_fdt
 .text.ft_verify_fdt
                0x4a01bbc8        0x8 common/built-in.o
                0x4a01bbc8                ft_verify_fdt
 .text.image_setup_libfdt
                0x4a01bbd0       0xcc common/built-in.o
                0x4a01bbd0                image_setup_libfdt
 .text.get_ram_size
                0x4a01bc9c      0x108 common/built-in.o
                0x4a01bc9c                get_ram_size
 .text.get_effective_memsize
                0x4a01bda4        0x8 common/built-in.o
                0x4a01bda4                get_effective_memsize
 .text.stdio_get_list
                0x4a01bdac        0xc common/built-in.o
                0x4a01bdac                stdio_get_list
 .text.stdio_get_by_name
                0x4a01bdb8       0x54 common/built-in.o
                0x4a01bdb8                stdio_get_by_name
 .text.stdio_clone
                0x4a01be0c       0x38 common/built-in.o
                0x4a01be0c                stdio_clone
 .text.stdio_register
                0x4a01be44       0x44 common/built-in.o
                0x4a01be44                stdio_register
 .text.stdio_init
                0x4a01be88       0x8c common/built-in.o
                0x4a01be88                stdio_init
 .text.mem_noncache_malloc_init
                0x4a01bf14       0x30 common/built-in.o
                0x4a01bf14                mem_noncache_malloc_init
 .text.malloc_noncache
                0x4a01bf44       0x7c common/built-in.o
                0x4a01bf44                malloc_noncache
 .text.free_noncache
                0x4a01bfc0       0x40 common/built-in.o
                0x4a01bfc0                free_noncache
 .text.user_data_list
                0x4a01c000       0xec common/built-in.o
 .text.do_check_userdata
                0x4a01c0ec       0x28 common/built-in.o
                0x4a01c0ec                do_check_userdata
 .text.save_user_private_data
                0x4a01c114      0x23c common/built-in.o
                0x4a01c114                save_user_private_data
 .text.do_save_user_data
                0x4a01c350       0x50 common/built-in.o
                0x4a01c350                do_save_user_data
 .text.erase_all_private_data
                0x4a01c3a0       0xe0 common/built-in.o
                0x4a01c3a0                erase_all_private_data
 .text.erase_private_data
                0x4a01c480       0x28 common/built-in.o
                0x4a01c480                erase_private_data
 .text.read_private_key_by_name
                0x4a01c4a8      0x134 common/built-in.o
                0x4a01c4a8                read_private_key_by_name
 .text.print_part_header
                0x4a01c5dc       0xd4 disk/built-in.o
 .text.get_dev_hwpart
                0x4a01c6b0       0xb4 disk/built-in.o
                0x4a01c6b0                get_dev_hwpart
 .text.dev_print
                0x4a01c764      0x218 disk/built-in.o
                0x4a01c764                dev_print
 .text.init_part
                0x4a01c97c       0x34 disk/built-in.o
                0x4a01c97c                init_part
 .text.print_part
                0x4a01c9b0       0x68 disk/built-in.o
                0x4a01c9b0                print_part
 .text.get_partition_info
                0x4a01ca18       0x3c disk/built-in.o
                0x4a01ca18                get_partition_info
 .text.get_device
                0x4a01ca54      0x110 disk/built-in.o
                0x4a01ca54                get_device
 .text.get_device_and_partition
                0x4a01cb64      0x424 disk/built-in.o
                0x4a01cb64                get_device_and_partition
 .text.test_block_type
                0x4a01cf88       0x88 disk/built-in.o
 .text.print_partition_extended
                0x4a01d010      0x250 disk/built-in.o
 .text.get_partition_info_extended.constprop.1
                0x4a01d260      0x2ec disk/built-in.o
 .text.test_part_dos
                0x4a01d54c       0x60 disk/built-in.o
                0x4a01d54c                test_part_dos
 .text.print_part_dos
                0x4a01d5ac       0x30 disk/built-in.o
                0x4a01d5ac                print_part_dos
 .text.get_partition_info_dos
                0x4a01d5dc       0x1c disk/built-in.o
                0x4a01d5dc                get_partition_info_dos
 .text.print_efiname
                0x4a01d5f8       0x58 disk/built-in.o
 .text.is_gpt_valid
                0x4a01d650      0x424 disk/built-in.o
 .text.is_pte_valid
                0x4a01da74       0x58 disk/built-in.o
 .text.print_part_efi
                0x4a01dacc      0x274 disk/built-in.o
                0x4a01dacc                print_part_efi
 .text.get_partition_info_efi
                0x4a01dd40      0x1f4 disk/built-in.o
                0x4a01dd40                get_partition_info_efi
 .text.test_part_efi
                0x4a01df34       0xe0 disk/built-in.o
                0x4a01df34                test_part_efi
 .text.drv_lcd_open_callback
                0x4a01e014       0xcc drivers/built-in.o
 .text.disp_blank
                0x4a01e0e0       0x60 drivers/built-in.o
 .text.disp_getprop_regbase
                0x4a01e140       0xd8 drivers/built-in.o
                0x4a01e140                disp_getprop_regbase
 .text.disp_getprop_irq
                0x4a01e218       0xe0 drivers/built-in.o
                0x4a01e218                disp_getprop_irq
 .text.disp_set_hdmi_func
                0x4a01e2f8        0x4 drivers/built-in.o
                0x4a01e2f8                disp_set_hdmi_func
 .text.disp_tv_register
                0x4a01e2fc        0x4 drivers/built-in.o
                0x4a01e2fc                disp_tv_register
 .text.drv_disp_init
                0x4a01e300      0x3cc drivers/built-in.o
                0x4a01e300                drv_disp_init
 .text.drv_disp_exit
                0x4a01e6cc       0x48 drivers/built-in.o
                0x4a01e6cc                drv_disp_exit
 .text.sunxi_disp_get_source_ops
                0x4a01e714      0x148 drivers/built-in.o
                0x4a01e714                sunxi_disp_get_source_ops
 .text.disp_ioctl
                0x4a01e85c      0xa14 drivers/built-in.o
                0x4a01e85c                disp_ioctl
 .text.disp_sys_register_irq
                0x4a01f270       0x18 drivers/built-in.o
                0x4a01f270                disp_sys_register_irq
 .text.disp_sys_unregister_irq
                0x4a01f288        0x4 drivers/built-in.o
                0x4a01f288                disp_sys_unregister_irq
 .text.disp_sys_enable_irq
                0x4a01f28c        0x4 drivers/built-in.o
                0x4a01f28c                disp_sys_enable_irq
 .text.disp_sys_disable_irq
                0x4a01f290        0x4 drivers/built-in.o
                0x4a01f290                disp_sys_disable_irq
 .text.spin_lock_init
                0x4a01f294        0x4 drivers/built-in.o
                0x4a01f294                spin_lock_init
 .text.mutex_init
                0x4a01f298        0x4 drivers/built-in.o
                0x4a01f298                mutex_init
 .text.mutex_lock
                0x4a01f29c        0x4 drivers/built-in.o
                0x4a01f29c                mutex_lock
 .text.mutex_unlock
                0x4a01f2a0        0x4 drivers/built-in.o
                0x4a01f2a0                mutex_unlock
 .text.tasklet_init
                0x4a01f2a4       0x30 drivers/built-in.o
                0x4a01f2a4                tasklet_init
 .text.tasklet_schedule
                0x4a01f2d4       0x30 drivers/built-in.o
                0x4a01f2d4                tasklet_schedule
 .text.kmalloc  0x4a01f304       0x28 drivers/built-in.o
                0x4a01f304                kmalloc
 .text.kfree    0x4a01f32c        0x4 drivers/built-in.o
                0x4a01f32c                kfree
 .text.disp_fdt_init
                0x4a01f330       0x54 drivers/built-in.o
                0x4a01f330                disp_fdt_init
 .text.disp_fdt_nodeoffset
                0x4a01f384       0x54 drivers/built-in.o
                0x4a01f384                disp_fdt_nodeoffset
 .text.disp_sys_script_get_item
                0x4a01f3d8       0x34 drivers/built-in.o
                0x4a01f3d8                disp_sys_script_get_item
 .text.disp_sys_gpio_request
                0x4a01f40c       0x40 drivers/built-in.o
                0x4a01f40c                disp_sys_gpio_request
 .text.disp_sys_gpio_request_simple
                0x4a01f44c       0x44 drivers/built-in.o
                0x4a01f44c                disp_sys_gpio_request_simple
 .text.disp_sys_gpio_release
                0x4a01f490       0x1c drivers/built-in.o
                0x4a01f490                disp_sys_gpio_release
 .text.disp_sys_gpio_set_direction
                0x4a01f4ac        0x4 drivers/built-in.o
                0x4a01f4ac                disp_sys_gpio_set_direction
 .text.disp_sys_gpio_set_value
                0x4a01f4b0        0x4 drivers/built-in.o
                0x4a01f4b0                disp_sys_gpio_set_value
 .text.disp_sys_pin_set_state
                0x4a01f4b4       0x34 drivers/built-in.o
                0x4a01f4b4                disp_sys_pin_set_state
 .text.disp_sys_power_enable
                0x4a01f4e8       0x44 drivers/built-in.o
                0x4a01f4e8                disp_sys_power_enable
 .text.disp_sys_power_disable
                0x4a01f52c       0x34 drivers/built-in.o
                0x4a01f52c                disp_sys_power_disable
 .text.disp_sys_pwm_request
                0x4a01f560       0x1c drivers/built-in.o
                0x4a01f560                disp_sys_pwm_request
 .text.disp_sys_pwm_enable
                0x4a01f57c        0x8 drivers/built-in.o
                0x4a01f57c                disp_sys_pwm_enable
 .text.disp_sys_pwm_disable
                0x4a01f584       0x14 drivers/built-in.o
                0x4a01f584                disp_sys_pwm_disable
 .text.disp_sys_pwm_config
                0x4a01f598        0x8 drivers/built-in.o
                0x4a01f598                disp_sys_pwm_config
 .text.disp_sys_pwm_set_polarity
                0x4a01f5a0        0x8 drivers/built-in.o
                0x4a01f5a0                disp_sys_pwm_set_polarity
 .text.disp_tasklet
                0x4a01f5a8       0x40 drivers/built-in.o
                0x4a01f5a8                disp_tasklet
 .text.bsp_disp_shadow_protect
                0x4a01f5e8       0xe8 drivers/built-in.o
                0x4a01f5e8                bsp_disp_shadow_protect
 .text.bsp_disp_exit
                0x4a01f6d0        0x8 drivers/built-in.o
                0x4a01f6d0                bsp_disp_exit
 .text.bsp_disp_open
                0x4a01f6d8        0x8 drivers/built-in.o
                0x4a01f6d8                bsp_disp_open
 .text.bsp_disp_close
                0x4a01f6e0        0x8 drivers/built-in.o
                0x4a01f6e0                bsp_disp_close
 .text.disp_device_attached_and_enable
                0x4a01f6e8      0x1d4 drivers/built-in.o
                0x4a01f6e8                disp_device_attached_and_enable
 .text.bsp_disp_device_switch
                0x4a01f8bc       0x88 drivers/built-in.o
                0x4a01f8bc                bsp_disp_device_switch
 .text.bsp_disp_device_set_config
                0x4a01f944       0x5c drivers/built-in.o
                0x4a01f944                bsp_disp_device_set_config
 .text.disp_init_connections
                0x4a01f9a0      0x19c drivers/built-in.o
                0x4a01f9a0                disp_init_connections
 .text.bsp_disp_init
                0x4a01fb3c       0xe4 drivers/built-in.o
                0x4a01fb3c                bsp_disp_init
 .text.bsp_disp_vsync_event_enable
                0x4a01fc20       0x1c drivers/built-in.o
                0x4a01fc20                bsp_disp_vsync_event_enable
 .text.sync_event_proc
                0x4a01fc3c      0x134 drivers/built-in.o
                0x4a01fc3c                sync_event_proc
 .text.bsp_disp_get_output_type
                0x4a01fd70       0x48 drivers/built-in.o
                0x4a01fd70                bsp_disp_get_output_type
 .text.bsp_disp_set_hdmi_func
                0x4a01fdb8       0x88 drivers/built-in.o
                0x4a01fdb8                bsp_disp_set_hdmi_func
 .text.bsp_disp_hdmi_get_support_mode
                0x4a01fe40       0x58 drivers/built-in.o
                0x4a01fe40                bsp_disp_hdmi_get_support_mode
 .text.bsp_disp_hdmi_get_work_mode
                0x4a01fe98       0x50 drivers/built-in.o
                0x4a01fe98                bsp_disp_hdmi_get_work_mode
 .text.bsp_disp_hdmi_check_support_mode
                0x4a01fee8       0x58 drivers/built-in.o
                0x4a01fee8                bsp_disp_hdmi_check_support_mode
 .text.bsp_disp_hdmi_get_hpd_status
                0x4a01ff40       0x50 drivers/built-in.o
                0x4a01ff40                bsp_disp_hdmi_get_hpd_status
 .text.bsp_disp_tv_get_hpd_status
                0x4a01ff90       0x50 drivers/built-in.o
                0x4a01ff90                bsp_disp_tv_get_hpd_status
 .text.bsp_disp_tv_set_hpd
                0x4a01ffe0       0x70 drivers/built-in.o
                0x4a01ffe0                bsp_disp_tv_set_hpd
 .text.bsp_disp_tv_register
                0x4a020050       0xd4 drivers/built-in.o
                0x4a020050                bsp_disp_tv_register
 .text.bsp_disp_lcd_get_open_flow
                0x4a020124       0x30 drivers/built-in.o
                0x4a020124                bsp_disp_lcd_get_open_flow
 .text.bsp_disp_lcd_set_panel_funs
                0x4a020154       0x70 drivers/built-in.o
                0x4a020154                bsp_disp_lcd_set_panel_funs
 .text.LCD_OPEN_FUNC
                0x4a0201c4       0x34 drivers/built-in.o
                0x4a0201c4                LCD_OPEN_FUNC
 .text.LCD_CLOSE_FUNC
                0x4a0201f8       0x34 drivers/built-in.o
                0x4a0201f8                LCD_CLOSE_FUNC
 .text.bsp_disp_lcd_backlight_enable
                0x4a02022c       0x30 drivers/built-in.o
                0x4a02022c                bsp_disp_lcd_backlight_enable
 .text.bsp_disp_lcd_backlight_disable
                0x4a02025c       0x30 drivers/built-in.o
                0x4a02025c                bsp_disp_lcd_backlight_disable
 .text.bsp_disp_lcd_pwm_enable
                0x4a02028c       0x30 drivers/built-in.o
                0x4a02028c                bsp_disp_lcd_pwm_enable
 .text.bsp_disp_lcd_pwm_disable
                0x4a0202bc       0x30 drivers/built-in.o
                0x4a0202bc                bsp_disp_lcd_pwm_disable
 .text.bsp_disp_lcd_power_enable
                0x4a0202ec       0x38 drivers/built-in.o
                0x4a0202ec                bsp_disp_lcd_power_enable
 .text.bsp_disp_lcd_power_disable
                0x4a020324       0x38 drivers/built-in.o
                0x4a020324                bsp_disp_lcd_power_disable
 .text.bsp_disp_lcd_get_bright
                0x4a02035c       0x30 drivers/built-in.o
                0x4a02035c                bsp_disp_lcd_get_bright
 .text.bsp_disp_lcd_tcon_enable
                0x4a02038c       0xbc drivers/built-in.o
                0x4a02038c                bsp_disp_lcd_tcon_enable
 .text.bsp_disp_lcd_tcon_disable
                0x4a020448       0xb0 drivers/built-in.o
                0x4a020448                bsp_disp_lcd_tcon_disable
 .text.bsp_disp_lcd_pin_cfg
                0x4a0204f8       0x38 drivers/built-in.o
                0x4a0204f8                bsp_disp_lcd_pin_cfg
 .text.bsp_disp_lcd_gpio_set_value
                0x4a020530       0x40 drivers/built-in.o
                0x4a020530                bsp_disp_lcd_gpio_set_value
 .text.bsp_disp_lcd_gpio_set_direction
                0x4a020570       0x40 drivers/built-in.o
                0x4a020570                bsp_disp_lcd_gpio_set_direction
 .text.bsp_disp_get_panel_info
                0x4a0205b0       0x54 drivers/built-in.o
                0x4a0205b0                bsp_disp_get_panel_info
 .text.bsp_disp_lcd_dsi_mode_switch
                0x4a020604       0xb8 drivers/built-in.o
                0x4a020604                bsp_disp_lcd_dsi_mode_switch
 .text.bsp_disp_lcd_dsi_clk_enable
                0x4a0206bc       0xac drivers/built-in.o
                0x4a0206bc                bsp_disp_lcd_dsi_clk_enable
 .text.bsp_disp_lcd_dsi_dcs_wr
                0x4a020768       0xcc drivers/built-in.o
                0x4a020768                bsp_disp_lcd_dsi_dcs_wr
 .text.bsp_disp_lcd_dsi_gen_wr
                0x4a020834       0xcc drivers/built-in.o
                0x4a020834                bsp_disp_lcd_dsi_gen_wr
 .text.bsp_disp_lcd_dsi_gen_short_read
                0x4a020900       0x38 drivers/built-in.o
                0x4a020900                bsp_disp_lcd_dsi_gen_short_read
 .text.bsp_disp_lcd_dsi_dcs_read
                0x4a020938       0x30 drivers/built-in.o
                0x4a020938                bsp_disp_lcd_dsi_dcs_read
 .text.bsp_disp_lcd_set_max_ret_size
                0x4a020968        0x4 drivers/built-in.o
                0x4a020968                bsp_disp_lcd_set_max_ret_size
 .text.bsp_disp_feat_get_num_screens
                0x4a02096c        0x4 drivers/built-in.o
                0x4a02096c                bsp_disp_feat_get_num_screens
 .text.bsp_disp_feat_get_num_devices
                0x4a020970        0x4 drivers/built-in.o
                0x4a020970                bsp_disp_feat_get_num_devices
 .text.bsp_disp_feat_get_num_channels
                0x4a020974        0x4 drivers/built-in.o
                0x4a020974                bsp_disp_feat_get_num_channels
 .text.bsp_disp_feat_get_num_layers
                0x4a020978        0x4 drivers/built-in.o
                0x4a020978                bsp_disp_feat_get_num_layers
 .text.bsp_disp_feat_get_num_layers_by_chn
                0x4a02097c        0x4 drivers/built-in.o
                0x4a02097c                bsp_disp_feat_get_num_layers_by_chn
 .text.bsp_disp_feat_is_supported_output_types
                0x4a020980        0x4 drivers/built-in.o
                0x4a020980                bsp_disp_feat_is_supported_output_types
 .text.disp_feat_is_support_smbl
                0x4a020984        0x4 drivers/built-in.o
                0x4a020984                disp_feat_is_support_smbl
 .text.disp_init_feat
                0x4a020988       0x10 drivers/built-in.o
                0x4a020988                disp_init_feat
 .text.disp_device_set_manager
                0x4a020998       0x40 drivers/built-in.o
                0x4a020998                disp_device_set_manager
 .text.disp_device_unset_manager
                0x4a0209d8       0x40 drivers/built-in.o
                0x4a0209d8                disp_device_unset_manager
 .text.disp_device_get_resolution
                0x4a020a18       0x3c drivers/built-in.o
                0x4a020a18                disp_device_get_resolution
 .text.disp_device_get_timings
                0x4a020a54       0x44 drivers/built-in.o
                0x4a020a54                disp_device_get_timings
 .text.disp_device_is_interlace
                0x4a020a98       0x2c drivers/built-in.o
                0x4a020a98                disp_device_is_interlace
 .text.disp_device_get
                0x4a020ac4       0x4c drivers/built-in.o
                0x4a020ac4                disp_device_get
 .text.disp_device_find
                0x4a020b10       0x40 drivers/built-in.o
                0x4a020b10                disp_device_find
 .text.disp_device_register
                0x4a020b50       0x24 drivers/built-in.o
                0x4a020b50                disp_device_register
 .text.disp_lcd_set_static_config
                0x4a020b74        0x8 drivers/built-in.o
 .text.disp_lcd_get_priv
                0x4a020b7c       0x2c drivers/built-in.o
 .text.disp_lcd_is_used
                0x4a020ba8       0x20 drivers/built-in.o
 .text.disp_lcd_bright_curve_init
                0x4a020bc8      0x164 drivers/built-in.o
 .text.disp_lcd_get_close_flow
                0x4a020d2c       0xd4 drivers/built-in.o
 .text.disp_lcd_get_open_flow
                0x4a020e00       0xc8 drivers/built-in.o
 .text.disp_lcd_init
                0x4a020ec8      0xcb0 drivers/built-in.o
 .text.lcd_clk_disable
                0x4a021b78       0xa4 drivers/built-in.o
 .text.lcd_calc_judge_line
                0x4a021c1c       0xf8 drivers/built-in.o
 .text.disp_lcd_event_proc
                0x4a021d14      0x11c drivers/built-in.o
 .text.lcd_clk_enable
                0x4a021e30      0x31c drivers/built-in.o
 .text.disp_lcd_set_panel_funs
                0x4a02214c       0xe0 drivers/built-in.o
 .text.disp_lcd_pin_cfg
                0x4a02222c      0x13c drivers/built-in.o
 .text.disp_lcd_backlight_disable
                0x4a022368       0xe0 drivers/built-in.o
 .text.disp_lcd_sw_enable
                0x4a022448      0x2e0 drivers/built-in.o
 .text.disp_lcd_get_fps
                0x4a022728       0x3c drivers/built-in.o
 .text.disp_lcd_get_dimensions
                0x4a022764       0x58 drivers/built-in.o
 .text.disp_lcd_set_close_func
                0x4a0227bc       0x6c drivers/built-in.o
 .text.disp_lcd_set_open_func
                0x4a022828       0x68 drivers/built-in.o
 .text.disp_lcd_check_config_dirty
                0x4a022890       0x44 drivers/built-in.o
 .text.disp_lcd_get_static_config
                0x4a0228d4       0x4c drivers/built-in.o
 .text.disp_lcd_is_enabled
                0x4a022920       0x3c drivers/built-in.o
                0x4a022920                disp_lcd_is_enabled
 .text.disp_lcd_get_bright
                0x4a02295c       0x38 drivers/built-in.o
                0x4a02295c                disp_lcd_get_bright
 .text.disp_lcd_bright_get_adjust_value
                0x4a022994       0x48 drivers/built-in.o
 .text.disp_lcd_set_bright
                0x4a0229dc      0x194 drivers/built-in.o
                0x4a0229dc                disp_lcd_set_bright
 .text.disp_lcd_backlight_enable
                0x4a022b70       0xf4 drivers/built-in.o
 .text.disp_lcd_exit
                0x4a022c64       0x78 drivers/built-in.o
 .text.disp_lcd_set_bright_dimming
                0x4a022cdc       0x64 drivers/built-in.o
 .text.disp_lcd_disable_gamma
                0x4a022d40       0x5c drivers/built-in.o
 .text.disp_lcd_enable_gamma
                0x4a022d9c       0x58 drivers/built-in.o
 .text.disp_lcd_set_gamma_tbl
                0x4a022df4       0x7c drivers/built-in.o
 .text.disp_lcd_get_panel_info
                0x4a022e70       0x58 drivers/built-in.o
 .text.disp_lcd_get_status
                0x4a022ec8       0x3c drivers/built-in.o
 .text.disp_lcd_power_disable
                0x4a022f04       0x7c drivers/built-in.o
 .text.disp_lcd_power_enable
                0x4a022f80       0x7c drivers/built-in.o
 .text.disp_lcd_tcon_disable
                0x4a022ffc       0x44 drivers/built-in.o
 .text.disp_lcd_tcon_enable
                0x4a023040       0x44 drivers/built-in.o
 .text.disp_lcd_pwm_disable
                0x4a023084       0x68 drivers/built-in.o
 .text.disp_lcd_pwm_enable
                0x4a0230ec       0x68 drivers/built-in.o
 .text.disp_lcd_gpio_set_value
                0x4a023154       0x70 drivers/built-in.o
                0x4a023154                disp_lcd_gpio_set_value
 .text.disp_lcd_gpio_set_direction
                0x4a0231c4       0x70 drivers/built-in.o
                0x4a0231c4                disp_lcd_gpio_set_direction
 .text.disp_get_lcd
                0x4a023234       0x44 drivers/built-in.o
                0x4a023234                disp_get_lcd
 .text.disp_lcd_pre_disable_ex
                0x4a023278       0x58 drivers/built-in.o
 .text.disp_lcd_post_enable_ex
                0x4a0232d0       0x6c drivers/built-in.o
 .text.disp_lcd_gpio_init
                0x4a02333c       0xfc drivers/built-in.o
                0x4a02333c                disp_lcd_gpio_init
 .text.disp_lcd_pre_enable_ex
                0x4a023438      0x19c drivers/built-in.o
 .text.__disp_lcd_enable
                0x4a0235d4      0x25c drivers/built-in.o
 .text.disp_lcd_fake_enable
                0x4a023830        0x8 drivers/built-in.o
 .text.disp_lcd_enable
                0x4a023838        0x8 drivers/built-in.o
 .text.disp_lcd_gpio_exit
                0x4a023840      0x108 drivers/built-in.o
                0x4a023840                disp_lcd_gpio_exit
 .text.disp_lcd_post_disable_ex
                0x4a023948       0xec drivers/built-in.o
 .text.disp_lcd_disable
                0x4a023a34      0x1a8 drivers/built-in.o
 .text.disp_init_lcd
                0x4a023bdc      0x3b8 drivers/built-in.o
                0x4a023bdc                disp_init_lcd
 .text.disp_lyr_get_priv
                0x4a023f94       0x2c drivers/built-in.o
 .text.disp_lyr_dump
                0x4a023fc0      0x270 drivers/built-in.o
 .text.disp_lyr_dirty_clear
                0x4a024230       0x48 drivers/built-in.o
 .text.disp_lyr_is_dirty
                0x4a024278       0x48 drivers/built-in.o
 .text.disp_lyr_check2
                0x4a0242c0       0x38 drivers/built-in.o
 .text.disp_lyr_check
                0x4a0242f8       0x38 drivers/built-in.o
 .text.disp_lyr_apply
                0x4a024330       0x38 drivers/built-in.o
 .text.disp_lyr_force_apply
                0x4a024368       0x68 drivers/built-in.o
 .text.disp_lyr_unset_manager
                0x4a0243d0       0x64 drivers/built-in.o
 .text.disp_lyr_set_manager
                0x4a024434       0x74 drivers/built-in.o
 .text.disp_mgr_get_priv
                0x4a0244a8       0x3c drivers/built-in.o
 .text.disp_mgr_tasklet
                0x4a0244e4       0xc8 drivers/built-in.o
 .text.disp_mgr_update_color_space
                0x4a0245ac       0xbc drivers/built-in.o
 .text.disp_mgr_sync
                0x4a024668       0xf8 drivers/built-in.o
 .text.disp_mgr_shadow_protect
                0x4a024760       0x58 drivers/built-in.o
 .text.disp_mgr_apply
                0x4a0247b8      0x1a0 drivers/built-in.o
 .text.disp_mgr_force_apply
                0x4a024958       0xe4 drivers/built-in.o
 .text.disp_mgr_sw_enable
                0x4a024a3c      0x150 drivers/built-in.o
 .text.disp_mgr_enable
                0x4a024b8c      0x294 drivers/built-in.o
 .text.disp_mgr_get_clk_rate
                0x4a024e20       0x3c drivers/built-in.o
 .text.disp_mgr_dump
                0x4a024e5c       0x38 drivers/built-in.o
 .text.disp_mgr_get_output_color_range
                0x4a024e94       0x3c drivers/built-in.o
 .text.disp_mgr_set_output_color_range
                0x4a024ed0       0x78 drivers/built-in.o
 .text.disp_mgr_is_enabled
                0x4a024f48       0x38 drivers/built-in.o
 .text.disp_mgr_get_back_color
                0x4a024f80       0x68 drivers/built-in.o
 .text.disp_mgr_set_back_color
                0x4a024fe8       0x84 drivers/built-in.o
 .text.disp_mgr_get_color_key
                0x4a02506c       0x68 drivers/built-in.o
 .text.disp_mgr_set_color_key
                0x4a0250d4       0x88 drivers/built-in.o
 .text.disp_mgr_update_regs
                0x4a02515c       0x60 drivers/built-in.o
 .text.disp_mgr_exit
                0x4a0251bc       0x74 drivers/built-in.o
 .text.disp_mgr_init
                0x4a025230       0x80 drivers/built-in.o
 .text.disp_mgr_blank
                0x4a0252b0       0xa0 drivers/built-in.o
 .text.disp_get_layer
                0x4a025350       0xd0 drivers/built-in.o
                0x4a025350                disp_get_layer
 .text.disp_mgr_get_layer_config2
                0x4a025420       0xbc drivers/built-in.o
 .text.disp_mgr_set_layer_config2
                0x4a0254dc      0x10c drivers/built-in.o
 .text.disp_mgr_get_layer_config
                0x4a0255e8       0xbc drivers/built-in.o
 .text.disp_mgr_set_layer_config
                0x4a0256a4      0x10c drivers/built-in.o
 .text.disp_get_layer_1
                0x4a0257b0       0xd4 drivers/built-in.o
                0x4a0257b0                disp_get_layer_1
 .text.__disp_config_transfer2inner
                0x4a025884      0x120 drivers/built-in.o
                0x4a025884                __disp_config_transfer2inner
 .text.disp_lyr_save_and_dirty_check
                0x4a0259a4       0x74 drivers/built-in.o
 .text.__disp_config2_transfer2inner
                0x4a025a18      0x14c drivers/built-in.o
                0x4a025a18                __disp_config2_transfer2inner
 .text.disp_lyr_save_and_dirty_check2
                0x4a025b64       0x74 drivers/built-in.o
 .text.__disp_inner_transfer2config
                0x4a025bd8       0xfc drivers/built-in.o
                0x4a025bd8                __disp_inner_transfer2config
 .text.disp_lyr_get_config
                0x4a025cd4       0x6c drivers/built-in.o
 .text.__disp_inner_transfer2config2
                0x4a025d40      0x14c drivers/built-in.o
                0x4a025d40                __disp_inner_transfer2config2
 .text.disp_lyr_get_config2
                0x4a025e8c       0x6c drivers/built-in.o
 .text.disp_get_layer_manager
                0x4a025ef8       0x48 drivers/built-in.o
                0x4a025ef8                disp_get_layer_manager
 .text.disp_mgr_clk_disable
                0x4a025f40       0x54 drivers/built-in.o
                0x4a025f40                disp_mgr_clk_disable
 .text.disp_mgr_disable
                0x4a025f94       0x9c drivers/built-in.o
 .text.disp_init_mgr
                0x4a026030      0x50c drivers/built-in.o
                0x4a026030                disp_init_mgr
 .text.disp_delay_ms
                0x4a02653c       0x10 drivers/built-in.o
                0x4a02653c                disp_delay_ms
 .text.disp_delay_us
                0x4a02654c       0x10 drivers/built-in.o
                0x4a02654c                disp_delay_us
 .text.disp_vmap
                0x4a02655c        0x4 drivers/built-in.o
                0x4a02655c                disp_vmap
 .text.disp_vunmap
                0x4a026560        0x4 drivers/built-in.o
                0x4a026560                disp_vunmap
 .text.disp_smbl_get_priv
                0x4a026564       0x1c drivers/built-in.o
 .text.disp_smbl_update_backlight
                0x4a026580       0x28 drivers/built-in.o
 .text.disp_smbl_is_enabled
                0x4a0265a8       0x34 drivers/built-in.o
 .text.disp_smbl_init
                0x4a0265dc       0x24 drivers/built-in.o
 .text.disp_smbl_exit
                0x4a026600       0x24 drivers/built-in.o
 .text.disp_smbl_dump
                0x4a026624       0xac drivers/built-in.o
 .text.disp_smbl_get_window
                0x4a0266d0       0x5c drivers/built-in.o
 .text.disp_smbl_unset_manager
                0x4a02672c       0x58 drivers/built-in.o
 .text.disp_smbl_set_manager
                0x4a026784       0x5c drivers/built-in.o
 .text.disp_smbl_tasklet
                0x4a0267e0       0x90 drivers/built-in.o
 .text.disp_smbl_update_regs
                0x4a026870       0x5c drivers/built-in.o
 .text.disp_smbl_sync
                0x4a0268cc       0x20 drivers/built-in.o
 .text.disp_get_smbl
                0x4a0268ec       0x54 drivers/built-in.o
                0x4a0268ec                disp_get_smbl
 .text.disp_smbl_shadow_protect
                0x4a026940       0x44 drivers/built-in.o
                0x4a026940                disp_smbl_shadow_protect
 .text.disp_smbl_apply
                0x4a026984       0xbc drivers/built-in.o
 .text.disp_smbl_set_window
                0x4a026a40       0x70 drivers/built-in.o
 .text.disp_smbl_force_apply
                0x4a026ab0       0x60 drivers/built-in.o
 .text.disp_smbl_disable
                0x4a026b10       0x60 drivers/built-in.o
 .text.disp_smbl_enable
                0x4a026b70       0xac drivers/built-in.o
 .text.disp_init_smbl
                0x4a026c1c      0x1f0 drivers/built-in.o
                0x4a026c1c                disp_init_smbl
 .text.disp_enhance_get_priv
                0x4a026e0c       0x24 drivers/built-in.o
 .text.disp_enhance_is_enabled
                0x4a026e30       0x30 drivers/built-in.o
 .text.disp_enhance_get_mode
                0x4a026e60       0x20 drivers/built-in.o
 .text.disp_enhance_get_bright
                0x4a026e80       0x20 drivers/built-in.o
 .text.disp_enhance_get_saturation
                0x4a026ea0       0x20 drivers/built-in.o
 .text.disp_enhance_get_contrast
                0x4a026ec0       0x20 drivers/built-in.o
 .text.disp_enhance_get_edge
                0x4a026ee0       0x20 drivers/built-in.o
 .text.disp_enhance_get_detail
                0x4a026f00       0x20 drivers/built-in.o
 .text.disp_enhance_get_denoise
                0x4a026f20       0x20 drivers/built-in.o
 .text.disp_enhance_set_manager
                0x4a026f40       0x30 drivers/built-in.o
 .text.disp_enhance_unset_manager
                0x4a026f70       0x38 drivers/built-in.o
 .text.disp_enhance_shadow_protect
                0x4a026fa8       0x44 drivers/built-in.o
 .text.disp_enhance_init
                0x4a026fec       0x24 drivers/built-in.o
 .text.disp_enhance_exit
                0x4a027010       0x24 drivers/built-in.o
 .text.disp_enhance_dump
                0x4a027034       0x90 drivers/built-in.o
 .text.disp_enhance_update_regs
                0x4a0270c4       0x50 drivers/built-in.o
 .text.disp_enhance_apply
                0x4a027114       0xd4 drivers/built-in.o
 .text.disp_enhance_set_denoise
                0x4a0271e8       0x58 drivers/built-in.o
 .text.disp_enhance_set_detail
                0x4a027240       0x58 drivers/built-in.o
 .text.disp_enhance_set_edge
                0x4a027298       0x58 drivers/built-in.o
 .text.disp_enhance_set_contrast
                0x4a0272f0       0x58 drivers/built-in.o
 .text.disp_enhance_set_saturation
                0x4a027348       0x58 drivers/built-in.o
 .text.disp_enhance_set_bright
                0x4a0273a0       0x58 drivers/built-in.o
 .text.disp_enhance_set_mode
                0x4a0273f8       0x60 drivers/built-in.o
 .text.disp_enhance_demo_disable
                0x4a027458       0x48 drivers/built-in.o
 .text.disp_enhance_demo_enable
                0x4a0274a0       0x4c drivers/built-in.o
 .text.disp_enhance_disable
                0x4a0274ec       0x58 drivers/built-in.o
 .text.disp_enhance_enable
                0x4a027544       0xd0 drivers/built-in.o
 .text.disp_enhance_set_para
                0x4a027614      0x11c drivers/built-in.o
                0x4a027614                disp_enhance_set_para
 .text.disp_enhance_tasklet
                0x4a027730       0x44 drivers/built-in.o
 .text.disp_enhance_sync
                0x4a027774       0x54 drivers/built-in.o
 .text.disp_enhance_force_apply
                0x4a0277c8       0x8c drivers/built-in.o
 .text.disp_get_enhance
                0x4a027854       0x48 drivers/built-in.o
                0x4a027854                disp_get_enhance
 .text.disp_init_enhance
                0x4a02789c      0x264 drivers/built-in.o
                0x4a02789c                disp_init_enhance
 .text.disp_get_capture
                0x4a027b00        0x8 drivers/built-in.o
                0x4a027b00                disp_get_capture
 .text.disp_init_capture
                0x4a027b08        0x8 drivers/built-in.o
                0x4a027b08                disp_init_capture
 .text.disp_hdmi_event_proc
                0x4a027b10       0x60 drivers/built-in.o
 .text.disp_hdmi_get_priv
                0x4a027b70       0x2c drivers/built-in.o
 .text.disp_hdmi_check_config_dirty
                0x4a027b9c       0xe8 drivers/built-in.o
 .text.disp_hdmi_set_dynamic_config
                0x4a027c84       0x54 drivers/built-in.o
 .text.disp_hdmi_set_detect
                0x4a027cd8       0xd4 drivers/built-in.o
 .text.disp_hdmi_disable
                0x4a027dac      0x138 drivers/built-in.o
 .text.hdmi_calc_judge_line
                0x4a027ee4       0xd0 drivers/built-in.o
 .text.disp_hdmi_sw_enable
                0x4a027fb4      0x118 drivers/built-in.o
 .text.disp_hdmi_enable
                0x4a0280cc      0x314 drivers/built-in.o
                0x4a0280cc                disp_hdmi_enable
 .text.disp_hdmi_get_fps
                0x4a0283e0       0x38 drivers/built-in.o
 .text.disp_hdmi_detect
                0x4a028418       0x4c drivers/built-in.o
 .text.disp_hdmi_get_input_csc
                0x4a028464       0x44 drivers/built-in.o
 .text.disp_hdmi_get_input_color_range
                0x4a0284a8       0x48 drivers/built-in.o
 .text.disp_hdmi_get_work_mode
                0x4a0284f0       0x4c drivers/built-in.o
 .text.disp_hdmi_get_support_mode
                0x4a02853c       0x54 drivers/built-in.o
 .text.disp_hdmi_check_support_mode
                0x4a028590       0x54 drivers/built-in.o
 .text.disp_hdmi_get_mode
                0x4a0285e4       0x38 drivers/built-in.o
 .text.disp_hdmi_is_enabled
                0x4a02861c       0x38 drivers/built-in.o
 .text.disp_hdmi_exit
                0x4a028654       0x68 drivers/built-in.o
 .text.disp_hdmi_set_mode
                0x4a0286bc       0x64 drivers/built-in.o
                0x4a0286bc                disp_hdmi_set_mode
 .text.disp_hdmi_get_status
                0x4a028720       0x3c drivers/built-in.o
 .text.disp_hdmi_resume
                0x4a02875c       0x74 drivers/built-in.o
 .text.disp_hdmi_suspend
                0x4a0287d0       0x74 drivers/built-in.o
 .text.disp_hdmi_get_static_config
                0x4a028844       0xd0 drivers/built-in.o
 .text.disp_hdmi_set_static_config
                0x4a028914       0x74 drivers/built-in.o
 .text.disp_hdmi_set_func
                0x4a028988       0x54 drivers/built-in.o
 .text.disp_hdmi_init
                0x4a0289dc       0x7c drivers/built-in.o
 .text.disp_init_hdmi
                0x4a028a58      0x32c drivers/built-in.o
                0x4a028a58                disp_init_hdmi
 .text.disp_tv_get_priv
                0x4a028d84       0x2c drivers/built-in.o
 .text.disp_tv_set_func
                0x4a028db0       0x70 drivers/built-in.o
                0x4a028db0                disp_tv_set_func
 .text.tv_calc_judge_line
                0x4a028e20       0xd0 drivers/built-in.o
 .text.disp_tv_sw_enable
                0x4a028ef0      0x148 drivers/built-in.o
                0x4a028ef0                disp_tv_sw_enable
 .text.disp_tv_enable
                0x4a029038      0x1b4 drivers/built-in.o
                0x4a029038                disp_tv_enable
 .text.disp_tv_get_fps
                0x4a0291ec       0x38 drivers/built-in.o
 .text.disp_tv_check_config_dirty
                0x4a029224       0x5c drivers/built-in.o
 .text.disp_tv_get_static_config
                0x4a029280       0x74 drivers/built-in.o
 .text.disp_tv_init
                0x4a0292f4       0x38 drivers/built-in.o
 .text.disp_set_enhance_mode
                0x4a02932c       0xc0 drivers/built-in.o
                0x4a02932c                disp_set_enhance_mode
 .text.disp_tv_check_support_mode
                0x4a0293ec       0x58 drivers/built-in.o
                0x4a0293ec                disp_tv_check_support_mode
 .text.disp_tv_detect
                0x4a029444       0x50 drivers/built-in.o
                0x4a029444                disp_tv_detect
 .text.disp_tv_get_input_csc
                0x4a029494       0x50 drivers/built-in.o
                0x4a029494                disp_tv_get_input_csc
 .text.disp_tv_get_mode
                0x4a0294e4       0x68 drivers/built-in.o
                0x4a0294e4                disp_tv_get_mode
 .text.disp_tv_set_mode
                0x4a02954c       0x68 drivers/built-in.o
                0x4a02954c                disp_tv_set_mode
 .text.disp_tv_set_static_config
                0x4a0295b4        0x8 drivers/built-in.o
 .text.disp_tv_resume
                0x4a0295bc       0x60 drivers/built-in.o
                0x4a0295bc                disp_tv_resume
 .text.disp_tv_suspend
                0x4a02961c       0x74 drivers/built-in.o
                0x4a02961c                disp_tv_suspend
 .text.disp_tv_is_enabled
                0x4a029690       0x38 drivers/built-in.o
                0x4a029690                disp_tv_is_enabled
 .text.disp_tv_event_proc
                0x4a0296c8       0x74 drivers/built-in.o
 .text.disp_init_tv_para
                0x4a02973c       0x3c drivers/built-in.o
                0x4a02973c                disp_init_tv_para
 .text.disp_tv_set_hpd
                0x4a029778       0x54 drivers/built-in.o
                0x4a029778                disp_tv_set_hpd
 .text.disp_tv_disable
                0x4a0297cc      0x130 drivers/built-in.o
                0x4a0297cc                disp_tv_disable
 .text.disp_tv_exit
                0x4a0298fc       0x5c drivers/built-in.o
                0x4a0298fc                disp_tv_exit
 .text.disp_init_tv
                0x4a029958      0x314 drivers/built-in.o
                0x4a029958                disp_init_tv
 .text.disp_vga_get_priv
                0x4a029c6c       0x2c drivers/built-in.o
 .text.vga_calc_judge_line
                0x4a029c98       0xf0 drivers/built-in.o
 .text.disp_vga_disable
                0x4a029d88      0x160 drivers/built-in.o
                0x4a029d88                disp_vga_disable
 .text.disp_vga_get_fps
                0x4a029ee8       0x38 drivers/built-in.o
 .text.disp_vga_get_input_csc
                0x4a029f20       0x50 drivers/built-in.o
 .text.disp_vga_check_support_mode
                0x4a029f70       0x5c drivers/built-in.o
 .text.disp_vga_check_config_dirty
                0x4a029fcc       0x58 drivers/built-in.o
 .text.disp_vga_get_static_config
                0x4a02a024       0x74 drivers/built-in.o
 .text.disp_vga_get_mode
                0x4a02a098       0x68 drivers/built-in.o
 .text.disp_vga_set_mode
                0x4a02a100       0x68 drivers/built-in.o
 .text.disp_vga_set_static_config
                0x4a02a168        0x8 drivers/built-in.o
 .text.disp_vga_is_enabled
                0x4a02a170       0x38 drivers/built-in.o
 .text.disp_vga_set_func
                0x4a02a1a8       0x9c drivers/built-in.o
 .text.disp_vga_resume
                0x4a02a244       0x78 drivers/built-in.o
 .text.disp_vga_suspend
                0x4a02a2bc       0x78 drivers/built-in.o
 .text.vga_clk_enable
                0x4a02a334       0x3c drivers/built-in.o
 .text.disp_vga_sw_enable
                0x4a02a370      0x150 drivers/built-in.o
 .text.disp_vga_enable
                0x4a02a4c0      0x1d4 drivers/built-in.o
 .text.disp_vga_event_proc
                0x4a02a694       0x74 drivers/built-in.o
 .text.disp_vga_init
                0x4a02a708       0x70 drivers/built-in.o
 .text.disp_vga_exit
                0x4a02a778       0x84 drivers/built-in.o
 .text.disp_init_vga
                0x4a02a7fc      0x334 drivers/built-in.o
                0x4a02a7fc                disp_init_vga
 .text.lcd_init
                0x4a02ab30       0x34 drivers/built-in.o
                0x4a02ab30                lcd_init
 .text.sunxi_lcd_delay_ms
                0x4a02ab64       0x28 drivers/built-in.o
                0x4a02ab64                sunxi_lcd_delay_ms
 .text.sunxi_lcd_delay_us
                0x4a02ab8c       0x28 drivers/built-in.o
                0x4a02ab8c                sunxi_lcd_delay_us
 .text.sunxi_lcd_tcon_enable
                0x4a02abb4       0x20 drivers/built-in.o
                0x4a02abb4                sunxi_lcd_tcon_enable
 .text.sunxi_lcd_tcon_disable
                0x4a02abd4       0x20 drivers/built-in.o
                0x4a02abd4                sunxi_lcd_tcon_disable
 .text.sunxi_lcd_backlight_enable
                0x4a02abf4       0x20 drivers/built-in.o
                0x4a02abf4                sunxi_lcd_backlight_enable
 .text.sunxi_lcd_backlight_disable
                0x4a02ac14       0x20 drivers/built-in.o
                0x4a02ac14                sunxi_lcd_backlight_disable
 .text.sunxi_lcd_power_enable
                0x4a02ac34       0x20 drivers/built-in.o
                0x4a02ac34                sunxi_lcd_power_enable
 .text.sunxi_lcd_power_disable
                0x4a02ac54       0x20 drivers/built-in.o
                0x4a02ac54                sunxi_lcd_power_disable
 .text.sunxi_lcd_pwm_enable
                0x4a02ac74       0x28 drivers/built-in.o
                0x4a02ac74                sunxi_lcd_pwm_enable
 .text.sunxi_lcd_pwm_disable
                0x4a02ac9c       0x28 drivers/built-in.o
                0x4a02ac9c                sunxi_lcd_pwm_disable
 .text.sunxi_lcd_cpu_set_auto_mode
                0x4a02acc4       0x28 drivers/built-in.o
                0x4a02acc4                sunxi_lcd_cpu_set_auto_mode
 .text.sunxi_lcd_cpu_write_index
                0x4a02acec       0x28 drivers/built-in.o
                0x4a02acec                sunxi_lcd_cpu_write_index
 .text.sunxi_lcd_cpu_write_data
                0x4a02ad14       0x28 drivers/built-in.o
                0x4a02ad14                sunxi_lcd_cpu_write_data
 .text.sunxi_lcd_dsi_dcs_write
                0x4a02ad3c       0x28 drivers/built-in.o
                0x4a02ad3c                sunxi_lcd_dsi_dcs_write
 .text.sunxi_lcd_dsi_dcs_write_0para
                0x4a02ad64       0x18 drivers/built-in.o
                0x4a02ad64                sunxi_lcd_dsi_dcs_write_0para
 .text.sunxi_lcd_dsi_dcs_write_1para
                0x4a02ad7c       0x20 drivers/built-in.o
                0x4a02ad7c                sunxi_lcd_dsi_dcs_write_1para
 .text.sunxi_lcd_dsi_dcs_write_2para
                0x4a02ad9c       0x20 drivers/built-in.o
                0x4a02ad9c                sunxi_lcd_dsi_dcs_write_2para
 .text.sunxi_lcd_dsi_dcs_write_3para
                0x4a02adbc       0x28 drivers/built-in.o
                0x4a02adbc                sunxi_lcd_dsi_dcs_write_3para
 .text.sunxi_lcd_dsi_dcs_write_4para
                0x4a02ade4       0x30 drivers/built-in.o
                0x4a02ade4                sunxi_lcd_dsi_dcs_write_4para
 .text.sunxi_lcd_dsi_dcs_write_5para
                0x4a02ae14       0x38 drivers/built-in.o
                0x4a02ae14                sunxi_lcd_dsi_dcs_write_5para
 .text.sunxi_lcd_dsi_dcs_write_6para
                0x4a02ae4c       0x40 drivers/built-in.o
                0x4a02ae4c                sunxi_lcd_dsi_dcs_write_6para
 .text.sunxi_lcd_dsi_gen_write
                0x4a02ae8c       0x28 drivers/built-in.o
                0x4a02ae8c                sunxi_lcd_dsi_gen_write
 .text.sunxi_lcd_dsi_gen_write_1para
                0x4a02aeb4       0x20 drivers/built-in.o
                0x4a02aeb4                sunxi_lcd_dsi_gen_write_1para
 .text.sunxi_lcd_dsi_gen_write_2para
                0x4a02aed4       0x20 drivers/built-in.o
                0x4a02aed4                sunxi_lcd_dsi_gen_write_2para
 .text.sunxi_lcd_dsi_gen_write_5para
                0x4a02aef4       0x38 drivers/built-in.o
                0x4a02aef4                sunxi_lcd_dsi_gen_write_5para
 .text.sunxi_lcd_dsi_clk_enable
                0x4a02af2c       0x2c drivers/built-in.o
                0x4a02af2c                sunxi_lcd_dsi_clk_enable
 .text.sunxi_lcd_dsi_clk_disable
                0x4a02af58       0x2c drivers/built-in.o
                0x4a02af58                sunxi_lcd_dsi_clk_disable
 .text.sunxi_lcd_set_panel_funs
                0x4a02af84       0x28 drivers/built-in.o
                0x4a02af84                sunxi_lcd_set_panel_funs
 .text.sunxi_lcd_pin_cfg
                0x4a02afac       0x28 drivers/built-in.o
                0x4a02afac                sunxi_lcd_pin_cfg
 .text.sunxi_lcd_gpio_set_value
                0x4a02afd4       0x28 drivers/built-in.o
                0x4a02afd4                sunxi_lcd_gpio_set_value
 .text.LCD_panel_init
                0x4a02affc     0x2d6c drivers/built-in.o
 .text.LCD_panel_exit
                0x4a02dd68      0x16c drivers/built-in.o
 .text.LCD_user_defined_func
                0x4a02ded4       0x50 drivers/built-in.o
 .text.LCD_close_flow
                0x4a02df24      0x398 drivers/built-in.o
 .text.LCD_power_off
                0x4a02e2bc      0x2dc drivers/built-in.o
 .text.LCD_bl_close
                0x4a02e598       0xec drivers/built-in.o
 .text.LCD_open_flow
                0x4a02e684      0x398 drivers/built-in.o
 .text.LCD_bl_open
                0x4a02ea1c      0x100 drivers/built-in.o
 .text.LCD_power_on
                0x4a02eb1c      0x3c4 drivers/built-in.o
 .text.LCD_cfg_panel_info
                0x4a02eee0      0x7d0 drivers/built-in.o
 .text.lcd_user_defined_func
                0x4a02f6b0       0x18 drivers/built-in.o
 .text.lcd_close_flow
                0x4a02f6c8      0x114 drivers/built-in.o
 .text.lcd_power_off
                0x4a02f7dc       0xdc drivers/built-in.o
 .text.lcd_panel_exit
                0x4a02f8b8       0x64 drivers/built-in.o
 .text.lcd_bl_close
                0x4a02f91c       0x48 drivers/built-in.o
 .text.lcd_open_flow
                0x4a02f964      0x114 drivers/built-in.o
 .text.lcd_bl_open
                0x4a02fa78       0x48 drivers/built-in.o
 .text.lcd_panel_init
                0x4a02fac0      0xf1c drivers/built-in.o
 .text.lcd_power_on
                0x4a0309dc      0x14c drivers/built-in.o
 .text.lcd_cfg_panel_info
                0x4a030b28      0x258 drivers/built-in.o
 .text.LCD_set_bright
                0x4a030d80       0x18 drivers/built-in.o
 .text.t27p06_spi_wr
                0x4a030d98       0xe0 drivers/built-in.o
 .text.lcd_dbi_wr_dcs
                0x4a030e78       0x3c drivers/built-in.o
                0x4a030e78                lcd_dbi_wr_dcs
 .text.lcd_cpu_panel_fr
                0x4a030eb4       0x9c drivers/built-in.o
                0x4a030eb4                lcd_cpu_panel_fr
 .text.de_gsu_init
                0x4a030f50      0x178 drivers/built-in.o
                0x4a030f50                de_gsu_init
 .text.de_gsu_update_regs
                0x4a0310c8      0x104 drivers/built-in.o
                0x4a0310c8                de_gsu_update_regs
 .text.de_gsu_set_para
                0x4a0311cc      0x184 drivers/built-in.o
                0x4a0311cc                de_gsu_set_para
 .text.de_gsu_calc_scaler_para
                0x4a031350      0x1a0 drivers/built-in.o
                0x4a031350                de_gsu_calc_scaler_para
 .text.de_calc_ovl_coord
                0x4a0314f0       0x24 drivers/built-in.o
                0x4a0314f0                de_calc_ovl_coord
 .text.de_gsu_sel_ovl_scaler_para
                0x4a031514      0x12c drivers/built-in.o
                0x4a031514                de_gsu_sel_ovl_scaler_para
 .text.de_update_device_fps
                0x4a031640       0x14 drivers/built-in.o
                0x4a031640                de_update_device_fps
 .text.de_update_clk_rate
                0x4a031654       0x24 drivers/built-in.o
                0x4a031654                de_update_clk_rate
 .text.de_get_clk_rate
                0x4a031678       0x1c drivers/built-in.o
                0x4a031678                de_get_clk_rate
 .text.de_al_lyr_apply_direct_show
                0x4a031694      0x11c drivers/built-in.o
                0x4a031694                de_al_lyr_apply_direct_show
 .text.de_al_lyr_apply
                0x4a0317b0     0x12f0 drivers/built-in.o
                0x4a0317b0                de_al_lyr_apply
 .text.de_al_mgr_apply_color
                0x4a032aa0       0x74 drivers/built-in.o
                0x4a032aa0                de_al_mgr_apply_color
 .text.de_al_mgr_apply
                0x4a032b14       0xf4 drivers/built-in.o
                0x4a032b14                de_al_mgr_apply
 .text.de_al_mgr_sync
                0x4a032c08        0x4 drivers/built-in.o
                0x4a032c08                de_al_mgr_sync
 .text.de_al_mgr_update_regs
                0x4a032c0c       0x34 drivers/built-in.o
                0x4a032c0c                de_al_mgr_update_regs
 .text.de_al_init
                0x4a032c40       0x50 drivers/built-in.o
                0x4a032c40                de_al_init
 .text.disp_al_layer_apply
                0x4a032c90      0x234 drivers/built-in.o
                0x4a032c90                disp_al_layer_apply
 .text.disp_al_manager_init
                0x4a032ec4        0x8 drivers/built-in.o
                0x4a032ec4                disp_al_manager_init
 .text.disp_al_manager_exit
                0x4a032ecc        0x8 drivers/built-in.o
                0x4a032ecc                disp_al_manager_exit
 .text.disp_al_manager_apply
                0x4a032ed4       0xd4 drivers/built-in.o
                0x4a032ed4                disp_al_manager_apply
 .text.disp_al_manager_sync
                0x4a032fa8        0x4 drivers/built-in.o
                0x4a032fa8                disp_al_manager_sync
 .text.disp_al_manager_update_regs
                0x4a032fac        0x4 drivers/built-in.o
                0x4a032fac                disp_al_manager_update_regs
 .text.disp_al_enhance_apply
                0x4a032fb0       0x4c drivers/built-in.o
                0x4a032fb0                disp_al_enhance_apply
 .text.disp_al_enhance_update_regs
                0x4a032ffc        0x4 drivers/built-in.o
                0x4a032ffc                disp_al_enhance_update_regs
 .text.disp_al_enhance_sync
                0x4a033000        0x4 drivers/built-in.o
                0x4a033000                disp_al_enhance_sync
 .text.disp_al_enhance_tasklet
                0x4a033004        0x4 drivers/built-in.o
                0x4a033004                disp_al_enhance_tasklet
 .text.disp_al_smbl_apply
                0x4a033008        0x4 drivers/built-in.o
                0x4a033008                disp_al_smbl_apply
 .text.disp_al_smbl_update_regs
                0x4a03300c        0x4 drivers/built-in.o
                0x4a03300c                disp_al_smbl_update_regs
 .text.disp_al_smbl_tasklet
                0x4a033010        0x4 drivers/built-in.o
                0x4a033010                disp_al_smbl_tasklet
 .text.disp_al_smbl_get_status
                0x4a033014        0x4 drivers/built-in.o
                0x4a033014                disp_al_smbl_get_status
 .text.disp_al_lcd_get_clk_info
                0x4a033018      0x114 drivers/built-in.o
                0x4a033018                disp_al_lcd_get_clk_info
 .text.disp_al_lcd_cfg
                0x4a03312c      0x150 drivers/built-in.o
                0x4a03312c                disp_al_lcd_cfg
 .text.disp_al_lcd_cfg_ext
                0x4a03327c       0x10 drivers/built-in.o
                0x4a03327c                disp_al_lcd_cfg_ext
 .text.disp_al_lcd_enable
                0x4a03328c       0x64 drivers/built-in.o
                0x4a03328c                disp_al_lcd_enable
 .text.disp_al_lcd_disable
                0x4a0332f0       0x6c drivers/built-in.o
                0x4a0332f0                disp_al_lcd_disable
 .text.disp_al_lcd_query_irq
                0x4a03335c       0x54 drivers/built-in.o
                0x4a03335c                disp_al_lcd_query_irq
 .text.disp_al_lcd_enable_irq
                0x4a0333b0       0x38 drivers/built-in.o
                0x4a0333b0                disp_al_lcd_enable_irq
 .text.disp_al_lcd_disable_irq
                0x4a0333e8       0x38 drivers/built-in.o
                0x4a0333e8                disp_al_lcd_disable_irq
 .text.disp_al_lcd_tri_busy
                0x4a033420       0x38 drivers/built-in.o
                0x4a033420                disp_al_lcd_tri_busy
 .text.disp_al_lcd_tri_start
                0x4a033458       0x24 drivers/built-in.o
                0x4a033458                disp_al_lcd_tri_start
 .text.disp_al_lcd_io_cfg
                0x4a03347c       0x6c drivers/built-in.o
                0x4a03347c                disp_al_lcd_io_cfg
 .text.disp_al_lcd_get_cur_line
                0x4a0334e8       0x24 drivers/built-in.o
                0x4a0334e8                disp_al_lcd_get_cur_line
 .text.disp_al_lcd_get_start_delay
                0x4a03350c       0x90 drivers/built-in.o
                0x4a03350c                disp_al_lcd_get_start_delay
 .text.disp_al_hdmi_enable
                0x4a03359c       0x20 drivers/built-in.o
                0x4a03359c                disp_al_hdmi_enable
 .text.disp_al_hdmi_disable
                0x4a0335bc       0x38 drivers/built-in.o
                0x4a0335bc                disp_al_hdmi_disable
 .text.disp_al_hdmi_cfg
                0x4a0335f4       0xd4 drivers/built-in.o
                0x4a0335f4                disp_al_hdmi_cfg
 .text.disp_al_tv_enable
                0x4a0336c8       0x20 drivers/built-in.o
                0x4a0336c8                disp_al_tv_enable
 .text.disp_al_tv_disable
                0x4a0336e8       0x38 drivers/built-in.o
                0x4a0336e8                disp_al_tv_disable
 .text.disp_al_tv_cfg
                0x4a033720       0x98 drivers/built-in.o
                0x4a033720                disp_al_tv_cfg
 .text.disp_al_vga_enable
                0x4a0337b8       0x28 drivers/built-in.o
                0x4a0337b8                disp_al_vga_enable
 .text.disp_al_vga_disable
                0x4a0337e0       0x38 drivers/built-in.o
                0x4a0337e0                disp_al_vga_disable
 .text.disp_al_vga_cfg
                0x4a033818       0x8c drivers/built-in.o
                0x4a033818                disp_al_vga_cfg
 .text.disp_al_device_get_cur_line
                0x4a0338a4       0x14 drivers/built-in.o
                0x4a0338a4                disp_al_device_get_cur_line
 .text.disp_al_device_get_start_delay
                0x4a0338b8       0x1c drivers/built-in.o
                0x4a0338b8                disp_al_device_get_start_delay
 .text.disp_al_device_query_irq
                0x4a0338d4       0x20 drivers/built-in.o
                0x4a0338d4                disp_al_device_query_irq
 .text.disp_al_device_get_status
                0x4a0338f4       0x14 drivers/built-in.o
                0x4a0338f4                disp_al_device_get_status
 .text.disp_init_al
                0x4a033908      0x174 drivers/built-in.o
                0x4a033908                disp_init_al
 .text.de_rtmx_update_regs
                0x4a033a7c      0x308 drivers/built-in.o
                0x4a033a7c                de_rtmx_update_regs
 .text.de_rtmx_set_overlay_reg_base
                0x4a033d84       0x48 drivers/built-in.o
                0x4a033d84                de_rtmx_set_overlay_reg_base
 .text.de_rtmx_init
                0x4a033dcc      0x3f8 drivers/built-in.o
                0x4a033dcc                de_rtmx_init
 .text.de_rtmx_set_display_size
                0x4a0341c4       0x68 drivers/built-in.o
                0x4a0341c4                de_rtmx_set_display_size
 .text.de_rtmx_set_dbuff_rdy
                0x4a03422c       0x34 drivers/built-in.o
                0x4a03422c                de_rtmx_set_dbuff_rdy
 .text.de_rtmx_set_enable
                0x4a034260      0x19c drivers/built-in.o
                0x4a034260                de_rtmx_set_enable
 .text.de_rtmx_set_lay_cfg
                0x4a0343fc      0x2f8 drivers/built-in.o
                0x4a0343fc                de_rtmx_set_lay_cfg
 .text.de_rtmx_set_lay_haddr
                0x4a0346f4      0x150 drivers/built-in.o
                0x4a0346f4                de_rtmx_set_lay_haddr
 .text.de_rtmx_get_3d_in_single_size
                0x4a034844       0x7c drivers/built-in.o
                0x4a034844                de_rtmx_get_3d_in_single_size
 .text.de_rtmx_get_3d_in
                0x4a0348c0      0x86c drivers/built-in.o
                0x4a0348c0                de_rtmx_get_3d_in
 .text.de_rtmx_get_li_addr_offset
                0x4a03512c       0x28 drivers/built-in.o
                0x4a03512c                de_rtmx_get_li_addr_offset
 .text.de_rtmx_set_lay_laddr
                0x4a035154      0x320 drivers/built-in.o
                0x4a035154                de_rtmx_set_lay_laddr
 .text.de_rtmx_get_3d_out
                0x4a035474       0x88 drivers/built-in.o
                0x4a035474                de_rtmx_get_3d_out
 .text.de_rtmx_set_lay_fcolor
                0x4a0354fc      0x108 drivers/built-in.o
                0x4a0354fc                de_rtmx_set_lay_fcolor
 .text.de_rtmx_set_overlay_size
                0x4a035604       0xf8 drivers/built-in.o
                0x4a035604                de_rtmx_set_overlay_size
 .text.de_rtmx_set_coarse_fac
                0x4a0356fc      0x3ac drivers/built-in.o
                0x4a0356fc                de_rtmx_set_coarse_fac
 .text.de_rtmx_set_pf_en
                0x4a035aa8       0x78 drivers/built-in.o
                0x4a035aa8                de_rtmx_set_pf_en
 .text.de_rtmx_set_pipe_cfg
                0x4a035b20       0xb0 drivers/built-in.o
                0x4a035b20                de_rtmx_set_pipe_cfg
 .text.de_rtmx_set_route
                0x4a035bd0       0x4c drivers/built-in.o
                0x4a035bd0                de_rtmx_set_route
 .text.de_rtmx_set_premul
                0x4a035c1c       0x44 drivers/built-in.o
                0x4a035c1c                de_rtmx_set_premul
 .text.de_rtmx_set_background_color
                0x4a035c60       0x38 drivers/built-in.o
                0x4a035c60                de_rtmx_set_background_color
 .text.de_rtmx_set_blend_size
                0x4a035c98       0x68 drivers/built-in.o
                0x4a035c98                de_rtmx_set_blend_size
 .text.de_rtmx_set_blend_mode
                0x4a035d00       0xf8 drivers/built-in.o
                0x4a035d00                de_rtmx_set_blend_mode
 .text.de_rtmx_set_blend_color
                0x4a035df8       0x3c drivers/built-in.o
                0x4a035df8                de_rtmx_set_blend_color
 .text.de_rtmx_set_outitl
                0x4a035e34       0x40 drivers/built-in.o
                0x4a035e34                de_rtmx_set_outitl
 .text.de_rtmx_extend_rect
                0x4a035e74       0xb4 drivers/built-in.o
                0x4a035e74                de_rtmx_extend_rect
 .text.de_rtmx_calc_chnrect
                0x4a035f28      0x1f0 drivers/built-in.o
                0x4a035f28                de_rtmx_calc_chnrect
 .text.de_rtmx_get_premul_ctl
                0x4a036118       0x68 drivers/built-in.o
                0x4a036118                de_rtmx_get_premul_ctl
 .text.de_rtmx_sync_hw
                0x4a036180      0x1d0 drivers/built-in.o
                0x4a036180                de_rtmx_sync_hw
 .text.de_rtmx_get_display_size
                0x4a036350       0x44 drivers/built-in.o
                0x4a036350                de_rtmx_get_display_size
 .text.de_vsu_calc_fir_coef
                0x4a036394       0x50 drivers/built-in.o
 .text.de_vsu_update_regs
                0x4a0363e4      0x220 drivers/built-in.o
                0x4a0363e4                de_vsu_update_regs
 .text.de_vsu_init
                0x4a036604      0x2ac drivers/built-in.o
                0x4a036604                de_vsu_init
 .text.de_vsu_set_para
                0x4a0368b0      0x31c drivers/built-in.o
                0x4a0368b0                de_vsu_set_para
 .text.de_vsu_calc_scaler_para
                0x4a036bcc      0x3a4 drivers/built-in.o
                0x4a036bcc                de_vsu_calc_scaler_para
 .text.de_vsu_sel_ovl_scaler_para
                0x4a036f70      0x1c0 drivers/built-in.o
                0x4a036f70                de_vsu_sel_ovl_scaler_para
 .text.de_vsu_recalc_scale_para
                0x4a037130       0x90 drivers/built-in.o
                0x4a037130                de_vsu_recalc_scale_para
 .text.de_recalc_ovl_bld_for_scale
                0x4a0371c0      0x20c drivers/built-in.o
                0x4a0371c0                de_recalc_ovl_bld_for_scale
 .text.de_feat_get_num_screens
                0x4a0373cc       0x14 drivers/built-in.o
                0x4a0373cc                de_feat_get_num_screens
 .text.de_feat_get_num_devices
                0x4a0373e0       0x14 drivers/built-in.o
                0x4a0373e0                de_feat_get_num_devices
 .text.de_feat_get_num_chns
                0x4a0373f4       0x18 drivers/built-in.o
                0x4a0373f4                de_feat_get_num_chns
 .text.de_feat_get_num_vi_chns
                0x4a03740c       0x18 drivers/built-in.o
                0x4a03740c                de_feat_get_num_vi_chns
 .text.de_feat_get_num_ui_chns
                0x4a037424       0x24 drivers/built-in.o
                0x4a037424                de_feat_get_num_ui_chns
 .text.de_feat_get_num_layers
                0x4a037448       0x80 drivers/built-in.o
                0x4a037448                de_feat_get_num_layers
 .text.de_feat_get_num_layers_by_chn
                0x4a0374c8       0x70 drivers/built-in.o
                0x4a0374c8                de_feat_get_num_layers_by_chn
 .text.de_feat_is_support_vep_by_chn
                0x4a037538       0x70 drivers/built-in.o
                0x4a037538                de_feat_is_support_vep_by_chn
 .text.de_feat_is_support_smbl
                0x4a0375a8       0x18 drivers/built-in.o
                0x4a0375a8                de_feat_is_support_smbl
 .text.de_feat_is_supported_output_types
                0x4a0375c0       0x1c drivers/built-in.o
                0x4a0375c0                de_feat_is_supported_output_types
 .text.de_feat_is_support_scale
                0x4a0375dc       0x80 drivers/built-in.o
                0x4a0375dc                de_feat_is_support_scale
 .text.de_feat_get_scale_linebuf_for_yuv
                0x4a03765c       0x70 drivers/built-in.o
                0x4a03765c                de_feat_get_scale_linebuf_for_yuv
 .text.de_feat_get_tcon_type
                0x4a0376cc       0x24 drivers/built-in.o
                0x4a0376cc                de_feat_get_tcon_type
 .text.de_feat_get_tcon_index
                0x4a0376f0       0x40 drivers/built-in.o
                0x4a0376f0                de_feat_get_tcon_index
 .text.de_feat_init
                0x4a037730       0x1c drivers/built-in.o
                0x4a037730                de_feat_init
 .text.tcon0_cfg_mode_auto
                0x4a03774c      0x22c drivers/built-in.o
 .text.tcon0_cfg_mode_tri
                0x4a037978      0x2a8 drivers/built-in.o
 .text.tcon0_out_to_gpio
                0x4a037c20       0x54 drivers/built-in.o
                0x4a037c20                tcon0_out_to_gpio
 .text.tcon1_out_to_gpio
                0x4a037c74       0x54 drivers/built-in.o
                0x4a037c74                tcon1_out_to_gpio
 .text.tcon1_tv_clk_enable
                0x4a037cc8       0x98 drivers/built-in.o
                0x4a037cc8                tcon1_tv_clk_enable
 .text.tcon1_hdmi_clk_enable
                0x4a037d60      0x10c drivers/built-in.o
                0x4a037d60                tcon1_hdmi_clk_enable
 .text.tcon_de_attach
                0x4a037e6c       0xd8 drivers/built-in.o
                0x4a037e6c                tcon_de_attach
 .text.tcon_get_attach_by_de_index
                0x4a037f44       0x3c drivers/built-in.o
                0x4a037f44                tcon_get_attach_by_de_index
 .text.tcon_top_set_reg_base
                0x4a037f80       0x14 drivers/built-in.o
                0x4a037f80                tcon_top_set_reg_base
 .text.lvds_open
                0x4a037f94      0x19c drivers/built-in.o
                0x4a037f94                lvds_open
 .text.lvds_close
                0x4a038130       0xa0 drivers/built-in.o
                0x4a038130                lvds_close
 .text.tcon_set_reg_base
                0x4a0381d0       0x14 drivers/built-in.o
                0x4a0381d0                tcon_set_reg_base
 .text.tcon_init
                0x4a0381e4       0x58 drivers/built-in.o
                0x4a0381e4                tcon_init
 .text.tcon_exit
                0x4a03823c       0x38 drivers/built-in.o
                0x4a03823c                tcon_exit
 .text.tcon_irq_enable
                0x4a038274       0x28 drivers/built-in.o
                0x4a038274                tcon_irq_enable
 .text.tcon_irq_disable
                0x4a03829c       0x24 drivers/built-in.o
                0x4a03829c                tcon_irq_disable
 .text.tcon_irq_query
                0x4a0382c0       0x34 drivers/built-in.o
                0x4a0382c0                tcon_irq_query
 .text.tcon_get_start_delay
                0x4a0382f4       0x3c drivers/built-in.o
                0x4a0382f4                tcon_get_start_delay
 .text.tcon0_get_cpu_tri2_start_delay
                0x4a038330       0x18 drivers/built-in.o
                0x4a038330                tcon0_get_cpu_tri2_start_delay
 .text.tcon_get_cur_line
                0x4a038348       0x40 drivers/built-in.o
                0x4a038348                tcon_get_cur_line
 .text.tcon_get_status
                0x4a038388       0x64 drivers/built-in.o
                0x4a038388                tcon_get_status
 .text.tcon0_src_select
                0x4a0383ec       0x38 drivers/built-in.o
                0x4a0383ec                tcon0_src_select
 .text.tcon0_open
                0x4a038424       0xe0 drivers/built-in.o
                0x4a038424                tcon0_open
 .text.tcon0_close
                0x4a038504       0x9c drivers/built-in.o
                0x4a038504                tcon0_close
 .text.tcon0_tri_busy
                0x4a0385a0       0x18 drivers/built-in.o
                0x4a0385a0                tcon0_tri_busy
 .text.tcon0_cpu_set_auto_mode
                0x4a0385b8       0x2c drivers/built-in.o
                0x4a0385b8                tcon0_cpu_set_auto_mode
 .text.tcon0_tri_start
                0x4a0385e4       0x20 drivers/built-in.o
                0x4a0385e4                tcon0_tri_start
 .text.tcon0_frm
                0x4a038604      0x118 drivers/built-in.o
                0x4a038604                tcon0_frm
 .text.tcon0_cpu_16b_to_24b
                0x4a03871c       0x28 drivers/built-in.o
                0x4a03871c                tcon0_cpu_16b_to_24b
 .text.tcon0_cpu_busy
                0x4a038744       0x24 drivers/built-in.o
                0x4a038744                tcon0_cpu_busy
 .text.tcon0_cpu_wr_24b_index
                0x4a038768       0x78 drivers/built-in.o
                0x4a038768                tcon0_cpu_wr_24b_index
 .text.tcon0_cpu_wr_24b_data
                0x4a0387e0       0x78 drivers/built-in.o
                0x4a0387e0                tcon0_cpu_wr_24b_data
 .text.tcon0_cpu_wr_24b
                0x4a038858       0x24 drivers/built-in.o
                0x4a038858                tcon0_cpu_wr_24b
 .text.tcon0_cpu_wr_16b
                0x4a03887c       0x38 drivers/built-in.o
                0x4a03887c                tcon0_cpu_wr_16b
 .text.tcon0_cpu_wr_16b_index
                0x4a0388b4       0x24 drivers/built-in.o
                0x4a0388b4                tcon0_cpu_wr_16b_index
 .text.tcon0_cpu_wr_16b_data
                0x4a0388d8       0x24 drivers/built-in.o
                0x4a0388d8                tcon0_cpu_wr_16b_data
 .text.tcon0_set_dclk_div
                0x4a0388fc       0x20 drivers/built-in.o
                0x4a0388fc                tcon0_set_dclk_div
 .text.tcon1_open
                0x4a03891c       0x2c drivers/built-in.o
                0x4a03891c                tcon1_open
 .text.tcon1_close
                0x4a038948       0x2c drivers/built-in.o
                0x4a038948                tcon1_close
 .text.tcom1_cfg_correct
                0x4a038974       0x58 drivers/built-in.o
                0x4a038974                tcom1_cfg_correct
 .text.tcon1_cfg
                0x4a0389cc      0x1d4 drivers/built-in.o
                0x4a0389cc                tcon1_cfg
 .text.tcon1_hdmi_color_remap
                0x4a038ba0       0xe0 drivers/built-in.o
                0x4a038ba0                tcon1_hdmi_color_remap
 .text.tcon1_yuv_range
                0x4a038c80       0xe0 drivers/built-in.o
                0x4a038c80                tcon1_yuv_range
 .text.tcon1_set_timming
                0x4a038d60       0x7c drivers/built-in.o
                0x4a038d60                tcon1_set_timming
 .text.tcon1_src_select
                0x4a038ddc       0x4c drivers/built-in.o
                0x4a038ddc                tcon1_src_select
 .text.tcon_gamma
                0x4a038e28       0x5c drivers/built-in.o
                0x4a038e28                tcon_gamma
 .text.tcon_cmap
                0x4a038e84      0x150 drivers/built-in.o
                0x4a038e84                tcon_cmap
 .text.tcon0_cfg_ext
                0x4a038fd4       0x34 drivers/built-in.o
                0x4a038fd4                tcon0_cfg_ext
 .text.tcon_set_fsync_pol
                0x4a039008       0x80 drivers/built-in.o
                0x4a039008                tcon_set_fsync_pol
 .text.tcon_set_fsync_active_time
                0x4a039088       0x68 drivers/built-in.o
                0x4a039088                tcon_set_fsync_active_time
 .text.tcon0_cfg
                0x4a0390f0      0x4c0 drivers/built-in.o
                0x4a0390f0                tcon0_cfg
 .text.de_enhance_set_format
                0x4a0395b0        0x8 drivers/built-in.o
                0x4a0395b0                de_enhance_set_format
 .text.de_enhance_apply
                0x4a0395b8        0x8 drivers/built-in.o
                0x4a0395b8                de_enhance_apply
 .text.de_enhance_set_size
                0x4a0395c0        0x8 drivers/built-in.o
                0x4a0395c0                de_enhance_set_size
 .text.de_enhance_sync
                0x4a0395c8        0x8 drivers/built-in.o
                0x4a0395c8                de_enhance_sync
 .text.de_enhance_tasklet
                0x4a0395d0        0x8 drivers/built-in.o
                0x4a0395d0                de_enhance_tasklet
 .text.de_enhance_update_regs
                0x4a0395d8        0x8 drivers/built-in.o
                0x4a0395d8                de_enhance_update_regs
 .text.de_enhance_init
                0x4a0395e0        0x8 drivers/built-in.o
                0x4a0395e0                de_enhance_init
 .text.de_smbl_update_regs
                0x4a0395e8        0x8 drivers/built-in.o
                0x4a0395e8                de_smbl_update_regs
 .text.de_smbl_tasklet
                0x4a0395f0        0x8 drivers/built-in.o
                0x4a0395f0                de_smbl_tasklet
 .text.de_smbl_apply
                0x4a0395f8        0x8 drivers/built-in.o
                0x4a0395f8                de_smbl_apply
 .text.de_smbl_init
                0x4a039600        0x8 drivers/built-in.o
                0x4a039600                de_smbl_init
 .text.de_smbl_get_status
                0x4a039608        0x8 drivers/built-in.o
                0x4a039608                de_smbl_get_status
 .text.de_ccsc_update_regs
                0x4a039610       0xb0 drivers/built-in.o
                0x4a039610                de_ccsc_update_regs
 .text.de_ccsc_init
                0x4a0396c0      0x20c drivers/built-in.o
                0x4a0396c0                de_ccsc_init
 .text.de_csc_coeff_calc
                0x4a0398cc     0x1998 drivers/built-in.o
                0x4a0398cc                de_csc_coeff_calc
 .text.de_ccsc_apply
                0x4a03b264      0x18c drivers/built-in.o
                0x4a03b264                de_ccsc_apply
 .text.de_dcsc_apply
                0x4a03b3f0      0x21c drivers/built-in.o
                0x4a03b3f0                de_dcsc_apply
 .text.de_dcsc_get_config
                0x4a03b60c       0x28 drivers/built-in.o
                0x4a03b60c                de_dcsc_get_config
 .text.de_dcsc_update_regs
                0x4a03b634       0xb4 drivers/built-in.o
                0x4a03b634                de_dcsc_update_regs
 .text.de_dcsc_init
                0x4a03b6e8      0x17c drivers/built-in.o
                0x4a03b6e8                de_dcsc_init
 .text.wb_ebios_init
                0x4a03b864        0x8 drivers/built-in.o
                0x4a03b864                wb_ebios_init
 .text.de_clk_enable
                0x4a03b86c      0x1a8 drivers/built-in.o
                0x4a03b86c                de_clk_enable
 .text.de_clk_disable
                0x4a03ba14       0xf8 drivers/built-in.o
                0x4a03ba14                de_clk_disable
 .text.de_clk_set_reg_base
                0x4a03bb0c       0x14 drivers/built-in.o
                0x4a03bb0c                de_clk_set_reg_base
 .text.dsi_set_reg_base
                0x4a03bb20       0x24 drivers/built-in.o
                0x4a03bb20                dsi_set_reg_base
 .text.dsi_get_start_delay
                0x4a03bb44       0x6c drivers/built-in.o
                0x4a03bb44                dsi_get_start_delay
 .text.dsi_get_cur_line
                0x4a03bbb0       0x60 drivers/built-in.o
                0x4a03bbb0                dsi_get_cur_line
 .text.dsi_irq_enable
                0x4a03bc10       0x28 drivers/built-in.o
                0x4a03bc10                dsi_irq_enable
 .text.dsi_irq_disable
                0x4a03bc38       0x24 drivers/built-in.o
                0x4a03bc38                dsi_irq_disable
 .text.dsi_irq_query
                0x4a03bc5c       0x40 drivers/built-in.o
                0x4a03bc5c                dsi_irq_query
 .text.dsi_inst_busy
                0x4a03bc9c       0x18 drivers/built-in.o
                0x4a03bc9c                dsi_inst_busy
 .text.dsi_start
                0x4a03bcb4       0xdc drivers/built-in.o
                0x4a03bcb4                dsi_start
 .text.dsi_open
                0x4a03bd90       0x30 drivers/built-in.o
                0x4a03bd90                dsi_open
 .text.dsi_close
                0x4a03bdc0       0x38 drivers/built-in.o
                0x4a03bdc0                dsi_close
 .text.dsi_mode_switch
                0x4a03bdf8        0x8 drivers/built-in.o
                0x4a03bdf8                dsi_mode_switch
 .text.dsi_gen_short_rd
                0x4a03be00        0x8 drivers/built-in.o
                0x4a03be00                dsi_gen_short_rd
 .text.dsi_tri_start
                0x4a03be08       0x14 drivers/built-in.o
                0x4a03be08                dsi_tri_start
 .text.dsi_io_open
                0x4a03be1c      0x204 drivers/built-in.o
                0x4a03be1c                dsi_io_open
 .text.dsi_io_close
                0x4a03c020      0x1b4 drivers/built-in.o
                0x4a03c020                dsi_io_close
 .text.dsi_clk_enable
                0x4a03c1d4       0x1c drivers/built-in.o
                0x4a03c1d4                dsi_clk_enable
 .text.dsi_ecc_pro
                0x4a03c1f0      0x2a0 drivers/built-in.o
                0x4a03c1f0                dsi_ecc_pro
 .text.dsi_dcs_rd
                0x4a03c490      0x154 drivers/built-in.o
                0x4a03c490                dsi_dcs_rd
 .text.dsi_set_max_ret_size
                0x4a03c5e4       0x50 drivers/built-in.o
                0x4a03c5e4                dsi_set_max_ret_size
 .text.dsi_crc_pro
                0x4a03c634       0x6c drivers/built-in.o
                0x4a03c634                dsi_crc_pro
 .text.dsi_gen_wr
                0x4a03c6a0      0x110 drivers/built-in.o
                0x4a03c6a0                dsi_gen_wr
 .text.dsi_dcs_wr
                0x4a03c7b0      0x148 drivers/built-in.o
                0x4a03c7b0                dsi_dcs_wr
 .text.dsi_crc_pro_pd_repeat
                0x4a03c8f8       0x6c drivers/built-in.o
                0x4a03c8f8                dsi_crc_pro_pd_repeat
 .text.dsi_cfg  0x4a03c964      0xaa4 drivers/built-in.o
                0x4a03c964                dsi_cfg
 .text.hdmi_get_work_mode
                0x4a03d408       0x10 drivers/built-in.o
                0x4a03d408                hdmi_get_work_mode
 .text.hdmi_suspend
                0x4a03d418        0x8 drivers/built-in.o
 .text.hdmi_resume
                0x4a03d420        0x8 drivers/built-in.o
 .text.hdmi_clk_disable
                0x4a03d428       0x3c drivers/built-in.o
 .text.hdmi_get_video_timing_from_tv_mode
                0x4a03d464       0x84 drivers/built-in.o
 .text.hdmi_get_video_timming_info
                0x4a03d4e8       0x58 drivers/built-in.o
 .text.hdmi_get_input_csc
                0x4a03d540        0x4 drivers/built-in.o
 .text.hdmi_get_HPD_status
                0x4a03d544       0x10 drivers/built-in.o
 .text.hdmi_get_support_mode
                0x4a03d554      0x3e8 drivers/built-in.o
 .text.hdmi_mode_support
                0x4a03d93c       0x5c drivers/built-in.o
 .text.hdmi_disable
                0x4a03d998       0x44 drivers/built-in.o
 .text.hdmi_enable
                0x4a03d9dc      0x1a4 drivers/built-in.o
 .text.hdmi_set_display_mode
                0x4a03db80       0x68 drivers/built-in.o
 .text.hdmi_delay_ms
                0x4a03dbe8        0x4 drivers/built-in.o
                0x4a03dbe8                hdmi_delay_ms
 .text.hdmi_delay_us
                0x4a03dbec        0x4 drivers/built-in.o
                0x4a03dbec                hdmi_delay_us
 .text.hdmi_get_soc_version
                0x4a03dbf0        0x8 drivers/built-in.o
                0x4a03dbf0                hdmi_get_soc_version
 .text.hdmi_clk_get_div
                0x4a03dbf8       0x98 drivers/built-in.o
                0x4a03dbf8                hdmi_clk_get_div
 .text.hdmi_hpd_event
                0x4a03dc90        0x8 drivers/built-in.o
                0x4a03dc90                hdmi_hpd_event
 .text.hdmi_parse_dts_timing
                0x4a03dc98      0x318 drivers/built-in.o
                0x4a03dc98                hdmi_parse_dts_timing
 .text.hdmi_init
                0x4a03dfb0      0x628 drivers/built-in.o
                0x4a03dfb0                hdmi_init
 .text.hdmi_core_view_on
                0x4a03e5d8       0x30 drivers/built-in.o
 .text.hdmi_core_initial
                0x4a03e608      0x134 drivers/built-in.o
                0x4a03e608                hdmi_core_initial
 .text.hdmi_core_set_base_addr
                0x4a03e73c        0x4 drivers/built-in.o
                0x4a03e73c                hdmi_core_set_base_addr
 .text.hdmi_core_hpd_check
                0x4a03e740       0x1c drivers/built-in.o
                0x4a03e740                hdmi_core_hpd_check
 .text.hdmi_core_get_video_info
                0x4a03e75c       0x4c drivers/built-in.o
                0x4a03e75c                hdmi_core_get_video_info
 .text.hdmi_core_set_hdcp_enable
                0x4a03e7a8       0x14 drivers/built-in.o
                0x4a03e7a8                hdmi_core_set_hdcp_enable
 .text.hdmi_core_set_cts_enable
                0x4a03e7bc       0x14 drivers/built-in.o
                0x4a03e7bc                hdmi_core_set_cts_enable
 .text.hdmi_core_get_csc_type
                0x4a03e7d0       0x7c drivers/built-in.o
                0x4a03e7d0                hdmi_core_get_csc_type
 .text.hdmi_core_set_video_mode
                0x4a03e84c       0x40 drivers/built-in.o
                0x4a03e84c                hdmi_core_set_video_mode
 .text.hdmi_core_set_video_enable
                0x4a03e88c      0x1fc drivers/built-in.o
                0x4a03e88c                hdmi_core_set_video_enable
 .text.hdmi_core_loop
                0x4a03ea88      0x220 drivers/built-in.o
                0x4a03ea88                hdmi_core_loop
 .text.hdmi_core_get_list_num
                0x4a03eca8        0x8 drivers/built-in.o
                0x4a03eca8                hdmi_core_get_list_num
 .text.hdmi_core_mode_support
                0x4a03ecb0       0x20 drivers/built-in.o
                0x4a03ecb0                hdmi_core_mode_support
 .text.hdmi_core_cec_enable
                0x4a03ecd0       0x14 drivers/built-in.o
                0x4a03ecd0                hdmi_core_cec_enable
 .text.hdmi_core_update_detect_time
                0x4a03ece4       0x14 drivers/built-in.o
                0x4a03ece4                hdmi_core_update_detect_time
 .text.hdmi_core_get_supported_vic
                0x4a03ecf8       0x4c drivers/built-in.o
                0x4a03ecf8                hdmi_core_get_supported_vic
 .text.hdmi_edid_parse_vdb_and_check_vic_support
                0x4a03ed44       0xac drivers/built-in.o
 .text.hdmi_edid_get_dt_support
                0x4a03edf0       0x8c drivers/built-in.o
 .text.hdmi_edid_get_vdb_support_vic
                0x4a03ee7c       0xbc drivers/built-in.o
 .text.hdmi_edid_parse_vdb_and_get_tx_support_vic
                0x4a03ef38      0x124 drivers/built-in.o
 .text.hdmi_edid_parse
                0x4a03f05c       0x84 drivers/built-in.o
                0x4a03f05c                hdmi_edid_parse
 .text.hdmi_edid_check_init_vic_and_get_supported_vic
                0x4a03f0e0      0x2e8 drivers/built-in.o
                0x4a03f0e0                hdmi_edid_check_init_vic_and_get_supported_vic
 .text.hdmi_get_edid_dt_timing_info
                0x4a03f3c8      0x1b4 drivers/built-in.o
                0x4a03f3c8                hdmi_get_edid_dt_timing_info
 .text.hdmi_edid_is_hdmi
                0x4a03f57c        0x8 drivers/built-in.o
                0x4a03f57c                hdmi_edid_is_hdmi
 .text.hdmi_edid_is_yuv
                0x4a03f584       0x10 drivers/built-in.o
                0x4a03f584                hdmi_edid_is_yuv
 .text.hdmi_write
                0x4a03f594       0x18 drivers/built-in.o
 .text.hdmi_writel
                0x4a03f5ac       0x18 drivers/built-in.o
 .text.get_vid  0x4a03f5c4       0x3c drivers/built-in.o
 .text.hdmi_udelay
                0x4a03f600       0x48 drivers/built-in.o
 .text.bsp_hdmi_inner_init
                0x4a03f648      0x1bc drivers/built-in.o
 .text.hdmi_mdelay
                0x4a03f804       0x48 drivers/built-in.o
 .text.hdmi_phy_init.isra.2
                0x4a03f84c      0x264 drivers/built-in.o
 .text.bsp_hdmi_set_func
                0x4a03fab0       0x30 drivers/built-in.o
                0x4a03fab0                bsp_hdmi_set_func
 .text.bsp_hdmi_set_version
                0x4a03fae0       0x10 drivers/built-in.o
                0x4a03fae0                bsp_hdmi_set_version
 .text.bsp_hdmi_set_addr
                0x4a03faf0       0x20 drivers/built-in.o
                0x4a03faf0                bsp_hdmi_set_addr
 .text.bsp_hdmi_init
                0x4a03fb10       0x10 drivers/built-in.o
                0x4a03fb10                bsp_hdmi_init
 .text.bsp_hdmi_set_video_en
                0x4a03fb20       0x2c drivers/built-in.o
                0x4a03fb20                bsp_hdmi_set_video_en
 .text.bsp_hdmi_video_get_div
                0x4a03fb4c       0x44 drivers/built-in.o
                0x4a03fb4c                bsp_hdmi_video_get_div
 .text.bsp_hdmi_video
                0x4a03fb90      0xaa8 drivers/built-in.o
                0x4a03fb90                bsp_hdmi_video
 .text.bsp_hdmi_ddc_read
                0x4a040638      0x1ec drivers/built-in.o
                0x4a040638                bsp_hdmi_ddc_read
 .text.bsp_hdmi_get_hpd
                0x4a040824       0xa8 drivers/built-in.o
                0x4a040824                bsp_hdmi_get_hpd
 .text.bsp_hdmi_standby
                0x4a0408cc       0x28 drivers/built-in.o
                0x4a0408cc                bsp_hdmi_standby
 .text.bsp_hdmi_hrst
                0x4a0408f4       0x20 drivers/built-in.o
                0x4a0408f4                bsp_hdmi_hrst
 .text.bsp_hdmi_hdl
                0x4a040914        0x4 drivers/built-in.o
                0x4a040914                bsp_hdmi_hdl
 .text.bsp_hdmi_cec_send
                0x4a040918      0x138 drivers/built-in.o
                0x4a040918                bsp_hdmi_cec_send
 .text.bsp_hdmi_cec_free_time_set
                0x4a040a50       0xc0 drivers/built-in.o
                0x4a040a50                bsp_hdmi_cec_free_time_set
 .text.tv_get_input_csc
                0x4a040b10       0x28 drivers/built-in.o
                0x4a040b10                tv_get_input_csc
 .text.tv_hot_plugging_detect
                0x4a040b38       0x24 drivers/built-in.o
                0x4a040b38                tv_hot_plugging_detect
 .text.tve_top_clk_enable
                0x4a040b5c       0x3c drivers/built-in.o
 .text.tve_clk_enable
                0x4a040b98       0x4c drivers/built-in.o
 .text.__pin_config
                0x4a040be4       0x6c drivers/built-in.o
 .text.tve_clk_config
                0x4a040c50      0x1ac drivers/built-in.o
 .text.tv_get_hpd_status
                0x4a040dfc        0x4 drivers/built-in.o
                0x4a040dfc                tv_get_hpd_status
 .text.tv_set_enhance_mode
                0x4a040e00        0x4 drivers/built-in.o
                0x4a040e00                tv_set_enhance_mode
 .text.tv_set_mode
                0x4a040e04       0x58 drivers/built-in.o
                0x4a040e04                tv_set_mode
 .text.tv_get_mode
                0x4a040e5c       0x44 drivers/built-in.o
                0x4a040e5c                tv_get_mode
 .text.tv_disable
                0x4a040ea0       0x94 drivers/built-in.o
                0x4a040ea0                tv_disable
 .text.tv_resume
                0x4a040f34       0xac drivers/built-in.o
                0x4a040f34                tv_resume
 .text.tv_suspend
                0x4a040fe0       0x7c drivers/built-in.o
                0x4a040fe0                tv_suspend
 .text.tv_mode_support
                0x4a04105c       0x64 drivers/built-in.o
                0x4a04105c                tv_mode_support
 .text.tv_enable
                0x4a0410c0       0xbc drivers/built-in.o
                0x4a0410c0                tv_enable
 .text.tv_get_video_timing_info
                0x4a04117c       0x78 drivers/built-in.o
                0x4a04117c                tv_get_video_timing_info
 .text.tv_init  0x4a0411f4      0x4c4 drivers/built-in.o
                0x4a0411f4                tv_init
 .text.tve_low_set_reg_base
                0x4a0416b8       0x34 drivers/built-in.o
                0x4a0416b8                tve_low_set_reg_base
 .text.tve_low_set_top_reg_base
                0x4a0416ec       0x14 drivers/built-in.o
                0x4a0416ec                tve_low_set_top_reg_base
 .text.tve_low_init
                0x4a041700      0x138 drivers/built-in.o
                0x4a041700                tve_low_init
 .text.tve_low_dac_enable
                0x4a041838       0x48 drivers/built-in.o
                0x4a041838                tve_low_dac_enable
 .text.tve_low_open
                0x4a041880       0x20 drivers/built-in.o
                0x4a041880                tve_low_open
 .text.tve_low_close
                0x4a0418a0       0x20 drivers/built-in.o
                0x4a0418a0                tve_low_close
 .text.tve_low_set_tv_mode
                0x4a0418c0      0x830 drivers/built-in.o
                0x4a0418c0                tve_low_set_tv_mode
 .text.tve_low_get_dac_status
                0x4a0420f0       0x60 drivers/built-in.o
                0x4a0420f0                tve_low_get_dac_status
 .text.tve_low_dac_autocheck_enable
                0x4a042150       0x6c drivers/built-in.o
                0x4a042150                tve_low_dac_autocheck_enable
 .text.tve_low_dac_autocheck_disable
                0x4a0421bc       0x48 drivers/built-in.o
                0x4a0421bc                tve_low_dac_autocheck_disable
 .text.tve_low_get_sid
                0x4a042204       0x60 drivers/built-in.o
                0x4a042204                tve_low_get_sid
 .text.tve_low_enhance
                0x4a042264       0x94 drivers/built-in.o
                0x4a042264                tve_low_enhance
 .text.__spinor_read_id
                0x4a0422f8       0x40 drivers/built-in.o
 .text.__spinor_wren
                0x4a042338       0x3c drivers/built-in.o
 .text.__spinor_rdsr
                0x4a042374       0x40 drivers/built-in.o
 .text.wait_till_ready
                0x4a0423b4       0x2c drivers/built-in.o
 .text.spinor_enter_4bytes_addr
                0x4a0423e0       0x98 drivers/built-in.o
 .text.__spinor_sector_read
                0x4a042478      0x288 drivers/built-in.o
 .text.__spinor_erase_block
                0x4a042700       0xc8 drivers/built-in.o
 .text.__spinor_erase_all
                0x4a0427c8       0xbc drivers/built-in.o
 .text.__spinor_pp.constprop.1
                0x4a042884      0x10c drivers/built-in.o
 .text.__spinor_sector_write
                0x4a042990       0x64 drivers/built-in.o
 .text.__spinor_boot_sector_write
                0x4a0429f4       0xd8 drivers/built-in.o
 .text.__spinor_sprite_sector_write
                0x4a042acc       0xd8 drivers/built-in.o
 .text.spinor_read
                0x4a042ba4       0xbc drivers/built-in.o
                0x4a042ba4                spinor_read
 .text.spinor_flush_cache
                0x4a042c60       0x60 drivers/built-in.o
                0x4a042c60                spinor_flush_cache
 .text.spinor_write
                0x4a042cc0      0x330 drivers/built-in.o
                0x4a042cc0                spinor_write
 .text.spinor_exit
                0x4a042ff0       0xb8 drivers/built-in.o
                0x4a042ff0                spinor_exit
 .text.spinor_erase_all_blocks
                0x4a0430a8       0x18 drivers/built-in.o
                0x4a0430a8                spinor_erase_all_blocks
 .text.spinor_size
                0x4a0430c0       0x68 drivers/built-in.o
                0x4a0430c0                spinor_size
 .text.spinor_init
                0x4a043128      0x188 drivers/built-in.o
                0x4a043128                spinor_init
 .text.spinor_sprite_write
                0x4a0432b0       0x9c drivers/built-in.o
                0x4a0432b0                spinor_sprite_write
 .text.update_boot0_dram_para
                0x4a04334c       0xf8 drivers/built-in.o
                0x4a04334c                update_boot0_dram_para
 .text.spinor_boot_write
                0x4a043444       0x9c drivers/built-in.o
                0x4a043444                spinor_boot_write
 .text.spinor_download_uboot
                0x4a0434e0       0x84 drivers/built-in.o
                0x4a0434e0                spinor_download_uboot
 .text.spinor_download_boot0
                0x4a043564       0x9c drivers/built-in.o
                0x4a043564                spinor_download_boot0
 .text.spinor_read_uboot
                0x4a043600       0x38 drivers/built-in.o
                0x4a043600                spinor_read_uboot
 .text.try_spi_nor
                0x4a043638       0x68 drivers/built-in.o
                0x4a043638                try_spi_nor
 .text.sunxi_clk_fators_is_enabled
                0x4a0436a0       0x28 drivers/clk/built-in.o
 .text.sunxi_clk_factors_recalc_rate
                0x4a0436c8      0x160 drivers/clk/built-in.o
 .text.sunxi_clk_factors_round_rate
                0x4a043828       0x50 drivers/clk/built-in.o
 .text.sunxi_clk_is_lock
                0x4a043878      0x190 drivers/clk/built-in.o
 .text.sunxi_clk_disable_plllock
                0x4a043a08       0x8c drivers/clk/built-in.o
 .text.sunxi_clk_factors_set_rate
                0x4a043a94      0x22c drivers/clk/built-in.o
 .text.sunxi_clk_fators_enable
                0x4a043cc0       0xd4 drivers/clk/built-in.o
 .text.sunxi_clk_fators_disable
                0x4a043d94       0xa0 drivers/clk/built-in.o
 .text.sunxi_clk_get_factors_ops
                0x4a043e34       0x10 drivers/clk/built-in.o
                0x4a043e34                sunxi_clk_get_factors_ops
 .text.sunxi_clk_register_factors
                0x4a043e44      0x120 drivers/clk/built-in.o
                0x4a043e44                sunxi_clk_register_factors
 .text.sunxi_clk_com_ftr_sr
                0x4a043f64      0x1a0 drivers/clk/built-in.o
                0x4a043f64                sunxi_clk_com_ftr_sr
 .text.sunxi_clk_periph_get_parent
                0x4a044104       0x40 drivers/clk/built-in.o
 .text.sunxi_clk_periph_is_enabled
                0x4a044144       0x8c drivers/clk/built-in.o
 .text.sunxi_clk_periph_set_rate
                0x4a0441d0       0xf0 drivers/clk/built-in.o
 .text.sunxi_clk_periph_round_rate
                0x4a0442c0       0xa0 drivers/clk/built-in.o
 .text.sunxi_clk_periph_recalc_rate
                0x4a044360       0xa8 drivers/clk/built-in.o
 .text.sunxi_clk_periph_set_parent
                0x4a044408       0x4c drivers/clk/built-in.o
 .text.sunxi_clk_periph_enable
                0x4a044454      0x278 drivers/clk/built-in.o
 .text.sunxi_clk_periph_disable
                0x4a0446cc      0x244 drivers/clk/built-in.o
 .text.sunxi_clk_register_periph
                0x4a044910       0xc8 drivers/clk/built-in.o
                0x4a044910                sunxi_clk_register_periph
 .text.__clk_disable
                0x4a0449d8       0x4c drivers/clk/built-in.o
 .text.__clk_recalc_rates
                0x4a044a24       0x38 drivers/clk/built-in.o
 .text.__clk_enable
                0x4a044a5c       0x94 drivers/clk/built-in.o
 .text.__clk_lookup
                0x4a044af0       0x58 drivers/clk/built-in.o
                0x4a044af0                __clk_lookup
 .text.__clk_init
                0x4a044b48      0x2c0 drivers/clk/built-in.o
                0x4a044b48                __clk_init
 .text.clk_disable
                0x4a044e08       0x20 drivers/clk/built-in.o
                0x4a044e08                clk_disable
 .text.clk_prepare_enable
                0x4a044e28       0x14 drivers/clk/built-in.o
                0x4a044e28                clk_prepare_enable
 .text.clk_round_rate
                0x4a044e3c       0x48 drivers/clk/built-in.o
                0x4a044e3c                clk_round_rate
 .text.clk_get_parent
                0x4a044e84        0xc drivers/clk/built-in.o
                0x4a044e84                clk_get_parent
 .text.clk_set_parent
                0x4a044e90      0x1ac drivers/clk/built-in.o
                0x4a044e90                clk_set_parent
 .text.clk_get_rate
                0x4a04503c       0x1c drivers/clk/built-in.o
                0x4a04503c                clk_get_rate
 .text.clk_set_rate
                0x4a045058       0xe4 drivers/clk/built-in.o
                0x4a045058                clk_set_rate
 .text.clk_get  0x4a04513c        0x8 drivers/clk/built-in.o
                0x4a04513c                clk_get
 .text.clk_put  0x4a045144        0x4 drivers/clk/built-in.o
                0x4a045144                clk_put
 .text.clk_init
                0x4a045148        0x4 drivers/clk/built-in.o
                0x4a045148                clk_init
 .text.clk_register
                0x4a04514c       0x94 drivers/clk/built-in.o
                0x4a04514c                clk_register
 .text.of_pll_clk_config_setup
                0x4a0451e0      0x170 drivers/clk/built-in.o
                0x4a0451e0                of_pll_clk_config_setup
 .text.of_periph_clk_config_setup
                0x4a045350      0x214 drivers/clk/built-in.o
                0x4a045350                of_periph_clk_config_setup
 .text.of_clk_get
                0x4a045564      0x118 drivers/clk/built-in.o
                0x4a045564                of_clk_get
 .text.clk_fixed_rate_recalc_rate
                0x4a04567c        0x8 drivers/clk/built-in.o
 .text.clk_register_fixed_rate
                0x4a045684       0xc0 drivers/clk/built-in.o
                0x4a045684                clk_register_fixed_rate
 .text.get_factors_pll_audio
                0x4a045744       0x4c drivers/clk/built-in.o
 .text.calc_rate_pll_periph
                0x4a045790       0x2c drivers/clk/built-in.o
 .text.get_parent_pll_mipi
                0x4a0457bc       0x18 drivers/clk/built-in.o
                0x4a0457bc                get_parent_pll_mipi
 .text.set_parent_pll_mipi
                0x4a0457d4       0x28 drivers/clk/built-in.o
                0x4a0457d4                set_parent_pll_mipi
 .text.clk_disable_pll_mipi
                0x4a0457fc       0x48 drivers/clk/built-in.o
 .text.calc_rate_pll_ddr1
                0x4a045844       0x7c drivers/clk/built-in.o
 .text.calc_rate_pll_mipi
                0x4a0458c0       0x84 drivers/clk/built-in.o
 .text.get_factors_pll_mipi
                0x4a045944      0x10c drivers/clk/built-in.o
 .text.calc_rate_pll_sata
                0x4a045a50       0x8c drivers/clk/built-in.o
 .text.calc_rate_pll_ddr0
                0x4a045adc       0x84 drivers/clk/built-in.o
 .text.calc_rate_media
                0x4a045b60       0xac drivers/clk/built-in.o
 .text.calc_rate_pll_audio
                0x4a045c0c       0xdc drivers/clk/built-in.o
 .text.calc_rate_pll_cpu
                0x4a045ce8       0x8c drivers/clk/built-in.o
 .text.get_factors_pll_ddr1
                0x4a045d74       0x58 drivers/clk/built-in.o
 .text.get_factors_pll_de
                0x4a045dcc       0xac drivers/clk/built-in.o
 .text.get_factors_pll_gpu
                0x4a045e78       0xac drivers/clk/built-in.o
 .text.get_factors_pll_sata
                0x4a045f24       0x58 drivers/clk/built-in.o
 .text.get_factors_pll_video1
                0x4a045f7c       0xac drivers/clk/built-in.o
 .text.get_factors_pll_periph1
                0x4a046028       0x58 drivers/clk/built-in.o
 .text.get_factors_pll_periph0
                0x4a046080       0x58 drivers/clk/built-in.o
 .text.get_factors_pll_ddr0
                0x4a0460d8       0x58 drivers/clk/built-in.o
 .text.get_factors_pll_ve
                0x4a046130       0xac drivers/clk/built-in.o
 .text.get_factors_pll_video0
                0x4a0461dc       0xac drivers/clk/built-in.o
 .text.get_factors_pll_cpu
                0x4a046288       0x58 drivers/clk/built-in.o
 .text.clk_enable_pll_mipi
                0x4a0462e0       0x90 drivers/clk/built-in.o
 .text.sunxi_clk_factor_initlimits
                0x4a046370      0x10c drivers/clk/built-in.o
                0x4a046370                sunxi_clk_factor_initlimits
 .text.init_clocks
                0x4a04647c      0x110 drivers/clk/built-in.o
                0x4a04647c                init_clocks
 .text.sunxi_dma_int_func
                0x4a04658c       0xc8 drivers/dma/built-in.o
 .text.sunxi_dma_init
                0x4a046654       0xd8 drivers/dma/built-in.o
                0x4a046654                sunxi_dma_init
 .text.sunxi_dma_request
                0x4a04672c       0x48 drivers/dma/built-in.o
                0x4a04672c                sunxi_dma_request
 .text.sunxi_dma_setting
                0x4a046774       0x58 drivers/dma/built-in.o
                0x4a046774                sunxi_dma_setting
 .text.sunxi_dma_start
                0x4a0467cc       0x40 drivers/dma/built-in.o
                0x4a0467cc                sunxi_dma_start
 .text.sunxi_dma_querystatus
                0x4a04680c       0x28 drivers/dma/built-in.o
                0x4a04680c                sunxi_dma_querystatus
 .text.sunxi_dma_install_int
                0x4a046834       0x78 drivers/dma/built-in.o
                0x4a046834                sunxi_dma_install_int
 .text.sunxi_dma_enable_int
                0x4a0468ac       0xb8 drivers/dma/built-in.o
                0x4a0468ac                sunxi_dma_enable_int
 .text.sunxi_dma_disable_int
                0x4a046964       0xac drivers/dma/built-in.o
                0x4a046964                sunxi_dma_disable_int
 .text.sunxi_dma_free_int
                0x4a046a10       0x58 drivers/dma/built-in.o
                0x4a046a10                sunxi_dma_free_int
 .text.sunxi_dma_release
                0x4a046a68       0x3c drivers/dma/built-in.o
                0x4a046a68                sunxi_dma_release
 .text.sunxi_dma_exit
                0x4a046aa4       0xb0 drivers/dma/built-in.o
                0x4a046aa4                sunxi_dma_exit
 .text.gic_cpuif_init
                0x4a046b54       0x68 drivers/gic/built-in.o
 .text.gic_spi_set_target
                0x4a046bbc       0x40 drivers/gic/built-in.o
 .text.gic_distributor_init
                0x4a046bfc       0xf0 drivers/gic/built-in.o
 .text.default_isr
                0x4a046cec       0x18 drivers/gic/built-in.o
 .text.irq_enable
                0x4a046d04       0x8c drivers/gic/built-in.o
                0x4a046d04                irq_enable
 .text.irq_disable
                0x4a046d90       0x84 drivers/gic/built-in.o
                0x4a046d90                irq_disable
 .text.irq_install_handler
                0x4a046e14       0x5c drivers/gic/built-in.o
                0x4a046e14                irq_install_handler
 .text.irq_free_handler
                0x4a046e70       0x38 drivers/gic/built-in.o
                0x4a046e70                irq_free_handler
 .text.do_irq   0x4a046ea8       0xd8 drivers/gic/built-in.o
                0x4a046ea8                do_irq
 .text.do_irqinfo
                0x4a046f80       0x74 drivers/gic/built-in.o
                0x4a046f80                do_irqinfo
 .text.arch_interrupt_init
                0x4a046ff4       0x70 drivers/gic/built-in.o
                0x4a046ff4                arch_interrupt_init
 .text.arch_interrupt_exit
                0x4a047064       0x2c drivers/gic/built-in.o
                0x4a047064                arch_interrupt_exit
 .text.twi_send_slave_addr
                0x4a047090       0x94 drivers/i2c/built-in.o
 .text.twi_send_addr
                0x4a047124       0x9c drivers/i2c/built-in.o
 .text.i2c_io_null
                0x4a0471c0        0x8 drivers/i2c/built-in.o
 .text.twi_stop
                0x4a0471c8       0xcc drivers/i2c/built-in.o
 .text.twi_start
                0x4a047294       0x88 drivers/i2c/built-in.o
 .text.sunxi_i2c_write
                0x4a04731c       0xfc drivers/i2c/built-in.o
                0x4a04731c                sunxi_i2c_write
 .text.sunxi_i2c_read
                0x4a047418      0x28c drivers/i2c/built-in.o
                0x4a047418                sunxi_i2c_read
 .text.sunxi_i2c_init
                0x4a0476a4      0x25c drivers/i2c/built-in.o
                0x4a0476a4                sunxi_i2c_init
 .text.i2c_read
                0x4a047900       0x40 drivers/i2c/built-in.o
                0x4a047900                i2c_read
 .text.i2c_write
                0x4a047940       0x40 drivers/i2c/built-in.o
                0x4a047940                i2c_write
 .text.i2c_init
                0x4a047980       0x64 drivers/i2c/built-in.o
                0x4a047980                i2c_init
 .text.sunxi_key_clock_close
                0x4a0479e4        0x8 drivers/key/built-in.o
                0x4a0479e4                sunxi_key_clock_close
 .text.sunxi_key_exit
                0x4a0479ec       0x2c drivers/key/built-in.o
                0x4a0479ec                sunxi_key_exit
 .text.sunxi_key_read
                0x4a047a18       0x6c drivers/key/built-in.o
                0x4a047a18                sunxi_key_read
 .text.do_key_test
                0x4a047a84       0xac drivers/key/built-in.o
                0x4a047a84                do_key_test
 .text.mmc_set_ios
                0x4a047b30      0x14c drivers/mmc/built-in.o
 .text._mmc_life_time_est
                0x4a047c7c       0xdc drivers/mmc/built-in.o
 .text.mmc_mmc_parse_health_report
                0x4a047d58      0x1c4 drivers/mmc/built-in.o
 .text.board_mmc_getwp
                0x4a047f1c        0x8 drivers/mmc/built-in.o
                0x4a047f1c                board_mmc_getwp
 .text.mmc_getwp
                0x4a047f24       0x3c drivers/mmc/built-in.o
                0x4a047f24                mmc_getwp
 .text.__board_mmc_getcd
                0x4a047f60        0x8 drivers/mmc/built-in.o
                0x4a047f60                __board_mmc_getcd
                0x4a047f60                board_mmc_getcd
 .text.mmc_send_cmd
                0x4a047f68      0xb4c drivers/mmc/built-in.o
                0x4a047f68                mmc_send_cmd
 .text.mmc_go_idle
                0x4a048ab4       0x64 drivers/mmc/built-in.o
 .text.mmc_send_if_cond
                0x4a048b18       0x94 drivers/mmc/built-in.o
 .text.sd_send_op_cond
                0x4a048bac      0x124 drivers/mmc/built-in.o
 .text.mmc_send_op_cond_iter
                0x4a048cd0       0x9c drivers/mmc/built-in.o
 .text.sd_switch.constprop.6
                0x4a048d6c       0x60 drivers/mmc/built-in.o
 .text.mmc_send_status
                0x4a048dcc      0x134 drivers/mmc/built-in.o
                0x4a048dcc                mmc_send_status
 .text.mmc_set_blocklen
                0x4a048f00       0x4c drivers/mmc/built-in.o
                0x4a048f00                mmc_set_blocklen
 .text.mmc_send_manual_stop
                0x4a048f4c       0x60 drivers/mmc/built-in.o
                0x4a048f4c                mmc_send_manual_stop
 .text.find_mmc_device
                0x4a048fac       0x48 drivers/mmc/built-in.o
                0x4a048fac                find_mmc_device
 .text._mmc_set_block_count
                0x4a048ff4       0x34 drivers/mmc/built-in.o
                0x4a048ff4                _mmc_set_block_count
 .text.mmc_bread
                0x4a049028      0x260 drivers/mmc/built-in.o
                0x4a049028                mmc_bread
 .text.mmc_send_op_cond
                0x4a049288       0xb4 drivers/mmc/built-in.o
                0x4a049288                mmc_send_op_cond
 .text.mmc_complete_op_cond
                0x4a04933c       0xbc drivers/mmc/built-in.o
                0x4a04933c                mmc_complete_op_cond
 .text.mmc_send_ext_csd
                0x4a0493f8       0x6c drivers/mmc/built-in.o
                0x4a0493f8                mmc_send_ext_csd
 .text.mmc_chk_emmc_hw_rst
                0x4a049464       0x64 drivers/mmc/built-in.o
 .text.mmc_decode_ext_csd
                0x4a0494c8      0x168 drivers/mmc/built-in.o
                0x4a0494c8                mmc_decode_ext_csd
 .text.mmc_update_phase
                0x4a049630       0x44 drivers/mmc/built-in.o
                0x4a049630                mmc_update_phase
 .text.mmc_do_switch
                0x4a049674       0xa8 drivers/mmc/built-in.o
                0x4a049674                mmc_do_switch
 .text.mmc_switch.constprop.7
                0x4a04971c       0x24 drivers/mmc/built-in.o
 .text.mmc_en_emmc_hw_rst
                0x4a049740       0xd0 drivers/mmc/built-in.o
 .text.mmc_switch
                0x4a049810       0x14 drivers/mmc/built-in.o
                0x4a049810                mmc_switch
 .text.mmc_mmc_switch_to_ds
                0x4a049824       0xc4 drivers/mmc/built-in.o
                0x4a049824                mmc_mmc_switch_to_ds
 .text.mmc_mmc_switch_to_hs
                0x4a0498e8       0xcc drivers/mmc/built-in.o
                0x4a0498e8                mmc_mmc_switch_to_hs
 .text.mmc_mmc_switch_to_hs200
                0x4a0499b4       0xcc drivers/mmc/built-in.o
                0x4a0499b4                mmc_mmc_switch_to_hs200
 .text.mmc_mmc_switch_to_hs400
                0x4a049a80       0xcc drivers/mmc/built-in.o
                0x4a049a80                mmc_mmc_switch_to_hs400
 .text.mmc_mmc_switch_speed_mode
                0x4a049b4c       0x5c drivers/mmc/built-in.o
                0x4a049b4c                mmc_mmc_switch_speed_mode
 .text.mmc_mmc_switch_bus_width
                0x4a049ba8      0x180 drivers/mmc/built-in.o
                0x4a049ba8                mmc_mmc_switch_bus_width
 .text.mmc_mmc_switch_bus_mode
                0x4a049d28       0x8c drivers/mmc/built-in.o
                0x4a049d28                mmc_mmc_switch_bus_mode
 .text.mmc_getcd
                0x4a049db4       0x3c drivers/mmc/built-in.o
                0x4a049db4                mmc_getcd
 .text.mmc_set_clock
                0x4a049df0       0x24 drivers/mmc/built-in.o
                0x4a049df0                mmc_set_clock
 .text.mmc_startup
                0x4a049e14     0x1364 drivers/mmc/built-in.o
 .text.mmc_switch_boot_bus_cond
                0x4a04b178       0xd4 drivers/mmc/built-in.o
                0x4a04b178                mmc_switch_boot_bus_cond
 .text.mmc_switch_boot_part
                0x4a04b24c       0xc4 drivers/mmc/built-in.o
                0x4a04b24c                mmc_switch_boot_part
 .text.mmc_switch_part
                0x4a04b310       0xc4 drivers/mmc/built-in.o
                0x4a04b310                mmc_switch_part
 .text.mmc_select_hwpart
                0x4a04b3d4       0x68 drivers/mmc/built-in.o
                0x4a04b3d4                mmc_select_hwpart
 .text.mmc_create
                0x4a04b43c      0x114 drivers/mmc/built-in.o
                0x4a04b43c                mmc_create
 .text.mmc_start_init
                0x4a04b550      0x254 drivers/mmc/built-in.o
                0x4a04b550                mmc_start_init
 .text.mmc_update_config_for_dragonboard
                0x4a04b7a4      0x1f0 drivers/mmc/built-in.o
                0x4a04b7a4                mmc_update_config_for_dragonboard
 .text.mmc_update_config_for_sdly
                0x4a04b994      0x6e0 drivers/mmc/built-in.o
                0x4a04b994                mmc_update_config_for_sdly
 .text.mmc_init_boot
                0x4a04c074      0x268 drivers/mmc/built-in.o
                0x4a04c074                mmc_init_boot
 .text.mmc_init_product
                0x4a04c2dc      0x2ac drivers/mmc/built-in.o
                0x4a04c2dc                mmc_init_product
 .text.mmc_init
                0x4a04c588       0x88 drivers/mmc/built-in.o
                0x4a04c588                mmc_init
 .text.mmc_get_dev
                0x4a04c610       0x28 drivers/mmc/built-in.o
                0x4a04c610                mmc_get_dev
 .text.mmc_set_dsr
                0x4a04c638        0xc drivers/mmc/built-in.o
                0x4a04c638                mmc_set_dsr
 .text.__def_mmc_init
                0x4a04c644        0x8 drivers/mmc/built-in.o
                0x4a04c644                cpu_mmc_init
 .text.print_mmc_devices
                0x4a04c64c       0x68 drivers/mmc/built-in.o
                0x4a04c64c                print_mmc_devices
 .text.get_mmc_num
                0x4a04c6b4       0x10 drivers/mmc/built-in.o
                0x4a04c6b4                get_mmc_num
 .text.mmc_initialize
                0x4a04c6c4       0x6c drivers/mmc/built-in.o
                0x4a04c6c4                mmc_initialize
 .text.mmc_exit
                0x4a04c730      0x16c drivers/mmc/built-in.o
                0x4a04c730                mmc_exit
 .text.dumphex32
                0x4a04c89c        0x4 drivers/mmc/built-in.o
                0x4a04c89c                dumphex32
 .text.sunxi_mmc_init
                0x4a04c8a0     0x17b8 drivers/mmc/built-in.o
                0x4a04c8b8                sunxi_mmc_init
 .text.mmc_set_erase_start_addr
                0x4a04e058       0x84 drivers/mmc/built-in.o
                0x4a04e058                mmc_set_erase_start_addr
 .text.mmc_set_erase_end_addr
                0x4a04e0dc       0x84 drivers/mmc/built-in.o
                0x4a04e0dc                mmc_set_erase_end_addr
 .text.mmc_launch_erase
                0x4a04e160       0x34 drivers/mmc/built-in.o
                0x4a04e160                mmc_launch_erase
 .text.mmc_mmc_def_erase_timeout
                0x4a04e194       0xc4 drivers/mmc/built-in.o
                0x4a04e194                mmc_mmc_def_erase_timeout
 .text.mmc_mmc_update_timeout
                0x4a04e258       0xf4 drivers/mmc/built-in.o
                0x4a04e258                mmc_mmc_update_timeout
 .text.mmc_mmc_erase_timeout
                0x4a04e34c       0xd8 drivers/mmc/built-in.o
                0x4a04e34c                mmc_mmc_erase_timeout
 .text.mmc_erase_timeout
                0x4a04e424       0x18 drivers/mmc/built-in.o
                0x4a04e424                mmc_erase_timeout
 .text.mmc_do_erase
                0x4a04e43c       0xdc drivers/mmc/built-in.o
                0x4a04e43c                mmc_do_erase
 .text.mmc_erase_group_aligned
                0x4a04e518       0x4c drivers/mmc/built-in.o
                0x4a04e518                mmc_erase_group_aligned
 .text.mmc_align_erase_group
                0x4a04e564       0x84 drivers/mmc/built-in.o
                0x4a04e564                mmc_align_erase_group
 .text.mmc_erase
                0x4a04e5e8      0x13c drivers/mmc/built-in.o
                0x4a04e5e8                mmc_erase
 .text.mmc_do_sanitize
                0x4a04e724       0x68 drivers/mmc/built-in.o
                0x4a04e724                mmc_do_sanitize
 .text.mmc_add_skip_space
                0x4a04e78c       0x28 drivers/mmc/built-in.o
                0x4a04e78c                mmc_add_skip_space
 .text.mmc_insecure_secure_erase
                0x4a04e7b4      0x13c drivers/mmc/built-in.o
                0x4a04e7b4                mmc_insecure_secure_erase
 .text.mmc_do_secure_wipe
                0x4a04e8f0      0x288 drivers/mmc/built-in.o
                0x4a04e8f0                mmc_do_secure_wipe
 .text.mmc_secure_wipe
                0x4a04eb78       0xf8 drivers/mmc/built-in.o
                0x4a04eb78                mmc_secure_wipe
 .text.mmc_mmc_erase
                0x4a04ec70      0x1c8 drivers/mmc/built-in.o
                0x4a04ec70                mmc_mmc_erase
 .text.mmc_mmc_sanitize
                0x4a04ee38       0x78 drivers/mmc/built-in.o
                0x4a04ee38                mmc_mmc_sanitize
 .text.mmc_mmc_trim
                0x4a04eeb0      0x108 drivers/mmc/built-in.o
                0x4a04eeb0                mmc_mmc_trim
 .text.mmc_mmc_discard
                0x4a04efb8      0x110 drivers/mmc/built-in.o
                0x4a04efb8                mmc_mmc_discard
 .text.mmc_mmc_secure_erase
                0x4a04f0c8      0x10c drivers/mmc/built-in.o
                0x4a04f0c8                mmc_mmc_secure_erase
 .text.mmc_mmc_secure_trim
                0x4a04f1d4      0x110 drivers/mmc/built-in.o
                0x4a04f1d4                mmc_mmc_secure_trim
 .text.mmc_set_block_count
                0x4a04f2e4       0x34 drivers/mmc/built-in.o
                0x4a04f2e4                mmc_set_block_count
 .text.mmc_bwrite
                0x4a04f318      0x214 drivers/mmc/built-in.o
                0x4a04f318                mmc_bwrite
 .text.mmc_berase
                0x4a04f52c       0xbc drivers/mmc/built-in.o
                0x4a04f52c                mmc_berase
 .text.mmc_get_boot_cap
                0x4a04f5e8       0x20 drivers/mmc/built-in.o
                0x4a04f5e8                mmc_get_boot_cap
 .text.mmc_align_wp_grp
                0x4a04f608       0xa4 drivers/mmc/built-in.o
 .text.mmc_enable_bootop
                0x4a04f6ac       0xfc drivers/mmc/built-in.o
                0x4a04f6ac                mmc_enable_bootop
 .text.mmc_bread_mass_pro
                0x4a04f7a8      0x154 drivers/mmc/built-in.o
 .text.mmc_read_bootp
                0x4a04f8fc      0x150 drivers/mmc/built-in.o
                0x4a04f8fc                mmc_read_bootp
 .text.mmc_mmc_user_get_wp_grp_size
                0x4a04fa4c       0x48 drivers/mmc/built-in.o
                0x4a04fa4c                mmc_mmc_user_get_wp_grp_size
 .text.mmc_send_wp_type
                0x4a04fa94       0xa8 drivers/mmc/built-in.o
 .text.mmc_get_current_wp_info
                0x4a04fb3c      0x19c drivers/mmc/built-in.o
 .text.mmc_set_wp
                0x4a04fcd8       0x78 drivers/mmc/built-in.o
 .text.mmc_switch_user_wp
                0x4a04fd50       0x10 drivers/mmc/built-in.o
                0x4a04fd50                mmc_switch_user_wp
 .text.mmc_set_one_permanent_wp
                0x4a04fd60      0x10c drivers/mmc/built-in.o
 .text.mmc_set_one_temporary_wp
                0x4a04fe6c      0x114 drivers/mmc/built-in.o
 .text.mmc_set_one_poweron_wp
                0x4a04ff80      0x110 drivers/mmc/built-in.o
 .text.mmc_user_write_protect
                0x4a050090      0x238 drivers/mmc/built-in.o
                0x4a050090                mmc_user_write_protect
 .text.mmc_mmc_user_write_protect
                0x4a0502c8      0x110 drivers/mmc/built-in.o
                0x4a0502c8                mmc_mmc_user_write_protect
 .text.mmc_user_clr_tem_write_protect
                0x4a0503d8      0x208 drivers/mmc/built-in.o
                0x4a0503d8                mmc_user_clr_tem_write_protect
 .text.mmc_clr_tem_wp
                0x4a0505e0      0x108 drivers/mmc/built-in.o
                0x4a0505e0                mmc_clr_tem_wp
 .text.mmc_user_scan_wp_sta
                0x4a0506e8      0x2a0 drivers/mmc/built-in.o
                0x4a0506e8                mmc_user_scan_wp_sta
 .text.mmc_flush_cache
                0x4a050988       0x68 drivers/mmc/built-in.o
                0x4a050988                mmc_flush_cache
 .text.mmc_cache_ctrl
                0x4a0509f0       0xb8 drivers/mmc/built-in.o
                0x4a0509f0                mmc_cache_ctrl
 .text.mmc_do_burn_boot
                0x4a050aa8      0x13c drivers/mmc/built-in.o
 .text.mmc_bwrite_mass_pro
                0x4a050be4      0x204 drivers/mmc/built-in.o
 .text.mmc_write_bootp
                0x4a050de8      0x150 drivers/mmc/built-in.o
                0x4a050de8                mmc_write_bootp
 .text.mmc_init_blk_ops
                0x4a050f38       0xfc drivers/mmc/built-in.o
                0x4a050f38                mmc_init_blk_ops
 .text._skip_curr_freq
                0x4a051034       0xac drivers/mmc/built-in.o
 .text._get_best_sdly
                0x4a0510e0      0x1d0 drivers/mmc/built-in.o
 .text.get_mmc_gpio_bias
                0x4a0512b0        0x8 drivers/mmc/built-in.o
                0x4a0512b0                get_mmc_gpio_bias
 .text.gen_pat_bus4_1bit
                0x4a0512b8       0xc4 drivers/mmc/built-in.o
                0x4a0512b8                gen_pat_bus4_1bit
 .text.gen_pat_bus8_1bit
                0x4a05137c       0xa4 drivers/mmc/built-in.o
                0x4a05137c                gen_pat_bus8_1bit
 .text.gen_tuning_blk_bus8
                0x4a051420      0x120 drivers/mmc/built-in.o
                0x4a051420                gen_tuning_blk_bus8
 .text.gen_tuning_blk_bus4
                0x4a051540      0x110 drivers/mmc/built-in.o
                0x4a051540                gen_tuning_blk_bus4
 .text.sunxi_mmc_tuning_init
                0x4a051650       0xcc drivers/mmc/built-in.o
                0x4a051650                sunxi_mmc_tuning_init
 .text.sunxi_mmc_tuning_exit
                0x4a05171c       0x34 drivers/mmc/built-in.o
                0x4a05171c                sunxi_mmc_tuning_exit
 .text.sunxi_select_freq
                0x4a051750       0xf8 drivers/mmc/built-in.o
                0x4a051750                sunxi_select_freq
 .text.sunxi_need_rty
                0x4a051848       0x70 drivers/mmc/built-in.o
                0x4a051848                sunxi_need_rty
 .text.write_tuning_try_freq
                0x4a0518b8      0x258 drivers/mmc/built-in.o
                0x4a0518b8                write_tuning_try_freq
 .text.sunxi_write_tuning
                0x4a051b10       0x88 drivers/mmc/built-in.o
                0x4a051b10                sunxi_write_tuning
 .text.sunxi_execute_tuning
                0x4a051b98      0xa80 drivers/mmc/built-in.o
                0x4a051b98                sunxi_execute_tuning
 .text.sunxi_pack_tuning_result
                0x4a052618      0x174 drivers/mmc/built-in.o
                0x4a052618                sunxi_pack_tuning_result
 .text.sunxi_bus_tuning
                0x4a05278c      0x19c drivers/mmc/built-in.o
                0x4a05278c                sunxi_bus_tuning
 .text.sunxi_switch_to_best_bus
                0x4a052928      0x374 drivers/mmc/built-in.o
                0x4a052928                sunxi_switch_to_best_bus
 .text.mmc_write_info
                0x4a052c9c      0x148 drivers/mmc/built-in.o
                0x4a052c9c                mmc_write_info
 .text.mmc_ddr_mode_onoff
                0x4a052de4       0x44 drivers/mmc/built-in.o
 .text.mmc_hs400_mode_onoff
                0x4a052e28       0x2c drivers/mmc/built-in.o
 .text.sunxi_detail_errno
                0x4a052e54       0x14 drivers/mmc/built-in.o
 .text.sunxi_decide_rty
                0x4a052e68      0x194 drivers/mmc/built-in.o
 .text.mmc_update_clk
                0x4a052ffc       0xa4 drivers/mmc/built-in.o
 .text.mmc_get_mclk
                0x4a0530a0       0x7c drivers/mmc/built-in.o
 .text.mmc_config_clock_modex
                0x4a05311c      0x474 drivers/mmc/built-in.o
 .text.mmc_core_init
                0x4a053590      0x260 drivers/mmc/built-in.o
 .text.mmc_dump_errinfo
                0x4a0537f0      0x128 drivers/mmc/built-in.o
                0x4a0537f0                mmc_dump_errinfo
 .text.mmc_clk_io_onoff
                0x4a053918       0xd8 drivers/mmc/built-in.o
                0x4a053918                mmc_clk_io_onoff
 .text.axpnull_set_coulombmeter_onoff
                0x4a0539f0        0x8 drivers/power/built-in.o
                0x4a0539f0                axpnull_set_coulombmeter_onoff
 .text.axpnull_set_charge_control
                0x4a0539f8        0x8 drivers/power/built-in.o
                0x4a0539f8                axpnull_set_charge_control
 .text.axpnull_probe_battery_ratio
                0x4a053a00        0x8 drivers/power/built-in.o
                0x4a053a00                axpnull_probe_battery_ratio
 .text.axpnull_probe_power_status
                0x4a053a08        0x8 drivers/power/built-in.o
                0x4a053a08                axpnull_probe_power_status
 .text.axpnull_probe_battery_exist
                0x4a053a10        0x8 drivers/power/built-in.o
                0x4a053a10                axpnull_probe_battery_exist
 .text.axpnull_probe_battery_vol
                0x4a053a18        0x8 drivers/power/built-in.o
                0x4a053a18                axpnull_probe_battery_vol
 .text.axpnull_probe_key
                0x4a053a20        0x8 drivers/power/built-in.o
                0x4a053a20                axpnull_probe_key
 .text.axpnull_probe_pre_sys_mode
                0x4a053a28        0x8 drivers/power/built-in.o
                0x4a053a28                axpnull_probe_pre_sys_mode
 .text.axpnull_set_next_sys_mode
                0x4a053a30        0x8 drivers/power/built-in.o
                0x4a053a30                axpnull_set_next_sys_mode
 .text.axpnull_probe_this_poweron_cause
                0x4a053a38        0x8 drivers/power/built-in.o
                0x4a053a38                axpnull_probe_this_poweron_cause
 .text.axpnull_set_power_off
                0x4a053a40        0x8 drivers/power/built-in.o
                0x4a053a40                axpnull_set_power_off
 .text.axpnull_set_power_onoff_vol
                0x4a053a48        0x8 drivers/power/built-in.o
                0x4a053a48                axpnull_set_power_onoff_vol
 .text.axpnull_set_charge_current
                0x4a053a50        0x8 drivers/power/built-in.o
                0x4a053a50                axpnull_set_charge_current
 .text.axpnull_probe_charge_current
                0x4a053a58        0x8 drivers/power/built-in.o
                0x4a053a58                axpnull_probe_charge_current
 .text.axpnull_set_vbus_cur_limit
                0x4a053a60        0x8 drivers/power/built-in.o
                0x4a053a60                axpnull_set_vbus_cur_limit
 .text.axpnull_set_vbus_vol_limit
                0x4a053a68        0x8 drivers/power/built-in.o
                0x4a053a68                axpnull_set_vbus_vol_limit
 .text.axpnull_probe_int_pending
                0x4a053a70        0x8 drivers/power/built-in.o
                0x4a053a70                axpnull_probe_int_pending
 .text.axpnull_probe_int_enable
                0x4a053a78        0x8 drivers/power/built-in.o
                0x4a053a78                axpnull_probe_int_enable
 .text.axpnull_set_int_enable
                0x4a053a80        0x8 drivers/power/built-in.o
                0x4a053a80                axpnull_set_int_enable
 .text.axpnull_probe_vbus_cur_limit
                0x4a053a88        0x8 drivers/power/built-in.o
                0x4a053a88                axpnull_probe_vbus_cur_limit
 .text.axpnull_set_supply_status
                0x4a053a90        0x8 drivers/power/built-in.o
                0x4a053a90                axpnull_set_supply_status
 .text.axpnull_set_supply_status_byname
                0x4a053a98        0x8 drivers/power/built-in.o
                0x4a053a98                axpnull_set_supply_status_byname
 .text.axpnull_probe_supply_status
                0x4a053aa0        0x8 drivers/power/built-in.o
                0x4a053aa0                axpnull_probe_supply_status
 .text.axpnull_probe_supply_status_byname
                0x4a053aa8        0x8 drivers/power/built-in.o
                0x4a053aa8                axpnull_probe_supply_status_byname
 .text.axp_probe
                0x4a053ab0       0x54 drivers/power/built-in.o
                0x4a053ab0                axp_probe
 .text.axp_reinit
                0x4a053b04       0x74 drivers/power/built-in.o
                0x4a053b04                axp_reinit
 .text.axp_probe_startup_cause
                0x4a053b78       0x1c drivers/power/built-in.o
                0x4a053b78                axp_probe_startup_cause
 .text.axp_set_hardware_poweron_vol
                0x4a053b94       0x58 drivers/power/built-in.o
                0x4a053b94                axp_set_hardware_poweron_vol
 .text.axp_set_hardware_poweroff_vol
                0x4a053bec       0x54 drivers/power/built-in.o
                0x4a053bec                axp_set_hardware_poweroff_vol
 .text.axp_set_power_off
                0x4a053c40       0x34 drivers/power/built-in.o
                0x4a053c40                axp_set_power_off
 .text.axp_probe_factory_mode
                0x4a053c74       0xac drivers/power/built-in.o
                0x4a053c74                axp_probe_factory_mode
 .text.axp_set_next_poweron_status
                0x4a053d20       0x1c drivers/power/built-in.o
                0x4a053d20                axp_set_next_poweron_status
 .text.axp_probe_pre_sys_mode
                0x4a053d3c       0x1c drivers/power/built-in.o
                0x4a053d3c                axp_probe_pre_sys_mode
 .text.axp_probe_battery_exist
                0x4a053d58       0x1c drivers/power/built-in.o
                0x4a053d58                axp_probe_battery_exist
 .text.axp_probe_power_source
                0x4a053d74       0x1c drivers/power/built-in.o
                0x4a053d74                axp_probe_power_source
 .text.axp_probe_battery_vol
                0x4a053d90       0x1c drivers/power/built-in.o
                0x4a053d90                axp_probe_battery_vol
 .text.axp_probe_rest_battery_capacity
                0x4a053dac       0x1c drivers/power/built-in.o
                0x4a053dac                axp_probe_rest_battery_capacity
 .text.axp_probe_key
                0x4a053dc8       0x1c drivers/power/built-in.o
                0x4a053dc8                axp_probe_key
 .text.axp_set_vbus_limit_pc
                0x4a053de4       0x5c drivers/power/built-in.o
                0x4a053de4                axp_set_vbus_limit_pc
 .text.axp_set_all_limit
                0x4a053e40       0x10 drivers/power/built-in.o
                0x4a053e40                axp_set_all_limit
 .text.axp_set_runtime_chgcur
                0x4a053e50       0x20 drivers/power/built-in.o
                0x4a053e50                axp_set_runtime_chgcur
 .text.axp_set_charge_vol_limit
                0x4a053e70       0x64 drivers/power/built-in.o
                0x4a053e70                axp_set_charge_vol_limit
 .text.axp_set_power_supply_output
                0x4a053ed4      0x100 drivers/power/built-in.o
                0x4a053ed4                axp_set_power_supply_output
 .text.axp_probe_power_supply_condition
                0x4a053fd4       0xc4 drivers/power/built-in.o
                0x4a053fd4                axp_probe_power_supply_condition
 .text.axp_set_supply_status
                0x4a054098       0x28 drivers/power/built-in.o
                0x4a054098                axp_set_supply_status
 .text.axp_set_supply_status_byname
                0x4a0540c0       0x60 drivers/power/built-in.o
                0x4a0540c0                axp_set_supply_status_byname
 .text.axp_set_supply_status_byregulator
                0x4a054120      0x228 drivers/power/built-in.o
                0x4a054120                axp_set_supply_status_byregulator
 .text.axp_set_coulombmeter_onoff
                0x4a054348       0x1c drivers/power/built-in.o
                0x4a054348                axp_set_coulombmeter_onoff
 .text.axp20_probe_battery_exist
                0x4a054364       0x34 drivers/power/built-in.o
                0x4a054364                axp20_probe_battery_exist
 .text.axp20_probe_battery_ratio
                0x4a054398       0x4c drivers/power/built-in.o
                0x4a054398                axp20_probe_battery_ratio
 .text.axp20_probe_power_status
                0x4a0543e4       0x48 drivers/power/built-in.o
                0x4a0543e4                axp20_probe_power_status
 .text.axp20_probe_battery_vol
                0x4a05442c       0x84 drivers/power/built-in.o
                0x4a05442c                axp20_probe_battery_vol
 .text.axp20_probe_pre_sys_mode
                0x4a0544b0       0x30 drivers/power/built-in.o
                0x4a0544b0                axp20_probe_pre_sys_mode
 .text.axp20_probe_this_poweron_cause
                0x4a0544e0       0x34 drivers/power/built-in.o
                0x4a0544e0                axp20_probe_this_poweron_cause
 .text.axp20_probe_charge_current
                0x4a054514       0x40 drivers/power/built-in.o
                0x4a054514                axp20_probe_charge_current
 .text.axp20_probe_int_enable
                0x4a054554       0x48 drivers/power/built-in.o
                0x4a054554                axp20_probe_int_enable
 .text.axp20_set_coulombmeter_onoff
                0x4a05459c       0x74 drivers/power/built-in.o
                0x4a05459c                axp20_set_coulombmeter_onoff
 .text.axp20_set_charge_control
                0x4a054610       0xb4 drivers/power/built-in.o
                0x4a054610                axp20_set_charge_control
 .text.axp20_probe_key
                0x4a0546c4       0x6c drivers/power/built-in.o
                0x4a0546c4                axp20_probe_key
 .text.axp20_set_next_sys_mode
                0x4a054730       0x30 drivers/power/built-in.o
                0x4a054730                axp20_set_next_sys_mode
 .text.axp20_set_charge_current
                0x4a054760       0x94 drivers/power/built-in.o
                0x4a054760                axp20_set_charge_current
 .text.axp20_set_vbus_cur_limit
                0x4a0547f4       0x90 drivers/power/built-in.o
                0x4a0547f4                axp20_set_vbus_cur_limit
 .text.axp20_set_vbus_vol_limit
                0x4a054884       0xa4 drivers/power/built-in.o
                0x4a054884                axp20_set_vbus_vol_limit
 .text.axp20_probe_int_pending
                0x4a054928       0x88 drivers/power/built-in.o
                0x4a054928                axp20_probe_int_pending
 .text.axp20_set_int_enable
                0x4a0549b0       0x54 drivers/power/built-in.o
                0x4a0549b0                axp20_set_int_enable
 .text.axp20_probe_vbus_cur_limit
                0x4a054a04       0xa0 drivers/power/built-in.o
                0x4a054a04                axp20_probe_vbus_cur_limit
 .text.axp20_set_power_off
                0x4a054aa4       0x94 drivers/power/built-in.o
                0x4a054aa4                axp20_set_power_off
 .text.axp20_probe
                0x4a054b38       0x70 drivers/power/built-in.o
                0x4a054b38                axp20_probe
 .text.axp20_set_power_on_vol
                0x4a054ba8       0xac drivers/power/built-in.o
                0x4a054ba8                axp20_set_power_on_vol
 .text.axp20_set_power_off_vol
                0x4a054c54      0x10c drivers/power/built-in.o
                0x4a054c54                axp20_set_power_off_vol
 .text.axp20_set_power_onoff_vol
                0x4a054d60       0x28 drivers/power/built-in.o
                0x4a054d60                axp20_set_power_onoff_vol
 .text.axp20_set_gpio0ldo
                0x4a054d88      0x114 drivers/power/built-in.o
 .text.axp20_set_dcdc_output.isra.12
                0x4a054e9c      0x2d4 drivers/power/built-in.o
 .text.axp20_set_gpioldo_output.part.16
                0x4a055170       0x7c drivers/power/built-in.o
 .text.axp20_set_supply_status
                0x4a0551ec       0x88 drivers/power/built-in.o
                0x4a0551ec                axp20_set_supply_status
 .text.axp20_set_supply_status_byname
                0x4a055274      0x414 drivers/power/built-in.o
                0x4a055274                axp20_set_supply_status_byname
 .text.axp20_probe_supply_status
                0x4a055688        0x8 drivers/power/built-in.o
                0x4a055688                axp20_probe_supply_status
 .text.axp20_probe_supply_status_byname
                0x4a055690        0x8 drivers/power/built-in.o
                0x4a055690                axp20_probe_supply_status_byname
 .text.axp22_probe_battery_ratio
                0x4a055698       0x34 drivers/power/built-in.o
                0x4a055698                axp22_probe_battery_ratio
 .text.axp22_probe_power_status
                0x4a0556cc       0x48 drivers/power/built-in.o
                0x4a0556cc                axp22_probe_power_status
 .text.axp22_probe_battery_exist
                0x4a055714       0x40 drivers/power/built-in.o
                0x4a055714                axp22_probe_battery_exist
 .text.axp22_probe_battery_vol
                0x4a055754       0x74 drivers/power/built-in.o
                0x4a055754                axp22_probe_battery_vol
 .text.axp22_probe_pre_sys_mode
                0x4a0557c8       0x30 drivers/power/built-in.o
                0x4a0557c8                axp22_probe_pre_sys_mode
 .text.axp22_probe_this_poweron_cause
                0x4a0557f8       0x34 drivers/power/built-in.o
                0x4a0557f8                axp22_probe_this_poweron_cause
 .text.axp22_probe_charge_current
                0x4a05582c       0x40 drivers/power/built-in.o
                0x4a05582c                axp22_probe_charge_current
 .text.axp22_probe_int_enable
                0x4a05586c       0x48 drivers/power/built-in.o
                0x4a05586c                axp22_probe_int_enable
 .text.axp22_set_coulombmeter_onoff
                0x4a0558b4       0x74 drivers/power/built-in.o
                0x4a0558b4                axp22_set_coulombmeter_onoff
 .text.axp22_set_charge_control
                0x4a055928       0xc0 drivers/power/built-in.o
                0x4a055928                axp22_set_charge_control
 .text.axp22_probe_key
                0x4a0559e8       0x74 drivers/power/built-in.o
                0x4a0559e8                axp22_probe_key
 .text.axp22_set_next_sys_mode
                0x4a055a5c       0x30 drivers/power/built-in.o
                0x4a055a5c                axp22_set_next_sys_mode
 .text.axp22_set_power_off
                0x4a055a8c       0x64 drivers/power/built-in.o
                0x4a055a8c                axp22_set_power_off
 .text.axp22_set_power_onoff_vol
                0x4a055af0       0xb4 drivers/power/built-in.o
                0x4a055af0                axp22_set_power_onoff_vol
 .text.axp22_set_charge_current
                0x4a055ba4       0x98 drivers/power/built-in.o
                0x4a055ba4                axp22_set_charge_current
 .text.axp22_set_vbus_cur_limit
                0x4a055c3c       0x84 drivers/power/built-in.o
                0x4a055c3c                axp22_set_vbus_cur_limit
 .text.axp22_set_vbus_vol_limit
                0x4a055cc0       0xa4 drivers/power/built-in.o
                0x4a055cc0                axp22_set_vbus_vol_limit
 .text.axp22_probe_int_pending
                0x4a055d64       0x88 drivers/power/built-in.o
                0x4a055d64                axp22_probe_int_pending
 .text.axp22_set_int_enable
                0x4a055dec       0x54 drivers/power/built-in.o
                0x4a055dec                axp22_set_int_enable
 .text.axp22_probe_vbus_cur_limit
                0x4a055e40       0x84 drivers/power/built-in.o
                0x4a055e40                axp22_probe_vbus_cur_limit
 .text.axp22_probe
                0x4a055ec4       0x68 drivers/power/built-in.o
                0x4a055ec4                axp22_probe
 .text.axp22_usb_vbus_output
                0x4a055f2c       0x84 drivers/power/built-in.o
                0x4a055f2c                axp22_usb_vbus_output
 .text.axp22_set_dcdc_output
                0x4a055fb0      0x514 drivers/power/built-in.o
 .text.axp22_set_aldo_output
                0x4a0564c4      0x340 drivers/power/built-in.o
 .text.axp22_set_eldo_output
                0x4a056804      0x338 drivers/power/built-in.o
 .text.axp22_set_dldo_output
                0x4a056b3c      0x440 drivers/power/built-in.o
 .text.axp22_set_gpioldo_output
                0x4a056f7c      0x228 drivers/power/built-in.o
 .text.axp22_set_dc1sw
                0x4a0571a4       0x80 drivers/power/built-in.o
 .text.axp22_set_dc5ldo
                0x4a057224       0x7c drivers/power/built-in.o
 .text.axp22_set_supply_status
                0x4a0572a0       0xbc drivers/power/built-in.o
                0x4a0572a0                axp22_set_supply_status
 .text.axp22_set_supply_status_byname
                0x4a05735c      0x17c drivers/power/built-in.o
                0x4a05735c                axp22_set_supply_status_byname
 .text.axp22_probe_supply_status
                0x4a0574d8        0x8 drivers/power/built-in.o
                0x4a0574d8                axp22_probe_supply_status
 .text.axp22_probe_supply_status_byname
                0x4a0574e0      0x52c drivers/power/built-in.o
                0x4a0574e0                axp22_probe_supply_status_byname
 .text.sunxi_pwm_set_polarity
                0x4a057a0c       0x34 drivers/pwm/built-in.o
                0x4a057a0c                sunxi_pwm_set_polarity
 .text.sunxi_pwm_pin_set_state
                0x4a057a40       0x94 drivers/pwm/built-in.o
 .text.get_pccr_reg_offset
                0x4a057ad4       0x7c drivers/pwm/built-in.o
 .text.sunxi_pwm_disable
                0x4a057b50       0x94 drivers/pwm/built-in.o
 .text.sunxi_pwm_enable
                0x4a057be4       0xc0 drivers/pwm/built-in.o
 .text.sunxi_pwm_config
                0x4a057ca4      0x310 drivers/pwm/built-in.o
                0x4a057ca4                sunxi_pwm_config
 .text.pwm_config
                0x4a057fb4       0x54 drivers/pwm/built-in.o
                0x4a057fb4                pwm_config
 .text.pwm_enable
                0x4a058008       0x54 drivers/pwm/built-in.o
                0x4a058008                pwm_enable
 .text.pwm_disable
                0x4a05805c       0x50 drivers/pwm/built-in.o
                0x4a05805c                pwm_disable
 .text.pwm_set_polarity
                0x4a0580ac       0x58 drivers/pwm/built-in.o
                0x4a0580ac                pwm_set_polarity
 .text.pwm_request
                0x4a058104      0x364 drivers/pwm/built-in.o
                0x4a058104                pwm_request
 .text.get_current
                0x4a058468       0x3c drivers/serial/built-in.o
 .text.serial_null
                0x4a0584a4        0x4 drivers/serial/built-in.o
                0x4a0584a4                mpc8260_smc_serial_initialize
                0x4a0584a4                au1x00_serial_initialize
                0x4a0584a4                atmel_serial_initialize
                0x4a0584a4                altera_jtag_serial_initialize
                0x4a0584a4                mpc85xx_serial_initialize
                0x4a0584a4                lh7a40x_serial_initialize
                0x4a0584a4                s3c24xx_serial_initialize
                0x4a0584a4                imx_serial_initialize
                0x4a0584a4                mpc512x_serial_initialize
                0x4a0584a4                sandbox_serial_initialize
                0x4a0584a4                jz_serial_initialize
                0x4a0584a4                pxa_serial_initialize
                0x4a0584a4                bfin_jtag_initialize
                0x4a0584a4                max3100_serial_initialize
                0x4a0584a4                s5p_serial_initialize
                0x4a0584a4                pl01x_serial_initialize
                0x4a0584a4                mpc8260_scc_serial_initialize
                0x4a0584a4                amirix_serial_initialize
                0x4a0584a4                cpci750_serial_initialize
                0x4a0584a4                mpc5xx_serial_initialize
                0x4a0584a4                asc_serial_initialize
                0x4a0584a4                iop480_serial_initialize
                0x4a0584a4                arm_dcc_initialize
                0x4a0584a4                zynq_serial_initialize
                0x4a0584a4                mxc_serial_initialize
                0x4a0584a4                leon2_serial_initialize
                0x4a0584a4                sconsole_serial_initialize
                0x4a0584a4                evb64260_serial_initialize
                0x4a0584a4                altera_serial_initialize
                0x4a0584a4                oc_serial_initialize
                0x4a0584a4                sh_serial_initialize
                0x4a0584a4                marvell_serial_initialize
                0x4a0584a4                arc_serial_initialize
                0x4a0584a4                lpc32xx_serial_initialize
                0x4a0584a4                ks8695_serial_initialize
                0x4a0584a4                cogent_serial_initialize
                0x4a0584a4                mpc8xx_serial_initialize
                0x4a0584a4                leon3_serial_initialize
                0x4a0584a4                p3mx_serial_initialize
                0x4a0584a4                sa1100_serial_initialize
                0x4a0584a4                ml2_serial_initialize
                0x4a0584a4                mcf_serial_initialize
                0x4a0584a4                bmw_serial_initialize
                0x4a0584a4                mxs_auart_initialize
                0x4a0584a4                clps7111_serial_initialize
                0x4a0584a4                bfin_serial_initialize
                0x4a0584a4                uartlite_serial_initialize
 .text.serial_register
                0x4a0584a8       0x18 drivers/serial/built-in.o
                0x4a0584a8                serial_register
 .text.serial_stdio_init
                0x4a0584c0       0x8c drivers/serial/built-in.o
                0x4a0584c0                serial_stdio_init
 .text.serial_assign
                0x4a05854c       0x50 drivers/serial/built-in.o
                0x4a05854c                serial_assign
 .text.serial_initialize
                0x4a05859c       0xd0 drivers/serial/built-in.o
                0x4a05859c                serial_initialize
 .text.serial_init
                0x4a05866c       0x14 drivers/serial/built-in.o
                0x4a05866c                serial_init
 .text.serial_setbrg
                0x4a058680       0x14 drivers/serial/built-in.o
                0x4a058680                serial_setbrg
 .text.on_baudrate
                0x4a058694      0x100 drivers/serial/built-in.o
 .text.serial_getc
                0x4a058794       0x14 drivers/serial/built-in.o
                0x4a058794                serial_getc
 .text.serial_tstc
                0x4a0587a8       0x14 drivers/serial/built-in.o
                0x4a0587a8                serial_tstc
 .text.serial_putc
                0x4a0587bc       0x1c drivers/serial/built-in.o
                0x4a0587bc                serial_putc
 .text.serial_puts
                0x4a0587d8       0x1c drivers/serial/built-in.o
                0x4a0587d8                serial_puts
 .text.NS16550_init
                0x4a0587f4       0x54 drivers/serial/built-in.o
                0x4a0587f4                NS16550_init
 .text.NS16550_reinit
                0x4a058848       0x4c drivers/serial/built-in.o
                0x4a058848                NS16550_reinit
 .text.NS16550_putc
                0x4a058894       0x14 drivers/serial/built-in.o
                0x4a058894                NS16550_putc
 .text.NS16550_getc
                0x4a0588a8       0x14 drivers/serial/built-in.o
                0x4a0588a8                NS16550_getc
 .text.NS16550_tstc
                0x4a0588bc        0xc drivers/serial/built-in.o
                0x4a0588bc                NS16550_tstc
 .text.calc_divisor.isra.0
                0x4a0588c8       0x24 drivers/serial/built-in.o
 .text.serial_clk_enable
                0x4a0588ec       0x40 drivers/serial/built-in.o
                0x4a0588ec                serial_clk_enable
 .text.eserial4_init
                0x4a05892c       0x28 drivers/serial/built-in.o
 .text.eserial3_init
                0x4a058954       0x28 drivers/serial/built-in.o
 .text.eserial2_init
                0x4a05897c       0x28 drivers/serial/built-in.o
 .text.eserial1_init
                0x4a0589a4       0x28 drivers/serial/built-in.o
 .text._serial_putc
                0x4a0589cc       0x38 drivers/serial/built-in.o
                0x4a0589cc                _serial_putc
 .text.eserial1_putc
                0x4a058a04        0x8 drivers/serial/built-in.o
 .text.eserial2_putc
                0x4a058a0c        0x8 drivers/serial/built-in.o
 .text.eserial3_putc
                0x4a058a14        0x8 drivers/serial/built-in.o
 .text.eserial4_putc
                0x4a058a1c        0x8 drivers/serial/built-in.o
 .text._serial_puts
                0x4a058a24       0x28 drivers/serial/built-in.o
                0x4a058a24                _serial_puts
 .text.eserial1_puts
                0x4a058a4c        0x8 drivers/serial/built-in.o
 .text.eserial2_puts
                0x4a058a54        0x8 drivers/serial/built-in.o
 .text.eserial3_puts
                0x4a058a5c        0x8 drivers/serial/built-in.o
 .text.eserial4_puts
                0x4a058a64        0x8 drivers/serial/built-in.o
 .text._serial_getc
                0x4a058a6c       0x1c drivers/serial/built-in.o
                0x4a058a6c                _serial_getc
 .text.eserial1_getc
                0x4a058a88        0x8 drivers/serial/built-in.o
 .text.eserial2_getc
                0x4a058a90        0x8 drivers/serial/built-in.o
 .text.eserial3_getc
                0x4a058a98        0x8 drivers/serial/built-in.o
 .text.eserial4_getc
                0x4a058aa0        0x8 drivers/serial/built-in.o
 .text._serial_tstc
                0x4a058aa8       0x14 drivers/serial/built-in.o
                0x4a058aa8                _serial_tstc
 .text.eserial1_tstc
                0x4a058abc        0x8 drivers/serial/built-in.o
 .text.eserial2_tstc
                0x4a058ac4        0x8 drivers/serial/built-in.o
 .text.eserial3_tstc
                0x4a058acc        0x8 drivers/serial/built-in.o
 .text.eserial4_tstc
                0x4a058ad4        0x8 drivers/serial/built-in.o
 .text._serial_setbaud
                0x4a058adc       0x34 drivers/serial/built-in.o
                0x4a058adc                _serial_setbaud
 .text.eserial1_setbaud
                0x4a058b10        0xc drivers/serial/built-in.o
 .text.eserial2_setbaud
                0x4a058b1c        0xc drivers/serial/built-in.o
 .text.eserial3_setbaud
                0x4a058b28        0xc drivers/serial/built-in.o
 .text.eserial4_setbaud
                0x4a058b34        0xc drivers/serial/built-in.o
 .text._serial_setbrg
                0x4a058b40       0x28 drivers/serial/built-in.o
                0x4a058b40                _serial_setbrg
 .text.eserial1_setbrg
                0x4a058b68        0x8 drivers/serial/built-in.o
 .text.eserial2_setbrg
                0x4a058b70        0x8 drivers/serial/built-in.o
 .text.eserial3_setbrg
                0x4a058b78        0x8 drivers/serial/built-in.o
 .text.eserial4_setbrg
                0x4a058b80        0x8 drivers/serial/built-in.o
 .text.default_serial_console
                0x4a058b88       0x2c drivers/serial/built-in.o
                0x4a058b88                default_serial_console
 .text.ns16550_serial_initialize
                0x4a058bb4       0x38 drivers/serial/built-in.o
                0x4a058bb4                ns16550_serial_initialize
 .text          0x4a058bec       0x44 drivers/smc/built-in.o
                0x4a058bec                __sunxi_smc_call
                0x4a058bf8                tee_smc_call
                0x4a058c10                arm_smccc_smc
 .text.smc_readl_normal
                0x4a058c30        0x8 drivers/smc/built-in.o
 .text.smc_writel_normal
                0x4a058c38        0xc drivers/smc/built-in.o
 .text.sunxi_smc_call
                0x4a058c44       0x44 drivers/smc/built-in.o
                0x4a058c44                sunxi_smc_call
 .text.arm_svc_write_sec_reg
                0x4a058c88       0x28 drivers/smc/built-in.o
                0x4a058c88                arm_svc_write_sec_reg
 .text.arm_svc_read_sec_reg
                0x4a058cb0       0x24 drivers/smc/built-in.o
                0x4a058cb0                arm_svc_read_sec_reg
 .text.arm_svc_run_os
                0x4a058cd4       0x30 drivers/smc/built-in.o
                0x4a058cd4                arm_svc_run_os
 .text.arm_svc_efuse_read
                0x4a058d04       0x28 drivers/smc/built-in.o
                0x4a058d04                arm_svc_efuse_read
 .text.arm_svc_efuse_write
                0x4a058d2c       0x24 drivers/smc/built-in.o
                0x4a058d2c                arm_svc_efuse_write
 .text.smc_readl
                0x4a058d50       0x18 drivers/smc/built-in.o
                0x4a058d50                smc_readl
 .text.smc_writel
                0x4a058d68       0x18 drivers/smc/built-in.o
                0x4a058d68                smc_writel
 .text.smc_init
                0x4a058d80       0x4c drivers/smc/built-in.o
                0x4a058d80                smc_init
 .text.smc_tee_probe_drm_configure
                0x4a058dcc       0x70 drivers/smc/built-in.o
                0x4a058dcc                smc_tee_probe_drm_configure
 .text.sunxi_dma_isr
                0x4a058e3c        0x4 drivers/spi/built-in.o
 .text.spic_set_clk.isra.1
                0x4a058e40       0x80 drivers/spi/built-in.o
 .text.spi_cfg_mclk.isra.8.constprop.9
                0x4a058ec0       0x9c drivers/spi/built-in.o
 .text.spic_init
                0x4a058f5c      0x2b8 drivers/spi/built-in.o
                0x4a058f5c                spic_init
 .text.spic_rw  0x4a059214      0x234 drivers/spi/built-in.o
                0x4a059214                spic_rw
 .text.spic_exit
                0x4a059448       0x5c drivers/spi/built-in.o
                0x4a059448                spic_exit
 .text.spic_config_dual_mode
                0x4a0594a4       0x18 drivers/spi/built-in.o
                0x4a0594a4                spic_config_dual_mode
 .text.__sid_reg_read_key
                0x4a0594bc       0x58 drivers/sunxi_crypto/built-in.o
 .text._get_uint_val
                0x4a059514       0x64 drivers/sunxi_crypto/built-in.o
 .text.set_efuse_voltage
                0x4a059578        0x8 drivers/sunxi_crypto/built-in.o
                0x4a059578                set_efuse_voltage
 .text.sid_program_key
                0x4a059580       0x74 drivers/sunxi_crypto/built-in.o
                0x4a059580                sid_program_key
 .text.uni_burn_key
                0x4a0595f4       0x54 drivers/sunxi_crypto/built-in.o
 .text.sunxi_efuse_write
                0x4a059648      0x120 drivers/sunxi_crypto/built-in.o
                0x4a059648                sunxi_efuse_write
 .text.sunxi_efuse_read
                0x4a059768      0x190 drivers/sunxi_crypto/built-in.o
                0x4a059768                sunxi_efuse_read
 .text.sunxi_efuse_get_rotpk_status
                0x4a0598f8        0x8 drivers/sunxi_crypto/built-in.o
                0x4a0598f8                sunxi_efuse_get_rotpk_status
 .text.sunxi_null_op
                0x4a059900        0x8 drivers/sunxi_flash/built-in.o
 .text.sunxi_null_erase
                0x4a059908        0x8 drivers/sunxi_flash/built-in.o
 .text.sunxi_null_size
                0x4a059910        0x8 drivers/sunxi_flash/built-in.o
 .text.sunxi_null_init
                0x4a059918        0x8 drivers/sunxi_flash/built-in.o
 .text.sunxi_null_exit
                0x4a059920        0x8 drivers/sunxi_flash/built-in.o
 .text.sunxi_null_flush
                0x4a059928        0x8 drivers/sunxi_flash/built-in.o
 .text.sunxi_null_force_erase
                0x4a059930        0x8 drivers/sunxi_flash/built-in.o
 .text.sunxi_null_secstorage_read
                0x4a059938        0x8 drivers/sunxi_flash/built-in.o
 .text.sunxi_null_secstorage_write
                0x4a059940        0x8 drivers/sunxi_flash/built-in.o
 .text.nand_init_for_boot
                0x4a059948       0xec drivers/sunxi_flash/built-in.o
                0x4a059950                nand_init_for_boot
 .text.sdmmc_init_for_boot
                0x4a059a34      0x16c drivers/sunxi_flash/built-in.o
                0x4a059a3c                sdmmc_init_for_boot
 .text.spinor_init_for_boot
                0x4a059ba0       0xa0 drivers/sunxi_flash/built-in.o
                0x4a059ba8                spinor_init_for_boot
 .text.nand_init_for_sprite
                0x4a059c40      0x134 drivers/sunxi_flash/built-in.o
                0x4a059c48                nand_init_for_sprite
 .text.sdmmc_init_for_sprite
                0x4a059d74      0x19c drivers/sunxi_flash/built-in.o
                0x4a059d7c                sdmmc_init_for_sprite
 .text.sdmmc_init_card0_for_sprite
                0x4a059f10       0xf8 drivers/sunxi_flash/built-in.o
                0x4a059f18                sdmmc_init_card0_for_sprite
 .text.spinor_init_for_sprite
                0x4a05a008       0xcc drivers/sunxi_flash/built-in.o
                0x4a05a010                spinor_init_for_sprite
 .text.card_read_boot0
                0x4a05a0d4       0x70 drivers/sunxi_flash/built-in.o
                0x4a05a0dc                card_read_boot0
 .text.spinor_read_boot0
                0x4a05a144        0x8 drivers/sunxi_flash/built-in.o
                0x4a05a144                spinor_read_boot0
 .text.sunxi_flash_read
                0x4a05a14c       0x18 drivers/sunxi_flash/built-in.o
                0x4a05a14c                sunxi_flash_read
 .text.sunxi_flash_part_read
                0x4a05a164       0x4c drivers/sunxi_flash/built-in.o
                0x4a05a164                sunxi_flash_part_read
 .text.sunxi_flash_write
                0x4a05a1b0       0x18 drivers/sunxi_flash/built-in.o
                0x4a05a1b0                sunxi_flash_write
 .text.sunxi_flash_part_write
                0x4a05a1c8       0x4c drivers/sunxi_flash/built-in.o
                0x4a05a1c8                sunxi_flash_part_write
 .text.sunxi_flash_size
                0x4a05a214       0x18 drivers/sunxi_flash/built-in.o
                0x4a05a214                sunxi_flash_size
 .text.sunxi_flash_exit
                0x4a05a22c       0x18 drivers/sunxi_flash/built-in.o
                0x4a05a22c                sunxi_flash_exit
 .text.sunxi_flash_flush
                0x4a05a244       0x18 drivers/sunxi_flash/built-in.o
                0x4a05a244                sunxi_flash_flush
 .text.sunxi_flash_phyread
                0x4a05a25c       0x18 drivers/sunxi_flash/built-in.o
                0x4a05a25c                sunxi_flash_phyread
 .text.sunxi_flash_phywrite
                0x4a05a274       0x18 drivers/sunxi_flash/built-in.o
                0x4a05a274                sunxi_flash_phywrite
 .text.sunxi_sprite_init
                0x4a05a28c       0x18 drivers/sunxi_flash/built-in.o
                0x4a05a28c                sunxi_sprite_init
 .text.sunxi_sprite_read
                0x4a05a2a4       0x18 drivers/sunxi_flash/built-in.o
                0x4a05a2a4                sunxi_sprite_read
 .text.sunxi_sprite_write
                0x4a05a2bc       0x18 drivers/sunxi_flash/built-in.o
                0x4a05a2bc                sunxi_sprite_write
 .text.sunxi_sprite_erase
                0x4a05a2d4       0x18 drivers/sunxi_flash/built-in.o
                0x4a05a2d4                sunxi_sprite_erase
 .text.sunxi_sprite_size
                0x4a05a2ec       0x18 drivers/sunxi_flash/built-in.o
                0x4a05a2ec                sunxi_sprite_size
 .text.sunxi_sprite_exit
                0x4a05a304       0x18 drivers/sunxi_flash/built-in.o
                0x4a05a304                sunxi_sprite_exit
 .text.sunxi_sprite_phyread
                0x4a05a31c       0x18 drivers/sunxi_flash/built-in.o
                0x4a05a31c                sunxi_sprite_phyread
 .text.sunxi_sprite_phywrite
                0x4a05a334       0x18 drivers/sunxi_flash/built-in.o
                0x4a05a334                sunxi_sprite_phywrite
 .text.sunxi_sprite_force_erase
                0x4a05a34c       0x18 drivers/sunxi_flash/built-in.o
                0x4a05a34c                sunxi_sprite_force_erase
 .text.sunxi_flash_boot_handle
                0x4a05a364       0xbc drivers/sunxi_flash/built-in.o
                0x4a05a364                sunxi_flash_boot_handle
 .text.sunxi_flash_sprite_handle
                0x4a05a420       0x88 drivers/sunxi_flash/built-in.o
                0x4a05a420                sunxi_flash_sprite_handle
 .text.sunxi_flash_get_dev
                0x4a05a4a8       0x20 drivers/sunxi_flash/built-in.o
                0x4a05a4a8                sunxi_flash_get_dev
 .text.sunxi_flash_init_uboot
                0x4a05a4c8       0x54 drivers/sunxi_flash/built-in.o
                0x4a05a4c8                sunxi_flash_init_uboot
 .text.sunxi_flash_handle_init
                0x4a05a51c       0x7c drivers/sunxi_flash/built-in.o
                0x4a05a51c                sunxi_flash_handle_init
 .text.read_boot_package
                0x4a05a598       0xf0 drivers/sunxi_flash/built-in.o
                0x4a05a598                read_boot_package
 .text.sunxi_flash_upload_boot0
                0x4a05a688       0x88 drivers/sunxi_flash/built-in.o
                0x4a05a688                sunxi_flash_upload_boot0
 .text.sunxi_flash_get_boot0_size
                0x4a05a710       0x58 drivers/sunxi_flash/built-in.o
                0x4a05a710                sunxi_flash_get_boot0_size
 .text.sunxi_flash_update_fdt
                0x4a05a768      0x150 drivers/sunxi_flash/built-in.o
                0x4a05a768                sunxi_flash_update_fdt
 .text.sunxi_flash_mmc_read
                0x4a05a8b8       0x30 drivers/sunxi_flash/built-in.o
 .text.sunxi_flash_mmc_write
                0x4a05a8e8       0x30 drivers/sunxi_flash/built-in.o
 .text.sunxi_flash_mmc_size
                0x4a05a918       0x14 drivers/sunxi_flash/built-in.o
 .text.sunxi_flash_mmc_init
                0x4a05a92c        0x8 drivers/sunxi_flash/built-in.o
 .text.sunxi_flash_mmc_phyread
                0x4a05a934       0x34 drivers/sunxi_flash/built-in.o
                0x4a05a934                sunxi_flash_mmc_phyread
 .text.sunxi_flash_mmc_phywrite
                0x4a05a968       0x34 drivers/sunxi_flash/built-in.o
                0x4a05a968                sunxi_flash_mmc_phywrite
 .text.sunxi_sprite_mmc_read
                0x4a05a99c       0x30 drivers/sunxi_flash/built-in.o
 .text.sunxi_sprite_mmc_write
                0x4a05a9cc       0x30 drivers/sunxi_flash/built-in.o
 .text.sunxi_sprite_mmc_size
                0x4a05a9fc       0x14 drivers/sunxi_flash/built-in.o
 .text.sunxi_sprite_mmc_init
                0x4a05aa10        0x8 drivers/sunxi_flash/built-in.o
 .text.sunxi_sprite_mmc_exit
                0x4a05aa18        0x8 drivers/sunxi_flash/built-in.o
 .text.sunxi_sprite_mmc_phyread
                0x4a05aa20       0x34 drivers/sunxi_flash/built-in.o
                0x4a05aa20                sunxi_sprite_mmc_phyread
 .text.sunxi_sprite_mmc_phywrite
                0x4a05aa54       0x34 drivers/sunxi_flash/built-in.o
                0x4a05aa54                sunxi_sprite_mmc_phywrite
 .text.sunxi_flash_mmc_exit
                0x4a05aa88        0x4 drivers/sunxi_flash/built-in.o
 .text.sunxi_sprite_mmc_erase
                0x4a05aa8c        0x4 drivers/sunxi_flash/built-in.o
 .text.sunxi_sprite_mmc_force_erase
                0x4a05aa90       0x1c drivers/sunxi_flash/built-in.o
                0x4a05aa90                sunxi_sprite_mmc_force_erase
 .text.check_secure_storage_map
                0x4a05aaac       0x6c drivers/sunxi_flash/built-in.o
 .text.check_secure_storage_key
                0x4a05ab18       0x60 drivers/sunxi_flash/built-in.o
 .text.sunxi_sprite_mmc_phyerase
                0x4a05ab78       0x60 drivers/sunxi_flash/built-in.o
                0x4a05ab78                sunxi_sprite_mmc_phyerase
 .text.sunxi_flash_mmc_secread
                0x4a05abd8       0x3c drivers/sunxi_flash/built-in.o
                0x4a05abd8                sunxi_flash_mmc_secread
 .text.sunxi_flash_mmc_secread_backup
                0x4a05ac14       0x3c drivers/sunxi_flash/built-in.o
                0x4a05ac14                sunxi_flash_mmc_secread_backup
 .text.sunxi_flash_mmc_secwrite
                0x4a05ac50       0x3c drivers/sunxi_flash/built-in.o
                0x4a05ac50                sunxi_flash_mmc_secwrite
 .text.sunxi_sprite_mmc_secwrite
                0x4a05ac8c       0x48 drivers/sunxi_flash/built-in.o
                0x4a05ac8c                sunxi_sprite_mmc_secwrite
 .text.mmc_secure_storage_write
                0x4a05acd4       0xac drivers/sunxi_flash/built-in.o
                0x4a05acd4                mmc_secure_storage_write
 .text.sunxi_sprite_mmc_secread
                0x4a05ad80       0x48 drivers/sunxi_flash/built-in.o
                0x4a05ad80                sunxi_sprite_mmc_secread
 .text.sunxi_sprite_mmc_secread_backup
                0x4a05adc8       0x48 drivers/sunxi_flash/built-in.o
                0x4a05adc8                sunxi_sprite_mmc_secread_backup
 .text.mmc_secure_storage_read
                0x4a05ae10      0x3e4 drivers/sunxi_flash/built-in.o
                0x4a05ae10                mmc_secure_storage_read
 .text.sunxi_flash_nand_force_erase
                0x4a05b1f4        0x4 drivers/sunxi_flash/built-in.o
 .text.sunxi_flash_nand_flush
                0x4a05b1f8        0x4 drivers/sunxi_flash/built-in.o
 .text.sunxi_flash_nand_size
                0x4a05b1fc        0x4 drivers/sunxi_flash/built-in.o
 .text.sunxi_flash_nand_erase
                0x4a05b200        0x4 drivers/sunxi_flash/built-in.o
 .text.sunxi_flash_nand_write
                0x4a05b204        0x4 drivers/sunxi_flash/built-in.o
 .text.sunxi_flash_nand_read
                0x4a05b208        0x4 drivers/sunxi_flash/built-in.o
 .text.sunxi_flash_nand_exit
                0x4a05b20c        0x4 drivers/sunxi_flash/built-in.o
 .text.sunxi_flash_nand_init
                0x4a05b210        0x4 drivers/sunxi_flash/built-in.o
 .text.sunxi_flash_spinor_read
                0x4a05b214        0x8 drivers/sunxi_flash/built-in.o
 .text.sunxi_flash_spinor_flush
                0x4a05b21c        0x4 drivers/sunxi_flash/built-in.o
 .text.sunxi_flash_spinor_size
                0x4a05b220        0x4 drivers/sunxi_flash/built-in.o
 .text.sunxi_flash_spinor_erase
                0x4a05b224        0x4 drivers/sunxi_flash/built-in.o
 .text.sunxi_sprite_spinor_write
                0x4a05b228        0x8 drivers/sunxi_flash/built-in.o
 .text.sunxi_flash_spinor_exit
                0x4a05b230        0x4 drivers/sunxi_flash/built-in.o
 .text.sunxi_flash_spinor_init
                0x4a05b234        0x4 drivers/sunxi_flash/built-in.o
 .text.sunxi_flash_spinor_write
                0x4a05b238        0x8 drivers/sunxi_flash/built-in.o
 .text.spinor_get_boot0_size
                0x4a05b240       0xec drivers/sunxi_flash/built-in.o
                0x4a05b240                spinor_get_boot0_size
 .text.USBC_ReadLenFromFifo
                0x4a05b32c       0x2c drivers/sunxi_usb/built-in.o
                0x4a05b32c                USBC_ReadLenFromFifo
 .text.USBC_WritePacket
                0x4a05b358       0x90 drivers/sunxi_usb/built-in.o
                0x4a05b358                USBC_WritePacket
 .text.USBC_ReadPacket
                0x4a05b3e8       0x6c drivers/sunxi_usb/built-in.o
                0x4a05b3e8                USBC_ReadPacket
 .text.USBC_ConfigFIFO_Base
                0x4a05b454       0x28 drivers/sunxi_usb/built-in.o
                0x4a05b454                USBC_ConfigFIFO_Base
 .text.USBC_SelectFIFO
                0x4a05b47c       0x10 drivers/sunxi_usb/built-in.o
                0x4a05b47c                USBC_SelectFIFO
 .text.__USBC_ConfigFifo_TxEp
                0x4a05b48c       0x54 drivers/sunxi_usb/built-in.o
                0x4a05b48c                __USBC_ConfigFifo_TxEp
 .text.__USBC_ConfigFifo_RxEp
                0x4a05b4e0       0x54 drivers/sunxi_usb/built-in.o
                0x4a05b4e0                __USBC_ConfigFifo_RxEp
 .text.USBC_ConfigFifo
                0x4a05b534       0x3c drivers/sunxi_usb/built-in.o
                0x4a05b534                USBC_ConfigFifo
 .text.USBC_SelectBus
                0x4a05b570       0x48 drivers/sunxi_usb/built-in.o
                0x4a05b570                USBC_SelectBus
 .text.USBC_INT_EpPending
                0x4a05b5b8       0x3c drivers/sunxi_usb/built-in.o
                0x4a05b5b8                USBC_INT_EpPending
 .text.USBC_INT_ClearEpPending
                0x4a05b5f4       0x54 drivers/sunxi_usb/built-in.o
                0x4a05b5f4                USBC_INT_ClearEpPending
 .text.USBC_INT_ClearEpPendingAll
                0x4a05b648       0x44 drivers/sunxi_usb/built-in.o
                0x4a05b648                USBC_INT_ClearEpPendingAll
 .text.USBC_INT_MiscPending
                0x4a05b68c       0x14 drivers/sunxi_usb/built-in.o
                0x4a05b68c                USBC_INT_MiscPending
 .text.USBC_INT_ClearMiscPending
                0x4a05b6a0       0x18 drivers/sunxi_usb/built-in.o
                0x4a05b6a0                USBC_INT_ClearMiscPending
 .text.USBC_INT_ClearMiscPendingAll
                0x4a05b6b8       0x18 drivers/sunxi_usb/built-in.o
                0x4a05b6b8                USBC_INT_ClearMiscPendingAll
 .text.USBC_INT_EnableEp
                0x4a05b6d0       0x54 drivers/sunxi_usb/built-in.o
                0x4a05b6d0                USBC_INT_EnableEp
 .text.USBC_INT_EnableUsbMiscUint
                0x4a05b724       0x24 drivers/sunxi_usb/built-in.o
                0x4a05b724                USBC_INT_EnableUsbMiscUint
 .text.USBC_INT_DisableUsbMiscUint
                0x4a05b748       0x20 drivers/sunxi_usb/built-in.o
                0x4a05b748                USBC_INT_DisableUsbMiscUint
 .text.USBC_INT_DisableEpAll
                0x4a05b768       0x3c drivers/sunxi_usb/built-in.o
                0x4a05b768                USBC_INT_DisableEpAll
 .text.USBC_INT_DisableUsbMiscAll
                0x4a05b7a4       0x18 drivers/sunxi_usb/built-in.o
                0x4a05b7a4                USBC_INT_DisableUsbMiscAll
 .text.USBC_GetActiveEp
                0x4a05b7bc       0x14 drivers/sunxi_usb/built-in.o
                0x4a05b7bc                USBC_GetActiveEp
 .text.USBC_SelectActiveEp
                0x4a05b7d0       0x14 drivers/sunxi_usb/built-in.o
                0x4a05b7d0                USBC_SelectActiveEp
 .text.USBC_EnhanceSignal
                0x4a05b7e4        0x4 drivers/sunxi_usb/built-in.o
                0x4a05b7e4                USBC_EnhanceSignal
 .text.USBC_EnableIdPullUp
                0x4a05b7e8       0x1c drivers/sunxi_usb/built-in.o
                0x4a05b7e8                USBC_EnableIdPullUp
 .text.USBC_EnableDpDmPullUp
                0x4a05b804       0x1c drivers/sunxi_usb/built-in.o
                0x4a05b804                USBC_EnableDpDmPullUp
 .text.USBC_ForceId
                0x4a05b820       0x48 drivers/sunxi_usb/built-in.o
                0x4a05b820                USBC_ForceId
 .text.USBC_ForceVbusValid
                0x4a05b868       0x4c drivers/sunxi_usb/built-in.o
                0x4a05b868                USBC_ForceVbusValid
 .text.USBC_open_otg
                0x4a05b8b4       0x44 drivers/sunxi_usb/built-in.o
                0x4a05b8b4                USBC_open_otg
 .text.USBC_close_otg
                0x4a05b8f8       0x28 drivers/sunxi_usb/built-in.o
                0x4a05b8f8                USBC_close_otg
 .text.USBC_Dev_SetAddress_default
                0x4a05b920       0x18 drivers/sunxi_usb/built-in.o
                0x4a05b920                USBC_Dev_SetAddress_default
 .text.USBC_Dev_SetAddress
                0x4a05b938       0x14 drivers/sunxi_usb/built-in.o
                0x4a05b938                USBC_Dev_SetAddress
 .text.USBC_Dev_QueryTransferMode
                0x4a05b94c       0x20 drivers/sunxi_usb/built-in.o
                0x4a05b94c                USBC_Dev_QueryTransferMode
 .text.USBC_Dev_ConfigTransferMode
                0x4a05b96c       0x74 drivers/sunxi_usb/built-in.o
                0x4a05b96c                USBC_Dev_ConfigTransferMode
 .text.USBC_Dev_ConectSwitch
                0x4a05b9e0       0x28 drivers/sunxi_usb/built-in.o
                0x4a05b9e0                USBC_Dev_ConectSwitch
 .text.USBC_Dev_ConfigEp
                0x4a05ba08       0xfc drivers/sunxi_usb/built-in.o
                0x4a05ba08                USBC_Dev_ConfigEp
 .text.USBC_Dev_ConfigEpDma
                0x4a05bb04       0x68 drivers/sunxi_usb/built-in.o
                0x4a05bb04                USBC_Dev_ConfigEpDma
 .text.USBC_Dev_ClearEpDma
                0x4a05bb6c       0x70 drivers/sunxi_usb/built-in.o
                0x4a05bb6c                USBC_Dev_ClearEpDma
 .text.USBC_Dev_IsEpStall
                0x4a05bbdc       0x48 drivers/sunxi_usb/built-in.o
                0x4a05bbdc                USBC_Dev_IsEpStall
 .text.USBC_Dev_EpSendStall
                0x4a05bc24       0x68 drivers/sunxi_usb/built-in.o
                0x4a05bc24                USBC_Dev_EpSendStall
 .text.USBC_Dev_EpClearStall
                0x4a05bc8c       0x90 drivers/sunxi_usb/built-in.o
                0x4a05bc8c                USBC_Dev_EpClearStall
 .text.USBC_Dev_Ctrl_IsSetupEnd
                0x4a05bd1c       0x18 drivers/sunxi_usb/built-in.o
                0x4a05bd1c                USBC_Dev_Ctrl_IsSetupEnd
 .text.USBC_Dev_Ctrl_ClearSetupEnd
                0x4a05bd34       0x1c drivers/sunxi_usb/built-in.o
                0x4a05bd34                USBC_Dev_Ctrl_ClearSetupEnd
 .text.USBC_Dev_WriteDataStatus
                0x4a05bd50       0x8c drivers/sunxi_usb/built-in.o
                0x4a05bd50                USBC_Dev_WriteDataStatus
 .text.USBC_Dev_ReadDataStatus
                0x4a05bddc       0x8c drivers/sunxi_usb/built-in.o
                0x4a05bddc                USBC_Dev_ReadDataStatus
 .text.USBC_Dev_IsReadDataReady
                0x4a05be68       0x40 drivers/sunxi_usb/built-in.o
                0x4a05be68                USBC_Dev_IsReadDataReady
 .text.USBC_Dev_IsWriteDataReady
                0x4a05bea8       0x44 drivers/sunxi_usb/built-in.o
                0x4a05bea8                USBC_Dev_IsWriteDataReady
 .text.USBC_Dma_Set_ChannalPara
                0x4a05beec       0x44 drivers/sunxi_usb/built-in.o
                0x4a05beec                USBC_Dma_Set_ChannalPara
 .text.USBC_Dma_Set_PktLen
                0x4a05bf30       0x40 drivers/sunxi_usb/built-in.o
                0x4a05bf30                USBC_Dma_Set_PktLen
 .text.USBC_Dma_Start
                0x4a05bf70       0x78 drivers/sunxi_usb/built-in.o
                0x4a05bf70                USBC_Dma_Start
 .text.USBC_Dma_Int_Stop
                0x4a05bfe8       0x34 drivers/sunxi_usb/built-in.o
                0x4a05bfe8                USBC_Dma_Int_Stop
 .text.USBC_Dma_Int_Query
                0x4a05c01c       0x1c drivers/sunxi_usb/built-in.o
                0x4a05c01c                USBC_Dma_Int_Query
 .text.USBC_Dma_Int_Clear
                0x4a05c038       0x24 drivers/sunxi_usb/built-in.o
                0x4a05c038                USBC_Dma_Int_Clear
 .text.timerX_callback_default
                0x4a05c05c       0x10 drivers/timer/built-in.o
 .text.timer1_func
                0x4a05c06c       0x60 drivers/timer/built-in.o
                0x4a05c06c                timer1_func
 .text.timer0_func
                0x4a05c0cc       0x60 drivers/timer/built-in.o
                0x4a05c0cc                timer0_func
 .text.timer_init
                0x4a05c12c       0x20 drivers/timer/built-in.o
                0x4a05c12c                timer_init
 .text.timer_exit
                0x4a05c14c       0x2c drivers/timer/built-in.o
                0x4a05c14c                timer_exit
 .text.get_tbclk
                0x4a05c178        0xc drivers/timer/built-in.o
                0x4a05c178                get_tbclk
 .text.__usdelay
                0x4a05c184       0x40 drivers/timer/built-in.o
                0x4a05c184                __usdelay
 .text.__msdelay
                0x4a05c1c4        0xc drivers/timer/built-in.o
                0x4a05c1c4                __msdelay
 .text.runtime_tick
                0x4a05c1d0       0x54 drivers/timer/built-in.o
                0x4a05c1d0                runtime_tick
 .text.get_timer_masked
                0x4a05c224        0x4 drivers/timer/built-in.o
                0x4a05c224                get_timer_masked
 .text.get_timer
                0x4a05c228       0x14 drivers/timer/built-in.o
                0x4a05c228                get_timer
 .text.get_ticks
                0x4a05c23c       0x10 drivers/timer/built-in.o
                0x4a05c23c                get_ticks
 .text.init_timer
                0x4a05c24c        0x4 drivers/timer/built-in.o
                0x4a05c24c                init_timer
 .text.add_timer
                0x4a05c250      0x11c drivers/timer/built-in.o
                0x4a05c250                add_timer
 .text.del_timer
                0x4a05c36c       0x7c drivers/timer/built-in.o
                0x4a05c36c                del_timer
 .text.handshake
                0x4a05c3e8       0x58 drivers/usb/host/built-in.o
 .text.ehci_td_buffer
                0x4a05c440       0x88 drivers/usb/host/built-in.o
 .text.ehci_submit_async
                0x4a05c4c8      0x5c8 drivers/usb/host/built-in.o
 .text.ehci_shutdown
                0x4a05ca90       0x98 drivers/usb/host/built-in.o
 .text.disable_periodic
                0x4a05cb28       0x4c drivers/usb/host/built-in.o
 .text.enable_periodic
                0x4a05cb74       0x54 drivers/usb/host/built-in.o
 .text.__ehci_powerup_fixup
                0x4a05cbc8        0x8 drivers/usb/host/built-in.o
                0x4a05cbc8                ehci_powerup_fixup
                0x4a05cbc8                __ehci_powerup_fixup
 .text.ehci_get_portsc_register
                0x4a05cbd0       0x14 drivers/usb/host/built-in.o
                0x4a05cbd0                ehci_get_portsc_register
 .text.ehci_submit_root
                0x4a05cbe4      0x4cc drivers/usb/host/built-in.o
                0x4a05cbe4                ehci_submit_root
 .text.usb_lowlevel_stop
                0x4a05d0b0       0x28 drivers/usb/host/built-in.o
                0x4a05d0b0                usb_lowlevel_stop
 .text.usb_lowlevel_init
                0x4a05d0d8      0x280 drivers/usb/host/built-in.o
                0x4a05d0d8                usb_lowlevel_init
 .text.submit_bulk_msg
                0x4a05d358       0x24 drivers/usb/host/built-in.o
                0x4a05d358                submit_bulk_msg
 .text.submit_control_msg
                0x4a05d37c       0x64 drivers/usb/host/built-in.o
                0x4a05d37c                submit_control_msg
 .text.create_int_queue
                0x4a05d3e0      0x324 drivers/usb/host/built-in.o
                0x4a05d3e0                create_int_queue
 .text.poll_int_queue
                0x4a05d704       0x4c drivers/usb/host/built-in.o
                0x4a05d704                poll_int_queue
 .text.destroy_int_queue
                0x4a05d750       0xd8 drivers/usb/host/built-in.o
                0x4a05d750                destroy_int_queue
 .text.submit_int_msg
                0x4a05d828       0xec drivers/usb/host/built-in.o
                0x4a05d828                submit_int_msg
 .text.config_usb_pin
                0x4a05d914       0x8c drivers/usb/host/built-in.o
                0x4a05d914                config_usb_pin
 .text.alloc_pin
                0x4a05d9a0       0x58 drivers/usb/host/built-in.o
                0x4a05d9a0                alloc_pin
 .text.free_pin
                0x4a05d9f8       0x2c drivers/usb/host/built-in.o
                0x4a05d9f8                free_pin
 .text.open_usb_clock
                0x4a05da24       0x70 drivers/usb/host/built-in.o
                0x4a05da24                open_usb_clock
 .text.close_usb_clock
                0x4a05da94       0x64 drivers/usb/host/built-in.o
                0x4a05da94                close_usb_clock
 .text.usb_passby
                0x4a05daf8       0x60 drivers/usb/host/built-in.o
                0x4a05daf8                usb_passby
 .text.sunxi_set_vbus
                0x4a05db58       0x20 drivers/usb/host/built-in.o
                0x4a05db58                sunxi_set_vbus
 .text.sunxi_start_ehci
                0x4a05db78       0x48 drivers/usb/host/built-in.o
                0x4a05db78                sunxi_start_ehci
 .text.sunxi_stop_ehci
                0x4a05dbc0       0x2c drivers/usb/host/built-in.o
                0x4a05dbc0                sunxi_stop_ehci
 .text.ehci_hcd_init
                0x4a05dbec       0xa8 drivers/usb/host/built-in.o
                0x4a05dbec                ehci_hcd_init
 .text.ehci_hcd_stop
                0x4a05dc94       0x34 drivers/usb/host/built-in.o
                0x4a05dc94                ehci_hcd_stop
 .text.fs_probe_unsupported
                0x4a05dcc8       0x18 fs/built-in.o
 .text.fs_ls_unsupported
                0x4a05dce0        0x8 fs/built-in.o
 .text.fs_exists_unsupported
                0x4a05dce8        0x8 fs/built-in.o
 .text.fs_read_unsupported
                0x4a05dcf0        0x8 fs/built-in.o
 .text.fs_write_unsupported
                0x4a05dcf8        0x8 fs/built-in.o
 .text.fs_close_unsupported
                0x4a05dd00        0x4 fs/built-in.o
 .text.fs_get_info
                0x4a05dd04       0x30 fs/built-in.o
 .text.fs_close
                0x4a05dd34       0x28 fs/built-in.o
 .text.fs_set_blk_dev
                0x4a05dd5c       0xac fs/built-in.o
                0x4a05dd5c                fs_set_blk_dev
 .text.fs_ls    0x4a05de08       0x3c fs/built-in.o
                0x4a05de08                fs_ls
 .text.fs_exists
                0x4a05de44       0x34 fs/built-in.o
                0x4a05de44                fs_exists
 .text.fs_read  0x4a05de78       0x80 fs/built-in.o
                0x4a05de78                fs_read
 .text.do_load  0x4a05def8      0x22c fs/built-in.o
                0x4a05def8                do_load
 .text.do_ls    0x4a05e124       0xd0 fs/built-in.o
                0x4a05e124                do_ls
 .text.file_exists
                0x4a05e1f4       0x2c fs/built-in.o
                0x4a05e1f4                file_exists
 .text.get_fs   0x4a05e220        0xc fs/built-in.o
                0x4a05e220                get_fs
 .text.ext4fs_free_node
                0x4a05e22c       0x20 fs/built-in.o
                0x4a05e22c                ext4fs_free_node
 .text.ext4fs_read_file
                0x4a05e24c      0x268 fs/built-in.o
                0x4a05e24c                ext4fs_read_file
 .text.ext4fs_ls
                0x4a05e4b4       0x74 fs/built-in.o
                0x4a05e4b4                ext4fs_ls
 .text.ext4fs_exists
                0x4a05e528       0x14 fs/built-in.o
                0x4a05e528                ext4fs_exists
 .text.ext4fs_read
                0x4a05e53c       0x38 fs/built-in.o
                0x4a05e53c                ext4fs_read
 .text.ext4fs_probe
                0x4a05e574       0x30 fs/built-in.o
                0x4a05e574                ext4fs_probe
 .text.ext4_read_file
                0x4a05e5a4       0x64 fs/built-in.o
                0x4a05e5a4                ext4_read_file
 .text.ext4fs_read_inode
                0x4a05e608      0x130 fs/built-in.o
                0x4a05e608                ext4fs_read_inode
 .text.read_allocated_block
                0x4a05e738      0x980 fs/built-in.o
                0x4a05e738                read_allocated_block
 .text.ext4fs_reinit_global
                0x4a05f0b8       0xbc fs/built-in.o
                0x4a05f0b8                ext4fs_reinit_global
 .text.ext4fs_close
                0x4a05f174       0x60 fs/built-in.o
                0x4a05f174                ext4fs_close
 .text.ext4fs_iterate_dir
                0x4a05f1d4      0x28c fs/built-in.o
                0x4a05f1d4                ext4fs_iterate_dir
 .text.ext4fs_find_file1
                0x4a05f460      0x2c0 fs/built-in.o
 .text.ext4fs_find_file
                0x4a05f720       0x70 fs/built-in.o
                0x4a05f720                ext4fs_find_file
 .text.ext4fs_open
                0x4a05f790       0x9c fs/built-in.o
                0x4a05f790                ext4fs_open
 .text.ext4fs_mount
                0x4a05f82c       0xc8 fs/built-in.o
                0x4a05f82c                ext4fs_mount
 .text.ext4fs_set_blk_dev
                0x4a05f8f4       0x6c fs/built-in.o
                0x4a05f8f4                ext4fs_set_blk_dev
 .text.ext4fs_devread
                0x4a05f960      0x260 fs/built-in.o
                0x4a05f960                ext4fs_devread
 .text.ext4_read_superblock
                0x4a05fbc0       0x3c fs/built-in.o
                0x4a05fbc0                ext4_read_superblock
 .text.downcase
                0x4a05fbfc       0x30 fs/built-in.o
 .text.disk_read
                0x4a05fc2c       0x5c fs/built-in.o
 .text.dirdelim
                0x4a05fc88       0x34 fs/built-in.o
 .text.get_fatent
                0x4a05fcbc      0x150 fs/built-in.o
 .text.mkcksum  0x4a05fe0c       0x54 fs/built-in.o
 .text.get_name
                0x4a05fe60       0xc4 fs/built-in.o
 .text.read_bootsectandvi
                0x4a05ff24      0x128 fs/built-in.o
 .text.get_cluster
                0x4a06004c      0x174 fs/built-in.o
 .text.slot2str
                0x4a0601c0       0xcc fs/built-in.o
 .text.get_vfatname
                0x4a06028c      0x1c8 fs/built-in.o
 .text.fat_set_blk_dev
                0x4a060454       0xcc fs/built-in.o
                0x4a060454                fat_set_blk_dev
 .text.do_fat_read_at
                0x4a060520      0xba0 fs/built-in.o
                0x4a060520                do_fat_read_at
 .text.do_fat_read
                0x4a0610c0       0x28 fs/built-in.o
                0x4a0610c0                do_fat_read
 .text.file_fat_detectfs
                0x4a0610e8      0x14c fs/built-in.o
                0x4a0610e8                file_fat_detectfs
 .text.file_fat_ls
                0x4a061234       0x10 fs/built-in.o
                0x4a061234                file_fat_ls
 .text.fat_exists
                0x4a061244       0x28 fs/built-in.o
                0x4a061244                fat_exists
 .text.file_fat_read_at
                0x4a06126c       0x48 fs/built-in.o
                0x4a06126c                file_fat_read_at
 .text.fat_read_file
                0x4a0612b4       0x3c fs/built-in.o
                0x4a0612b4                fat_read_file
 .text.fat_close
                0x4a0612f0        0x4 fs/built-in.o
                0x4a0612f0                fat_close
 .text.zcfree   0x4a0612f4        0x8 lib/built-in.o
                0x4a0612f4                zcfree
 .text.zcalloc  0x4a0612fc        0x8 lib/built-in.o
                0x4a0612fc                zcalloc
 .text.inflate_fast
                0x4a061304      0x5c8 lib/built-in.o
                0x4a061304                inflate_fast
 .text.inflate_table
                0x4a0618cc      0x5c0 lib/built-in.o
                0x4a0618cc                inflate_table
 .text.inflateReset
                0x4a061e8c       0x80 lib/built-in.o
                0x4a061e8c                inflateReset
 .text.inflateInit2_
                0x4a061f0c      0x104 lib/built-in.o
                0x4a061f0c                inflateInit2_
 .text.inflateEnd
                0x4a062010       0x6c lib/built-in.o
                0x4a062010                inflateEnd
 .text.adler32  0x4a06207c      0x2e8 lib/built-in.o
                0x4a06207c                adler32
 .text.inflate  0x4a062364     0x164c lib/built-in.o
                0x4a062364                inflate
 .text.fdtdec_get_int
                0x4a0639b0       0x30 lib/built-in.o
                0x4a0639b0                fdtdec_get_int
 .text.fdtdec_prepare_fdt
                0x4a0639e0       0x40 lib/built-in.o
                0x4a0639e0                fdtdec_prepare_fdt
 .text.fdtdec_check_fdt
                0x4a063a20       0x10 lib/built-in.o
                0x4a063a20                fdtdec_check_fdt
 .text.fdtdec_get_config_int
                0x4a063a30       0x40 lib/built-in.o
                0x4a063a30                fdtdec_get_config_int
 .text.gzfree   0x4a063a70        0x8 lib/built-in.o
                0x4a063a70                gzfree
 .text.gzalloc  0x4a063a78       0x10 lib/built-in.o
                0x4a063a78                gzalloc
 .text.zunzip   0x4a063a88      0x124 lib/built-in.o
                0x4a063a88                zunzip
 .text.gunzip   0x4a063bac       0xac lib/built-in.o
                0x4a063bac                gunzip
 .text.initcall_run_list
                0x4a063c58       0x5c lib/built-in.o
                0x4a063c58                initcall_run_list
 .text.lmb_add_region
                0x4a063cb4      0x1c8 lib/built-in.o
 .text.lmb_init
                0x4a063e7c       0x28 lib/built-in.o
                0x4a063e7c                lmb_init
 .text.lmb_add  0x4a063ea4        0x4 lib/built-in.o
                0x4a063ea4                lmb_add
 .text.lmb_free
                0x4a063ea8      0x124 lib/built-in.o
                0x4a063ea8                lmb_free
 .text.lmb_reserve
                0x4a063fcc        0x8 lib/built-in.o
                0x4a063fcc                lmb_reserve
 .text.lmb_overlaps_region
                0x4a063fd4       0x5c lib/built-in.o
                0x4a063fd4                lmb_overlaps_region
 .text.__lmb_alloc_base
                0x4a064030      0x130 lib/built-in.o
                0x4a064030                __lmb_alloc_base
 .text.lmb_alloc_base
                0x4a064160       0x34 lib/built-in.o
                0x4a064160                lmb_alloc_base
 .text.lmb_alloc
                0x4a064194        0x8 lib/built-in.o
                0x4a064194                lmb_alloc
 .text.__board_lmb_reserve
                0x4a06419c        0x4 lib/built-in.o
                0x4a06419c                __board_lmb_reserve
                0x4a06419c                board_lmb_reserve
 .text.qsort    0x4a0641a0       0xd0 lib/built-in.o
                0x4a0641a0                qsort
 .text.strcmp_compar
                0x4a064270        0xc lib/built-in.o
                0x4a064270                strcmp_compar
 .text.cmpkey   0x4a06427c       0x14 lib/built-in.o
 .text._hdelete.isra.1
                0x4a064290       0x50 lib/built-in.o
 .text.drop_var_from_set.part.2
                0x4a0642e0       0x50 lib/built-in.o
 .text.match_string.isra.3
                0x4a064330       0x64 lib/built-in.o
 .text.hcreate_r
                0x4a064394       0xac lib/built-in.o
                0x4a064394                hcreate_r
 .text.hdestroy_r
                0x4a064440       0x74 lib/built-in.o
                0x4a064440                hdestroy_r
 .text.hmatch_r
                0x4a0644b4       0xa0 lib/built-in.o
                0x4a0644b4                hmatch_r
 .text.hsearch_r
                0x4a064554      0x4a4 lib/built-in.o
                0x4a064554                hsearch_r
 .text.hdelete_r
                0x4a0649f8       0xe8 lib/built-in.o
                0x4a0649f8                hdelete_r
 .text.hexport_r
                0x4a064ae0      0x330 lib/built-in.o
                0x4a064ae0                hexport_r
 .text.himport_r
                0x4a064e10      0x32c lib/built-in.o
                0x4a064e10                himport_r
 .text.hwalk_r  0x4a06513c       0x58 lib/built-in.o
                0x4a06513c                hwalk_r
 .text.display_options
                0x4a065194       0x20 lib/built-in.o
                0x4a065194                display_options
 .text.print_size
                0x4a0651b4      0x134 lib/built-in.o
                0x4a0651b4                print_size
 .text.print_buffer
                0x4a0652e8      0x1a8 lib/built-in.o
                0x4a0652e8                print_buffer
 .text.crc32_no_comp
                0x4a065490       0xe0 lib/built-in.o
                0x4a065490                crc32_no_comp
 .text.crc32    0x4a065570       0x14 lib/built-in.o
                0x4a065570                crc32
 .text.crc32_wd
                0x4a065584        0x4 lib/built-in.o
                0x4a065584                crc32_wd
 .text.__div64_32
                0x4a065588       0xe8 lib/built-in.o
                0x4a065588                __div64_32
 .text.hang     0x4a065670       0x1c lib/built-in.o
                0x4a065670                hang
 .text.skip_spaces
                0x4a06568c       0x28 lib/built-in.o
                0x4a06568c                skip_spaces
 .text.strim    0x4a0656b4       0x58 lib/built-in.o
                0x4a0656b4                strim
 .text.strcpy   0x4a06570c       0x18 lib/built-in.o
                0x4a06570c                strcpy
 .text.strncpy  0x4a065724       0x24 lib/built-in.o
                0x4a065724                strncpy
 .text.strcat   0x4a065748       0x2c lib/built-in.o
                0x4a065748                strcat
 .text.strncat  0x4a065774       0x54 lib/built-in.o
                0x4a065774                strncat
 .text.strcmp   0x4a0657c8       0x28 lib/built-in.o
                0x4a0657c8                strcmp
 .text.strncmp  0x4a0657f0       0x44 lib/built-in.o
                0x4a0657f0                strncmp
 .text.strchr   0x4a065834       0x34 lib/built-in.o
                0x4a065834                strchr
 .text.strlen   0x4a065868       0x20 lib/built-in.o
                0x4a065868                strlen
 .text.strnlen  0x4a065888       0x2c lib/built-in.o
                0x4a065888                strnlen
 .text.strdup   0x4a0658b4       0x34 lib/built-in.o
                0x4a0658b4                strdup
 .text.strpbrk  0x4a0658e8       0x3c lib/built-in.o
                0x4a0658e8                strpbrk
 .text.memmove  0x4a065924       0x6c lib/built-in.o
                0x4a065924                memmove
 .text.memcmp   0x4a065990       0x34 lib/built-in.o
                0x4a065990                memcmp
 .text.strstr   0x4a0659c4       0x60 lib/built-in.o
                0x4a0659c4                strstr
 .text.memchr   0x4a065a24       0x30 lib/built-in.o
                0x4a065a24                memchr
 .text.__udelay
                0x4a065a54        0x4 lib/built-in.o
                0x4a065a54                __udelay
 .text.udelay   0x4a065a58       0x30 lib/built-in.o
                0x4a065a58                udelay
 .text.mdelay   0x4a065a88       0x24 lib/built-in.o
                0x4a065a88                mdelay
 .text.uuid_bin_to_str
                0x4a065aac       0xa4 lib/built-in.o
                0x4a065aac                uuid_bin_to_str
 .text.put_dec  0x4a065b50      0x1fc lib/built-in.o
 .text.number.isra.1
                0x4a065d4c      0x270 lib/built-in.o
 .text.vsnprintf_internal.isra.3
                0x4a065fbc      0x4a8 lib/built-in.o
 .text.simple_strtoul
                0x4a066464       0xac lib/built-in.o
                0x4a066464                simple_strtoul
 .text.strict_strtoul
                0x4a066510       0x78 lib/built-in.o
                0x4a066510                strict_strtoul
 .text.simple_strtol
                0x4a066588       0x28 lib/built-in.o
                0x4a066588                simple_strtol
 .text.simple_strtoull
                0x4a0665b0       0xf0 lib/built-in.o
                0x4a0665b0                simple_strtoull
 .text.vsprintf
                0x4a0666a0        0x4 lib/built-in.o
                0x4a0666a0                vsprintf
 .text.sprintf  0x4a0666a4       0x24 lib/built-in.o
                0x4a0666a4                sprintf
 .text.panic    0x4a0666c8       0x44 lib/built-in.o
                0x4a0666c8                panic
 .text.simple_itoa
                0x4a06670c       0x58 lib/built-in.o
                0x4a06670c                simple_itoa
 .text.fdt_check_header
                0x4a066764       0x74 lib/libfdt/built-in.o
                0x4a066764                fdt_check_header
 .text.fdt_offset_ptr
                0x4a0667d8       0x54 lib/libfdt/built-in.o
                0x4a0667d8                fdt_offset_ptr
 .text.fdt_next_tag
                0x4a06682c       0xf4 lib/libfdt/built-in.o
                0x4a06682c                fdt_next_tag
 .text._fdt_check_node_offset
                0x4a066920       0x34 lib/libfdt/built-in.o
                0x4a066920                _fdt_check_node_offset
 .text._fdt_check_prop_offset
                0x4a066954       0x34 lib/libfdt/built-in.o
                0x4a066954                _fdt_check_prop_offset
 .text.fdt_next_node
                0x4a066988       0xb8 lib/libfdt/built-in.o
                0x4a066988                fdt_next_node
 .text._fdt_find_string
                0x4a066a40       0x58 lib/libfdt/built-in.o
                0x4a066a40                _fdt_find_string
 .text.fdt_move
                0x4a066a98       0x44 lib/libfdt/built-in.o
                0x4a066a98                fdt_move
 .text._nextprop
                0x4a066adc       0x50 lib/libfdt/built-in.o
 .text.fdt_string
                0x4a066b2c       0x14 lib/libfdt/built-in.o
                0x4a066b2c                fdt_string
 .text.fdt_get_mem_rsv
                0x4a066b40       0x8c lib/libfdt/built-in.o
                0x4a066b40                fdt_get_mem_rsv
 .text.fdt_num_mem_rsv
                0x4a066bcc       0x5c lib/libfdt/built-in.o
                0x4a066bcc                fdt_num_mem_rsv
 .text.fdt_subnode_offset_namelen
                0x4a066c28       0xd0 lib/libfdt/built-in.o
                0x4a066c28                fdt_subnode_offset_namelen
 .text.fdt_subnode_offset
                0x4a066cf8       0x30 lib/libfdt/built-in.o
                0x4a066cf8                fdt_subnode_offset
 .text.fdt_get_name
                0x4a066d28       0x70 lib/libfdt/built-in.o
                0x4a066d28                fdt_get_name
 .text.fdt_first_property_offset
                0x4a066d98       0x20 lib/libfdt/built-in.o
                0x4a066d98                fdt_first_property_offset
 .text.fdt_next_property_offset
                0x4a066db8       0x20 lib/libfdt/built-in.o
                0x4a066db8                fdt_next_property_offset
 .text.fdt_get_property_by_offset
                0x4a066dd8       0x5c lib/libfdt/built-in.o
                0x4a066dd8                fdt_get_property_by_offset
 .text.fdt_get_property_namelen
                0x4a066e34       0xb8 lib/libfdt/built-in.o
                0x4a066e34                fdt_get_property_namelen
 .text.fdt_get_property
                0x4a066eec       0x38 lib/libfdt/built-in.o
                0x4a066eec                fdt_get_property
 .text.fdt_getprop_namelen
                0x4a066f24       0x1c lib/libfdt/built-in.o
                0x4a066f24                fdt_getprop_namelen
 .text.fdt_getprop
                0x4a066f40       0x38 lib/libfdt/built-in.o
                0x4a066f40                fdt_getprop
 .text.fdt_get_phandle
                0x4a066f78       0x6c lib/libfdt/built-in.o
                0x4a066f78                fdt_get_phandle
 .text.fdt_get_alias_namelen
                0x4a066fe4       0x40 lib/libfdt/built-in.o
                0x4a066fe4                fdt_get_alias_namelen
 .text.fdt_path_offset
                0x4a067024       0xe4 lib/libfdt/built-in.o
                0x4a067024                fdt_path_offset
 .text.fdt_get_path
                0x4a067108      0x138 lib/libfdt/built-in.o
                0x4a067108                fdt_get_path
 .text.fdt_supernode_atdepth_offset
                0x4a067240       0xb4 lib/libfdt/built-in.o
                0x4a067240                fdt_supernode_atdepth_offset
 .text.fdt_node_depth
                0x4a0672f4       0x24 lib/libfdt/built-in.o
                0x4a0672f4                fdt_node_depth
 .text.fdt_node_offset_by_phandle
                0x4a067318       0x70 lib/libfdt/built-in.o
                0x4a067318                fdt_node_offset_by_phandle
 .text._fdt_packblocks
                0x4a067388       0x8c lib/libfdt/built-in.o
 .text._fdt_splice
                0x4a067414       0x78 lib/libfdt/built-in.o
 .text._fdt_splice_struct
                0x4a06748c       0x4c lib/libfdt/built-in.o
 .text._fdt_splice_mem_rsv
                0x4a0674d8       0x58 lib/libfdt/built-in.o
 .text._fdt_add_property
                0x4a067530      0x124 lib/libfdt/built-in.o
 .text._fdt_blocks_misordered
                0x4a067654       0x6c lib/libfdt/built-in.o
 .text._fdt_rw_check_header
                0x4a0676c0       0x5c lib/libfdt/built-in.o
 .text.fdt_add_mem_rsv
                0x4a06771c       0xc4 lib/libfdt/built-in.o
                0x4a06771c                fdt_add_mem_rsv
 .text.fdt_del_mem_rsv
                0x4a0677e0       0x58 lib/libfdt/built-in.o
                0x4a0677e0                fdt_del_mem_rsv
 .text.fdt_setprop
                0x4a067838       0xd0 lib/libfdt/built-in.o
                0x4a067838                fdt_setprop
 .text.fdt_delprop
                0x4a067908       0x64 lib/libfdt/built-in.o
                0x4a067908                fdt_delprop
 .text.fdt_add_subnode_namelen
                0x4a06796c       0xf0 lib/libfdt/built-in.o
                0x4a06796c                fdt_add_subnode_namelen
 .text.fdt_add_subnode
                0x4a067a5c       0x30 lib/libfdt/built-in.o
                0x4a067a5c                fdt_add_subnode
 .text.fdt_del_node
                0x4a067a8c       0x5c lib/libfdt/built-in.o
                0x4a067a8c                fdt_del_node
 .text.fdt_open_into
                0x4a067ae8      0x198 lib/libfdt/built-in.o
                0x4a067ae8                fdt_open_into
 .text.fdt_strerror
                0x4a067c80       0x50 lib/libfdt/built-in.o
                0x4a067c80                fdt_strerror
 .text._fdt_node_end_offset
                0x4a067cd0       0x40 lib/libfdt/built-in.o
                0x4a067cd0                _fdt_node_end_offset
 .text.compare_regions
                0x4a067d10       0x84 memtest/built-in.o
                0x4a067d10                compare_regions
 .text.test_stuck_address
                0x4a067d94      0x124 memtest/built-in.o
                0x4a067d94                test_stuck_address
 .text.test_random_value
                0x4a067eb8       0xbc memtest/built-in.o
                0x4a067eb8                test_random_value
 .text.test_xor_comparison
                0x4a067f74       0x68 memtest/built-in.o
                0x4a067f74                test_xor_comparison
 .text.test_sub_comparison
                0x4a067fdc       0x68 memtest/built-in.o
                0x4a067fdc                test_sub_comparison
 .text.test_mul_comparison
                0x4a068044       0x68 memtest/built-in.o
                0x4a068044                test_mul_comparison
 .text.test_div_comparison
                0x4a0680ac       0x78 memtest/built-in.o
                0x4a0680ac                test_div_comparison
 .text.test_or_comparison
                0x4a068124       0x68 memtest/built-in.o
                0x4a068124                test_or_comparison
 .text.test_and_comparison
                0x4a06818c       0x68 memtest/built-in.o
                0x4a06818c                test_and_comparison
 .text.test_seqinc_comparison
                0x4a0681f4       0x5c memtest/built-in.o
                0x4a0681f4                test_seqinc_comparison
 .text.test_solidbits_comparison
                0x4a068250       0xd4 memtest/built-in.o
                0x4a068250                test_solidbits_comparison
 .text.test_checkerboard_comparison
                0x4a068324       0xe0 memtest/built-in.o
                0x4a068324                test_checkerboard_comparison
 .text.test_blockseq_comparison
                0x4a068404       0xc8 memtest/built-in.o
                0x4a068404                test_blockseq_comparison
 .text.test_walkbits0_comparison
                0x4a0684cc       0xe4 memtest/built-in.o
                0x4a0684cc                test_walkbits0_comparison
 .text.test_walkbits1_comparison
                0x4a0685b0       0xe4 memtest/built-in.o
                0x4a0685b0                test_walkbits1_comparison
 .text.test_bitspread_comparison
                0x4a068694      0x140 memtest/built-in.o
                0x4a068694                test_bitspread_comparison
 .text.test_bitflip_comparison
                0x4a0687d4      0x100 memtest/built-in.o
                0x4a0687d4                test_bitflip_comparison
 .text.NAND_set_boot_mode
                0x4a0688d4       0x14 nand_sunxi/built-in.o
                0x4a0688d4                NAND_set_boot_mode
 .text.NAND_Print
                0x4a0688e8       0x3c nand_sunxi/built-in.o
                0x4a0688e8                NAND_Print
 .text.NAND_Print_DBG
                0x4a068924       0x4c nand_sunxi/built-in.o
                0x4a068924                NAND_Print_DBG
 .text.NAND_CleanFlushDCacheRegion
                0x4a068970       0x10 nand_sunxi/built-in.o
                0x4a068970                NAND_CleanFlushDCacheRegion
 .text.NAND_DMASingleMap
                0x4a068980        0x8 nand_sunxi/built-in.o
                0x4a068980                NAND_DMASingleMap
 .text.NAND_DMASingleUnmap
                0x4a068988        0x8 nand_sunxi/built-in.o
                0x4a068988                NAND_DMASingleUnmap
 .text._Getpll6Clk
                0x4a068990       0x38 nand_sunxi/built-in.o
                0x4a068990                _Getpll6Clk
 .text._get_ndfc_clk_v1
                0x4a0689c8       0x88 nand_sunxi/built-in.o
                0x4a0689c8                _get_ndfc_clk_v1
 .text._change_ndfc_clk_v1
                0x4a068a50      0x12c nand_sunxi/built-in.o
                0x4a068a50                _change_ndfc_clk_v1
 .text._close_ndfc_clk_v1
                0x4a068b7c       0x5c nand_sunxi/built-in.o
                0x4a068b7c                _close_ndfc_clk_v1
 .text._open_ndfc_ahb_gate_and_reset_v1
                0x4a068bd8       0x98 nand_sunxi/built-in.o
                0x4a068bd8                _open_ndfc_ahb_gate_and_reset_v1
 .text._close_ndfc_ahb_gate_and_reset_v1
                0x4a068c70       0x6c nand_sunxi/built-in.o
                0x4a068c70                _close_ndfc_ahb_gate_and_reset_v1
 .text.NAND_ClkRequest
                0x4a068cdc       0x5c nand_sunxi/built-in.o
                0x4a068cdc                NAND_ClkRequest
 .text.NAND_ClkRelease
                0x4a068d38       0x34 nand_sunxi/built-in.o
                0x4a068d38                NAND_ClkRelease
 .text.NAND_SetClk
                0x4a068d6c       0x54 nand_sunxi/built-in.o
                0x4a068d6c                NAND_SetClk
 .text.NAND_GetClk
                0x4a068dc0       0x2c nand_sunxi/built-in.o
                0x4a068dc0                NAND_GetClk
 .text.NAND_PIORequest
                0x4a068dec       0x70 nand_sunxi/built-in.o
                0x4a068dec                NAND_PIORequest
 .text.NAND_PIORelease
                0x4a068e5c        0x4 nand_sunxi/built-in.o
                0x4a068e5c                NAND_PIORelease
 .text.NAND_Memset
                0x4a068e60        0x4 nand_sunxi/built-in.o
                0x4a068e60                NAND_Memset
 .text.NAND_Memcpy
                0x4a068e64        0x4 nand_sunxi/built-in.o
                0x4a068e64                NAND_Memcpy
 .text.NAND_Malloc
                0x4a068e68       0x34 nand_sunxi/built-in.o
                0x4a068e68                NAND_Malloc
 .text.NAND_Free
                0x4a068e9c        0x4 nand_sunxi/built-in.o
                0x4a068e9c                NAND_Free
 .text.NAND_GetIOBaseAddrCH0
                0x4a068ea0        0xc nand_sunxi/built-in.o
                0x4a068ea0                NAND_GetIOBaseAddrCH0
 .text.NAND_GetIOBaseAddrCH1
                0x4a068eac        0xc nand_sunxi/built-in.o
                0x4a068eac                NAND_GetIOBaseAddrCH1
 .text.NAND_GetNdfcVersion
                0x4a068eb8        0x8 nand_sunxi/built-in.o
                0x4a068eb8                NAND_GetNdfcVersion
 .text.NAND_GetNdfcDmaMode
                0x4a068ec0        0x8 nand_sunxi/built-in.o
                0x4a068ec0                NAND_GetNdfcDmaMode
 .text.NAND_PhysicLock
                0x4a068ec8        0x8 nand_sunxi/built-in.o
                0x4a068ec8                NAND_PhysicLock
 .text.NAND_PhysicUnLock
                0x4a068ed0        0x8 nand_sunxi/built-in.o
                0x4a068ed0                NAND_PhysicUnLock
 .text.NAND_GetMaxChannelCnt
                0x4a068ed8        0x8 nand_sunxi/built-in.o
                0x4a068ed8                NAND_GetMaxChannelCnt
 .text.nand_request_dma
                0x4a068ee0       0x4c nand_sunxi/built-in.o
                0x4a068ee0                nand_request_dma
 .text.NAND_ReleaseDMA
                0x4a068f2c       0x3c nand_sunxi/built-in.o
                0x4a068f2c                NAND_ReleaseDMA
 .text.nand_dma_config_start
                0x4a068f68      0x164 nand_sunxi/built-in.o
                0x4a068f68                nand_dma_config_start
 .text.NAND_GetNandExtPara
                0x4a0690cc      0x10c nand_sunxi/built-in.o
                0x4a0690cc                NAND_GetNandExtPara
 .text.NAND_GetNandIDNumCtrl
                0x4a0691d8       0x74 nand_sunxi/built-in.o
                0x4a0691d8                NAND_GetNandIDNumCtrl
 .text.NAND_GetNandCapacityLevel
                0x4a06924c       0x74 nand_sunxi/built-in.o
                0x4a06924c                NAND_GetNandCapacityLevel
 .text.nand_rb_wait_time_out
                0x4a0692c0        0x8 nand_sunxi/built-in.o
                0x4a0692c0                nand_rb_wait_time_out
 .text.nand_dma_wait_time_out
                0x4a0692c8        0x8 nand_sunxi/built-in.o
                0x4a0692c8                nand_dma_wait_time_out
 .text.NAND_GetVoltage
                0x4a0692d0        0x8 nand_sunxi/built-in.o
                0x4a0692d0                NAND_GetVoltage
 .text.NAND_ReleaseVoltage
                0x4a0692d8        0x8 nand_sunxi/built-in.o
                0x4a0692d8                NAND_ReleaseVoltage
 .text.NAND_Print_Version
                0x4a0692e0       0x2c nand_sunxi/built-in.o
                0x4a0692e0                NAND_Print_Version
 .text.NAND_PhyInit
                0x4a06930c       0x44 nand_sunxi/built-in.o
                0x4a06930c                NAND_PhyInit
 .text.NAND_PhyExit
                0x4a069350       0x1c nand_sunxi/built-in.o
                0x4a069350                NAND_PhyExit
 .text.NAND_LogicInit
                0x4a06936c      0x1d4 nand_sunxi/built-in.o
                0x4a06936c                NAND_LogicInit
 .text.NAND_LogicExit
                0x4a069540       0x2c nand_sunxi/built-in.o
                0x4a069540                NAND_LogicExit
 .text.NAND_VersionGet
                0x4a06956c       0x34 nand_sunxi/built-in.o
                0x4a06956c                NAND_VersionGet
 .text.NAND_VersionCheck
                0x4a0695a0      0x178 nand_sunxi/built-in.o
                0x4a0695a0                NAND_VersionCheck
 .text.NAND_EraseBootBlocks
                0x4a069718       0x40 nand_sunxi/built-in.o
                0x4a069718                NAND_EraseBootBlocks
 .text.NAND_EraseChip
                0x4a069758        0x8 nand_sunxi/built-in.o
                0x4a069758                NAND_EraseChip
 .text.NAND_EraseChip_force
                0x4a069760        0x8 nand_sunxi/built-in.o
                0x4a069760                NAND_EraseChip_force
 .text.NAND_UbootInit
                0x4a069768       0x68 nand_sunxi/built-in.o
                0x4a069768                NAND_UbootInit
 .text.NAND_UbootExit
                0x4a0697d0       0x18 nand_sunxi/built-in.o
                0x4a0697d0                NAND_UbootExit
 .text.NAND_UbootProbe
                0x4a0697e8       0x34 nand_sunxi/built-in.o
                0x4a0697e8                NAND_UbootProbe
 .text.NAND_UbootRead
                0x4a06981c        0x4 nand_sunxi/built-in.o
                0x4a06981c                NAND_UbootRead
 .text.NAND_UbootWrite
                0x4a069820        0x4 nand_sunxi/built-in.o
                0x4a069820                NAND_UbootWrite
 .text.NAND_Uboot_Erase
                0x4a069824       0xa8 nand_sunxi/built-in.o
                0x4a069824                NAND_Uboot_Erase
 .text.NAND_Uboot_Force_Erase
                0x4a0698cc       0x40 nand_sunxi/built-in.o
                0x4a0698cc                NAND_Uboot_Force_Erase
 .text.NAND_BurnBoot0
                0x4a06990c       0x10 nand_sunxi/built-in.o
                0x4a06990c                NAND_BurnBoot0
 .text.NAND_ReadBoot0
                0x4a06991c       0x10 nand_sunxi/built-in.o
                0x4a06991c                NAND_ReadBoot0
 .text.NAND_BurnUboot
                0x4a06992c       0x10 nand_sunxi/built-in.o
                0x4a06992c                NAND_BurnUboot
 .text.NAND_GetParam_store
                0x4a06993c       0x8c nand_sunxi/built-in.o
                0x4a06993c                NAND_GetParam_store
 .text.NAND_FlushCache
                0x4a0699c8        0x4 nand_sunxi/built-in.o
                0x4a0699c8                NAND_FlushCache
 .text.nand_cfg_interface
                0x4a0699cc        0x8 nand_sunxi/built-in.o
                0x4a0699cc                nand_cfg_interface
 .text.nand_wait_rb_before
                0x4a0699d4        0x8 nand_sunxi/built-in.o
                0x4a0699d4                nand_wait_rb_before
 .text.nand_wait_rb_mode
                0x4a0699dc        0x8 nand_sunxi/built-in.o
                0x4a0699dc                nand_wait_rb_mode
 .text.nand_wait_dma_mode
                0x4a0699e4        0x8 nand_sunxi/built-in.o
                0x4a0699e4                nand_wait_dma_mode
 .text.nand_support_two_plane
                0x4a0699ec        0x8 nand_sunxi/built-in.o
                0x4a0699ec                nand_support_two_plane
 .text.nand_support_vertical_interleave
                0x4a0699f4        0x8 nand_sunxi/built-in.o
                0x4a0699f4                nand_support_vertical_interleave
 .text.nand_support_dual_channel
                0x4a0699fc        0x8 nand_sunxi/built-in.o
                0x4a0699fc                nand_support_dual_channel
 .text.nand_get_mbr
                0x4a069a04      0x1d0 nand_sunxi/built-in.o
                0x4a069a04                nand_get_mbr
 .text.nand_uboot_init
                0x4a069bd4       0x5c nand_sunxi/built-in.o
                0x4a069bd4                nand_uboot_init
 .text.nand_uboot_init_force_sprite
                0x4a069c30       0x34 nand_sunxi/built-in.o
                0x4a069c30                nand_uboot_init_force_sprite
 .text.nand_uboot_exit
                0x4a069c64       0x68 nand_sunxi/built-in.o
                0x4a069c64                nand_uboot_exit
 .text.nand_uboot_probe
                0x4a069ccc        0x4 nand_sunxi/built-in.o
                0x4a069ccc                nand_uboot_probe
 .text.nand_uboot_read
                0x4a069cd0       0x1c nand_sunxi/built-in.o
                0x4a069cd0                nand_uboot_read
 .text.nand_uboot_write
                0x4a069cec       0x1c nand_sunxi/built-in.o
                0x4a069cec                nand_uboot_write
 .text.nand_read_boot0
                0x4a069d08       0x10 nand_sunxi/built-in.o
                0x4a069d08                nand_read_boot0
 .text.nand_verify_boot0
                0x4a069d18      0x170 nand_sunxi/built-in.o
                0x4a069d18                nand_verify_boot0
 .text.nand_download_boot0
                0x4a069e88       0x68 nand_sunxi/built-in.o
                0x4a069e88                nand_download_boot0
 .text.nand_verify_uboot
                0x4a069ef0      0x180 nand_sunxi/built-in.o
                0x4a069ef0                nand_verify_uboot
 .text.nand_download_uboot
                0x4a06a070       0x70 nand_sunxi/built-in.o
                0x4a06a070                nand_download_uboot
 .text.nand_force_download_uboot
                0x4a06a0e0       0x48 nand_sunxi/built-in.o
                0x4a06a0e0                nand_force_download_uboot
 .text.nand_uboot_erase
                0x4a06a128        0x4 nand_sunxi/built-in.o
                0x4a06a128                nand_uboot_erase
 .text.nand_uboot_get_flash_info
                0x4a06a12c        0x4 nand_sunxi/built-in.o
                0x4a06a12c                nand_uboot_get_flash_info
 .text.nand_uboot_get_flash_size
                0x4a06a130        0x4 nand_sunxi/built-in.o
                0x4a06a130                nand_uboot_get_flash_size
 .text.nand_uboot_flush
                0x4a06a134        0x4 nand_sunxi/built-in.o
                0x4a06a134                nand_uboot_flush
 .text.__mbr_map_dump
                0x4a06a138      0x1d8 sprite/built-in.o
 .text.add_sum  0x4a06a310       0x70 sprite/built-in.o
                0x4a06a310                add_sum
 .text.sunxi_sprite_part_rawdata_verify
                0x4a06a380       0xf8 sprite/built-in.o
                0x4a06a380                sunxi_sprite_part_rawdata_verify
 .text.sunxi_sprite_part_sparsedata_verify
                0x4a06a478        0x4 sprite/built-in.o
                0x4a06a478                sunxi_sprite_part_sparsedata_verify
 .text.sunxi_sprite_generate_checksum
                0x4a06a47c        0x4 sprite/built-in.o
                0x4a06a47c                sunxi_sprite_generate_checksum
 .text.sunxi_sprite_verify_checksum
                0x4a06a480        0x4 sprite/built-in.o
                0x4a06a480                sunxi_sprite_verify_checksum
 .text.sunxi_sprite_verify_mbr
                0x4a06a484       0x9c sprite/built-in.o
                0x4a06a484                sunxi_sprite_verify_mbr
 .text.sunxi_sprite_get_one_valid_mbr
                0x4a06a520       0xac sprite/built-in.o
                0x4a06a520                sunxi_sprite_get_one_valid_mbr
 .text.sunxi_sprite_read_mbr
                0x4a06a5cc       0x6c sprite/built-in.o
                0x4a06a5cc                sunxi_sprite_read_mbr
 .text.sunxi_sprite_verify_mbr_from_flash
                0x4a06a638       0xb4 sprite/built-in.o
                0x4a06a638                sunxi_sprite_verify_mbr_from_flash
 .text.sunxi_sprite_verify_dlmap
                0x4a06a6ec       0x58 sprite/built-in.o
                0x4a06a6ec                sunxi_sprite_verify_dlmap
 .text.__download_normal_part
                0x4a06a744      0x5f8 sprite/built-in.o
 .text.sprite_card_firmware_start
                0x4a06ad3c        0x8 sprite/built-in.o
                0x4a06ad3c                sprite_card_firmware_start
 .text.sprite_card_firmware_probe
                0x4a06ad44       0x24 sprite/built-in.o
                0x4a06ad44                sprite_card_firmware_probe
 .text.sprite_card_fetch_download_map
                0x4a06ad68       0x90 sprite/built-in.o
                0x4a06ad68                sprite_card_fetch_download_map
 .text.sprite_card_fetch_mbr
                0x4a06adf8       0xa0 sprite/built-in.o
                0x4a06adf8                sprite_card_fetch_mbr
 .text.sunxi_sprite_deal_part
                0x4a06ae98      0x654 sprite/built-in.o
                0x4a06ae98                sunxi_sprite_deal_part
 .text.sunxi_sprite_deal_uboot
                0x4a06b4ec      0x13c sprite/built-in.o
                0x4a06b4ec                sunxi_sprite_deal_uboot
 .text.sunxi_sprite_deal_boot0
                0x4a06b628      0x130 sprite/built-in.o
                0x4a06b628                sunxi_sprite_deal_boot0
 .text.sunxi_sprite_deal_recorvery_boot
                0x4a06b758      0x220 sprite/built-in.o
                0x4a06b758                sunxi_sprite_deal_recorvery_boot
 .text.card_verify_uboot
                0x4a06b978      0x174 sprite/built-in.o
                0x4a06b978                card_verify_uboot
 .text.card_download_uboot
                0x4a06baec       0x94 sprite/built-in.o
                0x4a06baec                card_download_uboot
 .text.card_verify_boot0
                0x4a06bb80      0x14c sprite/built-in.o
                0x4a06bb80                card_verify_boot0
 .text.card_download_boot0
                0x4a06bccc      0x154 sprite/built-in.o
                0x4a06bccc                card_download_boot0
 .text.card_erase
                0x4a06be20      0x2c0 sprite/built-in.o
                0x4a06be20                card_erase
 .text.sunxi_sprite_deal_part_from_sysrevoery
                0x4a06c0e0      0x1ac sprite/built-in.o
                0x4a06c0e0                sunxi_sprite_deal_part_from_sysrevoery
 .text.__imagehd
                0x4a06c28c       0x1c sprite/built-in.o
                0x4a06c28c                __imagehd
 .text.unsparse_probe
                0x4a06c2a8       0xbc sprite/built-in.o
                0x4a06c2a8                unsparse_probe
 .text.unsparse_direct_write
                0x4a06c364      0x3e0 sprite/built-in.o
                0x4a06c364                unsparse_direct_write
 .text.unsparse_checksum
                0x4a06c744       0x10 sprite/built-in.o
                0x4a06c744                unsparse_checksum
 .text.dump_dram_para
                0x4a06c754       0x38 sprite/built-in.o
                0x4a06c754                dump_dram_para
 .text.sunxi_sprite_download_uboot
                0x4a06c78c      0x1b0 sprite/built-in.o
                0x4a06c78c                sunxi_sprite_download_uboot
 .text.sunxi_sprite_download_boot0
                0x4a06c93c      0x3d4 sprite/built-in.o
                0x4a06c93c                sunxi_sprite_download_boot0
 .text.gpt_convert_to_sunxi_mbr
                0x4a06cd10      0x4ec sprite/built-in.o
                0x4a06cd10                gpt_convert_to_sunxi_mbr
 .text.sunxi_mbr_convert_to_gpt
                0x4a06d1fc      0x81c sprite/built-in.o
                0x4a06d1fc                sunxi_mbr_convert_to_gpt
 .text.down_primary_gpt_for_sdmmc
                0x4a06da18       0xa4 sprite/built-in.o
                0x4a06da18                down_primary_gpt_for_sdmmc
 .text.download_standard_gpt
                0x4a06dabc       0xcc sprite/built-in.o
                0x4a06dabc                download_standard_gpt
 .text.sunxi_sprite_download_mbr
                0x4a06db88       0xe8 sprite/built-in.o
                0x4a06db88                sunxi_sprite_download_mbr
 .text.card0_convert_to_gpt
                0x4a06dc70       0xe8 sprite/built-in.o
                0x4a06dc70                card0_convert_to_gpt
 .text.Img_Open
                0x4a06dd58      0x144 sprite/built-in.o
                0x4a06dd58                Img_Open
 .text.Img_GetSize
                0x4a06de9c       0x6c sprite/built-in.o
                0x4a06de9c                Img_GetSize
 .text.Img_OpenItem
                0x4a06df08      0x110 sprite/built-in.o
                0x4a06df08                Img_OpenItem
 .text.Img_GetItemSize
                0x4a06e018       0x9c sprite/built-in.o
                0x4a06e018                Img_GetItemSize
 .text.Img_GetItemStart
                0x4a06e0b4       0xd4 sprite/built-in.o
                0x4a06e0b4                Img_GetItemStart
 .text.Img_ReadItem
                0x4a06e188      0x160 sprite/built-in.o
                0x4a06e188                Img_ReadItem
 .text.Img_CloseItem
                0x4a06e2e8       0x2c sprite/built-in.o
                0x4a06e2e8                Img_CloseItem
 .text.Img_Close
                0x4a06e314       0x70 sprite/built-in.o
                0x4a06e314                Img_Close
 .text.sunxi_sprite_store_part_data
                0x4a06e384      0x2c8 sprite/built-in.o
                0x4a06e384                sunxi_sprite_store_part_data
 .text.sunxi_sprite_restore_part_data
                0x4a06e64c      0x200 sprite/built-in.o
                0x4a06e64c                sunxi_sprite_restore_part_data
 .text.sunxi_sprite_probe_prvt
                0x4a06e84c       0xa0 sprite/built-in.o
                0x4a06e84c                sunxi_sprite_probe_prvt
 .text.sunxi_sprite_erase_private_key
                0x4a06e8ec      0x198 sprite/built-in.o
                0x4a06e8ec                sunxi_sprite_erase_private_key
 .text.__dump_dlmap
                0x4a06ea84      0x1e0 sprite/built-in.o
                0x4a06ea84                __dump_dlmap
 .text.__dump_mbr
                0x4a06ec64      0x1d8 sprite/built-in.o
                0x4a06ec64                __dump_mbr
 .text.sunxi_card_sprite_main
                0x4a06ee3c      0x330 sprite/built-in.o
                0x4a06ee3c                sunxi_card_sprite_main
 .text.sunxi_sprite_erase_flash
                0x4a06f16c      0x328 sprite/built-in.o
                0x4a06f16c                sunxi_sprite_erase_flash
 .text.sunxi_sprite_force_erase_key
                0x4a06f494       0xac sprite/built-in.o
                0x4a06f494                sunxi_sprite_force_erase_key
 .text.Img_Open_from_sysrecovery
                0x4a06f540      0x104 sprite/built-in.o
                0x4a06f540                Img_Open_from_sysrecovery
 .text.card_part_info
                0x4a06f644      0x13c sprite/built-in.o
                0x4a06f644                card_part_info
 .text.sprite_form_sysrecovery
                0x4a06f780      0x254 sprite/built-in.o
                0x4a06f780                sprite_form_sysrecovery
 .text.sprite_timer_func
                0x4a06f9d4       0x54 sprite/built-in.o
 .text.sprite_led_init
                0x4a06fa28      0x100 sprite/built-in.o
                0x4a06fa28                sprite_led_init
 .text.sprite_led_exit
                0x4a06fb28       0xbc sprite/built-in.o
                0x4a06fb28                sprite_led_exit
 .text.sunxi_efex_reset
                0x4a06fbe4       0x3c usb_sunxi/built-in.o
 .text.sunxi_efex_usb_rx_dma_isr
                0x4a06fc20       0x14 usb_sunxi/built-in.o
 .text.sunxi_efex_usb_tx_dma_isr
                0x4a06fc34        0x4 usb_sunxi/built-in.o
 .text.__sunxi_usb_efex_fill_status
                0x4a06fc38       0x48 usb_sunxi/built-in.o
 .text.sunxi_efex_exit
                0x4a06fc80       0x4c usb_sunxi/built-in.o
 .text.sunxi_efex_init
                0x4a06fccc       0xd8 usb_sunxi/built-in.o
 .text.__sunxi_usb_efex_op_cmd
                0x4a06fda4      0xae8 usb_sunxi/built-in.o
 .text.dram_data_recv_finish
                0x4a07088c      0x290 usb_sunxi/built-in.o
 .text.sunxi_efex_state_loop
                0x4a070b1c      0x71c usb_sunxi/built-in.o
 .text.sunxi_efex_standard_req_op
                0x4a071238      0x460 usb_sunxi/built-in.o
 .text.sunxi_efex_nonstandard_req_op
                0x4a071698       0x60 usb_sunxi/built-in.o
 .text.sunxi_fastboot_reset
                0x4a0716f8       0x20 usb_sunxi/built-in.o
 .text.sunxi_fastboot_nonstandard_req_op
                0x4a071718        0x8 usb_sunxi/built-in.o
 .text.sunxi_fastboot_usb_tx_dma_isr
                0x4a071720        0xc usb_sunxi/built-in.o
 .text.sunxi_fastboot_usb_rx_dma_isr
                0x4a07172c       0x24 usb_sunxi/built-in.o
 .text.erase_userdata
                0x4a071750       0x98 usb_sunxi/built-in.o
 .text.sunxi_fastboot_exit
                0x4a0717e8       0x30 usb_sunxi/built-in.o
 .text.__fastboot_reboot
                0x4a071818       0x44 usb_sunxi/built-in.o
 .text.__limited_fastboot
                0x4a07185c       0x50 usb_sunxi/built-in.o
 .text.sunxi_fastboot_standard_req_op
                0x4a0718ac      0x4dc usb_sunxi/built-in.o
 .text.sunxi_fastboot_init
                0x4a071d88       0xd4 usb_sunxi/built-in.o
 .text.get_fastboot_data_flag
                0x4a071e5c       0x18 usb_sunxi/built-in.o
                0x4a071e5c                get_fastboot_data_flag
 .text.sunxi_secure_storage_init
                0x4a071e74        0x8 usb_sunxi/built-in.o
                0x4a071e74                sunxi_secure_storage_init
 .text.sunxi_secure_storage_exit
                0x4a071e7c        0x8 usb_sunxi/built-in.o
                0x4a071e7c                sunxi_secure_storage_exit
 .text.sunxi_secure_object_read
                0x4a071e84        0x8 usb_sunxi/built-in.o
                0x4a071e84                sunxi_secure_object_read
 .text.sunxi_secure_object_write
                0x4a071e8c        0x8 usb_sunxi/built-in.o
                0x4a071e8c                sunxi_secure_object_write
 .text.unlikely.sunxi_fastboot_write_status_flag
                0x4a071e94       0xd0 usb_sunxi/built-in.o
 .text.sunxi_oem_op_lock
                0x4a071f64      0x10c usb_sunxi/built-in.o
                0x4a071f64                sunxi_oem_op_lock
 .text.sunxi_fastboot_status_read
                0x4a072070      0x160 usb_sunxi/built-in.o
                0x4a072070                sunxi_fastboot_status_read
 .text.sunxi_fastboot_status
                0x4a0721d0       0x38 usb_sunxi/built-in.o
 .text.sunxi_fastboot_state_loop
                0x4a072208      0xfac usb_sunxi/built-in.o
 .text.sunxi_pburn_reset
                0x4a0731b4       0x20 usb_sunxi/built-in.o
 .text.sunxi_pburn_usb_rx_dma_isr
                0x4a0731d4       0x14 usb_sunxi/built-in.o
 .text.sunxi_pburn_usb_tx_dma_isr
                0x4a0731e8        0x4 usb_sunxi/built-in.o
 .text.sunxi_pburn_exit
                0x4a0731ec       0x48 usb_sunxi/built-in.o
 .text.sunxi_pburn_standard_req_op
                0x4a073234      0x458 usb_sunxi/built-in.o
 .text.sunxi_pburn_init
                0x4a07368c       0x94 usb_sunxi/built-in.o
 .text.sunxi_pburn_nonstandard_req_op
                0x4a073720       0x60 usb_sunxi/built-in.o
 .text.sunxi_verify_rotpk_hash
                0x4a073780       0x20 usb_sunxi/built-in.o
                0x4a073780                sunxi_verify_rotpk_hash
 .text.sunxi_deal_hdcp_key
                0x4a0737a0       0x20 usb_sunxi/built-in.o
                0x4a0737a0                sunxi_deal_hdcp_key
 .text.sunxi_secure_object_down
                0x4a0737c0       0x20 usb_sunxi/built-in.o
                0x4a0737c0                sunxi_secure_object_down
 .text.set_usb_burn_boot_init_flag
                0x4a0737e0       0x14 usb_sunxi/built-in.o
                0x4a0737e0                set_usb_burn_boot_init_flag
 .text.__sunxi_burn_key
                0x4a0737f4      0x364 usb_sunxi/built-in.o
                0x4a0737f4                __sunxi_burn_key
 .text.__sunxi_read_key_by_name
                0x4a073b58      0x218 usb_sunxi/built-in.o
                0x4a073b58                __sunxi_read_key_by_name
 .text.__sunxi_erase_key
                0x4a073d70       0x2c usb_sunxi/built-in.o
                0x4a073d70                __sunxi_erase_key
 .text.__sunxi_burn_flag
                0x4a073d9c       0xac usb_sunxi/built-in.o
                0x4a073d9c                __sunxi_burn_flag
 .text.sunxi_burn_part_verify
                0x4a073e48       0x94 usb_sunxi/built-in.o
                0x4a073e48                sunxi_burn_part_verify
 .text.burn_part_probe
                0x4a073edc      0x1a4 usb_sunxi/built-in.o
                0x4a073edc                burn_part_probe
 .text.sunxi_pburn_state_loop
                0x4a074080     0x1250 usb_sunxi/built-in.o
 .text.sunxi_usb_dev_register
                0x4a0752d0       0x54 usb_sunxi/built-in.o
                0x4a0752d0                sunxi_usb_dev_register
 .text.__usb_bulk_ep_reset
                0x4a075324       0xe4 usb_sunxi/built-in.o
 .text.__usb_readcomplete.constprop.5
                0x4a075408       0x38 usb_sunxi/built-in.o
 .text.__usb_read_ep0_data
                0x4a075440       0x98 usb_sunxi/built-in.o
 .text.__usb_writecomplete.constprop.4
                0x4a0754d8       0x4c usb_sunxi/built-in.o
 .text.sunxi_usb_irq
                0x4a075524      0x7dc usb_sunxi/built-in.o
                0x4a075524                sunxi_usb_irq
 .text.otg_phy_config
                0x4a075d00        0xc usb_sunxi/built-in.o
                0x4a075d00                otg_phy_config
 .text.sunxi_usb_init
                0x4a075d0c      0x2c0 usb_sunxi/built-in.o
                0x4a075d0c                sunxi_usb_init
 .text.sunxi_usb_exit
                0x4a075fcc       0xa4 usb_sunxi/built-in.o
                0x4a075fcc                sunxi_usb_exit
 .text.sunxi_udc_ep_reset
                0x4a076070        0x4 usb_sunxi/built-in.o
                0x4a076070                sunxi_udc_ep_reset
 .text.sunxi_udc_start_recv_by_dma
                0x4a076074       0x94 usb_sunxi/built-in.o
                0x4a076074                sunxi_udc_start_recv_by_dma
 .text.sunxi_udc_send_setup
                0x4a076108       0x48 usb_sunxi/built-in.o
                0x4a076108                sunxi_udc_send_setup
 .text.sunxi_udc_set_configuration
                0x4a076150        0x8 usb_sunxi/built-in.o
                0x4a076150                sunxi_udc_set_configuration
 .text.sunxi_udc_set_address
                0x4a076158       0x28 usb_sunxi/built-in.o
                0x4a076158                sunxi_udc_set_address
 .text.sunxi_udc_send_data
                0x4a076180       0xa0 usb_sunxi/built-in.o
                0x4a076180                sunxi_udc_send_data
 .text.sunxi_udc_get_ep_max
                0x4a076220       0x10 usb_sunxi/built-in.o
                0x4a076220                sunxi_udc_get_ep_max
 .text.sunxi_udc_get_ep_in_type
                0x4a076230        0x8 usb_sunxi/built-in.o
                0x4a076230                sunxi_udc_get_ep_in_type
 .text.sunxi_udc_get_ep_out_type
                0x4a076238        0x8 usb_sunxi/built-in.o
                0x4a076238                sunxi_udc_get_ep_out_type
 .text.sunxi_usb_main_loop
                0x4a076240       0x7c usb_sunxi/built-in.o
                0x4a076240                sunxi_usb_main_loop
 .text.sunxi_usb_extern_loop
                0x4a0762bc       0x24 usb_sunxi/built-in.o
                0x4a0762bc                sunxi_usb_extern_loop
 .text.__usb_index_check
                0x4a0762e0       0x48 usb_sunxi/built-in.o
 .text.usb_dma_init
                0x4a076328       0x14 usb_sunxi/built-in.o
                0x4a076328                usb_dma_init
 .text.usb_dma_request
                0x4a07633c       0x3c usb_sunxi/built-in.o
                0x4a07633c                usb_dma_request
 .text.usb_dma_release
                0x4a076378       0x20 usb_sunxi/built-in.o
                0x4a076378                usb_dma_release
 .text.usb_dma_setting
                0x4a076398       0x3c usb_sunxi/built-in.o
                0x4a076398                usb_dma_setting
 .text.usb_dma_set_pktlen
                0x4a0763d4       0x34 usb_sunxi/built-in.o
                0x4a0763d4                usb_dma_set_pktlen
 .text.usb_dma_start
                0x4a076408       0x3c usb_sunxi/built-in.o
                0x4a076408                usb_dma_start
 .text.usb_dma_stop
                0x4a076444       0x2c usb_sunxi/built-in.o
                0x4a076444                usb_dma_stop
 .text.usb_dma_int_query
                0x4a076470       0x10 usb_sunxi/built-in.o
                0x4a076470                usb_dma_int_query
 .text.usb_dma_int_clear
                0x4a076480       0x10 usb_sunxi/built-in.o
                0x4a076480                usb_dma_int_clear
 .text.raise    0x4a076490       0x1c arch/arm/lib/eabi_compat.o
                0x4a076490                raise
 .text.__aeabi_unwind_cpp_pr0
                0x4a0764ac        0x4 arch/arm/lib/eabi_compat.o
                0x4a0764ac                __aeabi_unwind_cpp_pr0
 .text          0x4a0764b0      0x278 /home/taga/NuttX/brandy/gcc-linaro/bin/../lib/gcc/arm-linux-gnueabi/4.6.3/libgcc.a(_udivsi3.o)
                0x4a0764b0                __udivsi3
                0x4a0764b0                __aeabi_uidiv
                0x4a07670c                __aeabi_uidivmod
 .text          0x4a076728      0x2b0 /home/taga/NuttX/brandy/gcc-linaro/bin/../lib/gcc/arm-linux-gnueabi/4.6.3/libgcc.a(_divsi3.o)
                0x4a076728                __divsi3
                0x4a076728                __aeabi_idiv
                0x4a0769bc                __aeabi_idivmod
 .text          0x4a0769d8       0x18 /home/taga/NuttX/brandy/gcc-linaro/bin/../lib/gcc/arm-linux-gnueabi/4.6.3/libgcc.a(_lshrdi3.o)
                0x4a0769d8                __aeabi_llsr
                0x4a0769d8                __lshrdi3
 .text          0x4a0769f0       0x1c /home/taga/NuttX/brandy/gcc-linaro/bin/../lib/gcc/arm-linux-gnueabi/4.6.3/libgcc.a(_ashrdi3.o)
                0x4a0769f0                __aeabi_lasr
                0x4a0769f0                __ashrdi3
 .text          0x4a076a0c       0x18 /home/taga/NuttX/brandy/gcc-linaro/bin/../lib/gcc/arm-linux-gnueabi/4.6.3/libgcc.a(_ashldi3.o)
                0x4a076a0c                __aeabi_llsl
                0x4a076a0c                __ashldi3
 .text          0x4a076a24      0x370 /home/taga/NuttX/brandy/gcc-linaro/bin/../lib/gcc/arm-linux-gnueabi/4.6.3/libgcc.a(_arm_addsubdf3.o)
                0x4a076a24                __aeabi_drsub
                0x4a076a2c                __aeabi_dsub
                0x4a076a2c                __subdf3
                0x4a076a30                __adddf3
                0x4a076a30                __aeabi_dadd
                0x4a076ca8                __aeabi_ui2d
                0x4a076ca8                __floatunsidf
                0x4a076cc8                __aeabi_i2d
                0x4a076cc8                __floatsidf
                0x4a076cec                __extendsfdf2
                0x4a076cec                __aeabi_f2d
                0x4a076d28                __aeabi_ul2d
                0x4a076d28                __floatundidf
                0x4a076d38                __floatdidf
                0x4a076d38                __aeabi_l2d
 .text          0x4a076d94      0x424 /home/taga/NuttX/brandy/gcc-linaro/bin/../lib/gcc/arm-linux-gnueabi/4.6.3/libgcc.a(_arm_muldivdf3.o)
                0x4a076d94                __aeabi_dmul
                0x4a076d94                __muldf3
                0x4a076fe8                __aeabi_ddiv
                0x4a076fe8                __divdf3
 .text          0x4a0771b8       0x50 /home/taga/NuttX/brandy/gcc-linaro/bin/../lib/gcc/arm-linux-gnueabi/4.6.3/libgcc.a(_arm_fixdfsi.o)
                0x4a0771b8                __aeabi_d2iz
                0x4a0771b8                __fixdfsi
 .text          0x4a077208        0xc /home/taga/NuttX/brandy/gcc-linaro/bin/../lib/gcc/arm-linux-gnueabi/4.6.3/libgcc.a(_dvmd_lnx.o)
                0x4a077208                __aeabi_ldiv0
                0x4a077208                __aeabi_idiv0
 .text.add_free_list
                0x4a077214       0x48 nand_sunxi/sun8iw11p1/libnand-sun8iw11p1
                0x4a077214                add_free_list
 .text.del_free_list
                0x4a07725c       0x34 nand_sunxi/sun8iw11p1/libnand-sun8iw11p1
                0x4a07725c                del_free_list
 .text.del_free_list_by_block
                0x4a077290       0x48 nand_sunxi/sun8iw11p1/libnand-sun8iw11p1
                0x4a077290                del_free_list_by_block
 .text.is_block_in_free_list
                0x4a0772d8       0x28 nand_sunxi/sun8iw11p1/libnand-sun8iw11p1
                0x4a0772d8                is_block_in_free_list
 .text.print_free_list
                0x4a077300       0x6c nand_sunxi/sun8iw11p1/libnand-sun8iw11p1
                0x4a077300                print_free_list
 .text.add_block_invalid_list
                0x4a07736c       0x48 nand_sunxi/sun8iw11p1/libnand-sun8iw11p1
                0x4a07736c                add_block_invalid_list
 .text.del_block_invalid_list
                0x4a0773b4       0x2c nand_sunxi/sun8iw11p1/libnand-sun8iw11p1
                0x4a0773b4                del_block_invalid_list
 .text.del_block_invalid_list_by_block
                0x4a0773e0       0x48 nand_sunxi/sun8iw11p1/libnand-sun8iw11p1
                0x4a0773e0                del_block_invalid_list_by_block
 .text.is_block_in_invalid_list
                0x4a077428       0x28 nand_sunxi/sun8iw11p1/libnand-sun8iw11p1
                0x4a077428                is_block_in_invalid_list
 .text.print_block_invalid_list
                0x4a077450       0x70 nand_sunxi/sun8iw11p1/libnand-sun8iw11p1
                0x4a077450                print_block_invalid_list
 .text.add_block_count_list
                0x4a0774c0       0x48 nand_sunxi/sun8iw11p1/libnand-sun8iw11p1
                0x4a0774c0                add_block_count_list
 .text.put_phy_block_to_free_list
                0x4a077508       0x40 nand_sunxi/sun8iw11p1/libnand-sun8iw11p1
                0x4a077508                put_phy_block_to_free_list
 .text.out_phy_block_from_free_list
                0x4a077548       0x34 nand_sunxi/sun8iw11p1/libnand-sun8iw11p1
                0x4a077548                out_phy_block_from_free_list
 .text.out_phy_block_from_free_list_by_block
                0x4a07757c       0x34 nand_sunxi/sun8iw11p1/libnand-sun8iw11p1
                0x4a07757c                out_phy_block_from_free_list_by_block
 .text.out_phy_block_from_free_list_by_erase_time
                0x4a0775b0       0x54 nand_sunxi/sun8iw11p1/libnand-sun8iw11p1
                0x4a0775b0                out_phy_block_from_free_list_by_erase_time
 .text.put_phy_block_to_invalid_page_list
                0x4a077604       0x30 nand_sunxi/sun8iw11p1/libnand-sun8iw11p1
                0x4a077604                put_phy_block_to_invalid_page_list
 .text.out_phy_block_from_invalid_page_list
                0x4a077634       0x1c nand_sunxi/sun8iw11p1/libnand-sun8iw11p1
                0x4a077634                out_phy_block_from_invalid_page_list
 .text.out_phy_block_from_invalid_page_list_by_block
                0x4a077650       0x1c nand_sunxi/sun8iw11p1/libnand-sun8iw11p1
                0x4a077650                out_phy_block_from_invalid_page_list_by_block
 .text.phy_block_from_invalid_page_incr
                0x4a07766c       0xe0 nand_sunxi/sun8iw11p1/libnand-sun8iw11p1
                0x4a07766c                phy_block_from_invalid_page_incr
 .text.adjust_invaild_list
                0x4a07774c       0x48 nand_sunxi/sun8iw11p1/libnand-sun8iw11p1
                0x4a07774c                adjust_invaild_list
 .text._nftl_nand_read_logic_page
                0x4a077794       0xdc nand_sunxi/sun8iw11p1/libnand-sun8iw11p1
                0x4a077794                _nftl_nand_read_logic_page
 .text.do_write_error
                0x4a077870      0x1f8 nand_sunxi/sun8iw11p1/libnand-sun8iw11p1
                0x4a077870                do_write_error
 .text.write_phy_data_to_current_block
                0x4a077a68      0x1ac nand_sunxi/sun8iw11p1/libnand-sun8iw11p1
                0x4a077a68                write_phy_data_to_current_block
 .text.write_logic_data_to_current_block
                0x4a077c14      0x234 nand_sunxi/sun8iw11p1/libnand-sun8iw11p1
                0x4a077c14                write_logic_data_to_current_block
 .text.write_data_to_page
                0x4a077e48       0x70 nand_sunxi/sun8iw11p1/libnand-sun8iw11p1
                0x4a077e48                write_data_to_page
 .text._nftl_discard_logic_page
                0x4a077eb8       0x14 nand_sunxi/sun8iw11p1/libnand-sun8iw11p1
                0x4a077eb8                _nftl_discard_logic_page
 .text.get_new_current_block
                0x4a077ecc       0xc0 nand_sunxi/sun8iw11p1/libnand-sun8iw11p1
                0x4a077ecc                get_new_current_block
 .text.new_block_init_for_write
                0x4a077f8c       0xac nand_sunxi/sun8iw11p1/libnand-sun8iw11p1
                0x4a077f8c                new_block_init_for_write
 .text.do_before_write
                0x4a078038      0x104 nand_sunxi/sun8iw11p1/libnand-sun8iw11p1
                0x4a078038                do_before_write
 .text.check_invalid_page_right
                0x4a07813c       0xb0 nand_sunxi/sun8iw11p1/libnand-sun8iw11p1
                0x4a07813c                check_invalid_page_right
 .text.write_phy_page_map_to_current_block
                0x4a0781ec       0xbc nand_sunxi/sun8iw11p1/libnand-sun8iw11p1
                0x4a0781ec                write_phy_page_map_to_current_block
 .text.nftl_ops_init
                0x4a0782a8       0x70 nand_sunxi/sun8iw11p1/libnand-sun8iw11p1
                0x4a0782a8                nftl_ops_init
 .text.current_block_at_last_page
                0x4a078318       0x20 nand_sunxi/sun8iw11p1/libnand-sun8iw11p1
                0x4a078318                current_block_at_last_page
 .text.do_after_write
                0x4a078338       0xdc nand_sunxi/sun8iw11p1/libnand-sun8iw11p1
                0x4a078338                do_after_write
 .text.nand_write_data_page
                0x4a078414       0xb8 nand_sunxi/sun8iw11p1/libnand-sun8iw11p1
                0x4a078414                nand_write_data_page
 .text.nand_write_logic_page_no_gc
                0x4a0784cc       0x14 nand_sunxi/sun8iw11p1/libnand-sun8iw11p1
                0x4a0784cc                nand_write_logic_page_no_gc
 .text._nftl_nand_write_logic_page
                0x4a0784e0       0x48 nand_sunxi/sun8iw11p1/libnand-sun8iw11p1
                0x4a0784e0                _nftl_nand_write_logic_page
 .text.get_empty_gc_node
                0x4a078528       0x38 nand_sunxi/sun8iw11p1/libnand-sun8iw11p1
                0x4a078528                get_empty_gc_node
 .text.search_gc_node
                0x4a078560       0x24 nand_sunxi/sun8iw11p1/libnand-sun8iw11p1
                0x4a078560                search_gc_node
 .text.add_to_gc_list_tail
                0x4a078584       0x38 nand_sunxi/sun8iw11p1/libnand-sun8iw11p1
                0x4a078584                add_to_gc_list_tail
 .text.del_from_gc_list
                0x4a0785bc       0x3c nand_sunxi/sun8iw11p1/libnand-sun8iw11p1
                0x4a0785bc                del_from_gc_list
 .text.add_prio_gc
                0x4a0785f8       0x5c nand_sunxi/sun8iw11p1/libnand-sun8iw11p1
                0x4a0785f8                add_prio_gc
 .text.is_current_blcok
                0x4a078654       0x44 nand_sunxi/sun8iw11p1/libnand-sun8iw11p1
                0x4a078654                is_current_blcok
 .text.garbage_collect_first
                0x4a078698      0x414 nand_sunxi/sun8iw11p1/libnand-sun8iw11p1
                0x4a078698                garbage_collect_first
 .text.gc_one   0x4a078aac       0x70 nand_sunxi/sun8iw11p1/libnand-sun8iw11p1
                0x4a078aac                gc_one
 .text.gc_win_block
                0x4a078b1c       0x64 nand_sunxi/sun8iw11p1/libnand-sun8iw11p1
                0x4a078b1c                gc_win_block
 .text.garbage_collect
                0x4a078b80      0x144 nand_sunxi/sun8iw11p1/libnand-sun8iw11p1
                0x4a078b80                garbage_collect
 .text.do_prio_gc
                0x4a078cc4      0x19c nand_sunxi/sun8iw11p1/libnand-sun8iw11p1
                0x4a078cc4                do_prio_gc
 .text.power_on_gc
                0x4a078e60       0xcc nand_sunxi/sun8iw11p1/libnand-sun8iw11p1
                0x4a078e60                power_on_gc
 .text.all_time_gc
                0x4a078f2c       0x44 nand_sunxi/sun8iw11p1/libnand-sun8iw11p1
                0x4a078f2c                all_time_gc
 .text.nftl_cache_init
                0x4a078f70      0x120 nand_sunxi/sun8iw11p1/libnand-sun8iw11p1
                0x4a078f70                nftl_cache_init
 .text.search_from_cache_read_list
                0x4a079090       0x24 nand_sunxi/sun8iw11p1/libnand-sun8iw11p1
                0x4a079090                search_from_cache_read_list
 .text.search_from_cache_write_list
                0x4a0790b4       0x24 nand_sunxi/sun8iw11p1/libnand-sun8iw11p1
                0x4a0790b4                search_from_cache_write_list
 .text.add_to_cache_read_list_tail
                0x4a0790d8       0x4c nand_sunxi/sun8iw11p1/libnand-sun8iw11p1
                0x4a0790d8                add_to_cache_read_list_tail
 .text.add_to_cache_write_list_tail
                0x4a079124       0x40 nand_sunxi/sun8iw11p1/libnand-sun8iw11p1
                0x4a079124                add_to_cache_write_list_tail
 .text.del_from_cache_read_list
                0x4a079164       0x58 nand_sunxi/sun8iw11p1/libnand-sun8iw11p1
                0x4a079164                del_from_cache_read_list
 .text.del_from_cache_write_list
                0x4a0791bc       0x44 nand_sunxi/sun8iw11p1/libnand-sun8iw11p1
                0x4a0791bc                del_from_cache_write_list
 .text.get_empty_cahce_node
                0x4a079200       0x8c nand_sunxi/sun8iw11p1/libnand-sun8iw11p1
                0x4a079200                get_empty_cahce_node
 .text.nand_cache_read
                0x4a07928c      0x2a0 nand_sunxi/sun8iw11p1/libnand-sun8iw11p1
                0x4a07928c                nand_cache_read
 .text.nand_op  0x4a07952c      0x124 nand_sunxi/sun8iw11p1/libnand-sun8iw11p1
                0x4a07952c                nand_op
 .text.__nand_write
                0x4a079650       0x5c nand_sunxi/sun8iw11p1/libnand-sun8iw11p1
                0x4a079650                __nand_write
 .text.__nand_read
                0x4a0796ac       0x5c nand_sunxi/sun8iw11p1/libnand-sun8iw11p1
                0x4a0796ac                __nand_read
 .text.flush_write_cache_to_nand
                0x4a079708      0x104 nand_sunxi/sun8iw11p1/libnand-sun8iw11p1
                0x4a079708                flush_write_cache_to_nand
 .text.nand_cache_write
                0x4a07980c      0x394 nand_sunxi/sun8iw11p1/libnand-sun8iw11p1
                0x4a07980c                nand_cache_write
 .text.__nand_flush_write_cache
                0x4a079ba0       0x80 nand_sunxi/sun8iw11p1/libnand-sun8iw11p1
                0x4a079ba0                __nand_flush_write_cache
 .text.nand_discard
                0x4a079c20      0x148 nand_sunxi/sun8iw11p1/libnand-sun8iw11p1
                0x4a079c20                nand_discard
 .text.__nand_discard
                0x4a079d68       0x3c nand_sunxi/sun8iw11p1/libnand-sun8iw11p1
                0x4a079d68                __nand_discard
 .text.__shutdown_op
                0x4a079da4        0x8 nand_sunxi/sun8iw11p1/libnand-sun8iw11p1
                0x4a079da4                __shutdown_op
 .text.set_spare_data
                0x4a079dac       0x34 nand_sunxi/sun8iw11p1/libnand-sun8iw11p1
                0x4a079dac                set_spare_data
 .text.get_spare_data
                0x4a079de0       0x2c nand_sunxi/sun8iw11p1/libnand-sun8iw11p1
                0x4a079de0                get_spare_data
 .text.set_oob_logic_page
                0x4a079e0c       0x64 nand_sunxi/sun8iw11p1/libnand-sun8iw11p1
                0x4a079e0c                set_oob_logic_page
 .text.set_oob_special_page
                0x4a079e70       0x58 nand_sunxi/sun8iw11p1/libnand-sun8iw11p1
                0x4a079e70                set_oob_special_page
 .text.set_start_block_flag
                0x4a079ec8       0x54 nand_sunxi/sun8iw11p1/libnand-sun8iw11p1
                0x4a079ec8                set_start_block_flag
 .text.set_end_block_flag
                0x4a079f1c       0x3c nand_sunxi/sun8iw11p1/libnand-sun8iw11p1
                0x4a079f1c                set_end_block_flag
 .text.get_block_used_count_from_oob
                0x4a079f58        0xc nand_sunxi/sun8iw11p1/libnand-sun8iw11p1
                0x4a079f58                get_block_used_count_from_oob
 .text.get_logic_page_from_oob
                0x4a079f64       0x18 nand_sunxi/sun8iw11p1/libnand-sun8iw11p1
                0x4a079f64                get_logic_page_from_oob
 .text.get_special_data_from_oob
                0x4a079f7c        0xc nand_sunxi/sun8iw11p1/libnand-sun8iw11p1
                0x4a079f7c                get_special_data_from_oob
 .text._nftl_nand_copy_page
                0x4a079f88       0xb4 nand_sunxi/sun8iw11p1/libnand-sun8iw11p1
                0x4a079f88                _nftl_nand_copy_page
 .text.get_erase_count_from_oob
                0x4a07a03c       0x18 nand_sunxi/sun8iw11p1/libnand-sun8iw11p1
                0x4a07a03c                get_erase_count_from_oob
 .text.is_ftl_start_flag_page
                0x4a07a054       0x28 nand_sunxi/sun8iw11p1/libnand-sun8iw11p1
                0x4a07a054                is_ftl_start_flag_page
 .text.is_ftl_end_flag_page
                0x4a07a07c       0x28 nand_sunxi/sun8iw11p1/libnand-sun8iw11p1
                0x4a07a07c                is_ftl_end_flag_page
 .text.is_ftl_special_data
                0x4a07a0a4       0x14 nand_sunxi/sun8iw11p1/libnand-sun8iw11p1
                0x4a07a0a4                is_ftl_special_data
 .text.is_ftl_logic_page_data
                0x4a07a0b8       0x18 nand_sunxi/sun8iw11p1/libnand-sun8iw11p1
                0x4a07a0b8                is_ftl_logic_page_data
 .text.is_nouse_page
                0x4a07a0d0       0x44 nand_sunxi/sun8iw11p1/libnand-sun8iw11p1
                0x4a07a0d0                is_nouse_page
 .text.is_fill_page
                0x4a07a114       0x20 nand_sunxi/sun8iw11p1/libnand-sun8iw11p1
                0x4a07a114                is_fill_page
 .text.is_phy_mapping_page
                0x4a07a134       0x20 nand_sunxi/sun8iw11p1/libnand-sun8iw11p1
                0x4a07a134                is_phy_mapping_page
 .text.is_function_info_page
                0x4a07a154       0x28 nand_sunxi/sun8iw11p1/libnand-sun8iw11p1
                0x4a07a154                is_function_info_page
 .text.is_power_down_info_page
                0x4a07a17c       0x20 nand_sunxi/sun8iw11p1/libnand-sun8iw11p1
                0x4a07a17c                is_power_down_info_page
 .text.get_logic_page_map
                0x4a07a19c       0x1c nand_sunxi/sun8iw11p1/libnand-sun8iw11p1
                0x4a07a19c                get_logic_page_map
 .text.malloc_logic_page_map
                0x4a07a1b8       0xe4 nand_sunxi/sun8iw11p1/libnand-sun8iw11p1
                0x4a07a1b8                malloc_logic_page_map
 .text.set_physic_op_par
                0x4a07a29c       0x20 nand_sunxi/sun8iw11p1/libnand-sun8iw11p1
                0x4a07a29c                set_physic_op_par
 .text.zone_param_init
                0x4a07a2bc      0x2c8 nand_sunxi/sun8iw11p1/libnand-sun8iw11p1
                0x4a07a2bc                zone_param_init
 .text.init_zone_after_first_scan
                0x4a07a584      0x114 nand_sunxi/sun8iw11p1/libnand-sun8iw11p1
                0x4a07a584                init_zone_after_first_scan
 .text.recover_phy_page_mapping
                0x4a07a698      0x15c nand_sunxi/sun8iw11p1/libnand-sun8iw11p1
                0x4a07a698                recover_phy_page_mapping
 .text.recover_block_phy_page_mapping
                0x4a07a7f4       0xd0 nand_sunxi/sun8iw11p1/libnand-sun8iw11p1
                0x4a07a7f4                recover_block_phy_page_mapping
 .text.recover_logic_page_mapping
                0x4a07a8c4      0x140 nand_sunxi/sun8iw11p1/libnand-sun8iw11p1
                0x4a07a8c4                recover_logic_page_mapping
 .text.init_nrc
                0x4a07aa04       0xb0 nand_sunxi/sun8iw11p1/libnand-sun8iw11p1
                0x4a07aa04                init_nrc
 .text.free_nrc
                0x4a07aab4       0x40 nand_sunxi/sun8iw11p1/libnand-sun8iw11p1
                0x4a07aab4                free_nrc
 .text.mark_free_block
                0x4a07aaf4       0x88 nand_sunxi/sun8iw11p1/libnand-sun8iw11p1
                0x4a07aaf4                mark_free_block
 .text.erase_block
                0x4a07ab7c       0xdc nand_sunxi/sun8iw11p1/libnand-sun8iw11p1
                0x4a07ab7c                erase_block
 .text.first_scan_all_blocks
                0x4a07ac58      0x444 nand_sunxi/sun8iw11p1/libnand-sun8iw11p1
                0x4a07ac58                first_scan_all_blocks
 .text.is_last_phy_block
                0x4a07b09c       0x20 nand_sunxi/sun8iw11p1/libnand-sun8iw11p1
                0x4a07b09c                is_last_phy_block
 .text.build_zone_list_first
                0x4a07b0bc      0x2e4 nand_sunxi/sun8iw11p1/libnand-sun8iw11p1
                0x4a07b0bc                build_zone_list_first
 .text.is_no_use_device
                0x4a07b3a0      0x14c nand_sunxi/sun8iw11p1/libnand-sun8iw11p1
                0x4a07b3a0                is_no_use_device
 .text.get_phy_block_addr
                0x4a07b4ec       0x14 nand_sunxi/sun8iw11p1/libnand-sun8iw11p1
                0x4a07b4ec                get_phy_block_addr
 .text.get_used_page_num
                0x4a07b500      0x25c nand_sunxi/sun8iw11p1/libnand-sun8iw11p1
                0x4a07b500                get_used_page_num
 .text.cross_talk_rebuild_current_block
                0x4a07b75c      0x34c nand_sunxi/sun8iw11p1/libnand-sun8iw11p1
                0x4a07b75c                cross_talk_rebuild_current_block
 .text.get_used_page_num_no_crosstalk
                0x4a07baa8      0x210 nand_sunxi/sun8iw11p1/libnand-sun8iw11p1
                0x4a07baa8                get_used_page_num_no_crosstalk
 .text.no_cross_talk_rebuild_current_block
                0x4a07bcb8      0x3d8 nand_sunxi/sun8iw11p1/libnand-sun8iw11p1
                0x4a07bcb8                no_cross_talk_rebuild_current_block
 .text.init_smart_info
                0x4a07c090      0x11c nand_sunxi/sun8iw11p1/libnand-sun8iw11p1
                0x4a07c090                init_smart_info
 .text.current_block_ecc_error
                0x4a07c1ac      0x1a8 nand_sunxi/sun8iw11p1/libnand-sun8iw11p1
                0x4a07c1ac                current_block_ecc_error
 .text.get_current_used_block
                0x4a07c354      0x33c nand_sunxi/sun8iw11p1/libnand-sun8iw11p1
                0x4a07c354                get_current_used_block
 .text.second_scan_all_blocks
                0x4a07c690      0x648 nand_sunxi/sun8iw11p1/libnand-sun8iw11p1
                0x4a07c690                second_scan_all_blocks
 .text.print_nftl_zone
                0x4a07ccd8      0x440 nand_sunxi/sun8iw11p1/libnand-sun8iw11p1
                0x4a07ccd8                print_nftl_zone
 .text.build_zone_list
                0x4a07d118       0x80 nand_sunxi/sun8iw11p1/libnand-sun8iw11p1
                0x4a07d118                build_zone_list
 .text.nftl_start
                0x4a07d198      0x31c nand_sunxi/sun8iw11p1/libnand-sun8iw11p1
                0x4a07d198                nftl_start
 .text.nftl_get_zone_cap
                0x4a07d4b4        0x8 nand_sunxi/sun8iw11p1/libnand-sun8iw11p1
                0x4a07d4b4                nftl_get_zone_cap
 .text.nftl_get_zone_priv
                0x4a07d4bc        0x8 nand_sunxi/sun8iw11p1/libnand-sun8iw11p1
                0x4a07d4bc                nftl_get_zone_priv
 .text.print_smart
                0x4a07d4c4      0x198 nand_sunxi/sun8iw11p1/libnand-sun8iw11p1
                0x4a07d4c4                print_smart
 .text._nand_sector_read
                0x4a07d65c        0x8 nand_sunxi/sun8iw11p1/libnand-sun8iw11p1
                0x4a07d65c                _nand_sector_read
 .text._nand_sector_write
                0x4a07d664        0x8 nand_sunxi/sun8iw11p1/libnand-sun8iw11p1
                0x4a07d664                _nand_sector_write
 .text._nand_flush_sector_write_cache
                0x4a07d66c        0x8 nand_sunxi/sun8iw11p1/libnand-sun8iw11p1
                0x4a07d66c                _nand_flush_sector_write_cache
 .text._shutdown_op
                0x4a07d674        0x8 nand_sunxi/sun8iw11p1/libnand-sun8iw11p1
                0x4a07d674                _shutdown_op
 .text._nand_flush_write_cache
                0x4a07d67c        0x8 nand_sunxi/sun8iw11p1/libnand-sun8iw11p1
                0x4a07d67c                _nand_flush_write_cache
 .text._nand_discard
                0x4a07d684        0x8 nand_sunxi/sun8iw11p1/libnand-sun8iw11p1
                0x4a07d684                _nand_discard
 .text._nand_write
                0x4a07d68c        0x8 nand_sunxi/sun8iw11p1/libnand-sun8iw11p1
                0x4a07d68c                _nand_write
 .text._nand_read
                0x4a07d694        0x8 nand_sunxi/sun8iw11p1/libnand-sun8iw11p1
                0x4a07d694                _nand_read
 .text.nftl_malloc
                0x4a07d69c       0x2c nand_sunxi/sun8iw11p1/libnand-sun8iw11p1
                0x4a07d69c                nftl_malloc
 .text.nftl_free
                0x4a07d6c8        0x8 nand_sunxi/sun8iw11p1/libnand-sun8iw11p1
                0x4a07d6c8                nftl_free
 .text.add_nftl_blk_list
                0x4a07d6d0       0x24 nand_sunxi/sun8iw11p1/libnand-sun8iw11p1
                0x4a07d6d0                add_nftl_blk_list
 .text.nftl_initialize
                0x4a07d6f4      0x264 nand_sunxi/sun8iw11p1/libnand-sun8iw11p1
                0x4a07d6f4                nftl_initialize
 .text._nftl_nand_erase_superblk
                0x4a07d958       0x4c nand_sunxi/sun8iw11p1/libnand-sun8iw11p1
                0x4a07d958                _nftl_nand_erase_superblk
 .text._nftl_nand_read_page
                0x4a07d9a4       0x84 nand_sunxi/sun8iw11p1/libnand-sun8iw11p1
                0x4a07d9a4                _nftl_nand_read_page
 .text._nftl_nand_write_page
                0x4a07da28       0x84 nand_sunxi/sun8iw11p1/libnand-sun8iw11p1
                0x4a07da28                _nftl_nand_write_page
 .text._nftl_nand_is_blk_good
                0x4a07daac       0x4c nand_sunxi/sun8iw11p1/libnand-sun8iw11p1
                0x4a07daac                _nftl_nand_is_blk_good
 .text._nftl_nand_mark_bad_blk
                0x4a07daf8       0x4c nand_sunxi/sun8iw11p1/libnand-sun8iw11p1
                0x4a07daf8                _nftl_nand_mark_bad_blk
 .text.nftl_add
                0x4a07db44       0x88 nand_sunxi/sun8iw11p1/libnand-sun8iw11p1
                0x4a07db44                nftl_add
 .text.nftl_build_one
                0x4a07dbcc       0x60 nand_sunxi/sun8iw11p1/libnand-sun8iw11p1
                0x4a07dbcc                nftl_build_one
 .text.nftl_build_all
                0x4a07dc2c       0x4c nand_sunxi/sun8iw11p1/libnand-sun8iw11p1
                0x4a07dc2c                nftl_build_all
 .text.get_nftl_cap
                0x4a07dc78       0x28 nand_sunxi/sun8iw11p1/libnand-sun8iw11p1
                0x4a07dc78                get_nftl_cap
 .text.nftl_read
                0x4a07dca0       0x70 nand_sunxi/sun8iw11p1/libnand-sun8iw11p1
                0x4a07dca0                nftl_read
 .text.nftl_write
                0x4a07dd10       0x70 nand_sunxi/sun8iw11p1/libnand-sun8iw11p1
                0x4a07dd10                nftl_write
 .text.nftl_flush_write_cache
                0x4a07dd80       0x38 nand_sunxi/sun8iw11p1/libnand-sun8iw11p1
                0x4a07dd80                nftl_flush_write_cache
 .text.change_block_addr
                0x4a07ddb8       0x48 nand_sunxi/sun8iw11p1/libnand-sun8iw11p1
                0x4a07ddb8                change_block_addr
 .text.nand_mark_bad_blk
                0x4a07de00       0x68 nand_sunxi/sun8iw11p1/libnand-sun8iw11p1
                0x4a07de00                nand_mark_bad_blk
 .text.nand_is_blk_good
                0x4a07de68       0x54 nand_sunxi/sun8iw11p1/libnand-sun8iw11p1
                0x4a07de68                nand_is_blk_good
 .text.nand_write_page
                0x4a07debc       0x68 nand_sunxi/sun8iw11p1/libnand-sun8iw11p1
                0x4a07debc                nand_write_page
 .text.nand_read_page
                0x4a07df24       0x50 nand_sunxi/sun8iw11p1/libnand-sun8iw11p1
                0x4a07df24                nand_read_page
 .text.nand_erase_superblk
                0x4a07df74       0x2c nand_sunxi/sun8iw11p1/libnand-sun8iw11p1
                0x4a07df74                nand_erase_superblk
 .text.build_nand_partition
                0x4a07dfa0      0x118 nand_sunxi/sun8iw11p1/libnand-sun8iw11p1
                0x4a07dfa0                build_nand_partition
 .text.BlockErase
                0x4a07e0b8       0x2c nand_sunxi/sun8iw11p1/libnand-sun8iw11p1
                0x4a07e0b8                BlockErase
 .text.PageWrite
                0x4a07e0e4       0x5c nand_sunxi/sun8iw11p1/libnand-sun8iw11p1
                0x4a07e0e4                PageWrite
 .text.PageRead
                0x4a07e140       0x5c nand_sunxi/sun8iw11p1/libnand-sun8iw11p1
                0x4a07e140                PageRead
 .text.WaitAllRb
                0x4a07e19c       0x14 nand_sunxi/sun8iw11p1/libnand-sun8iw11p1
                0x4a07e19c                WaitAllRb
 .text.BlockCheck
                0x4a07e1b0       0x2c nand_sunxi/sun8iw11p1/libnand-sun8iw11p1
                0x4a07e1b0                BlockCheck
 .text.is_factory_bad_block
                0x4a07e1dc       0x58 nand_sunxi/sun8iw11p1/libnand-sun8iw11p1
                0x4a07e1dc                is_factory_bad_block
 .text.is_new_bad_block
                0x4a07e234       0x58 nand_sunxi/sun8iw11p1/libnand-sun8iw11p1
                0x4a07e234                is_new_bad_block
 .text.add_new_bad_block
                0x4a07e28c       0x64 nand_sunxi/sun8iw11p1/libnand-sun8iw11p1
                0x4a07e28c                add_new_bad_block
 .text.put_factory_bad_block
                0x4a07e2f0       0x94 nand_sunxi/sun8iw11p1/libnand-sun8iw11p1
                0x4a07e2f0                put_factory_bad_block
 .text.print_phy_partition
                0x4a07e384       0xcc nand_sunxi/sun8iw11p1/libnand-sun8iw11p1
                0x4a07e384                print_phy_partition
 .text.print_all_bad_block
                0x4a07e450       0x98 nand_sunxi/sun8iw11p1/libnand-sun8iw11p1
                0x4a07e450                print_all_bad_block
 .text.build_phy_partition
                0x4a07e4e8      0x43c nand_sunxi/sun8iw11p1/libnand-sun8iw11p1
                0x4a07e4e8                build_phy_partition
 .text.get_phy_partition_num
                0x4a07e924       0x20 nand_sunxi/sun8iw11p1/libnand-sun8iw11p1
                0x4a07e924                get_phy_partition_num
 .text.write_mbr
                0x4a07e944       0xb4 nand_sunxi/sun8iw11p1/libnand-sun8iw11p1
                0x4a07e944                write_mbr
 .text.write_factory_block_table
                0x4a07e9f8      0x118 nand_sunxi/sun8iw11p1/libnand-sun8iw11p1
                0x4a07e9f8                write_factory_block_table
 .text.print_factory_block_table
                0x4a07eb10       0x44 nand_sunxi/sun8iw11p1/libnand-sun8iw11p1
                0x4a07eb10                print_factory_block_table
 .text.write_no_use_block
                0x4a07eb54       0xa8 nand_sunxi/sun8iw11p1/libnand-sun8iw11p1
                0x4a07eb54                write_no_use_block
 .text.read_new_bad_block_table
                0x4a07ebfc      0x148 nand_sunxi/sun8iw11p1/libnand-sun8iw11p1
                0x4a07ebfc                read_new_bad_block_table
 .text.print_nand_info
                0x4a07ed44      0x120 nand_sunxi/sun8iw11p1/libnand-sun8iw11p1
                0x4a07ed44                print_nand_info
 .text.build_all_phy_partition
                0x4a07ee64      0x2fc nand_sunxi/sun8iw11p1/libnand-sun8iw11p1
                0x4a07ee64                build_all_phy_partition
 .text.nand_info_init_v1
                0x4a07f160      0x440 nand_sunxi/sun8iw11p1/libnand-sun8iw11p1
                0x4a07f160                nand_info_init_v1
 .text.set_capacity_level
                0x4a07f5a0       0x18 nand_sunxi/sun8iw11p1/libnand-sun8iw11p1
                0x4a07f5a0                set_capacity_level
 .text.get_max_free_block_num
                0x4a07f5b8      0x12c nand_sunxi/sun8iw11p1/libnand-sun8iw11p1
                0x4a07f5b8                get_max_free_block_num
 .text.print_partition
                0x4a07f6e4       0xd0 nand_sunxi/sun8iw11p1/libnand-sun8iw11p1
                0x4a07f6e4                print_partition
 .text.launch_build_phy_partition
                0x4a07f7b4      0x328 nand_sunxi/sun8iw11p1/libnand-sun8iw11p1
                0x4a07f7b4                launch_build_phy_partition
 .text.change_partition
                0x4a07fadc       0x64 nand_sunxi/sun8iw11p1/libnand-sun8iw11p1
                0x4a07fadc                change_partition
 .text.mp_build_phy_partition
                0x4a07fb40      0x4dc nand_sunxi/sun8iw11p1/libnand-sun8iw11p1
                0x4a07fb40                mp_build_phy_partition
 .text.build_phy_partition_v2
                0x4a08001c       0x14 nand_sunxi/sun8iw11p1/libnand-sun8iw11p1
                0x4a08001c                build_phy_partition_v2
 .text.read_partition_v3
                0x4a080030       0x58 nand_sunxi/sun8iw11p1/libnand-sun8iw11p1
                0x4a080030                read_partition_v3
 .text.print_boot_info
                0x4a080088       0xd4 nand_sunxi/sun8iw11p1/libnand-sun8iw11p1
                0x4a080088                print_boot_info
 .text.get_no_use_block_v3
                0x4a08015c       0xb8 nand_sunxi/sun8iw11p1/libnand-sun8iw11p1
                0x4a08015c                get_no_use_block_v3
 .text.write_mbr_v2
                0x4a080214       0xdc nand_sunxi/sun8iw11p1/libnand-sun8iw11p1
                0x4a080214                write_mbr_v2
 .text.read_mbr_v2
                0x4a0802f0       0xe4 nand_sunxi/sun8iw11p1/libnand-sun8iw11p1
                0x4a0802f0                read_mbr_v2
 .text.check_mbr_v3
                0x4a0803d4      0x104 nand_sunxi/sun8iw11p1/libnand-sun8iw11p1
                0x4a0803d4                check_mbr_v3
 .text.check_mbr_v2
                0x4a0804d8       0xe8 nand_sunxi/sun8iw11p1/libnand-sun8iw11p1
                0x4a0804d8                check_mbr_v2
 .text.write_partition_v2
                0x4a0805c0       0xd0 nand_sunxi/sun8iw11p1/libnand-sun8iw11p1
                0x4a0805c0                write_partition_v2
 .text.read_partition_v2
                0x4a080690      0x108 nand_sunxi/sun8iw11p1/libnand-sun8iw11p1
                0x4a080690                read_partition_v2
 .text.check_partition_mbr_v2
                0x4a080798       0x44 nand_sunxi/sun8iw11p1/libnand-sun8iw11p1
                0x4a080798                check_partition_mbr_v2
 .text.read_mbr_partition_v3
                0x4a0807dc       0x7c nand_sunxi/sun8iw11p1/libnand-sun8iw11p1
                0x4a0807dc                read_mbr_partition_v3
 .text.write_factory_block_table_v2
                0x4a080858      0x138 nand_sunxi/sun8iw11p1/libnand-sun8iw11p1
                0x4a080858                write_factory_block_table_v2
 .text.print_factory_block_table_v2
                0x4a080990       0x44 nand_sunxi/sun8iw11p1/libnand-sun8iw11p1
                0x4a080990                print_factory_block_table_v2
 .text.read_factory_block_v3
                0x4a0809d4       0xfc nand_sunxi/sun8iw11p1/libnand-sun8iw11p1
                0x4a0809d4                read_factory_block_v3
 .text.write_new_block_table_v2_old
                0x4a080ad0       0xe8 nand_sunxi/sun8iw11p1/libnand-sun8iw11p1
                0x4a080ad0                write_new_block_table_v2_old
 .text.write_new_block_table_v2_new
                0x4a080bb8       0xe8 nand_sunxi/sun8iw11p1/libnand-sun8iw11p1
                0x4a080bb8                write_new_block_table_v2_new
 .text.write_new_block_table_v2
                0x4a080ca0       0xf4 nand_sunxi/sun8iw11p1/libnand-sun8iw11p1
                0x4a080ca0                write_new_block_table_v2
 .text.write_new_block_table_v2_new_first_build
                0x4a080d94       0xe8 nand_sunxi/sun8iw11p1/libnand-sun8iw11p1
                0x4a080d94                write_new_block_table_v2_new_first_build
 .text.write_no_use_block_v2
                0x4a080e7c       0xd0 nand_sunxi/sun8iw11p1/libnand-sun8iw11p1
                0x4a080e7c                write_no_use_block_v2
 .text.read_new_bad_block_table_v2_old
                0x4a080f4c      0x148 nand_sunxi/sun8iw11p1/libnand-sun8iw11p1
                0x4a080f4c                read_new_bad_block_table_v2_old
 .text.read_new_bad_block_table_v2_new
                0x4a081094      0x100 nand_sunxi/sun8iw11p1/libnand-sun8iw11p1
                0x4a081094                read_new_bad_block_table_v2_new
 .text.read_new_bad_block_table_v2
                0x4a081194       0xfc nand_sunxi/sun8iw11p1/libnand-sun8iw11p1
                0x4a081194                read_new_bad_block_table_v2
 .text.print_nand_info_v2
                0x4a081290      0x1b8 nand_sunxi/sun8iw11p1/libnand-sun8iw11p1
                0x4a081290                print_nand_info_v2
 .text.get_partition_v2
                0x4a081448      0x28c nand_sunxi/sun8iw11p1/libnand-sun8iw11p1
                0x4a081448                get_partition_v2
 .text.get_partition_v3
                0x4a0816d4      0x228 nand_sunxi/sun8iw11p1/libnand-sun8iw11p1
                0x4a0816d4                get_partition_v3
 .text.new_print_all_partition
                0x4a0818fc       0x98 nand_sunxi/sun8iw11p1/libnand-sun8iw11p1
                0x4a0818fc                new_print_all_partition
 .text.build_all_phy_partition_v2
                0x4a081994       0x84 nand_sunxi/sun8iw11p1/libnand-sun8iw11p1
                0x4a081994                build_all_phy_partition_v2
 .text.nand_info_init_v2
                0x4a081a18      0x4ac nand_sunxi/sun8iw11p1/libnand-sun8iw11p1
                0x4a081a18                nand_info_init_v2
 .text.nand_info_init_v3
                0x4a081ec4      0x378 nand_sunxi/sun8iw11p1/libnand-sun8iw11p1
                0x4a081ec4                nand_info_init_v3
 .text.nand_info_init
                0x4a08223c      0x214 nand_sunxi/sun8iw11p1/libnand-sun8iw11p1
                0x4a08223c                nand_info_init
 .text.nand_code_info
                0x4a082450       0x10 nand_sunxi/sun8iw11p1/libnand-sun8iw11p1
                0x4a082450                nand_code_info
 .text.nand_get_nand_version
                0x4a082460        0xc nand_sunxi/sun8iw11p1/libnand-sun8iw11p1
                0x4a082460                nand_get_nand_version
 .text.nand_get_version
                0x4a08246c       0x2c nand_sunxi/sun8iw11p1/libnand-sun8iw11p1
                0x4a08246c                nand_get_version
 .text.show_nctri
                0x4a082498      0x1ac nand_sunxi/sun8iw11p1/libnand-sun8iw11p1
                0x4a082498                show_nctri
 .text.show_nci
                0x4a082644      0x280 nand_sunxi/sun8iw11p1/libnand-sun8iw11p1
                0x4a082644                show_nci
 .text.show_nsci
                0x4a0828c4      0x16c nand_sunxi/sun8iw11p1/libnand-sun8iw11p1
                0x4a0828c4                show_nsci
 .text.show_nsi
                0x4a082a30       0x40 nand_sunxi/sun8iw11p1/libnand-sun8iw11p1
                0x4a082a30                show_nsi
 .text.show_nssi
                0x4a082a70       0x8c nand_sunxi/sun8iw11p1/libnand-sun8iw11p1
                0x4a082a70                show_nssi
 .text.show_static_info
                0x4a082afc       0x50 nand_sunxi/sun8iw11p1/libnand-sun8iw11p1
                0x4a082afc                show_static_info
 .text.nand_special_test
                0x4a082b4c        0x4 nand_sunxi/sun8iw11p1/libnand-sun8iw11p1
                0x4a082b4c                nand_special_test
 .text.nand_cfg_setting
                0x4a082b50       0x5c nand_sunxi/sun8iw11p1/libnand-sun8iw11p1
                0x4a082b50                nand_cfg_setting
 .text.NandHwInit
                0x4a082bac       0xb8 nand_sunxi/sun8iw11p1/libnand-sun8iw11p1
                0x4a082bac                NandHwInit
 .text.NandHwExit
                0x4a082c64       0x1c nand_sunxi/sun8iw11p1/libnand-sun8iw11p1
                0x4a082c64                NandHwExit
 .text.NAND_GetIOBaseAddr
                0x4a082c80       0x10 nand_sunxi/sun8iw11p1/libnand-sun8iw11p1
                0x4a082c80                NAND_GetIOBaseAddr
 .text.nand_write_nboot_data
                0x4a082c90       0x70 nand_sunxi/sun8iw11p1/libnand-sun8iw11p1
                0x4a082c90                nand_write_nboot_data
 .text.nand_read_nboot_data
                0x4a082d00       0x8c nand_sunxi/sun8iw11p1/libnand-sun8iw11p1
                0x4a082d00                nand_read_nboot_data
 .text.nand_write_uboot_one_in_block
                0x4a082d8c      0x264 nand_sunxi/sun8iw11p1/libnand-sun8iw11p1
                0x4a082d8c                nand_write_uboot_one_in_block
 .text.nand_write_uboot_one_in_many_block
                0x4a082ff0      0x3a8 nand_sunxi/sun8iw11p1/libnand-sun8iw11p1
                0x4a082ff0                nand_write_uboot_one_in_many_block
 .text.nand_read_uboot_one_in_block
                0x4a083398      0x1e8 nand_sunxi/sun8iw11p1/libnand-sun8iw11p1
                0x4a083398                nand_read_uboot_one_in_block
 .text.nand_read_uboot_one_in_many_block
                0x4a083580      0x36c nand_sunxi/sun8iw11p1/libnand-sun8iw11p1
                0x4a083580                nand_read_uboot_one_in_many_block
 .text.nand_read_uboot_one
                0x4a0838ec       0x88 nand_sunxi/sun8iw11p1/libnand-sun8iw11p1
                0x4a0838ec                nand_read_uboot_one
 .text.nand_read_uboot_data
                0x4a083974       0x6c nand_sunxi/sun8iw11p1/libnand-sun8iw11p1
                0x4a083974                nand_read_uboot_data
 .text.nand_get_param
                0x4a0839e0      0x16c nand_sunxi/sun8iw11p1/libnand-sun8iw11p1
                0x4a0839e0                nand_get_param
 .text.nand_get_param_for_uboottail
                0x4a083b4c       0xa8 nand_sunxi/sun8iw11p1/libnand-sun8iw11p1
                0x4a083b4c                nand_get_param_for_uboottail
 .text.NAND_SetPhyArch_V3
                0x4a083bf4       0x44 nand_sunxi/sun8iw11p1/libnand-sun8iw11p1
                0x4a083bf4                NAND_SetPhyArch_V3
 .text.NAND_UpdatePhyArch
                0x4a083c38      0x214 nand_sunxi/sun8iw11p1/libnand-sun8iw11p1
                0x4a083c38                NAND_UpdatePhyArch
 .text.nand_is_blank
                0x4a083e4c       0xe0 nand_sunxi/sun8iw11p1/libnand-sun8iw11p1
                0x4a083e4c                nand_is_blank
 .text.nand_check_bad_block_before_first_erase
                0x4a083f2c       0x50 nand_sunxi/sun8iw11p1/libnand-sun8iw11p1
                0x4a083f2c                nand_check_bad_block_before_first_erase
 .text.nand_erase_chip
                0x4a083f7c      0x120 nand_sunxi/sun8iw11p1/libnand-sun8iw11p1
                0x4a083f7c                nand_erase_chip
 .text.nand_erase_special_block
                0x4a08409c      0x210 nand_sunxi/sun8iw11p1/libnand-sun8iw11p1
                0x4a08409c                nand_erase_special_block
 .text.set_uboot_start_and_end_block
                0x4a0842ac       0xa8 nand_sunxi/sun8iw11p1/libnand-sun8iw11p1
                0x4a0842ac                set_uboot_start_and_end_block
 .text.get_uboot_start_block
                0x4a084354       0x5c nand_sunxi/sun8iw11p1/libnand-sun8iw11p1
                0x4a084354                get_uboot_start_block
 .text.get_uboot_next_block
                0x4a0843b0       0x80 nand_sunxi/sun8iw11p1/libnand-sun8iw11p1
                0x4a0843b0                get_uboot_next_block
 .text.init_phyinfo_buf
                0x4a084430       0x3c nand_sunxi/sun8iw11p1/libnand-sun8iw11p1
                0x4a084430                init_phyinfo_buf
 .text.check_sum_physic_info
                0x4a08446c       0x94 nand_sunxi/sun8iw11p1/libnand-sun8iw11p1
                0x4a08446c                check_sum_physic_info
 .text.cal_sum_physic_info
                0x4a084500       0x88 nand_sunxi/sun8iw11p1/libnand-sun8iw11p1
                0x4a084500                cal_sum_physic_info
 .text.physic_info_get_offset
                0x4a084588      0x124 nand_sunxi/sun8iw11p1/libnand-sun8iw11p1
                0x4a084588                physic_info_get_offset
 .text.physic_info_get_one_copy
                0x4a0846ac      0x260 nand_sunxi/sun8iw11p1/libnand-sun8iw11p1
                0x4a0846ac                physic_info_get_one_copy
 .text.clean_physic_info
                0x4a08490c       0x44 nand_sunxi/sun8iw11p1/libnand-sun8iw11p1
                0x4a08490c                clean_physic_info
 .text.nand_uboot_erase_all_chip
                0x4a084950       0xa8 nand_sunxi/sun8iw11p1/libnand-sun8iw11p1
                0x4a084950                nand_uboot_erase_all_chip
 .text.is_phyinfo_empty
                0x4a0849f8       0x50 nand_sunxi/sun8iw11p1/libnand-sun8iw11p1
                0x4a0849f8                is_phyinfo_empty
 .text.add_len_to_uboot_tail
                0x4a084a48       0xa8 nand_sunxi/sun8iw11p1/libnand-sun8iw11p1
                0x4a084a48                add_len_to_uboot_tail
 .text.nand_write_uboot_one
                0x4a084af0       0xb4 nand_sunxi/sun8iw11p1/libnand-sun8iw11p1
                0x4a084af0                nand_write_uboot_one
 .text.nand_write_uboot_data
                0x4a084ba4       0x68 nand_sunxi/sun8iw11p1/libnand-sun8iw11p1
                0x4a084ba4                nand_write_uboot_data
 .text.is_uboot_block
                0x4a084c0c       0x74 nand_sunxi/sun8iw11p1/libnand-sun8iw11p1
                0x4a084c0c                is_uboot_block
 .text.physic_info_read
                0x4a084c80      0x188 nand_sunxi/sun8iw11p1/libnand-sun8iw11p1
                0x4a084c80                physic_info_read
 .text.set_hynix_special_info
                0x4a084e08       0xf0 nand_sunxi/sun8iw11p1/libnand-sun8iw11p1
                0x4a084e08                set_hynix_special_info
 .text.nand_init_temp_buf
                0x4a084ef8       0xac nand_sunxi/sun8iw11p1/libnand-sun8iw11p1
                0x4a084ef8                nand_init_temp_buf
 .text.init_parameter
                0x4a084fa4       0xfc nand_sunxi/sun8iw11p1/libnand-sun8iw11p1
                0x4a084fa4                init_parameter
 .text.nand_physic_init
                0x4a0850a0       0xe8 nand_sunxi/sun8iw11p1/libnand-sun8iw11p1
                0x4a0850a0                nand_physic_init
 .text.nand_exit_temp_buf
                0x4a085188       0x54 nand_sunxi/sun8iw11p1/libnand-sun8iw11p1
                0x4a085188                nand_exit_temp_buf
 .text.nand_physic_exit
                0x4a0851dc      0x13c nand_sunxi/sun8iw11p1/libnand-sun8iw11p1
                0x4a0851dc                nand_physic_exit
 .text.nand_get_temp_buf
                0x4a085318      0x154 nand_sunxi/sun8iw11p1/libnand-sun8iw11p1
                0x4a085318                nand_get_temp_buf
 .text.nand_free_temp_buf
                0x4a08546c       0xd8 nand_sunxi/sun8iw11p1/libnand-sun8iw11p1
                0x4a08546c                nand_free_temp_buf
 .text.NAND_GetPageCntPerBlk
                0x4a085544       0x18 nand_sunxi/sun8iw11p1/libnand-sun8iw11p1
                0x4a085544                NAND_GetPageCntPerBlk
 .text.NAND_GetPageSize
                0x4a08555c       0x1c nand_sunxi/sun8iw11p1/libnand-sun8iw11p1
                0x4a08555c                NAND_GetPageSize
 .text.is_nand_secure_storage_block
                0x4a085578       0xac nand_sunxi/sun8iw11p1/libnand-sun8iw11p1
                0x4a085578                is_nand_secure_storage_block
 .text.nand_secure_check_sum
                0x4a085624       0x2c nand_sunxi/sun8iw11p1/libnand-sun8iw11p1
                0x4a085624                nand_secure_check_sum
 .text.nand_secure_storage_read_one
                0x4a085650       0xe8 nand_sunxi/sun8iw11p1/libnand-sun8iw11p1
                0x4a085650                nand_secure_storage_read_one
 .text.nand_secure_storage_write_init
                0x4a085738      0x118 nand_sunxi/sun8iw11p1/libnand-sun8iw11p1
                0x4a085738                nand_secure_storage_write_init
 .text.nand_secure_storage_first_build
                0x4a085850      0x130 nand_sunxi/sun8iw11p1/libnand-sun8iw11p1
                0x4a085850                nand_secure_storage_first_build
 .text.nand_secure_storage_read
                0x4a085980       0xc4 nand_sunxi/sun8iw11p1/libnand-sun8iw11p1
                0x4a085980                nand_secure_storage_read
 .text.nand_secure_storage_check
                0x4a085a44      0x100 nand_sunxi/sun8iw11p1/libnand-sun8iw11p1
                0x4a085a44                nand_secure_storage_check
 .text.nand_secure_storage_repair
                0x4a085b44       0x6c nand_sunxi/sun8iw11p1/libnand-sun8iw11p1
                0x4a085b44                nand_secure_storage_repair
 .text.nand_secure_storage_update
                0x4a085bb0       0x6c nand_sunxi/sun8iw11p1/libnand-sun8iw11p1
                0x4a085bb0                nand_secure_storage_update
 .text.nand_secure_storage_write
                0x4a085c1c      0x1f8 nand_sunxi/sun8iw11p1/libnand-sun8iw11p1
                0x4a085c1c                nand_secure_storage_write
 .text.nand_secure_storage_init
                0x4a085e14       0xf0 nand_sunxi/sun8iw11p1/libnand-sun8iw11p1
                0x4a085e14                nand_secure_storage_init
 .text.nand_enable_chip
                0x4a085f04       0x30 nand_sunxi/sun8iw11p1/libnand-sun8iw11p1
                0x4a085f04                nand_enable_chip
 .text.nand_disable_chip
                0x4a085f34       0x24 nand_sunxi/sun8iw11p1/libnand-sun8iw11p1
                0x4a085f34                nand_disable_chip
 .text.nand_reset_chip
                0x4a085f58       0x6c nand_sunxi/sun8iw11p1/libnand-sun8iw11p1
                0x4a085f58                nand_reset_chip
 .text.nand_first_reset_chip
                0x4a085fc4       0x98 nand_sunxi/sun8iw11p1/libnand-sun8iw11p1
                0x4a085fc4                nand_first_reset_chip
 .text.nand_read_chip_status
                0x4a08605c       0x94 nand_sunxi/sun8iw11p1/libnand-sun8iw11p1
                0x4a08605c                nand_read_chip_status
 .text.nand_read_chip_status_ready
                0x4a0860f0       0x84 nand_sunxi/sun8iw11p1/libnand-sun8iw11p1
                0x4a0860f0                nand_read_chip_status_ready
 .text.nand_read_id
                0x4a086174       0xa8 nand_sunxi/sun8iw11p1/libnand-sun8iw11p1
                0x4a086174                nand_read_id
 .text.nand_first_read_id
                0x4a08621c       0x9c nand_sunxi/sun8iw11p1/libnand-sun8iw11p1
                0x4a08621c                nand_first_read_id
 .text.nand_get_feature
                0x4a0862b8       0xb0 nand_sunxi/sun8iw11p1/libnand-sun8iw11p1
                0x4a0862b8                nand_get_feature
 .text.nand_set_feature
                0x4a086368       0xb0 nand_sunxi/sun8iw11p1/libnand-sun8iw11p1
                0x4a086368                nand_set_feature
 .text.get_row_addr
                0x4a086418       0x68 nand_sunxi/sun8iw11p1/libnand-sun8iw11p1
                0x4a086418                get_row_addr
 .text.fill_cmd_addr
                0x4a086480       0x60 nand_sunxi/sun8iw11p1/libnand-sun8iw11p1
                0x4a086480                fill_cmd_addr
 .text.set_default_batch_read_cmd_seq
                0x4a0864e0       0x44 nand_sunxi/sun8iw11p1/libnand-sun8iw11p1
                0x4a0864e0                set_default_batch_read_cmd_seq
 .text.set_default_batch_write_cmd_seq
                0x4a086524       0x30 nand_sunxi/sun8iw11p1/libnand-sun8iw11p1
                0x4a086524                set_default_batch_write_cmd_seq
 .text._cal_nand_onfi_timing_mode
                0x4a086554      0x114 nand_sunxi/sun8iw11p1/libnand-sun8iw11p1
                0x4a086554                _cal_nand_onfi_timing_mode
 .text._setup_nand_onfi_ddr2_para
                0x4a086668       0xc8 nand_sunxi/sun8iw11p1/libnand-sun8iw11p1
                0x4a086668                _setup_nand_onfi_ddr2_para
 .text._setup_nand_onfi_driver_strength
                0x4a086730       0x94 nand_sunxi/sun8iw11p1/libnand-sun8iw11p1
                0x4a086730                _setup_nand_onfi_driver_strength
 .text._setup_nand_onfi_vendor_specific_feature
                0x4a0867c4      0x104 nand_sunxi/sun8iw11p1/libnand-sun8iw11p1
                0x4a0867c4                _setup_nand_onfi_vendor_specific_feature
 .text._change_nand_onfi_timing_mode
                0x4a0868c8      0x10c nand_sunxi/sun8iw11p1/libnand-sun8iw11p1
                0x4a0868c8                _change_nand_onfi_timing_mode
 .text._setup_nand_toggle_ddr2_para
                0x4a0869d4       0xc8 nand_sunxi/sun8iw11p1/libnand-sun8iw11p1
                0x4a0869d4                _setup_nand_toggle_ddr2_para
 .text._setup_nand_toggle_driver_strength
                0x4a086a9c       0xa8 nand_sunxi/sun8iw11p1/libnand-sun8iw11p1
                0x4a086a9c                _setup_nand_toggle_driver_strength
 .text._setup_nand_toggle_vendor_specific_feature
                0x4a086b44       0x58 nand_sunxi/sun8iw11p1/libnand-sun8iw11p1
                0x4a086b44                _setup_nand_toggle_vendor_specific_feature
 .text._setup_ddr_nand_force_to_sdr_para
                0x4a086b9c       0xa8 nand_sunxi/sun8iw11p1/libnand-sun8iw11p1
                0x4a086b9c                _setup_ddr_nand_force_to_sdr_para
 .text._check_scan_data
                0x4a086c44      0x18c nand_sunxi/sun8iw11p1/libnand-sun8iw11p1
                0x4a086c44                _check_scan_data
 .text._change_all_nand_parameter
                0x4a086dd0      0x5b8 nand_sunxi/sun8iw11p1/libnand-sun8iw11p1
                0x4a086dd0                _change_all_nand_parameter
 .text._get_right_timing_para
                0x4a087388      0x500 nand_sunxi/sun8iw11p1/libnand-sun8iw11p1
                0x4a087388                _get_right_timing_para
 .text.set_cmd_with_nand_bus
                0x4a087888      0x10c nand_sunxi/sun8iw11p1/libnand-sun8iw11p1
                0x4a087888                set_cmd_with_nand_bus
 .text.get_data_with_nand_bus_one_cmd
                0x4a087994      0x118 nand_sunxi/sun8iw11p1/libnand-sun8iw11p1
                0x4a087994                get_data_with_nand_bus_one_cmd
 .text.set_one_cmd
                0x4a087aac       0x30 nand_sunxi/sun8iw11p1/libnand-sun8iw11p1
                0x4a087aac                set_one_cmd
 .text.set_one_addr
                0x4a087adc       0x30 nand_sunxi/sun8iw11p1/libnand-sun8iw11p1
                0x4a087adc                set_one_addr
 .text.nand_physic_erase_block
                0x4a087b0c       0x54 nand_sunxi/sun8iw11p1/libnand-sun8iw11p1
                0x4a087b0c                nand_physic_erase_block
 .text.nand_physic_read_page
                0x4a087b60       0x68 nand_sunxi/sun8iw11p1/libnand-sun8iw11p1
                0x4a087b60                nand_physic_read_page
 .text.nand_physic_write_page
                0x4a087bc8       0x68 nand_sunxi/sun8iw11p1/libnand-sun8iw11p1
                0x4a087bc8                nand_physic_write_page
 .text.nand_physic_bad_block_check
                0x4a087c30       0x50 nand_sunxi/sun8iw11p1/libnand-sun8iw11p1
                0x4a087c30                nand_physic_bad_block_check
 .text.nand_physic_block_copy
                0x4a087c80       0xc0 nand_sunxi/sun8iw11p1/libnand-sun8iw11p1
                0x4a087c80                nand_physic_block_copy
 .text.nci_add_to_nsi
                0x4a087d40       0x64 nand_sunxi/sun8iw11p1/libnand-sun8iw11p1
                0x4a087d40                nci_add_to_nsi
 .text.nci_add_to_nctri
                0x4a087da4       0x64 nand_sunxi/sun8iw11p1/libnand-sun8iw11p1
                0x4a087da4                nci_add_to_nctri
 .text.nci_get_from_nctri
                0x4a087e08       0x20 nand_sunxi/sun8iw11p1/libnand-sun8iw11p1
                0x4a087e08                nci_get_from_nctri
 .text.nci_get_from_nsi
                0x4a087e28       0x20 nand_sunxi/sun8iw11p1/libnand-sun8iw11p1
                0x4a087e28                nci_get_from_nsi
 .text.search_id
                0x4a087e48       0x98 nand_sunxi/sun8iw11p1/libnand-sun8iw11p1
                0x4a087e48                search_id
 .text.init_nci_from_id
                0x4a087ee0      0x1c8 nand_sunxi/sun8iw11p1/libnand-sun8iw11p1
                0x4a087ee0                init_nci_from_id
 .text.nand_build_nsi
                0x4a0880a8      0x1d4 nand_sunxi/sun8iw11p1/libnand-sun8iw11p1
                0x4a0880a8                nand_build_nsi
 .text.read_nand_structure
                0x4a08827c      0x234 nand_sunxi/sun8iw11p1/libnand-sun8iw11p1
                0x4a08827c                read_nand_structure
 .text.NAND_GetLsbblksize
                0x4a0884b0       0x54 nand_sunxi/sun8iw11p1/libnand-sun8iw11p1
                0x4a0884b0                NAND_GetLsbblksize
 .text.NAND_GetLsbPages
                0x4a088504       0x4c nand_sunxi/sun8iw11p1/libnand-sun8iw11p1
                0x4a088504                NAND_GetLsbPages
 .text.NAND_GetPhyblksize
                0x4a088550       0x24 nand_sunxi/sun8iw11p1/libnand-sun8iw11p1
                0x4a088550                NAND_GetPhyblksize
 .text.NAND_GetPageNo
                0x4a088574       0x58 nand_sunxi/sun8iw11p1/libnand-sun8iw11p1
                0x4a088574                NAND_GetPageNo
 .text.nand_wait_all_rb_ready
                0x4a0885cc       0x38 nand_sunxi/sun8iw11p1/libnand-sun8iw11p1
                0x4a0885cc                nand_wait_all_rb_ready
 .text.nand_physic_erase_super_block
                0x4a088604       0x54 nand_sunxi/sun8iw11p1/libnand-sun8iw11p1
                0x4a088604                nand_physic_erase_super_block
 .text.PHY_VirtualBlockErase
                0x4a088658        0x4 nand_sunxi/sun8iw11p1/libnand-sun8iw11p1
                0x4a088658                PHY_VirtualBlockErase
 .text.nand_physic_read_super_page
                0x4a08865c       0x5c nand_sunxi/sun8iw11p1/libnand-sun8iw11p1
                0x4a08865c                nand_physic_read_super_page
 .text.PHY_VirtualPageRead
                0x4a0886b8       0x18 nand_sunxi/sun8iw11p1/libnand-sun8iw11p1
                0x4a0886b8                PHY_VirtualPageRead
 .text.nand_physic_write_super_page
                0x4a0886d0       0x5c nand_sunxi/sun8iw11p1/libnand-sun8iw11p1
                0x4a0886d0                nand_physic_write_super_page
 .text.PHY_VirtualPageWrite
                0x4a08872c       0x18 nand_sunxi/sun8iw11p1/libnand-sun8iw11p1
                0x4a08872c                PHY_VirtualPageWrite
 .text.nand_physic_super_bad_block_check
                0x4a088744       0x54 nand_sunxi/sun8iw11p1/libnand-sun8iw11p1
                0x4a088744                nand_physic_super_bad_block_check
 .text.PHY_VirtualBadBlockCheck
                0x4a088798        0x4 nand_sunxi/sun8iw11p1/libnand-sun8iw11p1
                0x4a088798                PHY_VirtualBadBlockCheck
 .text.nand_physic_super_bad_block_mark
                0x4a08879c       0x54 nand_sunxi/sun8iw11p1/libnand-sun8iw11p1
                0x4a08879c                nand_physic_super_bad_block_mark
 .text.PHY_VirtualBadBlockMark
                0x4a0887f0        0x4 nand_sunxi/sun8iw11p1/libnand-sun8iw11p1
                0x4a0887f0                PHY_VirtualBadBlockMark
 .text.nsci_add_to_nssi
                0x4a0887f4       0x4c nand_sunxi/sun8iw11p1/libnand-sun8iw11p1
                0x4a0887f4                nsci_add_to_nssi
 .text.nsci_get_from_nssi
                0x4a088840       0x20 nand_sunxi/sun8iw11p1/libnand-sun8iw11p1
                0x4a088840                nsci_get_from_nssi
 .text.get_nand_structure
                0x4a088860      0x164 nand_sunxi/sun8iw11p1/libnand-sun8iw11p1
                0x4a088860                get_nand_structure
 .text.init_nsci_from_nctri
                0x4a0889c4      0x254 nand_sunxi/sun8iw11p1/libnand-sun8iw11p1
                0x4a0889c4                init_nsci_from_nctri
 .text.nand_build_nssi
                0x4a088c18      0x1cc nand_sunxi/sun8iw11p1/libnand-sun8iw11p1
                0x4a088c18                nand_build_nssi
 .text.nand_build_storage_info
                0x4a088de4       0xfc nand_sunxi/sun8iw11p1/libnand-sun8iw11p1
                0x4a088de4                nand_build_storage_info
 .text.add_to_nctri
                0x4a088ee0       0x58 nand_sunxi/sun8iw11p1/libnand-sun8iw11p1
                0x4a088ee0                add_to_nctri
 .text.before_update_nctri_interface
                0x4a088f38       0xc0 nand_sunxi/sun8iw11p1/libnand-sun8iw11p1
                0x4a088f38                before_update_nctri_interface
 .text.start_update_nctri_interface
                0x4a088ff8      0x270 nand_sunxi/sun8iw11p1/libnand-sun8iw11p1
                0x4a088ff8                start_update_nctri_interface
 .text.ddr_mode_to_sdr
                0x4a089268       0x34 nand_sunxi/sun8iw11p1/libnand-sun8iw11p1
                0x4a089268                ddr_mode_to_sdr
 .text.update_1st_nctri_interface
                0x4a08929c      0x1d4 nand_sunxi/sun8iw11p1/libnand-sun8iw11p1
                0x4a08929c                update_1st_nctri_interface
 .text.update_other_nctri_interface
                0x4a089470      0x198 nand_sunxi/sun8iw11p1/libnand-sun8iw11p1
                0x4a089470                update_other_nctri_interface
 .text._update_ext_accessfreq_para
                0x4a089608      0x108 nand_sunxi/sun8iw11p1/libnand-sun8iw11p1
                0x4a089608                _update_ext_accessfreq_para
 .text.set_nand_script_frequence
                0x4a089710       0x3c nand_sunxi/sun8iw11p1/libnand-sun8iw11p1
                0x4a089710                set_nand_script_frequence
 .text.update_nctri
                0x4a08974c      0x304 nand_sunxi/sun8iw11p1/libnand-sun8iw11p1
                0x4a08974c                update_nctri
 .text.check_nctri
                0x4a089a50      0x15c nand_sunxi/sun8iw11p1/libnand-sun8iw11p1
                0x4a089a50                check_nctri
 .text.wait_reg_status_half_us
                0x4a089bac       0x3c nand_sunxi/sun8iw11p1/libnand-sun8iw11p1
                0x4a089bac                wait_reg_status_half_us
 .text.wait_reg_status
                0x4a089be8       0x64 nand_sunxi/sun8iw11p1/libnand-sun8iw11p1
                0x4a089be8                wait_reg_status
 .text.ndfc_print_reg
                0x4a089c4c      0x25c nand_sunxi/sun8iw11p1/libnand-sun8iw11p1
                0x4a089c4c                ndfc_print_reg
 .text.ndfc_print_save_reg
                0x4a089ea8      0x1e8 nand_sunxi/sun8iw11p1/libnand-sun8iw11p1
                0x4a089ea8                ndfc_print_save_reg
 .text._set_addr
                0x4a08a090       0x54 nand_sunxi/sun8iw11p1/libnand-sun8iw11p1
                0x4a08a090                _set_addr
 .text.ndfc_soft_reset
                0x4a08a0e4       0x64 nand_sunxi/sun8iw11p1/libnand-sun8iw11p1
                0x4a08a0e4                ndfc_soft_reset
 .text.ndfc_disable_ecc
                0x4a08a148       0x14 nand_sunxi/sun8iw11p1/libnand-sun8iw11p1
                0x4a08a148                ndfc_disable_ecc
 .text.ndfc_enable_ecc
                0x4a08a15c       0x2c nand_sunxi/sun8iw11p1/libnand-sun8iw11p1
                0x4a08a15c                ndfc_enable_ecc
 .text.ndfc_repeat_mode_enable
                0x4a08a188       0x1c nand_sunxi/sun8iw11p1/libnand-sun8iw11p1
                0x4a08a188                ndfc_repeat_mode_enable
 .text.ndfc_repeat_mode_disable
                0x4a08a1a4       0x1c nand_sunxi/sun8iw11p1/libnand-sun8iw11p1
                0x4a08a1a4                ndfc_repeat_mode_disable
 .text.ndfc_wait_cmdfifo_free
                0x4a08a1c0       0x40 nand_sunxi/sun8iw11p1/libnand-sun8iw11p1
                0x4a08a1c0                ndfc_wait_cmdfifo_free
 .text.ndfc_wait_fsm_ready
                0x4a08a200       0x38 nand_sunxi/sun8iw11p1/libnand-sun8iw11p1
                0x4a08a200                ndfc_wait_fsm_ready
 .text.ndfc_wait_cmd_finish
                0x4a08a238       0x4c nand_sunxi/sun8iw11p1/libnand-sun8iw11p1
                0x4a08a238                ndfc_wait_cmd_finish
 .text.ndfc_select_chip
                0x4a08a284       0x2c nand_sunxi/sun8iw11p1/libnand-sun8iw11p1
                0x4a08a284                ndfc_select_chip
 .text.ndfc_select_rb
                0x4a08a2b0       0x1c nand_sunxi/sun8iw11p1/libnand-sun8iw11p1
                0x4a08a2b0                ndfc_select_rb
 .text.ndfc_set_ecc_mode
                0x4a08a2cc       0x1c nand_sunxi/sun8iw11p1/libnand-sun8iw11p1
                0x4a08a2cc                ndfc_set_ecc_mode
 .text.ndfc_get_ecc_mode
                0x4a08a2e8       0x10 nand_sunxi/sun8iw11p1/libnand-sun8iw11p1
                0x4a08a2e8                ndfc_get_ecc_mode
 .text.ndfc_set_rand_seed
                0x4a08a2f8       0x28 nand_sunxi/sun8iw11p1/libnand-sun8iw11p1
                0x4a08a2f8                ndfc_set_rand_seed
 .text.ndfc_set_default_rand_seed
                0x4a08a320       0x1c nand_sunxi/sun8iw11p1/libnand-sun8iw11p1
                0x4a08a320                ndfc_set_default_rand_seed
 .text.ndfc_enable_randomize
                0x4a08a33c       0x14 nand_sunxi/sun8iw11p1/libnand-sun8iw11p1
                0x4a08a33c                ndfc_enable_randomize
 .text.ndfc_disable_randomize
                0x4a08a350       0x20 nand_sunxi/sun8iw11p1/libnand-sun8iw11p1
                0x4a08a350                ndfc_disable_randomize
 .text.ndfc_enable_rb_b2r_int
                0x4a08a370       0x14 nand_sunxi/sun8iw11p1/libnand-sun8iw11p1
                0x4a08a370                ndfc_enable_rb_b2r_int
 .text.ndfc_disable_rb_b2r_int
                0x4a08a384       0x14 nand_sunxi/sun8iw11p1/libnand-sun8iw11p1
                0x4a08a384                ndfc_disable_rb_b2r_int
 .text.ndfc_enable_dma_int
                0x4a08a398       0x14 nand_sunxi/sun8iw11p1/libnand-sun8iw11p1
                0x4a08a398                ndfc_enable_dma_int
 .text.ndfc_disable_dma_int
                0x4a08a3ac       0x14 nand_sunxi/sun8iw11p1/libnand-sun8iw11p1
                0x4a08a3ac                ndfc_disable_dma_int
 .text.ndfc_clear_dma_int
                0x4a08a3c0       0x10 nand_sunxi/sun8iw11p1/libnand-sun8iw11p1
                0x4a08a3c0                ndfc_clear_dma_int
 .text.ndfc_wait_rb_ready_int
                0x4a08a3d0       0xbc nand_sunxi/sun8iw11p1/libnand-sun8iw11p1
                0x4a08a3d0                ndfc_wait_rb_ready_int
 .text.ndfc_wait_rb_ready
                0x4a08a48c       0x2c nand_sunxi/sun8iw11p1/libnand-sun8iw11p1
                0x4a08a48c                ndfc_wait_rb_ready
 .text.ndfc_wait_all_rb_ready
                0x4a08a4b8       0x28 nand_sunxi/sun8iw11p1/libnand-sun8iw11p1
                0x4a08a4b8                ndfc_wait_all_rb_ready
 .text.ndfc_write_wait_rb_ready
                0x4a08a4e0       0x14 nand_sunxi/sun8iw11p1/libnand-sun8iw11p1
                0x4a08a4e0                ndfc_write_wait_rb_ready
 .text.fill_nctri
                0x4a08a4f4      0x110 nand_sunxi/sun8iw11p1/libnand-sun8iw11p1
                0x4a08a4f4                fill_nctri
 .text.save_nctri
                0x4a08a604      0x164 nand_sunxi/sun8iw11p1/libnand-sun8iw11p1
                0x4a08a604                save_nctri
 .text.ndfc_change_page_size
                0x4a08a768       0x90 nand_sunxi/sun8iw11p1/libnand-sun8iw11p1
                0x4a08a768                ndfc_change_page_size
 .text._normal_cmd_io_send
                0x4a08a7f8      0x130 nand_sunxi/sun8iw11p1/libnand-sun8iw11p1
                0x4a08a7f8                _normal_cmd_io_send
 .text._normal_cmd_io_wait
                0x4a08a928       0xe0 nand_sunxi/sun8iw11p1/libnand-sun8iw11p1
                0x4a08a928                _normal_cmd_io_wait
 .text._batch_cmd_io_send
                0x4a08aa08      0x1b0 nand_sunxi/sun8iw11p1/libnand-sun8iw11p1
                0x4a08aa08                _batch_cmd_io_send
 .text._batch_cmd_io_wait
                0x4a08abb8       0xbc nand_sunxi/sun8iw11p1/libnand-sun8iw11p1
                0x4a08abb8                _batch_cmd_io_wait
 .text.ndfc_clean_cmd_seq
                0x4a08ac74        0xc nand_sunxi/sun8iw11p1/libnand-sun8iw11p1
                0x4a08ac74                ndfc_clean_cmd_seq
 .text.ndfc_execute_cmd
                0x4a08ac80       0xf8 nand_sunxi/sun8iw11p1/libnand-sun8iw11p1
                0x4a08ac80                ndfc_execute_cmd
 .text.ndfc_get_spare_data
                0x4a08ad78       0x58 nand_sunxi/sun8iw11p1/libnand-sun8iw11p1
                0x4a08ad78                ndfc_get_spare_data
 .text.ndfc_set_spare_data
                0x4a08add0       0x58 nand_sunxi/sun8iw11p1/libnand-sun8iw11p1
                0x4a08add0                ndfc_set_spare_data
 .text.ndfc_is_toogle_interface
                0x4a08ae28       0x14 nand_sunxi/sun8iw11p1/libnand-sun8iw11p1
                0x4a08ae28                ndfc_is_toogle_interface
 .text.ndfc_set_legacy_interface
                0x4a08ae3c       0x18 nand_sunxi/sun8iw11p1/libnand-sun8iw11p1
                0x4a08ae3c                ndfc_set_legacy_interface
 .text.ndfc_set_toogle_interface
                0x4a08ae54       0x18 nand_sunxi/sun8iw11p1/libnand-sun8iw11p1
                0x4a08ae54                ndfc_set_toogle_interface
 .text.ndfc_get_nand_interface
                0x4a08ae6c       0x54 nand_sunxi/sun8iw11p1/libnand-sun8iw11p1
                0x4a08ae6c                ndfc_get_nand_interface
 .text.ndfc_change_nand_interface
                0x4a08aec0       0x6c nand_sunxi/sun8iw11p1/libnand-sun8iw11p1
                0x4a08aec0                ndfc_change_nand_interface
 .text.init_nctri
                0x4a08af2c      0x168 nand_sunxi/sun8iw11p1/libnand-sun8iw11p1
                0x4a08af2c                init_nctri
 .text.ndfc_dma_config_start
                0x4a08b094       0xd4 nand_sunxi/sun8iw11p1/libnand-sun8iw11p1
                0x4a08b094                ndfc_dma_config_start
 .text.ndfc_wait_dma_end
                0x4a08b168      0x11c nand_sunxi/sun8iw11p1/libnand-sun8iw11p1
                0x4a08b168                ndfc_wait_dma_end
 .text.ndfc_check_read_data_sta
                0x4a08b284       0x9c nand_sunxi/sun8iw11p1/libnand-sun8iw11p1
                0x4a08b284                ndfc_check_read_data_sta
 .text.ndfc_get_bad_blk_flag
                0x4a08b320       0xb4 nand_sunxi/sun8iw11p1/libnand-sun8iw11p1
                0x4a08b320                ndfc_get_bad_blk_flag
 .text.ndfc_check_ecc
                0x4a08b3d4      0x124 nand_sunxi/sun8iw11p1/libnand-sun8iw11p1
                0x4a08b3d4                ndfc_check_ecc
 .text.ndfc_update_ecc_sta_and_spare_data
                0x4a08b4f8       0xdc nand_sunxi/sun8iw11p1/libnand-sun8iw11p1
                0x4a08b4f8                ndfc_update_ecc_sta_and_spare_data
 .text._cal_sum
                0x4a08b5d4       0x78 nand_sunxi/sun8iw11p1/libnand-sun8iw11p1
                0x4a08b5d4                _cal_sum
 .text.check_sum
                0x4a08b64c       0x90 nand_sunxi/sun8iw11p1/libnand-sun8iw11p1
                0x4a08b64c                check_sum
 .text._generate_page_map_tab
                0x4a08b6dc      0x23c nand_sunxi/sun8iw11p1/libnand-sun8iw11p1
                0x4a08b6dc                _generate_page_map_tab
 .text.m0_write_boot0_one_pagetab_4k
                0x4a08b918      0x31c nand_sunxi/sun8iw11p1/libnand-sun8iw11p1
                0x4a08b918                m0_write_boot0_one_pagetab_4k
 .text.m0_write_boot0_one_pagetab_2k
                0x4a08bc34      0x31c nand_sunxi/sun8iw11p1/libnand-sun8iw11p1
                0x4a08bc34                m0_write_boot0_one_pagetab_2k
 .text.m0_write_boot0_one_1k_mode
                0x4a08bf50      0x1c0 nand_sunxi/sun8iw11p1/libnand-sun8iw11p1
                0x4a08bf50                m0_write_boot0_one_1k_mode
 .text.m0_write_boot0_one
                0x4a08c110       0xb4 nand_sunxi/sun8iw11p1/libnand-sun8iw11p1
                0x4a08c110                m0_write_boot0_one
 .text.m0_erase_block_start
                0x4a08c1c4      0x120 nand_sunxi/sun8iw11p1/libnand-sun8iw11p1
                0x4a08c1c4                m0_erase_block_start
 .text.m0_erase_block
                0x4a08c2e4       0x5c nand_sunxi/sun8iw11p1/libnand-sun8iw11p1
                0x4a08c2e4                m0_erase_block
 .text.m0_read_page_start
                0x4a08c340      0x1b4 nand_sunxi/sun8iw11p1/libnand-sun8iw11p1
                0x4a08c340                m0_read_page_start
 .text.m0_read_page_end_not_retry
                0x4a08c4f4       0xf0 nand_sunxi/sun8iw11p1/libnand-sun8iw11p1
                0x4a08c4f4                m0_read_page_end_not_retry
 .text.m0_read_page_end
                0x4a08c5e4       0x64 nand_sunxi/sun8iw11p1/libnand-sun8iw11p1
                0x4a08c5e4                m0_read_page_end
 .text.m0_read_page
                0x4a08c648      0x10c nand_sunxi/sun8iw11p1/libnand-sun8iw11p1
                0x4a08c648                m0_read_page
 .text.m0_write_page_start
                0x4a08c754      0x230 nand_sunxi/sun8iw11p1/libnand-sun8iw11p1
                0x4a08c754                m0_write_page_start
 .text.m0_write_page_end
                0x4a08c984       0x98 nand_sunxi/sun8iw11p1/libnand-sun8iw11p1
                0x4a08c984                m0_write_page_end
 .text.m0_write_page
                0x4a08ca1c       0xf8 nand_sunxi/sun8iw11p1/libnand-sun8iw11p1
                0x4a08ca1c                m0_write_page
 .text.m0_read_two_plane_page
                0x4a08cb14      0x170 nand_sunxi/sun8iw11p1/libnand-sun8iw11p1
                0x4a08cb14                m0_read_two_plane_page
 .text.m0_write_two_plane_page
                0x4a08cc84      0x118 nand_sunxi/sun8iw11p1/libnand-sun8iw11p1
                0x4a08cc84                m0_write_two_plane_page
 .text.m0_bad_block_check
                0x4a08cd9c      0x194 nand_sunxi/sun8iw11p1/libnand-sun8iw11p1
                0x4a08cd9c                m0_bad_block_check
 .text.m0_bad_block_mark
                0x4a08cf30      0x358 nand_sunxi/sun8iw11p1/libnand-sun8iw11p1
                0x4a08cf30                m0_bad_block_mark
 .text.nand_phy_get_page_type
                0x4a08d288       0x24 nand_sunxi/sun8iw11p1/libnand-sun8iw11p1
                0x4a08d288                nand_phy_get_page_type
 .text.nand_phy_low_page_write_cache_set
                0x4a08d2ac      0x118 nand_sunxi/sun8iw11p1/libnand-sun8iw11p1
                0x4a08d2ac                nand_phy_low_page_write_cache_set
 .text.nand_phy_low_page_cache_get_for_write
                0x4a08d3c4       0xc0 nand_sunxi/sun8iw11p1/libnand-sun8iw11p1
                0x4a08d3c4                nand_phy_low_page_cache_get_for_write
 .text.nand_phy_low_page_write_cache_cancle
                0x4a08d484       0x74 nand_sunxi/sun8iw11p1/libnand-sun8iw11p1
                0x4a08d484                nand_phy_low_page_write_cache_cancle
 .text.nand_phy_low_page_cache_get_for_read
                0x4a08d4f8       0xb8 nand_sunxi/sun8iw11p1/libnand-sun8iw11p1
                0x4a08d4f8                nand_phy_low_page_cache_get_for_read
 .text.m0_rw_page
                0x4a08d5b0       0x58 nand_sunxi/sun8iw11p1/libnand-sun8iw11p1
                0x4a08d5b0                m0_rw_page
 .text.m0_use_chip_function
                0x4a08d608      0x2b0 nand_sunxi/sun8iw11p1/libnand-sun8iw11p1
                0x4a08d608                m0_use_chip_function
 .text.m0_rw_use_chip_function
                0x4a08d8b8      0x898 nand_sunxi/sun8iw11p1/libnand-sun8iw11p1
                0x4a08d8b8                m0_rw_use_chip_function
 .text.m0_erase_super_block
                0x4a08e150        0x8 nand_sunxi/sun8iw11p1/libnand-sun8iw11p1
                0x4a08e150                m0_erase_super_block
 .text.m0_read_super_page
                0x4a08e158        0x8 nand_sunxi/sun8iw11p1/libnand-sun8iw11p1
                0x4a08e158                m0_read_super_page
 .text.m0_write_super_page
                0x4a08e160        0x8 nand_sunxi/sun8iw11p1/libnand-sun8iw11p1
                0x4a08e160                m0_write_super_page
 .text.m0_super_bad_block_check
                0x4a08e168        0x8 nand_sunxi/sun8iw11p1/libnand-sun8iw11p1
                0x4a08e168                m0_super_bad_block_check
 .text.m0_super_bad_block_mark
                0x4a08e170        0x8 nand_sunxi/sun8iw11p1/libnand-sun8iw11p1
                0x4a08e170                m0_super_bad_block_mark
 .text.m0_special_init
                0x4a08e178       0x2c nand_sunxi/sun8iw11p1/libnand-sun8iw11p1
                0x4a08e178                m0_special_init
 .text.m0_special_exit
                0x4a08e1a4       0x18 nand_sunxi/sun8iw11p1/libnand-sun8iw11p1
                0x4a08e1a4                m0_special_exit
 .text.m0_is_lsb_page
                0x4a08e1bc        0x8 nand_sunxi/sun8iw11p1/libnand-sun8iw11p1
                0x4a08e1bc                m0_is_lsb_page
 .text.m1_write_page_FF
                0x4a08e1c4      0x240 nand_sunxi/sun8iw11p1/libnand-sun8iw11p1
                0x4a08e1c4                m1_write_page_FF
 .text.m1_vender_set_param
                0x4a08e404       0xac nand_sunxi/sun8iw11p1/libnand-sun8iw11p1
                0x4a08e404                m1_vender_set_param
 .text.m1_major_check_byte
                0x4a08e4b0      0x160 nand_sunxi/sun8iw11p1/libnand-sun8iw11p1
                0x4a08e4b0                m1_major_check_byte
 .text.m1_get_read_retry_cfg
                0x4a08e610      0x210 nand_sunxi/sun8iw11p1/libnand-sun8iw11p1
                0x4a08e610                m1_get_read_retry_cfg
 .text.m1_read_otp_info_hynix
                0x4a08e820      0x250 nand_sunxi/sun8iw11p1/libnand-sun8iw11p1
                0x4a08e820                m1_read_otp_info_hynix
 .text.m1_get_rr_value_otp_hynix
                0x4a08ea70       0xa0 nand_sunxi/sun8iw11p1/libnand-sun8iw11p1
                0x4a08ea70                m1_get_rr_value_otp_hynix
 .text.m1_saveotpvalue
                0x4a08eb10       0x20 nand_sunxi/sun8iw11p1/libnand-sun8iw11p1
                0x4a08eb10                m1_saveotpvalue
 .text.m1_getotpparam
                0x4a08eb30       0x74 nand_sunxi/sun8iw11p1/libnand-sun8iw11p1
                0x4a08eb30                m1_getotpparam
 .text.m1_setdefaultparam
                0x4a08eba4       0x94 nand_sunxi/sun8iw11p1/libnand-sun8iw11p1
                0x4a08eba4                m1_setdefaultparam
 .text.m1_readretry_exit
                0x4a08ec38       0x28 nand_sunxi/sun8iw11p1/libnand-sun8iw11p1
                0x4a08ec38                m1_readretry_exit
 .text.m1_set_readretry
                0x4a08ec60       0x64 nand_sunxi/sun8iw11p1/libnand-sun8iw11p1
                0x4a08ec60                m1_set_readretry
 .text.m1_read_page_end
                0x4a08ecc4      0x118 nand_sunxi/sun8iw11p1/libnand-sun8iw11p1
                0x4a08ecc4                m1_read_page_end
 .text.m1_special_exit
                0x4a08eddc       0x40 nand_sunxi/sun8iw11p1/libnand-sun8iw11p1
                0x4a08eddc                m1_special_exit
 .text.m1_is_lsb_page
                0x4a08ee1c       0x34 nand_sunxi/sun8iw11p1/libnand-sun8iw11p1
                0x4a08ee1c                m1_is_lsb_page
 .text.m1_get_hynix_special_info
                0x4a08ee50      0x100 nand_sunxi/sun8iw11p1/libnand-sun8iw11p1
                0x4a08ee50                m1_get_hynix_special_info
 .text.m1_init_readretry_param
                0x4a08ef50      0x144 nand_sunxi/sun8iw11p1/libnand-sun8iw11p1
                0x4a08ef50                m1_init_readretry_param
 .text.m1_readretry_init
                0x4a08f094       0xb0 nand_sunxi/sun8iw11p1/libnand-sun8iw11p1
                0x4a08f094                m1_readretry_init
 .text.m1_special_init
                0x4a08f144       0xa4 nand_sunxi/sun8iw11p1/libnand-sun8iw11p1
                0x4a08f144                m1_special_init
 .text.m8_read_boot0_page_cfg_mode
                0x4a08f1e8      0x1dc nand_sunxi/sun8iw11p1/libnand-sun8iw11p1
                0x4a08f1e8                m8_read_boot0_page_cfg_mode
 .text.m8_write_boot0_page_cfg_mode
                0x4a08f3c4      0x1e4 nand_sunxi/sun8iw11p1/libnand-sun8iw11p1
                0x4a08f3c4                m8_write_boot0_page_cfg_mode
 .text.m8_read_boot0_page
                0x4a08f5a8       0x30 nand_sunxi/sun8iw11p1/libnand-sun8iw11p1
                0x4a08f5a8                m8_read_boot0_page
 .text.m8_write_boot0_page
                0x4a08f5d8       0x38 nand_sunxi/sun8iw11p1/libnand-sun8iw11p1
                0x4a08f5d8                m8_write_boot0_page
 .text.m8_read_boot0_one_pagetab_4k
                0x4a08f610      0x190 nand_sunxi/sun8iw11p1/libnand-sun8iw11p1
                0x4a08f610                m8_read_boot0_one_pagetab_4k
 .text.m8_read_boot0_one_pagetab_2k
                0x4a08f7a0      0x190 nand_sunxi/sun8iw11p1/libnand-sun8iw11p1
                0x4a08f7a0                m8_read_boot0_one_pagetab_2k
 .text.m8_read_boot0_one_1k_mode
                0x4a08f930      0x204 nand_sunxi/sun8iw11p1/libnand-sun8iw11p1
                0x4a08f930                m8_read_boot0_one_1k_mode
 .text.m8_read_boot0_one
                0x4a08fb34       0x94 nand_sunxi/sun8iw11p1/libnand-sun8iw11p1
                0x4a08fb34                m8_read_boot0_one
 .text.m8_write_boot0_one
                0x4a08fbc8      0x3a4 nand_sunxi/sun8iw11p1/libnand-sun8iw11p1
                0x4a08fbc8                m8_write_boot0_one
 .text.m2_write_boot0_one
                0x4a08ff6c      0x3cc nand_sunxi/sun8iw11p1/libnand-sun8iw11p1
                0x4a08ff6c                m2_write_boot0_one
 .text.m2_vender_get_param
                0x4a090338       0x70 nand_sunxi/sun8iw11p1/libnand-sun8iw11p1
                0x4a090338                m2_vender_get_param
 .text.m2_vender_set_param
                0x4a0903a8       0x8c nand_sunxi/sun8iw11p1/libnand-sun8iw11p1
                0x4a0903a8                m2_vender_set_param
 .text.m2_lsb_init
                0x4a090434       0xd0 nand_sunxi/sun8iw11p1/libnand-sun8iw11p1
                0x4a090434                m2_lsb_init
 .text.m2_lsb_enable
                0x4a090504       0x74 nand_sunxi/sun8iw11p1/libnand-sun8iw11p1
                0x4a090504                m2_lsb_enable
 .text.m2_lsb_disable
                0x4a090578       0x2c nand_sunxi/sun8iw11p1/libnand-sun8iw11p1
                0x4a090578                m2_lsb_disable
 .text.m2_lsb_exit
                0x4a0905a4       0x8c nand_sunxi/sun8iw11p1/libnand-sun8iw11p1
                0x4a0905a4                m2_lsb_exit
 .text.m2_vender_get_param_otp_hynix
                0x4a090630      0x2a0 nand_sunxi/sun8iw11p1/libnand-sun8iw11p1
                0x4a090630                m2_vender_get_param_otp_hynix
 .text.m2_saveotpvalue
                0x4a0908d0       0x20 nand_sunxi/sun8iw11p1/libnand-sun8iw11p1
                0x4a0908d0                m2_saveotpvalue
 .text.m2_getotpparam
                0x4a0908f0       0x90 nand_sunxi/sun8iw11p1/libnand-sun8iw11p1
                0x4a0908f0                m2_getotpparam
 .text.m2_setdefaultparam
                0x4a090980       0x94 nand_sunxi/sun8iw11p1/libnand-sun8iw11p1
                0x4a090980                m2_setdefaultparam
 .text.m2_init_readretry_param
                0x4a090a14      0x150 nand_sunxi/sun8iw11p1/libnand-sun8iw11p1
                0x4a090a14                m2_init_readretry_param
 .text.m2_readretry_init
                0x4a090b64      0x118 nand_sunxi/sun8iw11p1/libnand-sun8iw11p1
                0x4a090b64                m2_readretry_init
 .text.m2_readretry_exit
                0x4a090c7c       0x28 nand_sunxi/sun8iw11p1/libnand-sun8iw11p1
                0x4a090c7c                m2_readretry_exit
 .text.m2_set_readretry
                0x4a090ca4       0xb0 nand_sunxi/sun8iw11p1/libnand-sun8iw11p1
                0x4a090ca4                m2_set_readretry
 .text.m2_read_page_end
                0x4a090d54      0x184 nand_sunxi/sun8iw11p1/libnand-sun8iw11p1
                0x4a090d54                m2_read_page_end
 .text.m2_special_init
                0x4a090ed8       0xa4 nand_sunxi/sun8iw11p1/libnand-sun8iw11p1
                0x4a090ed8                m2_special_init
 .text.m2_special_exit
                0x4a090f7c       0x40 nand_sunxi/sun8iw11p1/libnand-sun8iw11p1
                0x4a090f7c                m2_special_exit
 .text.m2_is_lsb_page
                0x4a090fbc       0x60 nand_sunxi/sun8iw11p1/libnand-sun8iw11p1
                0x4a090fbc                m2_is_lsb_page
 .text.m3_write_boot0_one
                0x4a09101c      0x3cc nand_sunxi/sun8iw11p1/libnand-sun8iw11p1
                0x4a09101c                m3_write_boot0_one
 .text.m3_vender_get_param
                0x4a0913e8       0x70 nand_sunxi/sun8iw11p1/libnand-sun8iw11p1
                0x4a0913e8                m3_vender_get_param
 .text.m3_vender_set_param
                0x4a091458       0xac nand_sunxi/sun8iw11p1/libnand-sun8iw11p1
                0x4a091458                m3_vender_set_param
 .text.m3_lsb_init
                0x4a091504       0xa0 nand_sunxi/sun8iw11p1/libnand-sun8iw11p1
                0x4a091504                m3_lsb_init
 .text.m3_lsb_enable
                0x4a0915a4       0x74 nand_sunxi/sun8iw11p1/libnand-sun8iw11p1
                0x4a0915a4                m3_lsb_enable
 .text.m3_lsb_disable
                0x4a091618       0x2c nand_sunxi/sun8iw11p1/libnand-sun8iw11p1
                0x4a091618                m3_lsb_disable
 .text.m3_lsb_exit
                0x4a091644       0x8c nand_sunxi/sun8iw11p1/libnand-sun8iw11p1
                0x4a091644                m3_lsb_exit
 .text.m3_getdefaultparam
                0x4a0916d0       0x50 nand_sunxi/sun8iw11p1/libnand-sun8iw11p1
                0x4a0916d0                m3_getdefaultparam
 .text.m3_setdefaultparam
                0x4a091720       0x94 nand_sunxi/sun8iw11p1/libnand-sun8iw11p1
                0x4a091720                m3_setdefaultparam
 .text.m3_get_default_param
                0x4a0917b4       0x5c nand_sunxi/sun8iw11p1/libnand-sun8iw11p1
                0x4a0917b4                m3_get_default_param
 .text.m3_readretry_init
                0x4a091810      0x18c nand_sunxi/sun8iw11p1/libnand-sun8iw11p1
                0x4a091810                m3_readretry_init
 .text.m3_readretry_exit
                0x4a09199c       0x28 nand_sunxi/sun8iw11p1/libnand-sun8iw11p1
                0x4a09199c                m3_readretry_exit
 .text.m3_set_readretry
                0x4a0919c4      0x100 nand_sunxi/sun8iw11p1/libnand-sun8iw11p1
                0x4a0919c4                m3_set_readretry
 .text.m3_read_page_end
                0x4a091ac4      0x118 nand_sunxi/sun8iw11p1/libnand-sun8iw11p1
                0x4a091ac4                m3_read_page_end
 .text.m3_special_init
                0x4a091bdc       0xa4 nand_sunxi/sun8iw11p1/libnand-sun8iw11p1
                0x4a091bdc                m3_special_init
 .text.m3_special_exit
                0x4a091c80       0x40 nand_sunxi/sun8iw11p1/libnand-sun8iw11p1
                0x4a091c80                m3_special_exit
 .text.m3_is_lsb_page
                0x4a091cc0       0x60 nand_sunxi/sun8iw11p1/libnand-sun8iw11p1
                0x4a091cc0                m3_is_lsb_page
 .text.micron_intel_set_feature
                0x4a091d20       0x7c nand_sunxi/sun8iw11p1/libnand-sun8iw11p1
                0x4a091d20                micron_intel_set_feature
 .text.m4_readretry_init
                0x4a091d9c       0xec nand_sunxi/sun8iw11p1/libnand-sun8iw11p1
                0x4a091d9c                m4_readretry_init
 .text.m4_set_readretry
                0x4a091e88       0xec nand_sunxi/sun8iw11p1/libnand-sun8iw11p1
                0x4a091e88                m4_set_readretry
 .text.m4_read_page_end
                0x4a091f74       0xf0 nand_sunxi/sun8iw11p1/libnand-sun8iw11p1
                0x4a091f74                m4_read_page_end
 .text.m4_special_init
                0x4a092064       0x94 nand_sunxi/sun8iw11p1/libnand-sun8iw11p1
                0x4a092064                m4_special_init
 .text.m4_special_exit
                0x4a0920f8       0x60 nand_sunxi/sun8iw11p1/libnand-sun8iw11p1
                0x4a0920f8                m4_special_exit
 .text.m4_0x40_is_lsb_page
                0x4a092158       0x60 nand_sunxi/sun8iw11p1/libnand-sun8iw11p1
                0x4a092158                m4_0x40_is_lsb_page
 .text.m4_0x41_is_lsb_page
                0x4a0921b8       0x60 nand_sunxi/sun8iw11p1/libnand-sun8iw11p1
                0x4a0921b8                m4_0x41_is_lsb_page
 .text.m4_0x42_is_lsb_page
                0x4a092218       0x70 nand_sunxi/sun8iw11p1/libnand-sun8iw11p1
                0x4a092218                m4_0x42_is_lsb_page
 .text.m5_readretry_init
                0x4a092288       0x50 nand_sunxi/sun8iw11p1/libnand-sun8iw11p1
                0x4a092288                m5_readretry_init
 .text.m5_vender_set_param
                0x4a0922d8       0x60 nand_sunxi/sun8iw11p1/libnand-sun8iw11p1
                0x4a0922d8                m5_vender_set_param
 .text.m5_set_readretry
                0x4a092338       0x60 nand_sunxi/sun8iw11p1/libnand-sun8iw11p1
                0x4a092338                m5_set_readretry
 .text.m5_read_page_end
                0x4a092398       0xf0 nand_sunxi/sun8iw11p1/libnand-sun8iw11p1
                0x4a092398                m5_read_page_end
 .text.m5_special_init
                0x4a092488       0x94 nand_sunxi/sun8iw11p1/libnand-sun8iw11p1
                0x4a092488                m5_special_init
 .text.m5_special_exit
                0x4a09251c       0x38 nand_sunxi/sun8iw11p1/libnand-sun8iw11p1
                0x4a09251c                m5_special_exit
 .text.m5_is_lsb_page
                0x4a092554       0x38 nand_sunxi/sun8iw11p1/libnand-sun8iw11p1
                0x4a092554                m5_is_lsb_page
 .text.m6_readretry_init
                0x4a09258c       0x54 nand_sunxi/sun8iw11p1/libnand-sun8iw11p1
                0x4a09258c                m6_readretry_init
 .text.m6_vender_pre_condition
                0x4a0925e0       0x48 nand_sunxi/sun8iw11p1/libnand-sun8iw11p1
                0x4a0925e0                m6_vender_pre_condition
 .text.m6_read_retry_clock_save
                0x4a092628       0x40 nand_sunxi/sun8iw11p1/libnand-sun8iw11p1
                0x4a092628                m6_read_retry_clock_save
 .text.m6_read_retry_clock_recover
                0x4a092668       0x30 nand_sunxi/sun8iw11p1/libnand-sun8iw11p1
                0x4a092668                m6_read_retry_clock_recover
 .text.m6_vender_set_param
                0x4a092698      0x240 nand_sunxi/sun8iw11p1/libnand-sun8iw11p1
                0x4a092698                m6_vender_set_param
 .text.m6_set_readretry
                0x4a0928d8      0x110 nand_sunxi/sun8iw11p1/libnand-sun8iw11p1
                0x4a0928d8                m6_set_readretry
 .text.m6_exit_readretry
                0x4a0929e8       0xe4 nand_sunxi/sun8iw11p1/libnand-sun8iw11p1
                0x4a0929e8                m6_exit_readretry
 .text.m6_read_page_end
                0x4a092acc      0x108 nand_sunxi/sun8iw11p1/libnand-sun8iw11p1
                0x4a092acc                m6_read_page_end
 .text.m6_special_init
                0x4a092bd4       0xa4 nand_sunxi/sun8iw11p1/libnand-sun8iw11p1
                0x4a092bd4                m6_special_init
 .text.m6_special_exit
                0x4a092c78       0x38 nand_sunxi/sun8iw11p1/libnand-sun8iw11p1
                0x4a092c78                m6_special_exit
 .text.m6_is_lsb_page
                0x4a092cb0       0x38 nand_sunxi/sun8iw11p1/libnand-sun8iw11p1
                0x4a092cb0                m6_is_lsb_page
 .text.m7_activation_seq
                0x4a092ce8       0xcc nand_sunxi/sun8iw11p1/libnand-sun8iw11p1
                0x4a092ce8                m7_activation_seq
 .text.m7_readretry_init
                0x4a092db4       0x88 nand_sunxi/sun8iw11p1/libnand-sun8iw11p1
                0x4a092db4                m7_readretry_init
 .text.m7_read_retry_clock_save
                0x4a092e3c       0x40 nand_sunxi/sun8iw11p1/libnand-sun8iw11p1
                0x4a092e3c                m7_read_retry_clock_save
 .text.m7_read_retry_clock_recover
                0x4a092e7c       0x30 nand_sunxi/sun8iw11p1/libnand-sun8iw11p1
                0x4a092e7c                m7_read_retry_clock_recover
 .text.m7_end_one_read_retry
                0x4a092eac       0xa8 nand_sunxi/sun8iw11p1/libnand-sun8iw11p1
                0x4a092eac                m7_end_one_read_retry
 .text.m7_vender_set_param
                0x4a092f54       0xc4 nand_sunxi/sun8iw11p1/libnand-sun8iw11p1
                0x4a092f54                m7_vender_set_param
 .text.m7_set_readretry
                0x4a093018      0x178 nand_sunxi/sun8iw11p1/libnand-sun8iw11p1
                0x4a093018                m7_set_readretry
 .text.m7_exit_readretry
                0x4a093190       0xe8 nand_sunxi/sun8iw11p1/libnand-sun8iw11p1
                0x4a093190                m7_exit_readretry
 .text.m7_read_page_end
                0x4a093278      0x144 nand_sunxi/sun8iw11p1/libnand-sun8iw11p1
                0x4a093278                m7_read_page_end
 .text.m7_special_init
                0x4a0933bc       0xa4 nand_sunxi/sun8iw11p1/libnand-sun8iw11p1
                0x4a0933bc                m7_special_init
 .text.m7_special_exit
                0x4a093460       0x38 nand_sunxi/sun8iw11p1/libnand-sun8iw11p1
                0x4a093460                m7_special_exit
 .text.m7_is_lsb_page
                0x4a093498       0x38 nand_sunxi/sun8iw11p1/libnand-sun8iw11p1
                0x4a093498                m7_is_lsb_page
 .text.m9_dsp_on
                0x4a0934d0       0x4c nand_sunxi/sun8iw11p1/libnand-sun8iw11p1
                0x4a0934d0                m9_dsp_on
 .text.m9_cmd25
                0x4a09351c       0x4c nand_sunxi/sun8iw11p1/libnand-sun8iw11p1
                0x4a09351c                m9_cmd25
 .text.m9_set_lmflgfix_next
                0x4a093568      0x130 nand_sunxi/sun8iw11p1/libnand-sun8iw11p1
                0x4a093568                m9_set_lmflgfix_next
 .text.m9_readretry_init
                0x4a093698       0x78 nand_sunxi/sun8iw11p1/libnand-sun8iw11p1
                0x4a093698                m9_readretry_init
 .text.m9_vender_set_param
                0x4a093710       0x30 nand_sunxi/sun8iw11p1/libnand-sun8iw11p1
                0x4a093710                m9_vender_set_param
 .text.m9_set_readretry
                0x4a093740       0x84 nand_sunxi/sun8iw11p1/libnand-sun8iw11p1
                0x4a093740                m9_set_readretry
 .text.m9_exit_readretry
                0x4a0937c4       0x5c nand_sunxi/sun8iw11p1/libnand-sun8iw11p1
                0x4a0937c4                m9_exit_readretry
 .text.m9_read_page_end
                0x4a093820      0x410 nand_sunxi/sun8iw11p1/libnand-sun8iw11p1
                0x4a093820                m9_read_page_end
 .text.m9_special_init
                0x4a093c30       0xa4 nand_sunxi/sun8iw11p1/libnand-sun8iw11p1
                0x4a093c30                m9_special_init
 .text.m9_special_exit
                0x4a093cd4       0x70 nand_sunxi/sun8iw11p1/libnand-sun8iw11p1
                0x4a093cd4                m9_special_exit
 .text.m9_check_bad_block_first_burn
                0x4a093d44      0x130 nand_sunxi/sun8iw11p1/libnand-sun8iw11p1
                0x4a093d44                m9_check_bad_block_first_burn

.glue_7         0x4a093e74        0x0
 .glue_7        0x00000000        0x0 linker stubs

.glue_7t        0x4a093e74        0x0
 .glue_7t       0x00000000        0x0 linker stubs

.vfp11_veneer   0x4a093e74        0x0
 .vfp11_veneer  0x00000000        0x0 linker stubs

.v4_bx          0x4a093e74        0x0
 .v4_bx         0x00000000        0x0 linker stubs

.iplt           0x4a093e74        0x0
 .iplt          0x00000000        0x0 arch/arm/cpu/armv7/spare_head.o
                0x4a093e74                . = ALIGN (0x4)

.rodata         0x4a093e74    0x267e9
 *(SORT(.rodata*))
 .rodata        0x4a093e74       0x80 arch/arm/lib/built-in.o
 .rodata        0x4a093ef4      0x270 common/built-in.o
 .rodata        0x4a094164      0x90c drivers/built-in.o
 .rodata        0x4a094a70       0x20 drivers/mmc/built-in.o
 .rodata        0x4a094a90       0x48 drivers/pwm/built-in.o
 .rodata        0x4a094ad8       0x10 drivers/spi/built-in.o
 .rodata.CSWTCH.100
                0x4a094ae8        0xc drivers/built-in.o
 .rodata.CSWTCH.19
                0x4a094af4       0x14 common/built-in.o
 .rodata.CSWTCH.9
                0x4a094b08        0xc drivers/serial/built-in.o
 .rodata.baudrate_table
                0x4a094b14       0x14 drivers/serial/built-in.o
 .rodata.bits_name.10260
                0x4a094b28       0x10 drivers/built-in.o
 .rodata.block_drvr
                0x4a094b38       0x30 disk/built-in.o
 .rodata.boot_os
                0x4a094b68       0x60 common/built-in.o
 .rodata.clk_tbl
                0x4a094bc8       0x50 drivers/built-in.o
 .rodata.crc_table
                0x4a094c18      0x400 lib/built-in.o
 .rodata.de_clk_tbl
                0x4a095018       0x9c drivers/built-in.o
 .rodata.env_flags_varaccess_mask
                0x4a0950b4       0x10 common/built-in.o
 .rodata.fbase  0x4a0950c4       0x10 drivers/mmc/built-in.o
 .rodata.fdt_errtable
                0x4a0950d4       0x34 lib/libfdt/built-in.o
 .rodata.fmt_name.10259
                0x4a095108       0x10 drivers/built-in.o
 .rodata.hdmi_mode_tbl
                0x4a095118       0xe0 drivers/built-in.o
 .rodata.hdmi_tx_support_vic
                0x4a0951f8       0x60 drivers/built-in.o
 .rodata.multipliers
                0x4a095258       0x40 drivers/mmc/built-in.o
 .rodata.op_adv
                0x4a095298      0x100 common/built-in.o
                0x4a095298                op_adv
 .rodata.random_seed
                0x4a095398      0x200 nand_sunxi/sun8iw11p1/libnand-sun8iw11p1
                0x4a095398                random_seed
 .rodata.serial_ports
                0x4a095598       0x18 drivers/serial/built-in.o
 .rodata.sun8iw11_de_features
                0x4a0955b0       0x34 drivers/built-in.o
 .rodata.sun8iw11_de_is_support_scale
                0x4a0955e4       0x18 drivers/built-in.o
 .rodata.sun8iw11_de_is_support_smbl
                0x4a0955fc        0x8 drivers/built-in.o
 .rodata.sun8iw11_de_is_support_vep
                0x4a095604       0x18 drivers/built-in.o
 .rodata.sun8iw11_de_is_support_wb
                0x4a09561c        0x8 drivers/built-in.o
 .rodata.sun8iw11_de_num_chns
                0x4a095624        0x8 drivers/built-in.o
 .rodata.sun8iw11_de_num_layers
                0x4a09562c       0x18 drivers/built-in.o
 .rodata.sun8iw11_de_num_vi_chns
                0x4a095644        0x8 drivers/built-in.o
 .rodata.sun8iw11_de_scale_line_buffer_ed
                0x4a09564c       0x18 drivers/built-in.o
 .rodata.sun8iw11_de_scale_line_buffer_rgb
                0x4a095664       0x18 drivers/built-in.o
 .rodata.sun8iw11_de_scale_line_buffer_yuv
                0x4a09567c       0x18 drivers/built-in.o
 .rodata.sun8iw11_de_supported_output_types
                0x4a095694       0x10 drivers/built-in.o
 .rodata.sunxi_clk_factors_ops
                0x4a0956a4       0x2c drivers/clk/built-in.o
 .rodata.sunxi_clk_periph_ops
                0x4a0956d0       0x2c drivers/clk/built-in.o
 .rodata.sunxi_mmc_ops
                0x4a0956fc       0x24 drivers/mmc/built-in.o
                0x4a0956fc                sunxi_mmc_ops
 .rodata.tacc_exp
                0x4a095720       0x20 drivers/mmc/built-in.o
 .rodata.tacc_mant
                0x4a095740       0x40 drivers/mmc/built-in.o
 .rodata.uart_clk_tab
                0x4a095780       0x60 drivers/serial/built-in.o
 .rodata.uimage_arch
                0x4a0957e0      0x120 common/built-in.o
 .rodata.uimage_comp
                0x4a095900       0x48 common/built-in.o
 .rodata.uimage_os
                0x4a095948       0x78 common/built-in.o
 .rodata.uimage_type
                0x4a0959c0       0xf0 common/built-in.o
 .rodata.dbase.4359
                0x4a095ab0       0x40 lib/built-in.o
 .rodata.dext.4360
                0x4a095af0       0x40 lib/built-in.o
 .rodata.distfix
                0x4a095b30       0x80 lib/built-in.o
 .rodata.lbase.4357
                0x4a095bb0       0x3e lib/built-in.o
 .rodata.lenfix
                0x4a095bee      0x800 lib/built-in.o
 .rodata.lext.4358
                0x4a0963ee       0x3e lib/built-in.o
 .rodata.order.4453
                0x4a09642c       0x26 lib/built-in.o
 .rodata.para0  0x4a096452       0x38 nand_sunxi/sun8iw11p1/libnand-sun8iw11p1
                0x4a096452                para0
 .rodata.para1  0x4a09648a       0x38 nand_sunxi/sun8iw11p1/libnand-sun8iw11p1
                0x4a09648a                para1
 .rodata        0x4a0964c2       0x3f drivers/usb/host/built-in.o
 .rodata        0x4a096501       0x31 lib/built-in.o
 .rodata        0x4a096532       0x30 sprite/built-in.o
 .rodata        0x4a096562        0x9 nand_sunxi/sun8iw11p1/libnand-sun8iw11p1
 .rodata.CSWTCH.22
                0x4a09656b        0x4 drivers/built-in.o
 .rodata.CSWTCH.25
                0x4a09656f        0xe drivers/built-in.o
 .rodata.CSWTCH.38
                0x4a09657d       0x16 common/built-in.o
 .rodata.CSWTCH.44
                0x4a096593        0x2 common/built-in.o
 .rodata.CSWTCH.98
                0x4a096595        0xe drivers/built-in.o
 .rodata.__FUNCTION__.4485
                0x4a0965a3       0x19 drivers/mmc/built-in.o
 .rodata.__FUNCTION__.4494
                0x4a0965bc       0x17 drivers/mmc/built-in.o
 .rodata.__FUNCTION__.4576
                0x4a0965d3       0x10 drivers/mmc/built-in.o
 .rodata.__FUNCTION__.4605
                0x4a0965e3       0x13 drivers/mmc/built-in.o
 .rodata.__FUNCTION__.4615
                0x4a0965f6       0x10 drivers/mmc/built-in.o
 .rodata.__FUNCTION__.4619
                0x4a096606        0xf drivers/mmc/built-in.o
 .rodata.__FUNCTION__.4626
                0x4a096615        0xe drivers/mmc/built-in.o
 .rodata.__FUNCTION__.4636
                0x4a096623       0x11 drivers/mmc/built-in.o
 .rodata.__FUNCTION__.4645
                0x4a096634        0xd drivers/mmc/built-in.o
 .rodata.__FUNCTION__.4654
                0x4a096641       0x10 drivers/mmc/built-in.o
 .rodata.__FUNCTION__.4662
                0x4a096651       0x14 drivers/mmc/built-in.o
 .rodata.__FUNCTION__.4664
                0x4a096665       0x1b drivers/mmc/built-in.o
 .rodata.__FUNCTION__.4665
                0x4a096680       0x15 drivers/mmc/built-in.o
 .rodata.__FUNCTION__.4672
                0x4a096695       0x1d drivers/mmc/built-in.o
 .rodata.__FUNCTION__.4677
                0x4a0966b2       0x14 drivers/mmc/built-in.o
 .rodata.__FUNCTION__.4685
                0x4a0966c6       0x11 drivers/mmc/built-in.o
 .rodata.__FUNCTION__.4694
                0x4a0966d7       0x14 drivers/mmc/built-in.o
 .rodata.__FUNCTION__.4699
                0x4a0966eb       0x16 drivers/mmc/built-in.o
 .rodata.__FUNCTION__.4712
                0x4a096701        0xb drivers/mmc/built-in.o
 .rodata.__FUNCTION__.4715
                0x4a09670c        0xd drivers/mmc/built-in.o
 .rodata.__FUNCTION__.4719
                0x4a096719        0xd drivers/mmc/built-in.o
 .rodata.__FUNCTION__.4740
                0x4a096726       0x12 drivers/mmc/built-in.o
 .rodata.__FUNCTION__.4752
                0x4a096738       0x10 drivers/mmc/built-in.o
 .rodata.__FUNCTION__.4763
                0x4a096748        0xf drivers/mmc/built-in.o
 .rodata.__FUNCTION__.4774
                0x4a096757       0x19 drivers/mmc/built-in.o
 .rodata.__FUNCTION__.4800
                0x4a096770       0x18 drivers/mmc/built-in.o
 .rodata.__FUNCTION__.4831
                0x4a096788       0x17 drivers/mmc/built-in.o
 .rodata.__FUNCTION__.4858
                0x4a09679f       0x16 drivers/mmc/built-in.o
 .rodata.__FUNCTION__.4872
                0x4a0967b5        0xd drivers/mmc/built-in.o
 .rodata.__FUNCTION__.4882
                0x4a0967c2       0x12 drivers/mmc/built-in.o
 .rodata.__FUNCTION__.4923
                0x4a0967d4       0x17 common/built-in.o
 .rodata.__FUNCTION__.4945
                0x4a0967eb       0x19 drivers/mmc/built-in.o
 .rodata.__FUNCTION__.4972
                0x4a096804        0xf drivers/mmc/built-in.o
 .rodata.__FUNCTION__.5133
                0x4a096813       0x1a drivers/sunxi_flash/built-in.o
 .rodata.__FUNCTION__.5409
                0x4a09682d       0x10 drivers/mmc/built-in.o
 .rodata.__FUNCTION__.5419
                0x4a09683d        0xa drivers/mmc/built-in.o
 .rodata.__FUNCTION__.5605
                0x4a096847       0x16 drivers/mmc/built-in.o
 .rodata.__FUNCTION__.5661
                0x4a09685d        0xf drivers/mmc/built-in.o
 .rodata.__FUNCTION__.5711
                0x4a09686c        0xc drivers/mmc/built-in.o
 .rodata.__FUNCTION__.5741
                0x4a096878        0xb drivers/mmc/built-in.o
 .rodata.__FUNCTION__.5837
                0x4a096883        0xe drivers/mmc/built-in.o
 .rodata.__FUNCTION__.5849
                0x4a096891        0x9 drivers/mmc/built-in.o
 .rodata.__func__.10062
                0x4a09689a        0xf drivers/built-in.o
 .rodata.__func__.10082
                0x4a0968a9       0x11 drivers/built-in.o
 .rodata.__func__.10454
                0x4a0968ba       0x13 drivers/built-in.o
 .rodata.__func__.10462
                0x4a0968cd        0xf drivers/built-in.o
 .rodata.__func__.10486
                0x4a0968dc        0xf drivers/built-in.o
 .rodata.__func__.10501
                0x4a0968eb        0xd drivers/built-in.o
 .rodata.__func__.10522
                0x4a0968f8        0xc drivers/built-in.o
 .rodata.__func__.10533
                0x4a096904        0x9 drivers/built-in.o
 .rodata.__func__.10542
                0x4a09690d        0x8 drivers/built-in.o
 .rodata.__func__.10560
                0x4a096915        0xc drivers/built-in.o
 .rodata.__func__.10565
                0x4a096921        0xc drivers/built-in.o
 .rodata.__func__.10577
                0x4a09692d       0x19 drivers/built-in.o
 .rodata.__func__.10594
                0x4a096946        0xa drivers/built-in.o
 .rodata.__func__.10598
                0x4a096950        0xb drivers/built-in.o
 .rodata.__func__.10602
                0x4a09695b        0xb drivers/built-in.o
 .rodata.__func__.10606
                0x4a096966        0xa drivers/built-in.o
 .rodata.__func__.10614
                0x4a096970       0x10 drivers/built-in.o
 .rodata.__func__.10620
                0x4a096980       0x11 drivers/built-in.o
 .rodata.__func__.10664
                0x4a096991       0x16 drivers/built-in.o
 .rodata.__func__.10724
                0x4a0969a7        0xe drivers/built-in.o
 .rodata.__func__.10736
                0x4a0969b5       0x1d drivers/built-in.o
 .rodata.__func__.10738
                0x4a0969d2       0x1c drivers/built-in.o
 .rodata.__func__.10744
                0x4a0969ee       0x1c drivers/built-in.o
 .rodata.__func__.10751
                0x4a096a0a        0xe drivers/built-in.o
 .rodata.__func__.10754
                0x4a096a18       0x18 drivers/built-in.o
 .rodata.__func__.10764
                0x4a096a30       0x18 drivers/built-in.o
 .rodata.__func__.10780
                0x4a096a48        0xb drivers/built-in.o
 .rodata.__func__.4056
                0x4a096a53       0x19 common/built-in.o
 .rodata.__func__.4064
                0x4a096a6c       0x16 arch/arm/cpu/armv7/built-in.o
 .rodata.__func__.4155
                0x4a096a82        0xf disk/built-in.o
 .rodata.__func__.4167
                0x4a096a91       0x17 disk/built-in.o
 .rodata.__func__.4198
                0x4a096aa8       0x10 common/built-in.o
 .rodata.__func__.4208
                0x4a096ab8       0x18 drivers/clk/built-in.o
 .rodata.__func__.4214
                0x4a096ad0        0xb common/built-in.o
 .rodata.__func__.4221
                0x4a096adb        0xb common/built-in.o
 .rodata.__func__.4233
                0x4a096ae6       0x17 board/sunxi/cartoon/built-in.o
 .rodata.__func__.4252
                0x4a096afd        0xf fs/built-in.o
 .rodata.__func__.4258
                0x4a096b0c        0xd disk/built-in.o
 .rodata.__func__.4266
                0x4a096b19       0x17 disk/built-in.o
 .rodata.__func__.4271
                0x4a096b30        0xd disk/built-in.o
 .rodata.__func__.4396
                0x4a096b3d        0xe common/built-in.o
 .rodata.__func__.4408
                0x4a096b4b       0x1b drivers/clk/built-in.o
 .rodata.__func__.4431
                0x4a096b66        0xe common/built-in.o
 .rodata.__func__.4484
                0x4a096b74       0x23 sprite/built-in.o
 .rodata.__func__.4724
                0x4a096b97        0xd drivers/mmc/built-in.o
 .rodata.__func__.4772
                0x4a096ba4        0xe common/built-in.o
 .rodata.__func__.4773
                0x4a096bb2       0x19 sprite/built-in.o
 .rodata.__func__.4803
                0x4a096bcb       0x16 sprite/built-in.o
 .rodata.__func__.4805
                0x4a096be1       0x18 common/built-in.o
 .rodata.__func__.4812
                0x4a096bf9       0x15 sprite/built-in.o
 .rodata.__func__.4813
                0x4a096c0e       0x12 common/built-in.o
 .rodata.__func__.4836
                0x4a096c20        0xc drivers/clk/built-in.o
 .rodata.__func__.4843
                0x4a096c2c        0xd drivers/clk/built-in.o
 .rodata.__func__.4854
                0x4a096c39       0x11 drivers/clk/built-in.o
 .rodata.__func__.4866
                0x4a096c4a       0x12 drivers/clk/built-in.o
 .rodata.__func__.4872
                0x4a096c5c        0xb drivers/clk/built-in.o
 .rodata.__func__.4901
                0x4a096c67        0xf drivers/clk/built-in.o
 .rodata.__func__.4914
                0x4a096c76        0xd drivers/clk/built-in.o
 .rodata.__func__.4931
                0x4a096c83        0xd drivers/clk/built-in.o
 .rodata.__func__.4942
                0x4a096c90       0x18 drivers/clk/built-in.o
 .rodata.__func__.4953
                0x4a096ca8       0x1b drivers/clk/built-in.o
 .rodata.__func__.4960
                0x4a096cc3       0x19 drivers/mmc/built-in.o
 .rodata.__func__.4964
                0x4a096cdc       0x19 common/built-in.o
 .rodata.__func__.4968
                0x4a096cf5        0xb drivers/clk/built-in.o
 .rodata.__func__.5040
                0x4a096d00       0x18 drivers/pwm/built-in.o
 .rodata.__func__.5041
                0x4a096d18       0x15 board/sunxi/common/built-in.o
 .rodata.__func__.5051
                0x4a096d2d       0x14 drivers/i2c/built-in.o
 .rodata.__func__.5056
                0x4a096d41        0xa drivers/i2c/built-in.o
 .rodata.__func__.5061
                0x4a096d4b       0x16 board/sunxi/common/built-in.o
 .rodata.__func__.5061
                0x4a096d61        0xc drivers/i2c/built-in.o
 .rodata.__func__.5065
                0x4a096d6d       0x14 drivers/pwm/built-in.o
 .rodata.__func__.5127
                0x4a096d81        0x9 drivers/i2c/built-in.o
 .rodata.__func__.5144
                0x4a096d8a        0xe drivers/i2c/built-in.o
 .rodata.__func__.5162
                0x4a096d98        0xf drivers/usb/host/built-in.o
 .rodata.__func__.5168
                0x4a096da7        0xf drivers/i2c/built-in.o
 .rodata.__func__.5202
                0x4a096db6       0x16 drivers/sunxi_flash/built-in.o
 .rodata.__func__.5203
                0x4a096dcc       0x10 drivers/sunxi_flash/built-in.o
 .rodata.__func__.5207
                0x4a096ddc        0xc drivers/pwm/built-in.o
 .rodata.__func__.5224
                0x4a096de8        0x9 drivers/i2c/built-in.o
 .rodata.__func__.5249
                0x4a096df1       0x10 nand_sunxi/sun8iw11p1/libnand-sun8iw11p1
 .rodata.__func__.5267
                0x4a096e01       0x10 board/sunxi/common/built-in.o
 .rodata.__func__.5269
                0x4a096e11       0x10 nand_sunxi/sun8iw11p1/libnand-sun8iw11p1
 .rodata.__func__.5271
                0x4a096e21        0xb nand_sunxi/sun8iw11p1/libnand-sun8iw11p1
 .rodata.__func__.5286
                0x4a096e2c        0x9 nand_sunxi/sun8iw11p1/libnand-sun8iw11p1
 .rodata.__func__.5308
                0x4a096e35       0x15 nand_sunxi/sun8iw11p1/libnand-sun8iw11p1
 .rodata.__func__.5309
                0x4a096e4a        0xf sprite/built-in.o
 .rodata.__func__.5312
                0x4a096e59       0x22 nand_sunxi/sun8iw11p1/libnand-sun8iw11p1
 .rodata.__func__.5322
                0x4a096e7b       0x10 board/sunxi/common/built-in.o
 .rodata.__func__.5331
                0x4a096e8b       0x17 nand_sunxi/sun8iw11p1/libnand-sun8iw11p1
 .rodata.__func__.5361
                0x4a096ea2       0x1b nand_sunxi/sun8iw11p1/libnand-sun8iw11p1
 .rodata.__func__.5369
                0x4a096ebd       0x12 sprite/built-in.o
 .rodata.__func__.5372
                0x4a096ecf       0x19 sprite/built-in.o
 .rodata.__func__.5378
                0x4a096ee8       0x14 sprite/built-in.o
 .rodata.__func__.5385
                0x4a096efc       0x12 sprite/built-in.o
 .rodata.__func__.5392
                0x4a096f0e       0x12 nand_sunxi/built-in.o
 .rodata.__func__.5392
                0x4a096f20       0x14 nand_sunxi/sun8iw11p1/libnand-sun8iw11p1
 .rodata.__func__.5396
                0x4a096f34       0x14 sprite/built-in.o
 .rodata.__func__.5406
                0x4a096f48       0x1f nand_sunxi/sun8iw11p1/libnand-sun8iw11p1
 .rodata.__func__.5410
                0x4a096f67       0x1e nand_sunxi/sun8iw11p1/libnand-sun8iw11p1
 .rodata.__func__.5412
                0x4a096f85       0x12 nand_sunxi/built-in.o
 .rodata.__func__.5426
                0x4a096f97       0x1d nand_sunxi/sun8iw11p1/libnand-sun8iw11p1
 .rodata.__func__.5448
                0x4a096fb4       0x12 nand_sunxi/sun8iw11p1/libnand-sun8iw11p1
 .rodata.__func__.5468
                0x4a096fc6        0x9 nand_sunxi/sun8iw11p1/libnand-sun8iw11p1
 .rodata.__func__.5485
                0x4a096fcf       0x1d nand_sunxi/sun8iw11p1/libnand-sun8iw11p1
 .rodata.__func__.5492
                0x4a096fec       0x19 nand_sunxi/sun8iw11p1/libnand-sun8iw11p1
 .rodata.__func__.5507
                0x4a097005       0x1a nand_sunxi/sun8iw11p1/libnand-sun8iw11p1
 .rodata.__func__.5524
                0x4a09701f       0x1a nand_sunxi/sun8iw11p1/libnand-sun8iw11p1
 .rodata.__func__.5768
                0x4a097039       0x13 common/built-in.o
 .rodata.__func__.5933
                0x4a09704c       0x12 drivers/sunxi_flash/built-in.o
 .rodata.__func__.5947
                0x4a09705e       0x19 drivers/sunxi_flash/built-in.o
 .rodata.__func__.5954
                0x4a097077       0x1b drivers/sunxi_flash/built-in.o
 .rodata.__func__.5986
                0x4a097092       0x17 drivers/sunxi_flash/built-in.o
 .rodata.__func__.6201
                0x4a0970a9       0x15 board/sunxi/common/built-in.o
 .rodata.__func__.6323
                0x4a0970be       0x1b board/sunxi/common/built-in.o
 .rodata.__func__.6365
                0x4a0970d9       0x18 usb_sunxi/built-in.o
 .rodata.__func__.6370
                0x4a0970f1       0x14 usb_sunxi/built-in.o
 .rodata.__func__.6378
                0x4a097105       0x19 usb_sunxi/built-in.o
 .rodata.__func__.6396
                0x4a09711e        0xf nand_sunxi/sun8iw11p1/libnand-sun8iw11p1
 .rodata.__func__.7340
                0x4a09712d       0x25 board/sunxi/common/built-in.o
 .rodata.__func__.7405
                0x4a097152       0x22 board/sunxi/common/built-in.o
 .rodata._ctype
                0x4a097174      0x100 lib/built-in.o
                0x4a097174                _ctype
 .rodata.default_environment
                0x4a097274      0x25d common/built-in.o
                0x4a097274                default_environment
 .rodata.delims.4077
                0x4a0974d1        0x3 common/built-in.o
 .rodata.env_flags_varaccess_rep
                0x4a0974d4        0x5 common/built-in.o
 .rodata.env_flags_vartype_rep
                0x4a0974d9        0x5 common/built-in.o
 .rodata.erase_seq
                0x4a0974de        0x4 common/built-in.o
 .rodata.extra_tuning_data_rand
                0x4a0974e2       0x80 drivers/mmc/built-in.o
 .rodata.extra_tuning_data_wifi
                0x4a097562       0x40 drivers/mmc/built-in.o
 .rodata.hs200_tuning_blk_4b
                0x4a0975a2       0x40 drivers/mmc/built-in.o
 .rodata.hs200_tuning_blk_8b
                0x4a0975e2       0x80 drivers/mmc/built-in.o
 .rodata.names.3972
                0x4a097662        0x6 lib/built-in.o
 .rodata.rand_factor_1st_spare_data
                0x4a097668      0x200 nand_sunxi/sun8iw11p1/libnand-sun8iw11p1
                0x4a097668                rand_factor_1st_spare_data
 .rodata.str1.1
                0x4a097868       0x65 arch/arm/cpu/armv7/built-in.o
 .rodata.str1.1
                0x4a0978cd       0xe5 arch/arm/cpu/armv7/sun8iw11p1/built-in.o
 .rodata.str1.1
                0x4a0979b2       0x94 arch/arm/cpu/armv7/sunxi-common/built-in.o
 .rodata.str1.1
                0x4a097a46      0x363 arch/arm/lib/built-in.o
                                0x372 (size before relaxing)
 .rodata.str1.1
                0x4a097da9      0x5c2 board/sunxi/cartoon/built-in.o
                                0x5c5 (size before relaxing)
 .rodata.str1.1
                0x4a09836b     0x17ae board/sunxi/common/built-in.o
                               0x18c6 (size before relaxing)
 .rodata.str1.1
                0x4a099b19       0x32 board/sunxi/sun8iw11p1/built-in.o
                                 0x33 (size before relaxing)
 .rodata.str1.1
                0x4a099b4b     0x612d common/built-in.o
                               0x6882 (size before relaxing)
 .rodata.str1.1
                0x4a09fc78      0x797 disk/built-in.o
                                0x7e0 (size before relaxing)
 .rodata.str1.1
                0x4a0a040f     0x2a24 drivers/built-in.o
                               0x2def (size before relaxing)
 .rodata.str1.1
                0x4a0a2e33      0x867 drivers/clk/built-in.o
                                0x8cc (size before relaxing)
 .rodata.str1.1
                0x4a0a369a       0x5c drivers/dma/built-in.o
 .rodata.str1.1
                0x4a0a36f6      0x13e drivers/gic/built-in.o
 .rodata.str1.1
                0x4a0a3834      0x186 drivers/i2c/built-in.o
 .rodata.str1.1
                0x4a0a39ba       0xa3 drivers/key/built-in.o
                                 0xa4 (size before relaxing)
 .rodata.str1.1
                0x4a0a3a5d     0x484f drivers/mmc/built-in.o
                               0x4ace (size before relaxing)
 .rodata.str1.1
                0x4a0a82ac      0xb66 drivers/power/built-in.o
                                0xbfd (size before relaxing)
 .rodata.str1.1
                0x4a0a8e12      0x170 drivers/pwm/built-in.o
                                0x234 (size before relaxing)
 .rodata.str1.1
                0x4a0a8f82       0x97 drivers/serial/built-in.o
                                 0xb8 (size before relaxing)
 .rodata.str1.1
                0x4a0a9019      0x139 drivers/smc/built-in.o
                                0x14a (size before relaxing)
 .rodata.str1.1
                0x4a0a9152       0xf4 drivers/spi/built-in.o
                                0x11b (size before relaxing)
 .rodata.str1.1
                0x4a0a9246       0x21 drivers/sunxi_crypto/built-in.o
 .rodata.str1.1
                0x4a0a9267      0x6e4 drivers/sunxi_flash/built-in.o
                                0x733 (size before relaxing)
 .rodata.str1.1
                0x4a0a994b       0x70 drivers/timer/built-in.o
 .rodata.str1.1
                0x4a0a99bb      0x2d3 drivers/usb/host/built-in.o
                                0x2e0 (size before relaxing)
 .rodata.str1.1
                0x4a0a9c8e      0x607 fs/built-in.o
                                0x680 (size before relaxing)
 .rodata.str1.1
                0x4a0aa295      0x8c9 lib/built-in.o
                                0x8fe (size before relaxing)
 .rodata.str1.1
                0x4a0aab5e       0xfc lib/libfdt/built-in.o
                                0x11c (size before relaxing)
 .rodata.str1.1
                0x4a0aac5a      0x121 memtest/built-in.o
                                0x134 (size before relaxing)
 .rodata.str1.1
                0x4a0aad7b      0xe0b nand_sunxi/built-in.o
                                0xe63 (size before relaxing)
 .rodata.str1.1
                0x4a0abb86     0x2764 sprite/built-in.o
                               0x2c8f (size before relaxing)
 .rodata.str1.1
                0x4a0ae2ea     0x250e usb_sunxi/built-in.o
                               0x2a22 (size before relaxing)
 .rodata.str1.1
                0x4a0b07f8       0x1b arch/arm/lib/eabi_compat.o
 .rodata.str1.1
                0x4a0b0813     0x9d7f nand_sunxi/sun8iw11p1/libnand-sun8iw11p1
                               0xae08 (size before relaxing)
 .rodata.sunxi_sprite_environment
                0x4a0ba592       0x64 common/built-in.o
                0x4a0ba592                sunxi_sprite_environment
 .rodata.tab_seq
                0x4a0ba5f6        0x9 common/built-in.o
 .rodata.us_direction
                0x4a0ba5ff       0x20 common/built-in.o
 .rodata.version_string
                0x4a0ba61f       0x3e common/built-in.o
                0x4a0ba61f                version_string

.hash           0x4a0ba660       0x2c
 .hash          0x4a0ba660       0x2c arch/arm/cpu/armv7/spare_head.o
                0x4a0ba68c                . = ALIGN (0x4)

.data           0x4a0ba690    0x1a664
 *(.data*)
 .data.pll1_table
                0x4a0ba690     0x1a54 arch/arm/cpu/armv7/sun8iw11p1/built-in.o
 .data          0x4a0bc0e4       0x80 board/sunxi/common/built-in.o
 .data.fb_base_addr
                0x4a0bc164        0x4 board/sunxi/common/built-in.o
 .data          0x4a0bc168       0x3c common/built-in.o
                0x4a0bc168                flash_init_flag
                0x4a0bc16c                working_fdt
                0x4a0bc170                debug_level
                0x4a0bc174                debug_info
 .data.reserved_list
                0x4a0bc1a4       0x84 common/built-in.o
 .data.hist_cur
                0x4a0bc228        0x4 common/built-in.o
 .data.init_sequence_r
                0x4a0bc22c       0x68 common/built-in.o
                0x4a0bc22c                init_sequence_r
 .data.init_sequence_f
                0x4a0bc294       0xb4 common/built-in.o
 .data.bootm_help_text
                0x4a0bc348      0x38b common/built-in.o
 *fill*         0x4a0bc6d3        0x1 00
 .data.cmd_bootm_sub
                0x4a0bc6d4       0xfc common/built-in.o
 .data.tests    0x4a0bc7d0       0x80 common/built-in.o
                0x4a0bc7d0                tests
 .data.first_call
                0x4a0bc850        0x8 common/built-in.o
 .data.env_name_spec
                0x4a0bc858        0x4 common/built-in.o
                0x4a0bc858                env_name_spec
 .data.root.4667
                0x4a0bc85c        0x2 common/built-in.o
 .data.tabs.4750
                0x4a0bc85e       0x21 common/built-in.o
 .data.fdt_help_text
                0x4a0bc87f      0x61b common/built-in.o
 *fill*         0x4a0bce9a        0x2 00
 .data.dp_last_length
                0x4a0bce9c        0x4 common/built-in.o
 .data.curr_device
                0x4a0bcea0        0x4 common/built-in.o
 .data.cmd_mmc  0x4a0bcea4       0xfc common/built-in.o
 .data.usb_stor_curr_dev
                0x4a0bcfa0        0x4 common/built-in.o
 .data.env_help_text
                0x4a0bcfa4      0x1ee common/built-in.o
 *fill*         0x4a0bd192        0x2 00
 .data.env_id   0x4a0bd194        0x4 common/built-in.o
 .data.cmd_env_sub
                0x4a0bd198       0xe0 common/built-in.o
 .data.env_htab
                0x4a0bd278       0x10 common/built-in.o
                0x4a0bd278                env_htab
 .data.av_      0x4a0bd288      0x408 common/built-in.o
 .data.sbrk_base
                0x4a0bd690        0x4 common/built-in.o
 .data.trim_threshold
                0x4a0bd694        0x4 common/built-in.o
 .data.load_addr
                0x4a0bd698        0x4 common/built-in.o
                0x4a0bd698                load_addr
 .data.stdio_names
                0x4a0bd69c        0xc common/built-in.o
                0x4a0bd69c                stdio_names
 .data.system_guid
                0x4a0bd6a8       0x10 disk/built-in.o
 .data.g_disp_fdt_node_map
                0x4a0bd6b8       0xa0 drivers/built-in.o
 .data.device_list
                0x4a0bd758        0x8 drivers/built-in.o
 .data.panel_array
                0x4a0bd760       0x38 drivers/built-in.o
                0x4a0bd760                panel_array
 .data.default_panel
                0x4a0bd798       0x34 drivers/built-in.o
                0x4a0bd798                default_panel
 .data.he0801a068_panel
                0x4a0bd7cc       0x34 drivers/built-in.o
                0x4a0bd7cc                he0801a068_panel
 .data.lt070me05000_panel
                0x4a0bd800       0x34 drivers/built-in.o
                0x4a0bd800                lt070me05000_panel
 .data.wtq05027d01_panel
                0x4a0bd834       0x34 drivers/built-in.o
                0x4a0bd834                wtq05027d01_panel
 .data.t27p06_panel
                0x4a0bd868       0x34 drivers/built-in.o
                0x4a0bd868                t27p06_panel
 .data.dx0960be40a1_panel
                0x4a0bd89c       0x34 drivers/built-in.o
                0x4a0bd89c                dx0960be40a1_panel
 .data.tft720x1280_panel
                0x4a0bd8d0       0x34 drivers/built-in.o
                0x4a0bd8d0                tft720x1280_panel
 .data.S6D7AA0X01_panel
                0x4a0bd904       0x34 drivers/built-in.o
                0x4a0bd904                S6D7AA0X01_panel
 .data.LCM_LT080B21BA94_setting
                0x4a0bd938     0x3d50 drivers/built-in.o
 .data.inet_dsi_panel
                0x4a0c1688       0x34 drivers/built-in.o
                0x4a0c1688                inet_dsi_panel
 .data.gg1p4062utsw_panel
                0x4a0c16bc       0x34 drivers/built-in.o
                0x4a0c16bc                gg1p4062utsw_panel
 .data.vr_sharp_panel
                0x4a0c16f0       0x34 drivers/built-in.o
                0x4a0c16f0                vr_sharp_panel
 .data.WilliamLcd_panel
                0x4a0c1724       0x34 drivers/built-in.o
                0x4a0c1724                WilliamLcd_panel
 .data.lcm_initialization_setting
                0x4a0c1758     0x3cc0 drivers/built-in.o
 .data.tm_dsi_panel
                0x4a0c5418       0x34 drivers/built-in.o
                0x4a0c5418                tm_dsi_panel
 .data.LCM_TM040YVZG31_setting
                0x4a0c544c      0x480 drivers/built-in.o
 .data.g_device_fps
                0x4a0c58cc        0x8 drivers/built-in.o
 .data.lan2coefftab32
                0x4a0c58d4      0x800 drivers/built-in.o
                0x4a0c58d4                lan2coefftab32
 .data.bicubic8coefftab32_right
                0x4a0c60d4      0x800 drivers/built-in.o
                0x4a0c60d4                bicubic8coefftab32_right
 .data.lan3coefftab32_left
                0x4a0c68d4      0x800 drivers/built-in.o
                0x4a0c68d4                lan3coefftab32_left
 .data.lan3coefftab32_right
                0x4a0c70d4      0x800 drivers/built-in.o
                0x4a0c70d4                lan3coefftab32_right
 .data.bicubic4coefftab32
                0x4a0c78d4      0x800 drivers/built-in.o
                0x4a0c78d4                bicubic4coefftab32
 .data.bicubic8coefftab32_left
                0x4a0c80d4      0x800 drivers/built-in.o
                0x4a0c80d4                bicubic8coefftab32_left
 .data.lan2coefftab16
                0x4a0c88d4      0x400 drivers/built-in.o
                0x4a0c88d4                lan2coefftab16
 .data.sin_cos  0x4a0c8cd4      0x200 drivers/built-in.o
                0x4a0c8cd4                sin_cos
 .data.r2y      0x4a0c8ed4      0x200 drivers/built-in.o
                0x4a0c8ed4                r2y
 .data.y2r      0x4a0c90d4      0x300 drivers/built-in.o
                0x4a0c90d4                y2r
 .data.y2y      0x4a0c93d4      0x100 drivers/built-in.o
                0x4a0c93d4                y2y
 .data.bypass_csc
                0x4a0c94d4       0x30 drivers/built-in.o
                0x4a0c94d4                bypass_csc
 .data.r2r      0x4a0c9504       0x80 drivers/built-in.o
                0x4a0c9504                r2r
 .data.tcon_div
                0x4a0c9584        0x4 drivers/built-in.o
                0x4a0c9584                tcon_div
 .data.dsi_pixel_bits
                0x4a0c9588       0x10 drivers/built-in.o
                0x4a0c9588                dsi_pixel_bits
 .data.dsi_lane_den
                0x4a0c9598       0x10 drivers/built-in.o
                0x4a0c9598                dsi_lane_den
 .data.video_timing
                0x4a0c95a8      0xe40 drivers/built-in.o
                0x4a0c95a8                video_timing
 .data.hdmi_detect_time
                0x4a0ca3e8        0x4 drivers/built-in.o
 .data.ptbl     0x4a0ca3ec      0x5f0 drivers/built-in.o
 .data.cali     0x4a0ca9dc       0x10 drivers/built-in.o
 .data.spinor_cache_block
                0x4a0ca9ec        0x4 drivers/built-in.o
 .data          0x4a0ca9f0        0x4 drivers/clk/built-in.o
 .data.clk_fixed_rate_ops
                0x4a0ca9f4       0x2c drivers/clk/built-in.o
                0x4a0ca9f4                clk_fixed_rate_ops
 .data.sunxi_clk_periph_ve
                0x4a0caa20       0x48 drivers/clk/built-in.o
 .data.sunxi_clk_periph_pll_periphahb0
                0x4a0caa68       0x48 drivers/clk/built-in.o
 .data.sunxi_clk_periph_tcon0
                0x4a0caab0       0x48 drivers/clk/built-in.o
 .data.sunxi_clk_periph_usbohci212m
                0x4a0caaf8       0x48 drivers/clk/built-in.o
 .data.sunxi_clk_periph_tcon1
                0x4a0cab40       0x48 drivers/clk/built-in.o
 .data.factor_pllvideo0_tbl
                0x4a0cab88      0x478 drivers/clk/built-in.o
                0x4a0cab88                factor_pllvideo0_tbl
 .data.sunxi_clk_periph_spdif
                0x4a0cb000       0x48 drivers/clk/built-in.o
 .data.sunxi_clk_periph_scr
                0x4a0cb048       0x48 drivers/clk/built-in.o
 .data.ve_parents
                0x4a0cb090        0x4 drivers/clk/built-in.o
 .data.sunxi_clk_periph_keypad
                0x4a0cb094       0x48 drivers/clk/built-in.o
 .data.sunxi_clk_periph_usbohci1
                0x4a0cb0dc       0x48 drivers/clk/built-in.o
 .data.sunxi_clk_periph_twi3
                0x4a0cb124       0x48 drivers/clk/built-in.o
 .data.hosc_parents
                0x4a0cb16c        0x4 drivers/clk/built-in.o
 .data.lvds_parents
                0x4a0cb170        0x4 drivers/clk/built-in.o
 .data.periphx2_parents
                0x4a0cb174       0x10 drivers/clk/built-in.o
 .data.sunxi_clk_periph_tvd3
                0x4a0cb184       0x48 drivers/clk/built-in.o
 .data.sunxi_clk_periph_hdmi_slow
                0x4a0cb1cc       0x48 drivers/clk/built-in.o
 .data.sunxi_clk_periph_addax4
                0x4a0cb214       0x48 drivers/clk/built-in.o
 .data.sunxi_clk_periph_sdmmc1_rst
                0x4a0cb25c       0x48 drivers/clk/built-in.o
 .data.factor_pllddr1_tbl
                0x4a0cb2a4      0xa50 drivers/clk/built-in.o
                0x4a0cb2a4                factor_pllddr1_tbl
 .data.sunxi_clk_periph_tcon_tv0
                0x4a0cbcf4       0x48 drivers/clk/built-in.o
 .data.sunxi_clk_periph_tcon_tv1
                0x4a0cbd3c       0x48 drivers/clk/built-in.o
 .data.sunxi_clk_periph_sata
                0x4a0cbd84       0x48 drivers/clk/built-in.o
 .data.i2s_parents
                0x4a0cbdcc       0x10 drivers/clk/built-in.o
 .data.sunxi_clk_periph_sdmmc0_bus
                0x4a0cbddc       0x48 drivers/clk/built-in.o
 .data.factor_pllperiph0_tbl
                0x4a0cbe24      0x150 drivers/clk/built-in.o
                0x4a0cbe24                factor_pllperiph0_tbl
 .data.sdram_parents
                0x4a0cbf74       0x10 drivers/clk/built-in.o
 .data.sunxi_clk_periph_ps20
                0x4a0cbf84       0x48 drivers/clk/built-in.o
 .data.sunxi_clk_periph_ps21
                0x4a0cbfcc       0x48 drivers/clk/built-in.o
 .data.cpu_parents
                0x4a0cc014       0x10 drivers/clk/built-in.o
 .data.periphx_parents
                0x4a0cc024       0x20 drivers/clk/built-in.o
 .data.sunxi_clk_periph_sdmmc3_bus
                0x4a0cc044       0x48 drivers/clk/built-in.o
 .data.sunxi_clk_periph_de
                0x4a0cc08c       0x48 drivers/clk/built-in.o
 .data.sunxi_periphs_init
                0x4a0cc0d4      0x80c drivers/clk/built-in.o
                0x4a0cc0d4                sunxi_periphs_init
 .data.sunxi_clk_periph_csi_s
                0x4a0cc8e0       0x48 drivers/clk/built-in.o
 .data.sunxi_clk_periph_sdmmc0_mod
                0x4a0cc928       0x48 drivers/clk/built-in.o
 .data.sunxi_clk_periph_uart1
                0x4a0cc970       0x48 drivers/clk/built-in.o
 .data.sunxi_clk_periph_uart2
                0x4a0cc9b8       0x48 drivers/clk/built-in.o
 .data.sunxi_clk_periph_uart0
                0x4a0cca00       0x48 drivers/clk/built-in.o
 .data.sunxi_clk_periph_uart5
                0x4a0cca48       0x48 drivers/clk/built-in.o
 .data.sunxi_clk_periph_uart6
                0x4a0cca90       0x48 drivers/clk/built-in.o
 .data.sunxi_clk_periph_nand
                0x4a0ccad8       0x48 drivers/clk/built-in.o
 .data.sunxi_clk_factor_pll_periph0
                0x4a0ccb20       0x2c drivers/clk/built-in.o
 .data.sunxi_clk_factor_pll_periph1
                0x4a0ccb4c       0x2c drivers/clk/built-in.o
 .data.ths_parents
                0x4a0ccb78       0x10 drivers/clk/built-in.o
 .data.sunxi_clk_periph_uart4
                0x4a0ccb88       0x48 drivers/clk/built-in.o
 .data.pll_periphahb0_parents
                0x4a0ccbd0        0x4 drivers/clk/built-in.o
 .data.sunxi_clk_periph_tvd0
                0x4a0ccbd4       0x48 drivers/clk/built-in.o
 *fill*         0x4a0ccc1c        0x4 00
 .data.sunxi_factos
                0x4a0ccc20      0x3a8 drivers/clk/built-in.o
                0x4a0ccc20                sunxi_factos
 .data.sunxi_clk_periph_uart3
                0x4a0ccfc8       0x48 drivers/clk/built-in.o
 .data.sunxi_clk_periph_tvd2
                0x4a0cd010       0x48 drivers/clk/built-in.o
 .data.sunxi_clk_periph_losc_out
                0x4a0cd058       0x48 drivers/clk/built-in.o
 .data.periph_parents
                0x4a0cd0a0       0x10 drivers/clk/built-in.o
 .data.de_parents
                0x4a0cd0b0       0x20 drivers/clk/built-in.o
 .data.sunxi_clk_periph_ac97
                0x4a0cd0d0       0x48 drivers/clk/built-in.o
 .data.sunxi_clk_periph_uart7
                0x4a0cd118       0x48 drivers/clk/built-in.o
 .data.sunxi_clk_periph_can
                0x4a0cd160       0x48 drivers/clk/built-in.o
 .data.com_gates
                0x4a0cd1a8       0x28 drivers/clk/built-in.o
                0x4a0cd1a8                com_gates
 .data.sunxi_clk_periph_spi1
                0x4a0cd1d0       0x48 drivers/clk/built-in.o
 .data.sunxi_clk_factor_pll_audio
                0x4a0cd218       0x2c drivers/clk/built-in.o
 .data.sunxi_clk_factor_pll_gpu
                0x4a0cd244       0x2c drivers/clk/built-in.o
 .data.adda_parents
                0x4a0cd270        0x4 drivers/clk/built-in.o
 .data.sunxi_clk_periph_cpu
                0x4a0cd274       0x48 drivers/clk/built-in.o
 .data.sunxi_clk_periph_dma
                0x4a0cd2bc       0x48 drivers/clk/built-in.o
 .data.factor_pllvideo1_tbl
                0x4a0cd304      0x550 drivers/clk/built-in.o
                0x4a0cd304                factor_pllvideo1_tbl
 .data.sunxi_clk_periph_pio
                0x4a0cd854       0x48 drivers/clk/built-in.o
 .data.sunxi_clk_periph_emac
                0x4a0cd89c       0x48 drivers/clk/built-in.o
 .data.sunxi_clk_periph_usbohci0
                0x4a0cd8e4       0x48 drivers/clk/built-in.o
 .data.factor_pllcpu_tbl
                0x4a0cd92c      0x220 drivers/clk/built-in.o
                0x4a0cd92c                factor_pllcpu_tbl
 .data.sunxi_clk_periph_usbohci2
                0x4a0cdb4c       0x48 drivers/clk/built-in.o
 .data.tcon_parents
                0x4a0cdb94       0x20 drivers/clk/built-in.o
 .data.sunxi_clk_factor_pll_mipi
                0x4a0cdbb4       0x2c drivers/clk/built-in.o
 .data.keypad_parents
                0x4a0cdbe0       0x10 drivers/clk/built-in.o
 .data.hdmi_parents
                0x4a0cdbf0       0x10 drivers/clk/built-in.o
 .data.sunxi_clk_periph_gmac
                0x4a0cdc00       0x48 drivers/clk/built-in.o
 .data.sunxi_clk_periph_spi3
                0x4a0cdc48       0x48 drivers/clk/built-in.o
 .data.sunxi_clk_periph_cpuapb
                0x4a0cdc90       0x48 drivers/clk/built-in.o
 .data.factor_pllsata_tbl
                0x4a0cdcd8        0x8 drivers/clk/built-in.o
                0x4a0cdcd8                factor_pllsata_tbl
 .data.sunxi_clk_periph_sdmmc2_rst
                0x4a0cdce0       0x48 drivers/clk/built-in.o
 .data.sunxi_clk_periph_sdram
                0x4a0cdd28       0x48 drivers/clk/built-in.o
 .data.factor_pllve_tbl
                0x4a0cdd70      0x510 drivers/clk/built-in.o
                0x4a0cdd70                factor_pllve_tbl
 .data.apb1mod_parents
                0x4a0ce280        0x4 drivers/clk/built-in.o
 .data.sunxi_clk_periph_spi0
                0x4a0ce284       0x48 drivers/clk/built-in.o
 .data.mipi_parents
                0x4a0ce2cc        0x8 drivers/clk/built-in.o
 .data.sunxi_clk_periph_sdmmc1_bus
                0x4a0ce2d4       0x48 drivers/clk/built-in.o
 .data.sunxi_clk_periph_usbohci012m
                0x4a0ce31c       0x48 drivers/clk/built-in.o
 .data.factor_pllperiph1_tbl
                0x4a0ce364      0x1e0 drivers/clk/built-in.o
                0x4a0ce364                factor_pllperiph1_tbl
 .data.sunxi_clk_periph_tvd1
                0x4a0ce544       0x48 drivers/clk/built-in.o
 .data.sunxi_clk_periph_tcon_top
                0x4a0ce58c       0x48 drivers/clk/built-in.o
 .data.sunxi_clk_periph_i2s0
                0x4a0ce5d4       0x48 drivers/clk/built-in.o
 .data.sunxi_clk_periph_i2s1
                0x4a0ce61c       0x48 drivers/clk/built-in.o
 .data.sunxi_clk_periph_i2s2
                0x4a0ce664       0x48 drivers/clk/built-in.o
 .data.sunxi_clk_periph_ts
                0x4a0ce6ac       0x48 drivers/clk/built-in.o
 .data.sunxi_clk_periph_ths
                0x4a0ce6f4       0x48 drivers/clk/built-in.o
 .data.sunxi_clk_periph_sdmmc3_mod
                0x4a0ce73c       0x48 drivers/clk/built-in.o
 .data.outx_parents
                0x4a0ce784       0x10 drivers/clk/built-in.o
 .data.sunxi_clk_periph_sdmmc1_mod
                0x4a0ce794       0x48 drivers/clk/built-in.o
 .data.sunxi_clk_factor_pll_video1
                0x4a0ce7dc       0x2c drivers/clk/built-in.o
 .data.sunxi_clk_periph_mipidsi
                0x4a0ce808       0x48 drivers/clk/built-in.o
 .data.apb2mod_parents
                0x4a0ce850        0x4 drivers/clk/built-in.o
 .data.sunxi_clk_periph_twi4
                0x4a0ce854       0x48 drivers/clk/built-in.o
 .data.sunxi_clk_factor_pll_video0
                0x4a0ce89c       0x2c drivers/clk/built-in.o
 .data.factor_pllde_tbl
                0x4a0ce8c8      0x568 drivers/clk/built-in.o
                0x4a0ce8c8                factor_pllde_tbl
 .data.sunxi_clk_periph_tvd_top
                0x4a0cee30       0x48 drivers/clk/built-in.o
 .data.sunxi_clk_periph_ir0
                0x4a0cee78       0x48 drivers/clk/built-in.o
 .data.sunxi_clk_periph_deinterlace
                0x4a0ceec0       0x48 drivers/clk/built-in.o
 .data.apb1_parents
                0x4a0cef08        0x4 drivers/clk/built-in.o
 .data.sata_parents
                0x4a0cef0c        0x8 drivers/clk/built-in.o
 .data.sunxi_clk_periph_usbotg
                0x4a0cef14       0x48 drivers/clk/built-in.o
 .data.sunxi_clk_periph_usbphy1
                0x4a0cef5c       0x48 drivers/clk/built-in.o
 .data.sunxi_clk_factor_pll_ve
                0x4a0cefa4       0x2c drivers/clk/built-in.o
 .data.sunxi_clk_periph_lvds
                0x4a0cefd0       0x48 drivers/clk/built-in.o
 .data.ahb1mod_parents
                0x4a0cf018        0x4 drivers/clk/built-in.o
 .data.apb2_parents
                0x4a0cf01c       0x10 drivers/clk/built-in.o
 .data.sunxi_clk_periph_usbphy0
                0x4a0cf02c       0x48 drivers/clk/built-in.o
 .data.axi_parents
                0x4a0cf074        0x4 drivers/clk/built-in.o
 .data.sunxi_clk_periph_usbphy2
                0x4a0cf078       0x48 drivers/clk/built-in.o
 .data.sunxi_clk_periph_csi1_m
                0x4a0cf0c0       0x48 drivers/clk/built-in.o
 .data.sunxi_clk_periph_spi2
                0x4a0cf108       0x48 drivers/clk/built-in.o
 .data.sunxi_clk_periph_axi
                0x4a0cf150       0x48 drivers/clk/built-in.o
 .data.sunxi_clk_periph_avs
                0x4a0cf198       0x48 drivers/clk/built-in.o
 .data.mipidsi_parents
                0x4a0cf1e0       0x10 drivers/clk/built-in.o
 .data.losc_parents
                0x4a0cf1f0        0x4 drivers/clk/built-in.o
 .data.addax4_parents
                0x4a0cf1f4        0x4 drivers/clk/built-in.o
 .data.sunxi_clk_periph_twi0
                0x4a0cf1f8       0x48 drivers/clk/built-in.o
 .data.sunxi_clk_periph_twi1
                0x4a0cf240       0x48 drivers/clk/built-in.o
 .data.sunxi_clk_periph_twi2
                0x4a0cf288       0x48 drivers/clk/built-in.o
 .data.sunxi_clk_periph_ahb1
                0x4a0cf2d0       0x48 drivers/clk/built-in.o
 .data.ts_parents
                0x4a0cf318       0x40 drivers/clk/built-in.o
 .data.sunxi_clk_periph_hdmi
                0x4a0cf358       0x48 drivers/clk/built-in.o
 .data.sunxi_clk_periph_apb1
                0x4a0cf3a0       0x48 drivers/clk/built-in.o
 .data.sunxi_clk_periph_apb2
                0x4a0cf3e8       0x48 drivers/clk/built-in.o
 .data.sunxi_clk_periph_usbohci112m
                0x4a0cf430       0x48 drivers/clk/built-in.o
 .data.sunxi_clk_periph_outa
                0x4a0cf478       0x48 drivers/clk/built-in.o
 .data.sunxi_clk_periph_sdmmc0_rst
                0x4a0cf4c0       0x48 drivers/clk/built-in.o
 .data.factor_pllddr0_tbl
                0x4a0cf508      0x490 drivers/clk/built-in.o
                0x4a0cf508                factor_pllddr0_tbl
 .data.sunxi_clk_periph_tve1
                0x4a0cf998       0x48 drivers/clk/built-in.o
 .data.ir_parents
                0x4a0cf9e0       0x10 drivers/clk/built-in.o
 .data.cpuapb_parents
                0x4a0cf9f0        0x4 drivers/clk/built-in.o
 .data.sunxi_clk_periph_outb
                0x4a0cf9f4       0x48 drivers/clk/built-in.o
 .data.sunxi_clk_periph_mbus
                0x4a0cfa3c       0x48 drivers/clk/built-in.o
 .data.gpu_parents
                0x4a0cfa84        0x4 drivers/clk/built-in.o
 .data.sunxi_clk_periph_sdmmc3_rst
                0x4a0cfa88       0x48 drivers/clk/built-in.o
 .data.sunxi_clk_factor_pll_cpu
                0x4a0cfad0       0x2c drivers/clk/built-in.o
 .data.sunxi_clk_factor_pll_de
                0x4a0cfafc       0x2c drivers/clk/built-in.o
 .data.sunxi_clk_periph_csi0_m
                0x4a0cfb28       0x48 drivers/clk/built-in.o
 .data.sunxi_clk_periph_sdmmc2_bus
                0x4a0cfb70       0x48 drivers/clk/built-in.o
 .data.tvd_parents
                0x4a0cfbb8       0x20 drivers/clk/built-in.o
 .data.sunxi_clk_periph_adda
                0x4a0cfbd8       0x48 drivers/clk/built-in.o
 .data.mbus_parents
                0x4a0cfc20       0x10 drivers/clk/built-in.o
 .data.sunxi_clk_periph_de_mp
                0x4a0cfc30       0x48 drivers/clk/built-in.o
 .data.ahb1_parents
                0x4a0cfc78       0x10 drivers/clk/built-in.o
 .data.sunxi_clk_periph_usbehci0
                0x4a0cfc88       0x48 drivers/clk/built-in.o
 .data.sunxi_clk_periph_usbehci1
                0x4a0cfcd0       0x48 drivers/clk/built-in.o
 .data.sunxi_clk_periph_sdmmc2_mod
                0x4a0cfd18       0x48 drivers/clk/built-in.o
 .data.csi_m_parents
                0x4a0cfd60       0x20 drivers/clk/built-in.o
 .data.sunxi_clk_periph_usbehci2
                0x4a0cfd80       0x48 drivers/clk/built-in.o
 .data.usbohci12m_parents
                0x4a0cfdc8       0x10 drivers/clk/built-in.o
 .data.sunxi_clk_periph_ce
                0x4a0cfdd8       0x48 drivers/clk/built-in.o
 .data.sunxi_clk_periph_ir1
                0x4a0cfe20       0x48 drivers/clk/built-in.o
 .data.sunxi_clk_factor_pll_sata
                0x4a0cfe68       0x2c drivers/clk/built-in.o
 .data.sunxi_clk_periph_tve_top
                0x4a0cfe94       0x48 drivers/clk/built-in.o
 .data.factor_pllgpu_tbl
                0x4a0cfedc      0x550 drivers/clk/built-in.o
                0x4a0cfedc                factor_pllgpu_tbl
 .data.sunxi_clk_periph_tve0
                0x4a0d042c       0x48 drivers/clk/built-in.o
 .data.sunxi_clk_periph_gpu
                0x4a0d0474       0x48 drivers/clk/built-in.o
 .data.sunxi_clk_factor_pll_ddr0
                0x4a0d04bc       0x2c drivers/clk/built-in.o
 .data.sunxi_clk_factor_pll_ddr1
                0x4a0d04e8       0x2c drivers/clk/built-in.o
 .data.dma_init
                0x4a0d0514        0x4 drivers/dma/built-in.o
 .data          0x4a0d0518       0x10 drivers/i2c/built-in.o
 .data.i2c_read_pt
                0x4a0d0528        0x4 drivers/i2c/built-in.o
                0x4a0d0528                i2c_read_pt
 .data.i2c_write_pt
                0x4a0d052c        0x4 drivers/i2c/built-in.o
                0x4a0d052c                i2c_write_pt
 .data          0x4a0d0530        0x4 drivers/key/built-in.o
 .data          0x4a0d0534       0x10 drivers/mmc/built-in.o
                0x4a0d0534                tuning_blk_8b
                0x4a0d0538                tuning_blk_4b
                0x4a0d053c                tuning_blk_cnt_8b
                0x4a0d0540                tuning_blk_cnt_4b
 .data.cur_dev_num
                0x4a0d0544        0x4 drivers/mmc/built-in.o
 .data.mmc_devices
                0x4a0d0548        0x8 drivers/mmc/built-in.o
                0x4a0d0548                mmc_devices
 .data.freq_ds26_sdr12
                0x4a0d0550       0x20 drivers/mmc/built-in.o
                0x4a0d0550                freq_ds26_sdr12
 .data.freq_range_hs400
                0x4a0d0570        0x8 drivers/mmc/built-in.o
                0x4a0d0570                freq_range_hs400
 .data.pat_seed_pair
                0x4a0d0578       0x10 drivers/mmc/built-in.o
                0x4a0d0578                pat_seed_pair
 .data.freq_def
                0x4a0d0588        0x4 drivers/mmc/built-in.o
                0x4a0d0588                freq_def
 .data.freq_hssdr52_sdr25
                0x4a0d058c       0x20 drivers/mmc/built-in.o
                0x4a0d058c                freq_hssdr52_sdr25
 .data.spd_name
                0x4a0d05ac       0x14 drivers/mmc/built-in.o
                0x4a0d05ac                spd_name
 .data.freq_hs400
                0x4a0d05c0       0x20 drivers/mmc/built-in.o
                0x4a0d05c0                freq_hs400
 .data.freq_hs200_sdr104
                0x4a0d05e0       0x20 drivers/mmc/built-in.o
                0x4a0d05e0                freq_hs200_sdr104
 .data.freq_range_hssdr52_sdr25
                0x4a0d0600        0x8 drivers/mmc/built-in.o
                0x4a0d0600                freq_range_hssdr52_sdr25
 .data.freq_hsddr52_ddr50
                0x4a0d0608       0x20 drivers/mmc/built-in.o
                0x4a0d0608                freq_hsddr52_ddr50
 .data.freq_range_hs200_sdr104
                0x4a0d0628        0x8 drivers/mmc/built-in.o
                0x4a0d0628                freq_range_hs200_sdr104
 .data.freq_range_ds26_sdr12
                0x4a0d0630        0x8 drivers/mmc/built-in.o
                0x4a0d0630                freq_range_ds26_sdr12
 .data.freq_range_hsddr52_ddr50
                0x4a0d0638        0x8 drivers/mmc/built-in.o
                0x4a0d0638                freq_range_hsddr52_ddr50
 .data          0x4a0d0640        0xc drivers/power/built-in.o
 .data.sunxi_axp_null
                0x4a0d064c       0x64 drivers/power/built-in.o
                0x4a0d064c                sunxi_axp_null
 .data.sunxi_axp_20
                0x4a0d06b0       0x64 drivers/power/built-in.o
                0x4a0d06b0                sunxi_axp_20
 .data.sunxi_axp_22
                0x4a0d0714       0x64 drivers/power/built-in.o
                0x4a0d0714                sunxi_axp_22
 .data.pwm_list
                0x4a0d0778        0x8 drivers/pwm/built-in.o
 .data.sunxi_pwm_ops
                0x4a0d0780       0x14 drivers/pwm/built-in.o
 .data.eserial1_device
                0x4a0d0794       0x34 drivers/serial/built-in.o
                0x4a0d0794                eserial1_device
 .data.eserial2_device
                0x4a0d07c8       0x34 drivers/serial/built-in.o
                0x4a0d07c8                eserial2_device
 .data.eserial3_device
                0x4a0d07fc       0x34 drivers/serial/built-in.o
                0x4a0d07fc                eserial3_device
 .data.eserial4_device
                0x4a0d0830       0x34 drivers/serial/built-in.o
                0x4a0d0830                eserial4_device
 .data.smc_writel_pt
                0x4a0d0864        0x4 drivers/smc/built-in.o
                0x4a0d0864                smc_writel_pt
 .data.smc_readl_pt
                0x4a0d0868        0x4 drivers/smc/built-in.o
                0x4a0d0868                smc_readl_pt
 .data.g_key_info
                0x4a0d086c      0x39c drivers/sunxi_crypto/built-in.o
 .data.sunxi_sprite_init_pt
                0x4a0d0c08        0x4 drivers/sunxi_flash/built-in.o
                0x4a0d0c08                sunxi_sprite_init_pt
 .data.sunxi_secstorage_write_pt
                0x4a0d0c0c        0x4 drivers/sunxi_flash/built-in.o
                0x4a0d0c0c                sunxi_secstorage_write_pt
 .data.sunxi_sprite_erase_pt
                0x4a0d0c10        0x4 drivers/sunxi_flash/built-in.o
                0x4a0d0c10                sunxi_sprite_erase_pt
 .data.sunxi_flash_exit_pt
                0x4a0d0c14        0x4 drivers/sunxi_flash/built-in.o
                0x4a0d0c14                sunxi_flash_exit_pt
 .data.sunxi_sprite_force_erase_pt
                0x4a0d0c18        0x4 drivers/sunxi_flash/built-in.o
                0x4a0d0c18                sunxi_sprite_force_erase_pt
 .data.sunxi_secstorage_read_pt
                0x4a0d0c1c        0x4 drivers/sunxi_flash/built-in.o
                0x4a0d0c1c                sunxi_secstorage_read_pt
 .data.sunxi_flash_phyread_pt
                0x4a0d0c20        0x4 drivers/sunxi_flash/built-in.o
                0x4a0d0c20                sunxi_flash_phyread_pt
 .data.sunxi_flash_flush_pt
                0x4a0d0c24        0x4 drivers/sunxi_flash/built-in.o
                0x4a0d0c24                sunxi_flash_flush_pt
 .data.sunxi_flash_write_pt
                0x4a0d0c28        0x4 drivers/sunxi_flash/built-in.o
                0x4a0d0c28                sunxi_flash_write_pt
 .data.sunxi_sprite_read_pt
                0x4a0d0c2c        0x4 drivers/sunxi_flash/built-in.o
                0x4a0d0c2c                sunxi_sprite_read_pt
 .data.sunxi_sprite_size_pt
                0x4a0d0c30        0x4 drivers/sunxi_flash/built-in.o
                0x4a0d0c30                sunxi_sprite_size_pt
 .data.sunxi_sprite_phywrite_pt
                0x4a0d0c34        0x4 drivers/sunxi_flash/built-in.o
                0x4a0d0c34                sunxi_sprite_phywrite_pt
 .data.sunxi_flash_size_pt
                0x4a0d0c38        0x4 drivers/sunxi_flash/built-in.o
                0x4a0d0c38                sunxi_flash_size_pt
 .data.sunxi_sprite_phyread_pt
                0x4a0d0c3c        0x4 drivers/sunxi_flash/built-in.o
                0x4a0d0c3c                sunxi_sprite_phyread_pt
 .data.sunxi_flash_init_pt
                0x4a0d0c40        0x4 drivers/sunxi_flash/built-in.o
                0x4a0d0c40                sunxi_flash_init_pt
 .data.sunxi_flash_read_pt
                0x4a0d0c44        0x4 drivers/sunxi_flash/built-in.o
                0x4a0d0c44                sunxi_flash_read_pt
 .data.sunxi_sprite_flush_pt
                0x4a0d0c48        0x4 drivers/sunxi_flash/built-in.o
                0x4a0d0c48                sunxi_sprite_flush_pt
 .data.sunxi_flash_phywrite_pt
                0x4a0d0c4c        0x4 drivers/sunxi_flash/built-in.o
                0x4a0d0c4c                sunxi_flash_phywrite_pt
 .data.sunxi_sprite_write_pt
                0x4a0d0c50        0x4 drivers/sunxi_flash/built-in.o
                0x4a0d0c50                sunxi_sprite_write_pt
 .data.sunxi_sprite_exit_pt
                0x4a0d0c54        0x4 drivers/sunxi_flash/built-in.o
                0x4a0d0c54                sunxi_sprite_exit_pt
 .data.usbc_base_address
                0x4a0d0c58        0xc drivers/sunxi_usb/built-in.o
 .data.timer_callback
                0x4a0d0c64       0x10 drivers/timer/built-in.o
                0x4a0d0c64                timer_callback
 .data.descriptor
                0x4a0d0c74       0x36 drivers/usb/host/built-in.o
 *fill*         0x4a0d0caa        0x2 00
 .data.usb_vbase
                0x4a0d0cac        0x4 drivers/usb/host/built-in.o
 .data.ehci_cfg
                0x4a0d0cb0       0xb0 drivers/usb/host/built-in.o
 .data.fstypes  0x4a0d0d60       0x60 fs/built-in.o
 .data.ext4fs_indir3_blkno
                0x4a0d0dc0        0x4 fs/built-in.o
                0x4a0d0dc0                ext4fs_indir3_blkno
 .data.ext4fs_indir1_blkno
                0x4a0d0dc4        0x4 fs/built-in.o
                0x4a0d0dc4                ext4fs_indir1_blkno
 .data.ext4fs_indir2_blkno
                0x4a0d0dc8        0x4 fs/built-in.o
                0x4a0d0dc8                ext4fs_indir2_blkno
 .data.mem_progress
                0x4a0d0dcc        0x5 memtest/built-in.o
                0x4a0d0dcc                mem_progress
 *fill*         0x4a0d0dd1        0x3 00
 .data.sunxi_usb_efex_app_step
                0x4a0d0dd4        0x4 usb_sunxi/built-in.o
 .data.setup_req_2
                0x4a0d0dd8       0x20 usb_sunxi/built-in.o
                0x4a0d0dd8                setup_req_2
 .data.setup_req_3
                0x4a0d0df8       0x20 usb_sunxi/built-in.o
                0x4a0d0df8                setup_req_3
 .data.sunxi_usb_fastboot_dev
                0x4a0d0e18       0x18 usb_sunxi/built-in.o
                0x4a0d0e18                sunxi_usb_fastboot_dev
 .data.sunxi_fastboot_normal_LangID
                0x4a0d0e30        0x8 usb_sunxi/built-in.o
                0x4a0d0e30                sunxi_fastboot_normal_LangID
 .data.setup_req_4
                0x4a0d0e38       0x20 usb_sunxi/built-in.o
                0x4a0d0e38                setup_req_4
 .data.nand_permanent_data
                0x4a0d0e58      0x100 nand_sunxi/sun8iw11p1/libnand-sun8iw11p1
                0x4a0d0e58                nand_permanent_data
 .data.nand_physic_function
                0x4a0d0f58      0x3b8 nand_sunxi/sun8iw11p1/libnand-sun8iw11p1
                0x4a0d0f58                nand_physic_function
 .data.nand_tbl
                0x4a0d1310     0x3570 nand_sunxi/sun8iw11p1/libnand-sun8iw11p1
                0x4a0d1310                nand_tbl
 .data.physic_arch_para
                0x4a0d4880       0xd0 nand_sunxi/sun8iw11p1/libnand-sun8iw11p1
                0x4a0d4880                physic_arch_para
 .data.def_ddr_info
                0x4a0d4950       0x40 nand_sunxi/sun8iw11p1/libnand-sun8iw11p1
                0x4a0d4950                def_ddr_info
 .data.m4_p1_1  0x4a0d4990        0xa nand_sunxi/sun8iw11p1/libnand-sun8iw11p1
                0x4a0d4990                m4_p1_1
 .data.m4_p1_2  0x4a0d499a        0xc nand_sunxi/sun8iw11p1/libnand-sun8iw11p1
                0x4a0d499a                m4_p1_2
 .data.m4_p1_3  0x4a0d49a6        0x7 nand_sunxi/sun8iw11p1/libnand-sun8iw11p1
                0x4a0d49a6                m4_p1_3
 .data.m5_p1    0x4a0d49ad       0x3c nand_sunxi/sun8iw11p1/libnand-sun8iw11p1
                0x4a0d49ad                m5_p1
 .data.m5_read_retry_addr
                0x4a0d49e9        0x4 nand_sunxi/sun8iw11p1/libnand-sun8iw11p1
                0x4a0d49e9                m5_read_retry_addr
 .data.m5_read_retry_cmd
                0x4a0d49ed        0x4 nand_sunxi/sun8iw11p1/libnand-sun8iw11p1
                0x4a0d49ed                m5_read_retry_cmd
 .data.m6_read_retry_exit_cmd
                0x4a0d49f1        0x1 nand_sunxi/sun8iw11p1/libnand-sun8iw11p1
                0x4a0d49f1                m6_read_retry_exit_cmd
 .data.m6_read_retry_addr_1
                0x4a0d49f2        0x4 nand_sunxi/sun8iw11p1/libnand-sun8iw11p1
                0x4a0d49f2                m6_read_retry_addr_1
 .data.m6_read_retry_last_cmd
                0x4a0d49f6        0x1 nand_sunxi/sun8iw11p1/libnand-sun8iw11p1
                0x4a0d49f6                m6_read_retry_last_cmd
 .data.m6_p1_2  0x4a0d49f7       0x28 nand_sunxi/sun8iw11p1/libnand-sun8iw11p1
                0x4a0d49f7                m6_p1_2
 .data.m6_p1_1  0x4a0d4a1f       0x1c nand_sunxi/sun8iw11p1/libnand-sun8iw11p1
                0x4a0d4a1f                m6_p1_1
 .data.m6_read_retry_start_cmd
                0x4a0d4a3b        0x2 nand_sunxi/sun8iw11p1/libnand-sun8iw11p1
                0x4a0d4a3b                m6_read_retry_start_cmd
 .data.m6_p1_3  0x4a0d4a3d       0x37 nand_sunxi/sun8iw11p1/libnand-sun8iw11p1
                0x4a0d4a3d                m6_p1_3
 .data.m6_read_retry_cmd_1
                0x4a0d4a74        0x4 nand_sunxi/sun8iw11p1/libnand-sun8iw11p1
                0x4a0d4a74                m6_read_retry_cmd_1
 .data.m6_read_retry_cmd_2
                0x4a0d4a78        0x5 nand_sunxi/sun8iw11p1/libnand-sun8iw11p1
                0x4a0d4a78                m6_read_retry_cmd_2
 .data.m6_read_retry_end_cmd
                0x4a0d4a7d        0x2 nand_sunxi/sun8iw11p1/libnand-sun8iw11p1
                0x4a0d4a7d                m6_read_retry_end_cmd
 .data.m6_read_retry_addr_2
                0x4a0d4a7f        0x5 nand_sunxi/sun8iw11p1/libnand-sun8iw11p1
                0x4a0d4a7f                m6_read_retry_addr_2
 .data.m7_read_retry_reg_adr_1y
                0x4a0d4a84        0x1 nand_sunxi/sun8iw11p1/libnand-sun8iw11p1
                0x4a0d4a84                m7_read_retry_reg_adr_1y
 .data.m7_acti_start_addr
                0x4a0d4a85        0x9 nand_sunxi/sun8iw11p1/libnand-sun8iw11p1
                0x4a0d4a85                m7_acti_start_addr
 .data.m7_19_high
                0x4a0d4a8e       0x3c nand_sunxi/sun8iw11p1/libnand-sun8iw11p1
                0x4a0d4a8e                m7_19_high
 .data.m7_read_retry_disable_cmd_19
                0x4a0d4aca        0x1 nand_sunxi/sun8iw11p1/libnand-sun8iw11p1
                0x4a0d4aca                m7_read_retry_disable_cmd_19
 .data.m7_read_retry_reg_adr_19
                0x4a0d4acb        0x9 nand_sunxi/sun8iw11p1/libnand-sun8iw11p1
                0x4a0d4acb                m7_read_retry_reg_adr_19
 .data.m7_read_retry_cmd_19
                0x4a0d4ad4        0x3 nand_sunxi/sun8iw11p1/libnand-sun8iw11p1
                0x4a0d4ad4                m7_read_retry_cmd_19
 .data.m7_read_retry_reg_adr_24
                0x4a0d4ad7        0x9 nand_sunxi/sun8iw11p1/libnand-sun8iw11p1
                0x4a0d4ad7                m7_read_retry_reg_adr_24
 .data.m7_read_retry_cmd_1y
                0x4a0d4ae0        0x1 nand_sunxi/sun8iw11p1/libnand-sun8iw11p1
                0x4a0d4ae0                m7_read_retry_cmd_1y
 .data.m7_19_low
                0x4a0d4ae1       0x30 nand_sunxi/sun8iw11p1/libnand-sun8iw11p1
                0x4a0d4ae1                m7_19_low
 .data.m7_acti_start_cmd
                0x4a0d4b11        0x2 nand_sunxi/sun8iw11p1/libnand-sun8iw11p1
                0x4a0d4b11                m7_acti_start_cmd
 .data.m7_24    0x4a0d4b13       0x1b nand_sunxi/sun8iw11p1/libnand-sun8iw11p1
                0x4a0d4b13                m7_24
 .data.m7_1y    0x4a0d4b2e       0x4c nand_sunxi/sun8iw11p1/libnand-sun8iw11p1
                0x4a0d4b2e                m7_1y
 .data.m9_1z_16g
                0x4a0d4b7a       0x80 nand_sunxi/sun8iw11p1/libnand-sun8iw11p1
                0x4a0d4b7a                m9_1z_16g
 .data.m9_read_retry_cmd_1y
                0x4a0d4bfa        0x1 nand_sunxi/sun8iw11p1/libnand-sun8iw11p1
                0x4a0d4bfa                m9_read_retry_cmd_1y
 .data.m9_1y    0x4a0d4bfb       0x7c nand_sunxi/sun8iw11p1/libnand-sun8iw11p1
                0x4a0d4bfb                m9_1y
 .data.m9_read_retry_reg_adr_1y
                0x4a0d4c77        0x1 nand_sunxi/sun8iw11p1/libnand-sun8iw11p1
                0x4a0d4c77                m9_read_retry_reg_adr_1y
 .data.m9_1z_8g
                0x4a0d4c78       0x7c nand_sunxi/sun8iw11p1/libnand-sun8iw11p1
                0x4a0d4c78                m9_1z_8g

.got            0x4a0d4cf4        0x0
 .got           0x00000000        0x0 arch/arm/cpu/armv7/spare_head.o

.got.plt        0x4a0d4cf4        0xc
 .got.plt       0x4a0d4cf4        0xc arch/arm/cpu/armv7/spare_head.o
                0x4a0d4cf4                _GLOBAL_OFFSET_TABLE_

.igot.plt       0x4a0d4d00        0x0
 .igot.plt      0x00000000        0x0 arch/arm/cpu/armv7/spare_head.o
                0x4a0d4d00                . = ALIGN (0x4)
                0x4a0d4d00                . = .
                0x4a0d4d00                . = ALIGN (0x4)

.u_boot_list    0x4a0d4d00      0x760
 *(SORT(.u_boot_list*))
 .u_boot_list_2_cmd_1
                0x4a0d4d00        0x0 common/built-in.o
 .u_boot_list_2_cmd_2_base
                0x4a0d4d00       0x1c common/built-in.o
                0x4a0d4d00                _u_boot_list_2_cmd_2_base
 .u_boot_list_2_cmd_2_boot
                0x4a0d4d1c       0x1c common/built-in.o
                0x4a0d4d1c                _u_boot_list_2_cmd_2_boot
 .u_boot_list_2_cmd_2_boota
                0x4a0d4d38       0x1c common/built-in.o
                0x4a0d4d38                _u_boot_list_2_cmd_2_boota
 .u_boot_list_2_cmd_2_bootd
                0x4a0d4d54       0x1c common/built-in.o
                0x4a0d4d54                _u_boot_list_2_cmd_2_bootd
 .u_boot_list_2_cmd_2_bootelf
                0x4a0d4d70       0x1c common/built-in.o
                0x4a0d4d70                _u_boot_list_2_cmd_2_bootelf
 .u_boot_list_2_cmd_2_bootm
                0x4a0d4d8c       0x1c common/built-in.o
                0x4a0d4d8c                _u_boot_list_2_cmd_2_bootm
 .u_boot_list_2_cmd_2_bootvx
                0x4a0d4da8       0x1c common/built-in.o
                0x4a0d4da8                _u_boot_list_2_cmd_2_bootvx
 .u_boot_list_2_cmd_2_check_userdata
                0x4a0d4dc4       0x1c common/built-in.o
                0x4a0d4dc4                _u_boot_list_2_cmd_2_check_userdata
 .u_boot_list_2_cmd_2_cmp
                0x4a0d4de0       0x1c common/built-in.o
                0x4a0d4de0                _u_boot_list_2_cmd_2_cmp
 .u_boot_list_2_cmd_2_cp
                0x4a0d4dfc       0x1c common/built-in.o
                0x4a0d4dfc                _u_boot_list_2_cmd_2_cp
 .u_boot_list_2_cmd_2_crc32
                0x4a0d4e18       0x1c common/built-in.o
                0x4a0d4e18                _u_boot_list_2_cmd_2_crc32
 .u_boot_list_2_cmd_2_delay_test
                0x4a0d4e34       0x1c common/built-in.o
                0x4a0d4e34                _u_boot_list_2_cmd_2_delay_test
 .u_boot_list_2_cmd_2_efex
                0x4a0d4e50       0x1c common/built-in.o
                0x4a0d4e50                _u_boot_list_2_cmd_2_efex
 .u_boot_list_2_cmd_2_efuse_read
                0x4a0d4e6c       0x1c board/sunxi/common/built-in.o
                0x4a0d4e6c                _u_boot_list_2_cmd_2_efuse_read
 .u_boot_list_2_cmd_2_env
                0x4a0d4e88       0x1c common/built-in.o
                0x4a0d4e88                _u_boot_list_2_cmd_2_env
 .u_boot_list_2_cmd_2_erase_userdata
                0x4a0d4ea4       0x1c common/built-in.o
                0x4a0d4ea4                _u_boot_list_2_cmd_2_erase_userdata
 .u_boot_list_2_cmd_2_exit
                0x4a0d4ec0       0x1c common/built-in.o
                0x4a0d4ec0                _u_boot_list_2_cmd_2_exit
 .u_boot_list_2_cmd_2_ext4load
                0x4a0d4edc       0x1c common/built-in.o
                0x4a0d4edc                _u_boot_list_2_cmd_2_ext4load
 .u_boot_list_2_cmd_2_ext4ls
                0x4a0d4ef8       0x1c common/built-in.o
                0x4a0d4ef8                _u_boot_list_2_cmd_2_ext4ls
 .u_boot_list_2_cmd_2_false
                0x4a0d4f14       0x1c common/built-in.o
                0x4a0d4f14                _u_boot_list_2_cmd_2_false
 .u_boot_list_2_cmd_2_fastboot
                0x4a0d4f30       0x1c common/built-in.o
                0x4a0d4f30                _u_boot_list_2_cmd_2_fastboot
 .u_boot_list_2_cmd_2_fatinfo
                0x4a0d4f4c       0x1c common/built-in.o
                0x4a0d4f4c                _u_boot_list_2_cmd_2_fatinfo
 .u_boot_list_2_cmd_2_fatload
                0x4a0d4f68       0x1c common/built-in.o
                0x4a0d4f68                _u_boot_list_2_cmd_2_fatload
 .u_boot_list_2_cmd_2_fatls
                0x4a0d4f84       0x1c common/built-in.o
                0x4a0d4f84                _u_boot_list_2_cmd_2_fatls
 .u_boot_list_2_cmd_2_fdt
                0x4a0d4fa0       0x1c common/built-in.o
                0x4a0d4fa0                _u_boot_list_2_cmd_2_fdt
 .u_boot_list_2_cmd_2_fdt_test
                0x4a0d4fbc       0x1c common/built-in.o
                0x4a0d4fbc                _u_boot_list_2_cmd_2_fdt_test
 .u_boot_list_2_cmd_2_go
                0x4a0d4fd8       0x1c common/built-in.o
                0x4a0d4fd8                _u_boot_list_2_cmd_2_go
 .u_boot_list_2_cmd_2_help
                0x4a0d4ff4       0x1c common/built-in.o
                0x4a0d4ff4                _u_boot_list_2_cmd_2_help
 .u_boot_list_2_cmd_2_interrupts
                0x4a0d5010       0x1c common/built-in.o
                0x4a0d5010                _u_boot_list_2_cmd_2_interrupts
 .u_boot_list_2_cmd_2_irqinfo
                0x4a0d502c       0x1c common/built-in.o
                0x4a0d502c                _u_boot_list_2_cmd_2_irqinfo
 .u_boot_list_2_cmd_2_key_test
                0x4a0d5048       0x1c drivers/key/built-in.o
                0x4a0d5048                _u_boot_list_2_cmd_2_key_test
 .u_boot_list_2_cmd_2_logo
                0x4a0d5064       0x1c common/built-in.o
                0x4a0d5064                _u_boot_list_2_cmd_2_logo
 .u_boot_list_2_cmd_2_loop
                0x4a0d5080       0x1c common/built-in.o
                0x4a0d5080                _u_boot_list_2_cmd_2_loop
 .u_boot_list_2_cmd_2_md
                0x4a0d509c       0x1c common/built-in.o
                0x4a0d509c                _u_boot_list_2_cmd_2_md
 .u_boot_list_2_cmd_2_memtester
                0x4a0d50b8       0x1c common/built-in.o
                0x4a0d50b8                _u_boot_list_2_cmd_2_memtester
 .u_boot_list_2_cmd_2_mm
                0x4a0d50d4       0x1c common/built-in.o
                0x4a0d50d4                _u_boot_list_2_cmd_2_mm
 .u_boot_list_2_cmd_2_mmc
                0x4a0d50f0       0x1c common/built-in.o
                0x4a0d50f0                _u_boot_list_2_cmd_2_mmc
 .u_boot_list_2_cmd_2_mmcinfo
                0x4a0d510c       0x1c common/built-in.o
                0x4a0d510c                _u_boot_list_2_cmd_2_mmcinfo
 .u_boot_list_2_cmd_2_mw
                0x4a0d5128       0x1c common/built-in.o
                0x4a0d5128                _u_boot_list_2_cmd_2_mw
 .u_boot_list_2_cmd_2_nm
                0x4a0d5144       0x1c common/built-in.o
                0x4a0d5144                _u_boot_list_2_cmd_2_nm
 .u_boot_list_2_cmd_2_pbread
                0x4a0d5160       0x1c common/built-in.o
                0x4a0d5160                _u_boot_list_2_cmd_2_pbread
 .u_boot_list_2_cmd_2_printenv
                0x4a0d517c       0x1c common/built-in.o
                0x4a0d517c                _u_boot_list_2_cmd_2_printenv
 .u_boot_list_2_cmd_2_question_mark
                0x4a0d5198       0x1c common/built-in.o
                0x4a0d5198                _u_boot_list_2_cmd_2_question_mark
 .u_boot_list_2_cmd_2_reset
                0x4a0d51b4       0x1c common/built-in.o
                0x4a0d51b4                _u_boot_list_2_cmd_2_reset
 .u_boot_list_2_cmd_2_run
                0x4a0d51d0       0x1c common/built-in.o
                0x4a0d51d0                _u_boot_list_2_cmd_2_run
 .u_boot_list_2_cmd_2_save_userdata
                0x4a0d51ec       0x1c common/built-in.o
                0x4a0d51ec                _u_boot_list_2_cmd_2_save_userdata
 .u_boot_list_2_cmd_2_saveenv
                0x4a0d5208       0x1c common/built-in.o
                0x4a0d5208                _u_boot_list_2_cmd_2_saveenv
 .u_boot_list_2_cmd_2_screen_char
                0x4a0d5224       0x1c board/sunxi/cartoon/built-in.o
                0x4a0d5224                _u_boot_list_2_cmd_2_screen_char
 .u_boot_list_2_cmd_2_setenv
                0x4a0d5240       0x1c common/built-in.o
                0x4a0d5240                _u_boot_list_2_cmd_2_setenv
 .u_boot_list_2_cmd_2_showvar
                0x4a0d525c       0x1c common/built-in.o
                0x4a0d525c                _u_boot_list_2_cmd_2_showvar
 .u_boot_list_2_cmd_2_shutdown
                0x4a0d5278       0x1c common/built-in.o
                0x4a0d5278                _u_boot_list_2_cmd_2_shutdown
 .u_boot_list_2_cmd_2_sprite_test
                0x4a0d5294       0x1c common/built-in.o
                0x4a0d5294                _u_boot_list_2_cmd_2_sprite_test
 .u_boot_list_2_cmd_2_sunxi_bmp_info
                0x4a0d52b0       0x1c common/built-in.o
                0x4a0d52b0                _u_boot_list_2_cmd_2_sunxi_bmp_info
 .u_boot_list_2_cmd_2_sunxi_bmp_show
                0x4a0d52cc       0x1c common/built-in.o
                0x4a0d52cc                _u_boot_list_2_cmd_2_sunxi_bmp_show
 .u_boot_list_2_cmd_2_sunxi_card0_probe
                0x4a0d52e8       0x1c common/built-in.o
                0x4a0d52e8                _u_boot_list_2_cmd_2_sunxi_card0_probe
 .u_boot_list_2_cmd_2_sunxi_card1_probe
                0x4a0d5304       0x1c common/built-in.o
                0x4a0d5304                _u_boot_list_2_cmd_2_sunxi_card1_probe
 .u_boot_list_2_cmd_2_sunxi_flash
                0x4a0d5320       0x1c common/built-in.o
                0x4a0d5320                _u_boot_list_2_cmd_2_sunxi_flash
 .u_boot_list_2_cmd_2_switch_boot_partition
                0x4a0d533c       0x1c board/sunxi/common/built-in.o
                0x4a0d533c                _u_boot_list_2_cmd_2_switch_boot_partition
 .u_boot_list_2_cmd_2_test
                0x4a0d5358       0x1c common/built-in.o
                0x4a0d5358                _u_boot_list_2_cmd_2_test
 .u_boot_list_2_cmd_2_timer_test
                0x4a0d5374       0x1c common/built-in.o
                0x4a0d5374                _u_boot_list_2_cmd_2_timer_test
 .u_boot_list_2_cmd_2_timer_test1
                0x4a0d5390       0x1c common/built-in.o
                0x4a0d5390                _u_boot_list_2_cmd_2_timer_test1
 .u_boot_list_2_cmd_2_true
                0x4a0d53ac       0x1c common/built-in.o
                0x4a0d53ac                _u_boot_list_2_cmd_2_true
 .u_boot_list_2_cmd_2_uburn
                0x4a0d53c8       0x1c common/built-in.o
                0x4a0d53c8                _u_boot_list_2_cmd_2_uburn
 .u_boot_list_2_cmd_2_usb
                0x4a0d53e4       0x1c common/built-in.o
                0x4a0d53e4                _u_boot_list_2_cmd_2_usb
 .u_boot_list_2_cmd_2_usbboot
                0x4a0d5400       0x1c common/built-in.o
                0x4a0d5400                _u_boot_list_2_cmd_2_usbboot
 .u_boot_list_2_cmd_2_version
                0x4a0d541c       0x1c common/built-in.o
                0x4a0d541c                _u_boot_list_2_cmd_2_version
 .u_boot_list_2_cmd_3
                0x4a0d5438        0x0 common/built-in.o
 .u_boot_list_2_env_clbk_1
                0x4a0d5438        0x0 common/built-in.o
 .u_boot_list_2_env_clbk_2_baudrate
                0x4a0d5438        0x8 drivers/serial/built-in.o
                0x4a0d5438                _u_boot_list_2_env_clbk_2_baudrate
 .u_boot_list_2_env_clbk_2_callbacks
                0x4a0d5440        0x8 common/built-in.o
                0x4a0d5440                _u_boot_list_2_env_clbk_2_callbacks
 .u_boot_list_2_env_clbk_2_console
                0x4a0d5448        0x8 common/built-in.o
                0x4a0d5448                _u_boot_list_2_env_clbk_2_console
 .u_boot_list_2_env_clbk_2_flags
                0x4a0d5450        0x8 common/built-in.o
                0x4a0d5450                _u_boot_list_2_env_clbk_2_flags
 .u_boot_list_2_env_clbk_2_loadaddr
                0x4a0d5458        0x8 common/built-in.o
                0x4a0d5458                _u_boot_list_2_env_clbk_2_loadaddr
 .u_boot_list_2_env_clbk_3
                0x4a0d5460        0x0 common/built-in.o
                0x4a0d5460                . = ALIGN (0x4)

.image_copy_end
                0x4a0d5460        0x0
 *(.__image_copy_end)
 .__image_copy_end
                0x4a0d5460        0x0 arch/arm/lib/built-in.o

.rel_dyn_start  0x4a0d5460        0x0
 *(.__rel_dyn_start)
 .__rel_dyn_start
                0x4a0d5460        0x0 arch/arm/lib/built-in.o

.rel.dyn        0x4a0d5460    0x149f8
 *(.rel*)
 .rel.got       0x00000000        0x0 arch/arm/cpu/armv7/spare_head.o
 .rel.plt       0x00000000        0x0 arch/arm/cpu/armv7/spare_head.o
 .rel.iplt      0x00000000        0x0 arch/arm/cpu/armv7/spare_head.o
 .rel.text      0x4a0d5460       0x40 arch/arm/cpu/armv7/spare_head.o
 .rel.text.v7_dcache_maint_range
                0x4a0d54a0       0x18 arch/arm/cpu/armv7/spare_head.o
 .rel.text.sunxi_clock_set_corepll
                0x4a0d54b8        0x8 arch/arm/cpu/armv7/spare_head.o
 .rel.text.power_source_init
                0x4a0d54c0       0x50 arch/arm/cpu/armv7/spare_head.o
 .rel.text.axp_usb_vbus_output
                0x4a0d5510       0x10 arch/arm/cpu/armv7/spare_head.o
 .rel.text.display_inner
                0x00000000        0x0 arch/arm/cpu/armv7/spare_head.o
 .rel.text.sunxi_pmu_reset
                0x4a0d5520        0x8 arch/arm/cpu/armv7/spare_head.o
 .rel.text.sunxi_board_restart
                0x4a0d5528        0x8 arch/arm/cpu/armv7/spare_head.o
 .rel.text.sunxi_board_shutdown
                0x4a0d5530       0x10 arch/arm/cpu/armv7/spare_head.o
 .rel.text.sunxi_board_run_fel
                0x4a0d5540       0x18 arch/arm/cpu/armv7/spare_head.o
 .rel.text.sunxi_board_run_fel_eraly
                0x4a0d5558       0x10 arch/arm/cpu/armv7/spare_head.o
 .rel.text.sunxi_probe_secure_monitor
                0x4a0d5568        0x8 arch/arm/cpu/armv7/spare_head.o
 .rel.text.sunxi_probe_secure_os
                0x4a0d5570        0x8 arch/arm/cpu/armv7/spare_head.o
 .rel.text.boot_jump_linux
                0x4a0d5578       0x28 arch/arm/cpu/armv7/spare_head.o
 .rel.text.boot_prep_linux
                0x4a0d55a0       0x18 arch/arm/cpu/armv7/spare_head.o
 .rel.text.boot_prep_vxworks
                0x4a0d55b8       0x10 arch/arm/cpu/armv7/spare_head.o
 .rel.text.interrupt_init
                0x4a0d55c8       0x18 arch/arm/cpu/armv7/spare_head.o
 .rel.text.bad_mode
                0x4a0d55e0        0x8 arch/arm/cpu/armv7/spare_head.o
 .rel.text.show_regs
                0x4a0d55e8       0x50 arch/arm/cpu/armv7/spare_head.o
 .rel.text.do_undefined_instruction
                0x4a0d5638        0x8 arch/arm/cpu/armv7/spare_head.o
 .rel.text.do_software_interrupt
                0x4a0d5640        0x8 arch/arm/cpu/armv7/spare_head.o
 .rel.text.do_prefetch_abort
                0x4a0d5648        0x8 arch/arm/cpu/armv7/spare_head.o
 .rel.text.do_data_abort
                0x4a0d5650        0x8 arch/arm/cpu/armv7/spare_head.o
 .rel.text.do_not_used
                0x4a0d5658        0x8 arch/arm/cpu/armv7/spare_head.o
 .rel.text.do_fiq
                0x4a0d5660        0x8 arch/arm/cpu/armv7/spare_head.o
 .rel.text.do_reset
                0x4a0d5668        0x8 arch/arm/cpu/armv7/spare_head.o
 .rel.text.enable_caches
                0x00000000        0x0 arch/arm/cpu/armv7/spare_head.o
 .rel.text.dram_bank_mmu_setup
                0x4a0d5670        0x8 arch/arm/cpu/armv7/spare_head.o
 .rel.rodata    0x4a0d5678      0x100 arch/arm/cpu/armv7/spare_head.o
 .rel.text.sprite_cartoon_screen_set
                0x4a0d5778       0x10 arch/arm/cpu/armv7/spare_head.o
 .rel.text.sprite_cartoon_test
                0x4a0d5788       0x40 arch/arm/cpu/armv7/spare_head.o
 .rel.text.sprite_cartoon_create
                0x4a0d57c8       0x30 arch/arm/cpu/armv7/spare_head.o
 .rel.text.sprite_cartoon_upgrade
                0x4a0d57f8       0x10 arch/arm/cpu/armv7/spare_head.o
 .rel.text.sprite_cartoon_destroy
                0x00000000        0x0 arch/arm/cpu/armv7/spare_head.o
 .rel.text.sprite_cartoon_progressbar_create
                0x4a0d5808        0x8 arch/arm/cpu/armv7/spare_head.o
 .rel.text.sprite_cartoon_progressbar_config
                0x4a0d5810       0x20 arch/arm/cpu/armv7/spare_head.o
 .rel.text.sprite_cartoon_progressbar_upgrate
                0x4a0d5830       0x10 arch/arm/cpu/armv7/spare_head.o
 .rel.text.sprite_cartoon_ui_draw_hollowrectangle
                0x4a0d5840        0x8 arch/arm/cpu/armv7/spare_head.o
 .rel.text.sprite_cartoon_ui_draw_solidrectangle
                0x4a0d5848        0x8 arch/arm/cpu/armv7/spare_head.o
 .rel.text.sprite_cartoon_ui_draw_line
                0x00000000        0x0 arch/arm/cpu/armv7/spare_head.o
 .rel.text.sprite_cartoon_ui_draw_lineto
                0x00000000        0x0 arch/arm/cpu/armv7/spare_head.o
 .rel.text.sprite_cartoon_ui_draw_point
                0x00000000        0x0 arch/arm/cpu/armv7/spare_head.o
 .rel.text.sprite_cartoon_ui_set_color
                0x4a0d5850        0x8 arch/arm/cpu/armv7/spare_head.o
 .rel.text.sprite_cartoon_ui_get_color
                0x4a0d5858        0x8 arch/arm/cpu/armv7/spare_head.o
 .rel.text.sprite_cartoon_ui_moveto
                0x00000000        0x0 arch/arm/cpu/armv7/spare_head.o
 .rel.text.sprite_cartoon_ui_clear
                0x00000000        0x0 arch/arm/cpu/armv7/spare_head.o
 .rel.text.uichar_change_newline
                0x4a0d5860       0x18 arch/arm/cpu/armv7/spare_head.o
 .rel.text.sprite_uichar_init
                0x4a0d5878       0x28 arch/arm/cpu/armv7/spare_head.o
 .rel.text.sprite_uichar_printf
                0x4a0d58a0       0x10 arch/arm/cpu/armv7/spare_head.o
 .rel.text.draw_pixel
                0x4a0d58b0        0x8 arch/arm/cpu/armv7/spare_head.o
 .rel.text.open_font
                0x4a0d58b8       0x10 arch/arm/cpu/armv7/spare_head.o
 .rel.text.close_font
                0x00000000        0x0 arch/arm/cpu/armv7/spare_head.o
 .rel.text.check_change_line
                0x4a0d58c8       0x10 arch/arm/cpu/armv7/spare_head.o
 .rel.text.draw_bmp_ulc
                0x4a0d58d8       0x10 arch/arm/cpu/armv7/spare_head.o
 .rel.text.draw_cursor
                0x00000000        0x0 arch/arm/cpu/armv7/spare_head.o
 .rel.text.SFTE_New_Face
                0x4a0d58e8       0x40 arch/arm/cpu/armv7/spare_head.o
 .rel.text.SFTE_Done_Face
                0x4a0d5928        0x8 arch/arm/cpu/armv7/spare_head.o
 .rel.text.SFTE_Set_Pixel_Sizes
                0x4a0d5930       0x30 arch/arm/cpu/armv7/spare_head.o
 .rel.text.SFTE_Get_Pixel_Sizes
                0x00000000        0x0 arch/arm/cpu/armv7/spare_head.o
 .rel.text.SFTE_Get_Glyph
                0x4a0d5960       0x28 arch/arm/cpu/armv7/spare_head.o
 .rel.text.SFTE_Get_XAdvance
                0x00000000        0x0 arch/arm/cpu/armv7/spare_head.o
 .rel.u_boot_list_2_cmd_2_screen_char
                0x4a0d5988       0x20 arch/arm/cpu/armv7/spare_head.o
 .rel.text.sunxi_dump
                0x4a0d59a8       0x10 arch/arm/cpu/armv7/spare_head.o
 .rel.text.fdt_get_all_pin
                0x4a0d59b8       0x88 arch/arm/cpu/armv7/spare_head.o
 .rel.text.fdt_get_pin_num
                0x00000000        0x0 arch/arm/cpu/armv7/spare_head.o
 .rel.text.fdt_set_all_pin
                0x4a0d5a40       0x18 arch/arm/cpu/armv7/spare_head.o
 .rel.text.fdt_set_all_pin_by_offset
                0x00000000        0x0 arch/arm/cpu/armv7/spare_head.o
 .rel.text.fdt_get_one_gpio_by_offset
                0x00000000        0x0 arch/arm/cpu/armv7/spare_head.o
 .rel.text.fdt_get_one_gpio
                0x4a0d5a58        0x8 arch/arm/cpu/armv7/spare_head.o
 .rel.text.__script_probe_mainkey_gpio
                0x4a0d5a60        0x8 arch/arm/cpu/armv7/spare_head.o
 .rel.text.__script_parser_fetch_ex
                0x4a0d5a68       0x20 arch/arm/cpu/armv7/spare_head.o
 .rel.text.__script_parser_subkey
                0x4a0d5a88        0x8 arch/arm/cpu/armv7/spare_head.o
 .rel.text.set_script_reloc_buf
                0x00000000        0x0 arch/arm/cpu/armv7/spare_head.o
 .rel.text.set_script_reloc_size
                0x00000000        0x0 arch/arm/cpu/armv7/spare_head.o
 .rel.text.get_script_reloc_buf
                0x4a0d5a90        0x8 arch/arm/cpu/armv7/spare_head.o
 .rel.text.get_script_reloc_size
                0x00000000        0x0 arch/arm/cpu/armv7/spare_head.o
 .rel.text.script_parser_exit
                0x00000000        0x0 arch/arm/cpu/armv7/spare_head.o
 .rel.text.script_parser_subkey
                0x00000000        0x0 arch/arm/cpu/armv7/spare_head.o
 .rel.text.script_parser_fetch_subkey_start
                0x00000000        0x0 arch/arm/cpu/armv7/spare_head.o
 .rel.text.script_parser_fetch_subkey_next
                0x4a0d5a98        0x8 arch/arm/cpu/armv7/spare_head.o
 .rel.text.script_parser_fetch
                0x4a0d5aa0        0x8 arch/arm/cpu/armv7/spare_head.o
 .rel.text.script_parser_fetch_ex
                0x4a0d5aa8        0x8 arch/arm/cpu/armv7/spare_head.o
 .rel.text.script_parser_offset
                0x4a0d5ab0        0x8 arch/arm/cpu/armv7/spare_head.o
 .rel.text.script_parser_fetch_by_offset
                0x4a0d5ab8        0x8 arch/arm/cpu/armv7/spare_head.o
 .rel.text.script_parser_patch_all
                0x00000000        0x0 arch/arm/cpu/armv7/spare_head.o
 .rel.text.script_parser_patch
                0x4a0d5ac0        0x8 arch/arm/cpu/armv7/spare_head.o
 .rel.text.script_parser_subkey_count
                0x00000000        0x0 arch/arm/cpu/armv7/spare_head.o
 .rel.text.script_parser_mainkey_count
                0x00000000        0x0 arch/arm/cpu/armv7/spare_head.o
 .rel.text.script_parser_mainkey_get_gpio_count
                0x4a0d5ac8        0x8 arch/arm/cpu/armv7/spare_head.o
 .rel.text.script_parser_mainkey_get_gpio_cfg
                0x4a0d5ad0        0x8 arch/arm/cpu/armv7/spare_head.o
 .rel.text.script_probe_mainkey_gpio
                0x00000000        0x0 arch/arm/cpu/armv7/spare_head.o
 .rel.text.gpio_request_simple
                0x4a0d5ad8       0x10 arch/arm/cpu/armv7/spare_head.o
 .rel.text.gpio_request_by_function
                0x00000000        0x0 arch/arm/cpu/armv7/spare_head.o
 .rel.text.script_parser_func_init
                0x4a0d5ae8       0x68 arch/arm/cpu/armv7/spare_head.o
 .rel.text.soc_script_parser_init
                0x4a0d5b50        0x8 arch/arm/cpu/armv7/spare_head.o
 .rel.text.bd_script_parser_init
                0x00000000        0x0 arch/arm/cpu/armv7/spare_head.o
 .rel.text.gpt_partition_get_total_num
                0x4a0d5b58        0x8 arch/arm/cpu/armv7/spare_head.o
 .rel.text.gpt_partition_get_offset
                0x4a0d5b60        0x8 arch/arm/cpu/armv7/spare_head.o
 .rel.text.gpt_partition_get_size
                0x4a0d5b68        0x8 arch/arm/cpu/armv7/spare_head.o
 .rel.text.gpt_partition_fetch_mbr
                0x4a0d5b70        0x8 arch/arm/cpu/armv7/spare_head.o
 .rel.text.aw_partition_get_total_num
                0x4a0d5b78        0x8 arch/arm/cpu/armv7/spare_head.o
 .rel.text.aw_partition_get_offset
                0x4a0d5b80        0x8 arch/arm/cpu/armv7/spare_head.o
 .rel.text.aw_partition_get_size
                0x4a0d5b88        0x8 arch/arm/cpu/armv7/spare_head.o
 .rel.text.aw_partition_fetch_mbr
                0x4a0d5b90        0x8 arch/arm/cpu/armv7/spare_head.o
 .rel.text.aw_partition_get_info_byname
                0x4a0d5b98        0x8 arch/arm/cpu/armv7/spare_head.o
 .rel.text.aw_partition_get_size_byname
                0x4a0d5ba0        0x8 arch/arm/cpu/armv7/spare_head.o
 .rel.text.aw_partition_get_partno_byname
                0x4a0d5ba8        0x8 arch/arm/cpu/armv7/spare_head.o
 .rel.text.aw_partition_get_offset_byname
                0x4a0d5bb0        0x8 arch/arm/cpu/armv7/spare_head.o
 .rel.text.aw_partition_refresh
                0x4a0d5bb8        0x8 arch/arm/cpu/armv7/spare_head.o
 .rel.text.gpt_partition_refresh
                0x4a0d5bc0        0x8 arch/arm/cpu/armv7/spare_head.o
 .rel.text.aw_partition_get_name
                0x4a0d5bc8        0x8 arch/arm/cpu/armv7/spare_head.o
 .rel.text.gpt_partition_get_name
                0x4a0d5bd0        0x8 arch/arm/cpu/armv7/spare_head.o
 .rel.text.sunxi_partition_get_total_num
                0x4a0d5bd8        0x8 arch/arm/cpu/armv7/spare_head.o
 .rel.text.sunxi_partition_get_name
                0x4a0d5be0        0x8 arch/arm/cpu/armv7/spare_head.o
 .rel.text.sunxi_partition_get_offset
                0x4a0d5be8        0x8 arch/arm/cpu/armv7/spare_head.o
 .rel.text.sunxi_partition_get_size
                0x4a0d5bf0        0x8 arch/arm/cpu/armv7/spare_head.o
 .rel.text.sunxi_partition_get_offset_byname
                0x4a0d5bf8        0x8 arch/arm/cpu/armv7/spare_head.o
 .rel.text.sunxi_partition_get_partno_byname
                0x4a0d5c00        0x8 arch/arm/cpu/armv7/spare_head.o
 .rel.text.sunxi_partition_get_size_byname
                0x4a0d5c08        0x8 arch/arm/cpu/armv7/spare_head.o
 .rel.text.sunxi_partition_get_info_byname
                0x00000000        0x0 arch/arm/cpu/armv7/spare_head.o
 .rel.text.sunxi_partition_fetch_mbr
                0x00000000        0x0 arch/arm/cpu/armv7/spare_head.o
 .rel.text.sunxi_partition_refresh
                0x00000000        0x0 arch/arm/cpu/armv7/spare_head.o
 .rel.text.sunxi_partition_get_type
                0x4a0d5c10        0x8 arch/arm/cpu/armv7/spare_head.o
 .rel.text.sunxi_is_gpt_valid
                0x4a0d5c18        0x8 arch/arm/cpu/armv7/spare_head.o
 .rel.text.sunxi_is_awpart_valid
                0x4a0d5c20       0x10 arch/arm/cpu/armv7/spare_head.o
 .rel.text.check_card0_partition
                0x4a0d5c30       0x10 arch/arm/cpu/armv7/spare_head.o
 .rel.text.sunxi_partition_init
                0x4a0d5c40       0xd8 arch/arm/cpu/armv7/spare_head.o
 .rel.text.gpt_partition_get_info_byname
                0x4a0d5d18        0x8 arch/arm/cpu/armv7/spare_head.o
 .rel.text.gpt_partition_get_partno_byname
                0x4a0d5d20        0x8 arch/arm/cpu/armv7/spare_head.o
 .rel.text.EnterAndroidChargeMode
                0x4a0d5d28       0x10 arch/arm/cpu/armv7/spare_head.o
 .rel.text.EnterNormalBootMode
                0x4a0d5d38       0x10 arch/arm/cpu/armv7/spare_head.o
 .rel.text.ProbePreSystemMode
                0x4a0d5d48       0x18 arch/arm/cpu/armv7/spare_head.o
 .rel.text.PowerCheck
                0x4a0d5d60       0x90 arch/arm/cpu/armv7/spare_head.o
 .rel.text.check_update_key
                0x4a0d5df0       0x30 arch/arm/cpu/armv7/spare_head.o
 .rel.text.do_efuse_read
                0x4a0d5e20       0x28 arch/arm/cpu/armv7/spare_head.o
 .rel.text.sunxi_keydata_burn_by_usb
                0x4a0d5e48       0x60 arch/arm/cpu/armv7/spare_head.o
 .rel.text.get_serial_num_from_file
                0x4a0d5ea8       0x48 arch/arm/cpu/armv7/spare_head.o
 .rel.text.get_serial_num_from_chipid
                0x4a0d5ef0        0x8 arch/arm/cpu/armv7/spare_head.o
 .rel.text.sunxi_set_serial_num
                0x4a0d5ef8       0x18 arch/arm/cpu/armv7/spare_head.o
 .rel.text.board_display_update_para_for_kernel
                0x4a0d5f10       0x28 arch/arm/cpu/armv7/spare_head.o
 .rel.text.board_display_eink_update
                0x00000000        0x0 arch/arm/cpu/armv7/spare_head.o
 .rel.text.board_display_layer_open
                0x4a0d5f38        0x8 arch/arm/cpu/armv7/spare_head.o
 .rel.text.board_display_layer_close
                0x4a0d5f40        0x8 arch/arm/cpu/armv7/spare_head.o
 .rel.text.board_display_layer_para_set
                0x4a0d5f48        0x8 arch/arm/cpu/armv7/spare_head.o
 .rel.text.board_display_show_until_lcd_open
                0x4a0d5f50       0x10 arch/arm/cpu/armv7/spare_head.o
 .rel.text.board_display_framebuffer_set
                0x4a0d5f60       0x58 arch/arm/cpu/armv7/spare_head.o
 .rel.text.board_display_device_open
                0x4a0d5fb8      0x110 arch/arm/cpu/armv7/spare_head.o
 .rel.text.board_display_setenv
                0x00000000        0x0 arch/arm/cpu/armv7/spare_head.o
 .rel.text.borad_display_get_screen_width
                0x4a0d60c8        0x8 arch/arm/cpu/armv7/spare_head.o
 .rel.text.borad_display_get_screen_height
                0x4a0d60d0        0x8 arch/arm/cpu/armv7/spare_head.o
 .rel.text.graphic_buffer_alloc
                0x00000000        0x0 arch/arm/cpu/armv7/spare_head.o
 .rel.text.update_fdt_dram_para
                0x4a0d60d8       0xf0 arch/arm/cpu/armv7/spare_head.o
 .rel.text.sunxi_update_subsequent_processing
                0x4a0d61c8       0x50 arch/arm/cpu/armv7/spare_head.o
 .rel.text.switch_boot_partition
                0x4a0d6218       0x38 arch/arm/cpu/armv7/spare_head.o
 .rel.text.do_switch_boot_partition
                0x4a0d6250        0x8 arch/arm/cpu/armv7/spare_head.o
 .rel.text.check_physical_key_early
                0x00000000        0x0 arch/arm/cpu/armv7/spare_head.o
 .rel.text.disable_node
                0x4a0d6258       0x18 arch/arm/cpu/armv7/spare_head.o
 .rel.text.update_fdt_para_for_kernel
                0x4a0d6270       0x98 arch/arm/cpu/armv7/spare_head.o
 .rel.text.set_bootcmd_from_misc
                0x4a0d6308       0xc8 arch/arm/cpu/armv7/spare_head.o
 .rel.text.get_boot_work_mode
                0x4a0d63d0        0x8 arch/arm/cpu/armv7/spare_head.o
 .rel.text.get_boot_storage_type_ext
                0x4a0d63d8        0x8 arch/arm/cpu/armv7/spare_head.o
 .rel.text.get_boot_storage_type
                0x4a0d63e0        0x8 arch/arm/cpu/armv7/spare_head.o
 .rel.text.update_bootcmd
                0x4a0d63e8       0xb0 arch/arm/cpu/armv7/spare_head.o
 .rel.text.update_setargs
                0x4a0d6498       0x18 arch/arm/cpu/armv7/spare_head.o
 .rel.text.sunxi_fastboot_init
                0x4a0d64b0      0x120 arch/arm/cpu/armv7/spare_head.o
 .rel.text.set_boot_storage_type
                0x4a0d65d0        0x8 arch/arm/cpu/armv7/spare_head.o
 .rel.text.get_boot_dram_para_addr
                0x00000000        0x0 arch/arm/cpu/armv7/spare_head.o
 .rel.text.get_boot_dram_update_flag
                0x00000000        0x0 arch/arm/cpu/armv7/spare_head.o
 .rel.text.get_pmu_byte_from_boot0
                0x00000000        0x0 arch/arm/cpu/armv7/spare_head.o
 .rel.text.get_debugmode_flag
                0x4a0d65d8       0x18 arch/arm/cpu/armv7/spare_head.o
 .rel.text.write_recovery_msg_to_misc
                0x00000000        0x0 arch/arm/cpu/armv7/spare_head.o
 .rel.text.respond_physical_key_action
                0x00000000        0x0 arch/arm/cpu/armv7/spare_head.o
 .rel.text.update_dram_para_for_ota
                0x00000000        0x0 arch/arm/cpu/armv7/spare_head.o
 .rel.text.sunxi_update_rotpk_info
                0x4a0d65f0       0x10 arch/arm/cpu/armv7/spare_head.o
 .rel.text.board_late_init
                0x4a0d6600       0x10 arch/arm/cpu/armv7/spare_head.o
 .rel.text.sunxi_led_init
                0x4a0d6610       0x10 arch/arm/cpu/armv7/spare_head.o
 .rel.u_boot_list_2_cmd_2_efuse_read
                0x4a0d6620       0x20 arch/arm/cpu/armv7/spare_head.o
 .rel.u_boot_list_2_cmd_2_switch_boot_partition
                0x4a0d6640       0x20 arch/arm/cpu/armv7/spare_head.o
 .rel.text.dram_init
                0x4a0d6660       0x10 arch/arm/cpu/armv7/spare_head.o
 .rel.text.platform_axp_probe
                0x4a0d6670       0x28 arch/arm/cpu/armv7/spare_head.o
 .rel.text.board_hardware_info
                0x4a0d6698        0x8 arch/arm/cpu/armv7/spare_head.o
 .rel.text.find_cmd
                0x4a0d66a0       0x10 arch/arm/cpu/armv7/spare_head.o
 .rel.text.cmd_usage
                0x4a0d66b0       0x18 arch/arm/cpu/armv7/spare_head.o
 .rel.text._do_help
                0x4a0d66c8       0x10 arch/arm/cpu/armv7/spare_head.o
 .rel.text.var_complete
                0x4a0d66d8       0x10 arch/arm/cpu/armv7/spare_head.o
 .rel.text.cmd_auto_complete
                0x4a0d66e8       0x40 arch/arm/cpu/armv7/spare_head.o
 .rel.text.cmd_get_data_size
                0x4a0d6728        0x8 arch/arm/cpu/armv7/spare_head.o
 .rel.text.cmd_process
                0x4a0d6730       0x18 arch/arm/cpu/armv7/spare_head.o
 .rel.text.cmd_process_error
                0x00000000        0x0 arch/arm/cpu/armv7/spare_head.o
 .rel.text.jumptable_init
                0x4a0d6748       0x98 arch/arm/cpu/armv7/spare_head.o
 .rel.text.hash_lookup_algo
                0x00000000        0x0 arch/arm/cpu/armv7/spare_head.o
 .rel.text.hash_show
                0x00000000        0x0 arch/arm/cpu/armv7/spare_head.o
 .rel.text.hash_command
                0x4a0d67e0        0x8 arch/arm/cpu/armv7/spare_head.o
 .rel.text.mapset
                0x4a0d67e8        0x8 arch/arm/cpu/armv7/spare_head.o
 .rel.text.syntax_err
                0x4a0d67f0        0x8 arch/arm/cpu/armv7/spare_head.o
 .rel.text.do_showvar
                0x4a0d67f8       0x20 arch/arm/cpu/armv7/spare_head.o
 .rel.text.b_addqchr
                0x4a0d6818        0x8 arch/arm/cpu/armv7/spare_head.o
 .rel.text.is_assignment.part.0
                0x4a0d6820        0x8 arch/arm/cpu/armv7/spare_head.o
 .rel.text.xmalloc
                0x4a0d6828        0x8 arch/arm/cpu/armv7/spare_head.o
 .rel.text.file_get
                0x4a0d6830       0x30 arch/arm/cpu/armv7/spare_head.o
 .rel.text.xrealloc
                0x4a0d6860        0x8 arch/arm/cpu/armv7/spare_head.o
 .rel.text.done_word
                0x4a0d6868        0x8 arch/arm/cpu/armv7/spare_head.o
 .rel.text.get_local_var
                0x4a0d6870       0x20 arch/arm/cpu/armv7/spare_head.o
 .rel.text.set_local_var
                0x4a0d6890       0x20 arch/arm/cpu/armv7/spare_head.o
 .rel.text.insert_var_value_sub
                0x4a0d68b0        0x8 arch/arm/cpu/armv7/spare_head.o
 .rel.text.unset_local_var
                0x00000000        0x0 arch/arm/cpu/armv7/spare_head.o
 .rel.text.parse_string_outer
                0x4a0d68b8       0x18 arch/arm/cpu/armv7/spare_head.o
 .rel.text.run_list_real
                0x4a0d68d0       0x48 arch/arm/cpu/armv7/spare_head.o
 .rel.text.parse_stream_outer
                0x4a0d6918       0x68 arch/arm/cpu/armv7/spare_head.o
 .rel.text.parse_file_outer
                0x4a0d6980       0x10 arch/arm/cpu/armv7/spare_head.o
 .rel.text.u_boot_hush_start
                0x4a0d6990       0x18 arch/arm/cpu/armv7/spare_head.o
 .rel.text.cli_simple_parse_line
                0x00000000        0x0 arch/arm/cpu/armv7/spare_head.o
 .rel.text.cli_simple_run_command
                0x00000000        0x0 arch/arm/cpu/armv7/spare_head.o
 .rel.text.cli_simple_loop
                0x00000000        0x0 arch/arm/cpu/armv7/spare_head.o
 .rel.text.do_run
                0x4a0d69a8        0x8 arch/arm/cpu/armv7/spare_head.o
 .rel.text.cli_process_fdt
                0x00000000        0x0 arch/arm/cpu/armv7/spare_head.o
 .rel.text.cli_secure_boot_cmd
                0x00000000        0x0 arch/arm/cpu/armv7/spare_head.o
 .rel.text.delete_char.part.0
                0x4a0d69b0       0x10 arch/arm/cpu/armv7/spare_head.o
 .rel.text.cread_add_char
                0x4a0d69c0        0x8 arch/arm/cpu/armv7/spare_head.o
 .rel.text.cli_readline_into_buffer
                0x4a0d69c8       0xb0 arch/arm/cpu/armv7/spare_head.o
 .rel.text.cli_readline
                0x4a0d6a78        0x8 arch/arm/cpu/armv7/spare_head.o
 .rel.text.srec_decode
                0x00000000        0x0 arch/arm/cpu/armv7/spare_head.o
 .rel.text.xyzModem_get_hdr
                0x00000000        0x0 arch/arm/cpu/armv7/spare_head.o
 .rel.text.xyzModem_stream_open
                0x00000000        0x0 arch/arm/cpu/armv7/spare_head.o
 .rel.text.xyzModem_stream_read
                0x00000000        0x0 arch/arm/cpu/armv7/spare_head.o
 .rel.text.xyzModem_stream_close
                0x00000000        0x0 arch/arm/cpu/armv7/spare_head.o
 .rel.text.xyzModem_stream_terminate
                0x00000000        0x0 arch/arm/cpu/armv7/spare_head.o
 .rel.text.xyzModem_error
                0x00000000        0x0 arch/arm/cpu/armv7/spare_head.o
 .rel.text.common_diskboot
                0x4a0d6a80       0x28 arch/arm/cpu/armv7/spare_head.o
 .rel.text.bootdelay_process
                0x4a0d6aa8       0x18 arch/arm/cpu/armv7/spare_head.o
 .rel.text.autoboot_command
                0x4a0d6ac0       0x28 arch/arm/cpu/armv7/spare_head.o
 .rel.text.initr_reloc_global_data
                0x4a0d6ae8       0x18 arch/arm/cpu/armv7/spare_head.o
 .rel.text.run_main_loop
                0x4a0d6b00        0x8 arch/arm/cpu/armv7/spare_head.o
 .rel.text.initr_env
                0x4a0d6b08       0x18 arch/arm/cpu/armv7/spare_head.o
 .rel.text.sunxi_burn_key
                0x4a0d6b20        0x8 arch/arm/cpu/armv7/spare_head.o
 .rel.text.initr_sunxi_flash
                0x4a0d6b28       0x18 arch/arm/cpu/armv7/spare_head.o
 .rel.text.initr_mmc
                0x00000000        0x0 arch/arm/cpu/armv7/spare_head.o
 .rel.text.initr_sunxi_display
                0x4a0d6b40       0x18 arch/arm/cpu/armv7/spare_head.o
 .rel.text.intr_vector_fix
                0x4a0d6b58       0x40 arch/arm/cpu/armv7/spare_head.o
 .rel.text.board_init_r
                0x4a0d6b98        0x8 arch/arm/cpu/armv7/spare_head.o
 .rel.text.setup_mon_len
                0x4a0d6ba0       0x10 arch/arm/cpu/armv7/spare_head.o
 .rel.text.setup_reloc
                0x4a0d6bb0        0x8 arch/arm/cpu/armv7/spare_head.o
 .rel.text.announce_dram_init
                0x4a0d6bb8        0x8 arch/arm/cpu/armv7/spare_head.o
 .rel.text.display_text_info
                0x4a0d6bc0       0x10 arch/arm/cpu/armv7/spare_head.o
 .rel.text.reloc_fdt
                0x4a0d6bd0       0x10 arch/arm/cpu/armv7/spare_head.o
 .rel.text.reserve_fdt
                0x4a0d6be0        0x8 arch/arm/cpu/armv7/spare_head.o
 .rel.text.init_func_pmubus
                0x4a0d6be8       0x10 arch/arm/cpu/armv7/spare_head.o
 .rel.text.init_baud_rate
                0x4a0d6bf8        0x8 arch/arm/cpu/armv7/spare_head.o
 .rel.text.board_init_f
                0x4a0d6c00        0x8 arch/arm/cpu/armv7/spare_head.o
 .rel.text.do_go
                0x4a0d6c08       0x10 arch/arm/cpu/armv7/spare_head.o
 .rel.text.do_bootd
                0x4a0d6c18        0x8 arch/arm/cpu/armv7/spare_head.o
 .rel.text.update_bootargs
                0x4a0d6c20       0xf8 arch/arm/cpu/armv7/spare_head.o
 .rel.text.do_bootm
                0x4a0d6d18       0x18 arch/arm/cpu/armv7/spare_head.o
 .rel.text.bootm_maybe_autostart
                0x4a0d6d30       0x20 arch/arm/cpu/armv7/spare_head.o
 .rel.text.bootm_find_ramdisk_fdt
                0x4a0d6d50       0x20 arch/arm/cpu/armv7/spare_head.o
 .rel.text.do_bootm_states
                0x4a0d6d70       0xe0 arch/arm/cpu/armv7/spare_head.o
 .rel.text.do_bootm_rtems
                0x4a0d6e50        0x8 arch/arm/cpu/armv7/spare_head.o
 .rel.text.do_bootm_plan9
                0x4a0d6e58       0x18 arch/arm/cpu/armv7/spare_head.o
 .rel.text.do_bootm_standalone
                0x4a0d6e70       0x18 arch/arm/cpu/armv7/spare_head.o
 .rel.text.do_bootm_qnxelf
                0x4a0d6e88        0x8 arch/arm/cpu/armv7/spare_head.o
 .rel.text.do_bootm_netbsd
                0x4a0d6e90       0x18 arch/arm/cpu/armv7/spare_head.o
 .rel.text.do_bootvx_fdt
                0x4a0d6ea8       0x38 arch/arm/cpu/armv7/spare_head.o
 .rel.text.bootm_os_get_boot_func
                0x4a0d6ee0        0x8 arch/arm/cpu/armv7/spare_head.o
 .rel.text.do_help
                0x4a0d6ee8       0x10 arch/arm/cpu/armv7/spare_head.o
 .rel.text.do_version
                0x4a0d6ef8       0x20 arch/arm/cpu/armv7/spare_head.o
 .rel.text.clean_timestamp_counter
                0x4a0d6f18        0x8 arch/arm/cpu/armv7/spare_head.o
 .rel.text.do_boota_linux
                0x4a0d6f20       0x20 arch/arm/cpu/armv7/spare_head.o
 .rel.text.do_boota
                0x4a0d6f40       0x20 arch/arm/cpu/armv7/spare_head.o
 .rel.text.get_partition_flash_info
                0x4a0d6f60        0x8 arch/arm/cpu/armv7/spare_head.o
 .rel.text.do_sunxi_flash
                0x4a0d6f68       0xb0 arch/arm/cpu/armv7/spare_head.o
 .rel.text.do_sprite_test
                0x4a0d7018       0x40 arch/arm/cpu/armv7/spare_head.o
 .rel.text.timer1_test_func
                0x4a0d7058       0x10 arch/arm/cpu/armv7/spare_head.o
 .rel.text.timer0_test_func
                0x4a0d7068       0x10 arch/arm/cpu/armv7/spare_head.o
 .rel.text.do_delay_test
                0x4a0d7078       0x10 arch/arm/cpu/armv7/spare_head.o
 .rel.text.do_timer_test1
                0x4a0d7088       0x20 arch/arm/cpu/armv7/spare_head.o
 .rel.text.do_timer_test
                0x4a0d70a8       0x20 arch/arm/cpu/armv7/spare_head.o
 .rel.text.do_efex
                0x4a0d70c8        0x8 arch/arm/cpu/armv7/spare_head.o
 .rel.text.memtester_pagesize
                0x4a0d70d0        0x8 arch/arm/cpu/armv7/spare_head.o
 .rel.text.usage
                0x4a0d70d8        0x8 arch/arm/cpu/armv7/spare_head.o
 .rel.text.do_memtester
                0x4a0d70e0       0x90 arch/arm/cpu/armv7/spare_head.o
 .rel.text.do_sunxi_bmp_info
                0x4a0d7170       0x38 arch/arm/cpu/armv7/spare_head.o
 .rel.text.sunxi_bmp_show
                0x4a0d71a8        0x8 arch/arm/cpu/armv7/spare_head.o
 .rel.text.check_sum.constprop.2
                0x00000000        0x0 arch/arm/cpu/armv7/spare_head.o
 .rel.text.fat_read_file_ex.constprop.3
                0x00000000        0x0 arch/arm/cpu/armv7/spare_head.o
 .rel.text.sunxi_advert_verify_head
                0x00000000        0x0 arch/arm/cpu/armv7/spare_head.o
 .rel.text.sunxi_bmp_decode
                0x4a0d71b0       0x10 arch/arm/cpu/armv7/spare_head.o
 .rel.text.do_sunxi_bmp_display
                0x4a0d71c0       0x20 arch/arm/cpu/armv7/spare_head.o
 .rel.text.sunxi_bmp_display_mem
                0x00000000        0x0 arch/arm/cpu/armv7/spare_head.o
 .rel.text.sunxi_bmp_display
                0x4a0d71e0       0x30 arch/arm/cpu/armv7/spare_head.o
 .rel.text.do_sunxi_logo
                0x4a0d7210        0x8 arch/arm/cpu/armv7/spare_head.o
 .rel.text.sunxi_Eink_Get_bmp_buffer
                0x00000000        0x0 arch/arm/cpu/armv7/spare_head.o
 .rel.text.sunxi_advert_logo_load
                0x00000000        0x0 arch/arm/cpu/armv7/spare_head.o
 .rel.text.sunxi_advert_display
                0x00000000        0x0 arch/arm/cpu/armv7/spare_head.o
 .rel.text.sunxi_bmp_load
                0x00000000        0x0 arch/arm/cpu/armv7/spare_head.o
 .rel.text.do_burn_from_boot
                0x4a0d7218       0xa8 arch/arm/cpu/armv7/spare_head.o
 .rel.text.env_attr_lookup
                0x4a0d72c0        0x8 arch/arm/cpu/armv7/spare_head.o
 .rel.text.on_callbacks
                0x4a0d72c8       0x20 arch/arm/cpu/armv7/spare_head.o
 .rel.text.find_env_callback
                0x4a0d72e8       0x10 arch/arm/cpu/armv7/spare_head.o
 .rel.text.set_callback
                0x4a0d72f8        0x8 arch/arm/cpu/armv7/spare_head.o
 .rel.text.env_callback_init
                0x4a0d7300       0x20 arch/arm/cpu/armv7/spare_head.o
 .rel.text.on_flags
                0x4a0d7320       0x20 arch/arm/cpu/armv7/spare_head.o
 .rel.text.skip_num.constprop.0
                0x4a0d7340        0x8 arch/arm/cpu/armv7/spare_head.o
 .rel.text.env_flags_parse_vartype
                0x4a0d7348       0x10 arch/arm/cpu/armv7/spare_head.o
 .rel.text.env_flags_parse_varaccess
                0x4a0d7358       0x10 arch/arm/cpu/armv7/spare_head.o
 .rel.text.set_flags
                0x4a0d7368       0x10 arch/arm/cpu/armv7/spare_head.o
 .rel.text.env_flags_parse_varaccess_from_binflags
                0x00000000        0x0 arch/arm/cpu/armv7/spare_head.o
 .rel.text.env_flags_init
                0x4a0d7378       0x30 arch/arm/cpu/armv7/spare_head.o
 .rel.text.env_flags_validate
                0x4a0d73a8       0x58 arch/arm/cpu/armv7/spare_head.o
 .rel.text.env_init
                0x4a0d7400        0x8 arch/arm/cpu/armv7/spare_head.o
 .rel.text.saveenv
                0x4a0d7408       0x30 arch/arm/cpu/armv7/spare_head.o
 .rel.text.recover_env
                0x4a0d7438       0x18 arch/arm/cpu/armv7/spare_head.o
 .rel.text.flash_env_relocate_spec
                0x4a0d7450       0x98 arch/arm/cpu/armv7/spare_head.o
 .rel.text.env_relocate_spec
                0x4a0d74e8        0x8 arch/arm/cpu/armv7/spare_head.o
 .rel.text.valid_elf_image
                0x4a0d74f0       0x10 arch/arm/cpu/armv7/spare_head.o
 .rel.text.do_bootvx
                0x4a0d7500       0x98 arch/arm/cpu/armv7/spare_head.o
 .rel.text.do_bootelf
                0x4a0d7598       0x18 arch/arm/cpu/armv7/spare_head.o
 .rel.text.do_fat_fsinfo
                0x4a0d75b0       0x10 arch/arm/cpu/armv7/spare_head.o
 .rel.text.of_bus_default_count_cells
                0x00000000        0x0 arch/arm/cpu/armv7/spare_head.o
 .rel.text.fdt_find_or_add_subnode.constprop.6
                0x4a0d75c0       0x10 arch/arm/cpu/armv7/spare_head.o
 .rel.text.set_working_fdt_addr
                0x4a0d75d0       0x10 arch/arm/cpu/armv7/spare_head.o
 .rel.text.fdt_getprop_u32
                0x4a0d75e0        0x8 arch/arm/cpu/armv7/spare_head.o
 .rel.text.fdt_getprop_string
                0x4a0d75e8        0x8 arch/arm/cpu/armv7/spare_head.o
 .rel.text.fdt_initrd
                0x4a0d75f0       0x38 arch/arm/cpu/armv7/spare_head.o
 .rel.text.fdt_chosen
                0x4a0d7628       0x20 arch/arm/cpu/armv7/spare_head.o
 .rel.text.do_fixup_by_path
                0x4a0d7648        0x8 arch/arm/cpu/armv7/spare_head.o
 .rel.text.fdt_fixup_memory_banks
                0x4a0d7650       0x48 arch/arm/cpu/armv7/spare_head.o
 .rel.text.fdt_fixup_ethernet
                0x4a0d7698       0x38 arch/arm/cpu/armv7/spare_head.o
 .rel.text.fdt_del_node_and_alias
                0x00000000        0x0 arch/arm/cpu/armv7/spare_head.o
 .rel.text.fdt_translate_address
                0x00000000        0x0 arch/arm/cpu/armv7/spare_head.o
 .rel.text.fdt_node_offset_by_compat_reg
                0x00000000        0x0 arch/arm/cpu/armv7/spare_head.o
 .rel.text.fdt_set_phandle
                0x00000000        0x0 arch/arm/cpu/armv7/spare_head.o
 .rel.text.fdt_create_phandle
                0x00000000        0x0 arch/arm/cpu/armv7/spare_head.o
 .rel.text.fdt_set_node_status
                0x4a0d76d0       0x50 arch/arm/cpu/armv7/spare_head.o
 .rel.text.fdt_verify_alias_address
                0x00000000        0x0 arch/arm/cpu/armv7/spare_head.o
 .rel.text.fdt_get_base_address
                0x00000000        0x0 arch/arm/cpu/armv7/spare_head.o
 .rel.text.fdt_read_range
                0x00000000        0x0 arch/arm/cpu/armv7/spare_head.o
 .rel.text.do_fdt_test
                0x4a0d7720       0xa8 arch/arm/cpu/armv7/spare_head.o
 .rel.text.fdt_valid
                0x4a0d77c8       0x28 arch/arm/cpu/armv7/spare_head.o
 .rel.text.is_printable_string
                0x4a0d77f0        0x8 arch/arm/cpu/armv7/spare_head.o
 .rel.text.print_data
                0x4a0d77f8       0x58 arch/arm/cpu/armv7/spare_head.o
 .rel.text.save_fdt_to_flash
                0x4a0d7850       0x10 arch/arm/cpu/armv7/spare_head.o
 .rel.text.do_fdt
                0x4a0d7860      0x258 arch/arm/cpu/armv7/spare_head.o
 .rel.text.do_interrupts
                0x4a0d7ab8        0x8 arch/arm/cpu/armv7/spare_head.o
 .rel.text.do_mem_mw
                0x4a0d7ac0        0x8 arch/arm/cpu/armv7/spare_head.o
 .rel.text.do_mem_base
                0x4a0d7ac8       0x10 arch/arm/cpu/armv7/spare_head.o
 .rel.text.do_mem_cmp
                0x4a0d7ad8       0x38 arch/arm/cpu/armv7/spare_head.o
 .rel.text.do_mem_crc
                0x4a0d7b10        0x8 arch/arm/cpu/armv7/spare_head.o
 .rel.text.do_mem_cp
                0x4a0d7b18       0x10 arch/arm/cpu/armv7/spare_head.o
 .rel.text.do_mem_md
                0x4a0d7b28       0x20 arch/arm/cpu/armv7/spare_head.o
 .rel.text.mod_mem.isra.2
                0x4a0d7b48       0x48 arch/arm/cpu/armv7/spare_head.o
 .rel.text.do_mmcops
                0x4a0d7b90       0x18 arch/arm/cpu/armv7/spare_head.o
 .rel.text.init_mmc_device
                0x4a0d7ba8        0x8 arch/arm/cpu/armv7/spare_head.o
 .rel.text.do_mmc_rescan
                0x4a0d7bb0        0x8 arch/arm/cpu/armv7/spare_head.o
 .rel.text.do_mmcinfo
                0x4a0d7bb8       0x88 arch/arm/cpu/armv7/spare_head.o
 .rel.text.do_mmc_dev
                0x4a0d7c40       0x20 arch/arm/cpu/armv7/spare_head.o
 .rel.text.do_mmc_part
                0x4a0d7c60       0x10 arch/arm/cpu/armv7/spare_head.o
 .rel.text.do_mmc_erase
                0x4a0d7c70       0x30 arch/arm/cpu/armv7/spare_head.o
 .rel.text.do_mmc_write
                0x4a0d7ca0       0x30 arch/arm/cpu/armv7/spare_head.o
 .rel.text.do_mmc_read
                0x4a0d7cd0       0x28 arch/arm/cpu/armv7/spare_head.o
 .rel.text.do_mmc_setdsr
                0x4a0d7cf8       0x28 arch/arm/cpu/armv7/spare_head.o
 .rel.text.do_card1_probe
                0x4a0d7d20       0x20 arch/arm/cpu/armv7/spare_head.o
 .rel.text.do_card0_probe
                0x4a0d7d40       0x20 arch/arm/cpu/armv7/spare_head.o
 .rel.text.do_test
                0x4a0d7d60       0x70 arch/arm/cpu/armv7/spare_head.o
 .rel.text.usb_get_class_desc
                0x4a0d7dd0       0x50 arch/arm/cpu/armv7/spare_head.o
 .rel.text.do_usbboot
                0x4a0d7e20        0x8 arch/arm/cpu/armv7/spare_head.o
 .rel.text.usb_display_class_sub
                0x4a0d7e28       0xc8 arch/arm/cpu/armv7/spare_head.o
 .rel.text.usb_show_tree_graph
                0x4a0d7ef0       0x48 arch/arm/cpu/armv7/spare_head.o
 .rel.text.usb_display_string
                0x4a0d7f38        0x8 arch/arm/cpu/armv7/spare_head.o
 .rel.text.usb_display_config
                0x4a0d7f40       0xa8 arch/arm/cpu/armv7/spare_head.o
 .rel.text.usb_display_desc.part.1
                0x4a0d7fe8       0x38 arch/arm/cpu/armv7/spare_head.o
 .rel.text.do_usb
                0x4a0d8020      0x160 arch/arm/cpu/armv7/spare_head.o
 .rel.text.usb_stop
                0x4a0d8180       0x18 arch/arm/cpu/armv7/spare_head.o
 .rel.text.usb_disable_asynch
                0x4a0d8198        0x8 arch/arm/cpu/armv7/spare_head.o
 .rel.text.usb_control_msg
                0x4a0d81a0        0x8 arch/arm/cpu/armv7/spare_head.o
 .rel.text.usb_string_sub
                0x4a0d81a8        0x8 arch/arm/cpu/armv7/spare_head.o
 .rel.text.usb_get_configuration_no
                0x4a0d81b0       0x20 arch/arm/cpu/armv7/spare_head.o
 .rel.text.usb_set_interface
                0x4a0d81d0        0x8 arch/arm/cpu/armv7/spare_head.o
 .rel.text.usb_get_dev_index
                0x4a0d81d8        0x8 arch/arm/cpu/armv7/spare_head.o
 .rel.text.usb_alloc_new_device
                0x4a0d81e0       0x18 arch/arm/cpu/armv7/spare_head.o
 .rel.text.usb_free_device
                0x4a0d81f8       0x10 arch/arm/cpu/armv7/spare_head.o
 .rel.text.usb_new_device
                0x4a0d8208       0xa0 arch/arm/cpu/armv7/spare_head.o
 .rel.text.usb_init
                0x4a0d82a8       0x50 arch/arm/cpu/armv7/spare_head.o
 .rel.text.usb_hub_reset
                0x4a0d82f8        0x8 arch/arm/cpu/armv7/spare_head.o
 .rel.text.usb_hub_port_connect_change
                0x4a0d8300        0x8 arch/arm/cpu/armv7/spare_head.o
 .rel.text.usb_hub_configure
                0x4a0d8308       0x18 arch/arm/cpu/armv7/spare_head.o
 .rel.text.usb_stor_BBB_transport
                0x4a0d8320       0x10 arch/arm/cpu/armv7/spare_head.o
 .rel.text.usb_stor_CB_comdat
                0x4a0d8330        0x8 arch/arm/cpu/armv7/spare_head.o
 .rel.text.usb_stor_CBI_get_status.isra.0
                0x4a0d8338       0x10 arch/arm/cpu/armv7/spare_head.o
 .rel.text.usb_stor_CB_transport
                0x4a0d8348       0x10 arch/arm/cpu/armv7/spare_head.o
 .rel.text.usb_stor_write
                0x4a0d8358       0x10 arch/arm/cpu/armv7/spare_head.o
 .rel.text.usb_stor_read
                0x4a0d8368       0x10 arch/arm/cpu/armv7/spare_head.o
 .rel.text.usb_stor_get_dev
                0x4a0d8378       0x10 arch/arm/cpu/armv7/spare_head.o
 .rel.text.usb_stor_info
                0x4a0d8388       0x20 arch/arm/cpu/armv7/spare_head.o
 .rel.text.usb_storage_probe
                0x4a0d83a8       0x38 arch/arm/cpu/armv7/spare_head.o
 .rel.text.usb_stor_get_info
                0x4a0d83e0       0x20 arch/arm/cpu/armv7/spare_head.o
 .rel.text.usb_stor_scan
                0x4a0d8400       0x48 arch/arm/cpu/armv7/spare_head.o
 .rel.text.do_fastboot
                0x4a0d8448        0x8 arch/arm/cpu/armv7/spare_head.o
 .rel.text.do_env_delete
                0x4a0d8450       0x10 arch/arm/cpu/armv7/spare_head.o
 .rel.text.env_print
                0x4a0d8460       0x18 arch/arm/cpu/armv7/spare_head.o
 .rel.text.do_env_print
                0x4a0d8478       0x10 arch/arm/cpu/armv7/spare_head.o
 .rel.text.do_env
                0x4a0d8488        0x8 arch/arm/cpu/armv7/spare_head.o
 .rel.text.do_env_import
                0x4a0d8490       0x58 arch/arm/cpu/armv7/spare_head.o
 .rel.text.do_env_default
                0x4a0d84e8        0x8 arch/arm/cpu/armv7/spare_head.o
 .rel.text.do_env_save
                0x4a0d84f0       0x10 arch/arm/cpu/armv7/spare_head.o
 .rel.text._do_env_set.isra.1
                0x4a0d8500       0x30 arch/arm/cpu/armv7/spare_head.o
 .rel.text.get_env_id
                0x00000000        0x0 arch/arm/cpu/armv7/spare_head.o
 .rel.text.setenv
                0x4a0d8530        0x8 arch/arm/cpu/armv7/spare_head.o
 .rel.text.setenv_hex
                0x4a0d8538        0x8 arch/arm/cpu/armv7/spare_head.o
 .rel.text.do_env_export
                0x4a0d8540       0x40 arch/arm/cpu/armv7/spare_head.o
 .rel.text.getenv_f
                0x4a0d8580        0x8 arch/arm/cpu/armv7/spare_head.o
 .rel.text.getenv
                0x4a0d8588        0x8 arch/arm/cpu/armv7/spare_head.o
 .rel.text.env_get_addr
                0x4a0d8590        0x8 arch/arm/cpu/armv7/spare_head.o
 .rel.text.env_get_char
                0x4a0d8598        0x8 arch/arm/cpu/armv7/spare_head.o
 .rel.text.set_default_env
                0x4a0d85a0       0x40 arch/arm/cpu/armv7/spare_head.o
 .rel.text.set_default_vars
                0x4a0d85e0       0x10 arch/arm/cpu/armv7/spare_head.o
 .rel.text.env_import
                0x4a0d85f0       0x38 arch/arm/cpu/armv7/spare_head.o
 .rel.text.env_export
                0x4a0d8628       0x28 arch/arm/cpu/armv7/spare_head.o
 .rel.text.env_relocate
                0x4a0d8650        0x8 arch/arm/cpu/armv7/spare_head.o
 .rel.text.env_complete
                0x4a0d8658       0x18 arch/arm/cpu/armv7/spare_head.o
 .rel.text.console_setfile
                0x4a0d8670       0x10 arch/arm/cpu/armv7/spare_head.o
 .rel.text.set_sunxi_debug_level
                0x00000000        0x0 arch/arm/cpu/armv7/spare_head.o
 .rel.text.get_sunxi_debug_level
                0x00000000        0x0 arch/arm/cpu/armv7/spare_head.o
 .rel.text.fgetc
                0x4a0d8680        0x8 arch/arm/cpu/armv7/spare_head.o
 .rel.text.ftstc
                0x4a0d8688        0x8 arch/arm/cpu/armv7/spare_head.o
 .rel.text.fputc
                0x4a0d8690        0x8 arch/arm/cpu/armv7/spare_head.o
 .rel.text.fputs
                0x4a0d8698        0x8 arch/arm/cpu/armv7/spare_head.o
 .rel.text.printf
                0x4a0d86a0       0x10 arch/arm/cpu/armv7/spare_head.o
 .rel.text.display_time
                0x00000000        0x0 arch/arm/cpu/armv7/spare_head.o
 .rel.text.uprintf
                0x4a0d86b0       0x18 arch/arm/cpu/armv7/spare_head.o
 .rel.text.tick_printf
                0x4a0d86c8       0x10 arch/arm/cpu/armv7/spare_head.o
 .rel.text.sunxi_printf_all
                0x00000000        0x0 arch/arm/cpu/armv7/spare_head.o
 .rel.text.ctrlc
                0x4a0d86d8       0x10 arch/arm/cpu/armv7/spare_head.o
 .rel.text.confirm_yesno
                0x00000000        0x0 arch/arm/cpu/armv7/spare_head.o
 .rel.text.disable_ctrlc
                0x00000000        0x0 arch/arm/cpu/armv7/spare_head.o
 .rel.text.had_ctrlc
                0x4a0d86e8        0x8 arch/arm/cpu/armv7/spare_head.o
 .rel.text.clear_ctrlc
                0x4a0d86f0        0x8 arch/arm/cpu/armv7/spare_head.o
 .rel.text.on_console
                0x4a0d86f8       0x20 arch/arm/cpu/armv7/spare_head.o
 .rel.text.console_init_f
                0x4a0d8718       0x18 arch/arm/cpu/armv7/spare_head.o
 .rel.text.stdio_print_current_devices
                0x4a0d8730       0x20 arch/arm/cpu/armv7/spare_head.o
 .rel.text.console_init_r
                0x4a0d8750       0x10 arch/arm/cpu/armv7/spare_head.o
 .rel.text.sbrk
                0x4a0d8760       0x18 arch/arm/cpu/armv7/spare_head.o
 .rel.text.mem_malloc_init
                0x4a0d8778       0x18 arch/arm/cpu/armv7/spare_head.o
 .rel.text.malloc_trim
                0x4a0d8790       0x18 arch/arm/cpu/armv7/spare_head.o
 .rel.text.__free
                0x4a0d87a8       0x18 arch/arm/cpu/armv7/spare_head.o
 .rel.text.__malloc
                0x4a0d87c0       0x40 arch/arm/cpu/armv7/spare_head.o
 .rel.text.calloc
                0x4a0d8800        0x8 arch/arm/cpu/armv7/spare_head.o
 .rel.text.realloc
                0x4a0d8808        0x8 arch/arm/cpu/armv7/spare_head.o
 .rel.text.mallopt
                0x00000000        0x0 arch/arm/cpu/armv7/spare_head.o
 .rel.text.on_loadaddr
                0x4a0d8810        0x8 arch/arm/cpu/armv7/spare_head.o
 .rel.text.getenv_bootm_low
                0x4a0d8818        0x8 arch/arm/cpu/armv7/spare_head.o
 .rel.text.getenv_bootm_size
                0x4a0d8820       0x10 arch/arm/cpu/armv7/spare_head.o
 .rel.text.getenv_bootm_mapsize
                0x4a0d8830        0x8 arch/arm/cpu/armv7/spare_head.o
 .rel.text.genimg_print_size
                0x4a0d8838       0x10 arch/arm/cpu/armv7/spare_head.o
 .rel.text.genimg_get_os_name
                0x4a0d8848       0x10 arch/arm/cpu/armv7/spare_head.o
 .rel.text.genimg_get_arch_name
                0x4a0d8858       0x10 arch/arm/cpu/armv7/spare_head.o
 .rel.text.genimg_get_type_name
                0x4a0d8868       0x10 arch/arm/cpu/armv7/spare_head.o
 .rel.text.genimg_get_comp_name
                0x4a0d8878       0x10 arch/arm/cpu/armv7/spare_head.o
 .rel.text.image_print_contents
                0x4a0d8888       0x50 arch/arm/cpu/armv7/spare_head.o
 .rel.text.genimg_get_os_id
                0x00000000        0x0 arch/arm/cpu/armv7/spare_head.o
 .rel.text.genimg_get_arch_id
                0x00000000        0x0 arch/arm/cpu/armv7/spare_head.o
 .rel.text.genimg_get_type_id
                0x00000000        0x0 arch/arm/cpu/armv7/spare_head.o
 .rel.text.genimg_get_comp_id
                0x00000000        0x0 arch/arm/cpu/armv7/spare_head.o
 .rel.text.boot_get_ramdisk
                0x4a0d88d8       0x50 arch/arm/cpu/armv7/spare_head.o
 .rel.text.boot_ramdisk_high
                0x4a0d8928       0x20 arch/arm/cpu/armv7/spare_head.o
 .rel.text.boot_get_cmdline
                0x4a0d8948       0x10 arch/arm/cpu/armv7/spare_head.o
 .rel.text.image_setup_linux
                0x4a0d8958        0x8 arch/arm/cpu/armv7/spare_head.o
 .rel.text.android_image_get_kernel
                0x4a0d8960       0x48 arch/arm/cpu/armv7/spare_head.o
 .rel.text.android_image_check_header
                0x4a0d89a8        0x8 arch/arm/cpu/armv7/spare_head.o
 .rel.text.fdt_error
                0x4a0d89b0       0x10 arch/arm/cpu/armv7/spare_head.o
 .rel.text.boot_fdt_add_mem_rsv_regions
                0x4a0d89c0        0x8 arch/arm/cpu/armv7/spare_head.o
 .rel.text.boot_relocate_fdt
                0x4a0d89c8       0x40 arch/arm/cpu/armv7/spare_head.o
 .rel.text.boot_get_fdt
                0x00000000        0x0 arch/arm/cpu/armv7/spare_head.o
 .rel.text.image_setup_libfdt
                0x4a0d8a08       0x10 arch/arm/cpu/armv7/spare_head.o
 .rel.text.stdio_get_list
                0x4a0d8a18        0x8 arch/arm/cpu/armv7/spare_head.o
 .rel.text.stdio_get_by_name
                0x4a0d8a20        0x8 arch/arm/cpu/armv7/spare_head.o
 .rel.text.stdio_register
                0x4a0d8a28        0x8 arch/arm/cpu/armv7/spare_head.o
 .rel.text.stdio_init
                0x4a0d8a30       0x30 arch/arm/cpu/armv7/spare_head.o
 .rel.text.mem_noncache_malloc_init
                0x4a0d8a60       0x10 arch/arm/cpu/armv7/spare_head.o
 .rel.text.malloc_noncache
                0x4a0d8a70        0x8 arch/arm/cpu/armv7/spare_head.o
 .rel.text.free_noncache
                0x4a0d8a78        0x8 arch/arm/cpu/armv7/spare_head.o
 .rel.text.malloc_align
                0x00000000        0x0 arch/arm/cpu/armv7/spare_head.o
 .rel.text.user_data_list
                0x4a0d8a80       0x48 arch/arm/cpu/armv7/spare_head.o
 .rel.text.do_check_userdata
                0x4a0d8ac8        0x8 arch/arm/cpu/armv7/spare_head.o
 .rel.text.save_user_private_data
                0x4a0d8ad0       0x50 arch/arm/cpu/armv7/spare_head.o
 .rel.text.do_save_user_data
                0x4a0d8b20        0x8 arch/arm/cpu/armv7/spare_head.o
 .rel.text.erase_all_private_data
                0x4a0d8b28       0x18 arch/arm/cpu/armv7/spare_head.o
 .rel.text.erase_private_data
                0x4a0d8b40        0x8 arch/arm/cpu/armv7/spare_head.o
 .rel.text.read_private_key_by_name
                0x4a0d8b48       0x48 arch/arm/cpu/armv7/spare_head.o
 .rel.rodata.CSWTCH.13
                0x00000000        0x0 arch/arm/cpu/armv7/spare_head.o
 .rel.rodata.boot_os
                0x4a0d8b90       0x38 arch/arm/cpu/armv7/spare_head.o
 .rel.rodata.op_adv
                0x4a0d8bc8       0x80 arch/arm/cpu/armv7/spare_head.o
 .rel.rodata.CSWTCH.19
                0x4a0d8c48       0x28 arch/arm/cpu/armv7/spare_head.o
 .rel.rodata.uimage_comp
                0x4a0d8c70       0x60 arch/arm/cpu/armv7/spare_head.o
 .rel.rodata.uimage_os
                0x4a0d8cd0       0x98 arch/arm/cpu/armv7/spare_head.o
 .rel.rodata.uimage_arch
                0x4a0d8d68      0x178 arch/arm/cpu/armv7/spare_head.o
 .rel.rodata.uimage_type
                0x4a0d8ee0      0x138 arch/arm/cpu/armv7/spare_head.o
 .rel.data.hash_algo
                0x00000000        0x0 arch/arm/cpu/armv7/spare_head.o
 .rel.data.reserved_list
                0x4a0d9018       0x58 arch/arm/cpu/armv7/spare_head.o
 .rel.u_boot_list_2_cmd_2_showvar
                0x4a0d9070       0x20 arch/arm/cpu/armv7/spare_head.o
 .rel.data.init_sequence_r
                0x4a0d9090       0xd0 arch/arm/cpu/armv7/spare_head.o
 .rel.data.init_sequence_f
                0x4a0d9160      0x160 arch/arm/cpu/armv7/spare_head.o
 .rel.u_boot_list_2_cmd_2_go
                0x4a0d92c0       0x20 arch/arm/cpu/armv7/spare_head.o
 .rel.u_boot_list_2_cmd_2_reset
                0x4a0d92e0       0x20 arch/arm/cpu/armv7/spare_head.o
 .rel.u_boot_list_2_cmd_2_boot
                0x4a0d9300       0x20 arch/arm/cpu/armv7/spare_head.o
 .rel.u_boot_list_2_cmd_2_bootd
                0x4a0d9320       0x20 arch/arm/cpu/armv7/spare_head.o
 .rel.u_boot_list_2_cmd_2_bootm
                0x4a0d9340       0x20 arch/arm/cpu/armv7/spare_head.o
 .rel.data.cmd_bootm_sub
                0x4a0d9360       0xd8 arch/arm/cpu/armv7/spare_head.o
 .rel.u_boot_list_2_cmd_2_question_mark
                0x4a0d9438       0x20 arch/arm/cpu/armv7/spare_head.o
 .rel.u_boot_list_2_cmd_2_help
                0x4a0d9458       0x20 arch/arm/cpu/armv7/spare_head.o
 .rel.u_boot_list_2_cmd_2_version
                0x4a0d9478       0x20 arch/arm/cpu/armv7/spare_head.o
 .rel.u_boot_list_2_cmd_2_boota
                0x4a0d9498       0x20 arch/arm/cpu/armv7/spare_head.o
 .rel.u_boot_list_2_cmd_2_sunxi_flash
                0x4a0d94b8       0x20 arch/arm/cpu/armv7/spare_head.o
 .rel.u_boot_list_2_cmd_2_sprite_test
                0x4a0d94d8       0x20 arch/arm/cpu/armv7/spare_head.o
 .rel.u_boot_list_2_cmd_2_delay_test
                0x4a0d94f8       0x20 arch/arm/cpu/armv7/spare_head.o
 .rel.u_boot_list_2_cmd_2_timer_test1
                0x4a0d9518       0x20 arch/arm/cpu/armv7/spare_head.o
 .rel.u_boot_list_2_cmd_2_timer_test
                0x4a0d9538       0x20 arch/arm/cpu/armv7/spare_head.o
 .rel.u_boot_list_2_cmd_2_efex
                0x4a0d9558       0x20 arch/arm/cpu/armv7/spare_head.o
 .rel.u_boot_list_2_cmd_2_shutdown
                0x4a0d9578       0x20 arch/arm/cpu/armv7/spare_head.o
 .rel.u_boot_list_2_cmd_2_memtester
                0x4a0d9598       0x20 arch/arm/cpu/armv7/spare_head.o
 .rel.data.tests
                0x4a0d95b8       0xf0 arch/arm/cpu/armv7/spare_head.o
 .rel.u_boot_list_2_cmd_2_sunxi_bmp_info
                0x4a0d96a8       0x20 arch/arm/cpu/armv7/spare_head.o
 .rel.u_boot_list_2_cmd_2_sunxi_bmp_show
                0x4a0d96c8       0x20 arch/arm/cpu/armv7/spare_head.o
 .rel.u_boot_list_2_cmd_2_logo
                0x4a0d96e8       0x20 arch/arm/cpu/armv7/spare_head.o
 .rel.u_boot_list_2_cmd_2_pbread
                0x4a0d9708       0x20 arch/arm/cpu/armv7/spare_head.o
 .rel.u_boot_list_2_cmd_2_uburn
                0x4a0d9728       0x20 arch/arm/cpu/armv7/spare_head.o
 .rel.u_boot_list_2_env_clbk_2_callbacks
                0x4a0d9748       0x10 arch/arm/cpu/armv7/spare_head.o
 .rel.u_boot_list_2_env_clbk_2_flags
                0x4a0d9758       0x10 arch/arm/cpu/armv7/spare_head.o
 .rel.data.env_name_spec
                0x4a0d9768        0x8 arch/arm/cpu/armv7/spare_head.o
 .rel.u_boot_list_2_cmd_2_bootelf
                0x4a0d9770       0x20 arch/arm/cpu/armv7/spare_head.o
 .rel.u_boot_list_2_cmd_2_bootvx
                0x4a0d9790       0x20 arch/arm/cpu/armv7/spare_head.o
 .rel.u_boot_list_2_cmd_2_exit
                0x4a0d97b0       0x20 arch/arm/cpu/armv7/spare_head.o
 .rel.u_boot_list_2_cmd_2_ext4load
                0x4a0d97d0       0x20 arch/arm/cpu/armv7/spare_head.o
 .rel.u_boot_list_2_cmd_2_ext4ls
                0x4a0d97f0       0x20 arch/arm/cpu/armv7/spare_head.o
 .rel.u_boot_list_2_cmd_2_fatinfo
                0x4a0d9810       0x20 arch/arm/cpu/armv7/spare_head.o
 .rel.u_boot_list_2_cmd_2_fatload
                0x4a0d9830       0x20 arch/arm/cpu/armv7/spare_head.o
 .rel.u_boot_list_2_cmd_2_fatls
                0x4a0d9850       0x20 arch/arm/cpu/armv7/spare_head.o
 .rel.data.of_busses
                0x00000000        0x0 arch/arm/cpu/armv7/spare_head.o
 .rel.u_boot_list_2_cmd_2_fdt
                0x4a0d9870       0x20 arch/arm/cpu/armv7/spare_head.o
 .rel.u_boot_list_2_cmd_2_fdt_test
                0x4a0d9890       0x20 arch/arm/cpu/armv7/spare_head.o
 .rel.u_boot_list_2_cmd_2_irqinfo
                0x4a0d98b0       0x20 arch/arm/cpu/armv7/spare_head.o
 .rel.u_boot_list_2_cmd_2_interrupts
                0x4a0d98d0       0x20 arch/arm/cpu/armv7/spare_head.o
 .rel.u_boot_list_2_cmd_2_base
                0x4a0d98f0       0x20 arch/arm/cpu/armv7/spare_head.o
 .rel.u_boot_list_2_cmd_2_cmp
                0x4a0d9910       0x20 arch/arm/cpu/armv7/spare_head.o
 .rel.u_boot_list_2_cmd_2_nm
                0x4a0d9930       0x20 arch/arm/cpu/armv7/spare_head.o
 .rel.u_boot_list_2_cmd_2_loop
                0x4a0d9950       0x20 arch/arm/cpu/armv7/spare_head.o
 .rel.u_boot_list_2_cmd_2_cp
                0x4a0d9970       0x20 arch/arm/cpu/armv7/spare_head.o
 .rel.u_boot_list_2_cmd_2_mm
                0x4a0d9990       0x20 arch/arm/cpu/armv7/spare_head.o
 .rel.u_boot_list_2_cmd_2_crc32
                0x4a0d99b0       0x20 arch/arm/cpu/armv7/spare_head.o
 .rel.u_boot_list_2_cmd_2_md
                0x4a0d99d0       0x20 arch/arm/cpu/armv7/spare_head.o
 .rel.u_boot_list_2_cmd_2_mw
                0x4a0d99f0       0x20 arch/arm/cpu/armv7/spare_head.o
 .rel.u_boot_list_2_cmd_2_sunxi_card1_probe
                0x4a0d9a10       0x20 arch/arm/cpu/armv7/spare_head.o
 .rel.u_boot_list_2_cmd_2_sunxi_card0_probe
                0x4a0d9a30       0x20 arch/arm/cpu/armv7/spare_head.o
 .rel.u_boot_list_2_cmd_2_mmcinfo
                0x4a0d9a50       0x20 arch/arm/cpu/armv7/spare_head.o
 .rel.data.cmd_mmc
                0x4a0d9a70      0x120 arch/arm/cpu/armv7/spare_head.o
 .rel.u_boot_list_2_cmd_2_mmc
                0x4a0d9b90       0x20 arch/arm/cpu/armv7/spare_head.o
 .rel.u_boot_list_2_cmd_2_test
                0x4a0d9bb0       0x20 arch/arm/cpu/armv7/spare_head.o
 .rel.u_boot_list_2_cmd_2_true
                0x4a0d9bd0       0x18 arch/arm/cpu/armv7/spare_head.o
 .rel.u_boot_list_2_cmd_2_false
                0x4a0d9be8       0x18 arch/arm/cpu/armv7/spare_head.o
 .rel.u_boot_list_2_cmd_2_usb
                0x4a0d9c00       0x20 arch/arm/cpu/armv7/spare_head.o
 .rel.u_boot_list_2_cmd_2_usbboot
                0x4a0d9c20       0x20 arch/arm/cpu/armv7/spare_head.o
 .rel.u_boot_list_2_cmd_2_fastboot
                0x4a0d9c40       0x20 arch/arm/cpu/armv7/spare_head.o
 .rel.u_boot_list_2_cmd_2_setenv
                0x4a0d9c60       0x28 arch/arm/cpu/armv7/spare_head.o
 .rel.u_boot_list_2_cmd_2_env
                0x4a0d9c88       0x20 arch/arm/cpu/armv7/spare_head.o
 .rel.u_boot_list_2_cmd_2_saveenv
                0x4a0d9ca8       0x20 arch/arm/cpu/armv7/spare_head.o
 .rel.data.cmd_env_sub
                0x4a0d9cc8      0x100 arch/arm/cpu/armv7/spare_head.o
 .rel.u_boot_list_2_cmd_2_printenv
                0x4a0d9dc8       0x28 arch/arm/cpu/armv7/spare_head.o
 .rel.u_boot_list_2_cmd_2_run
                0x4a0d9df0       0x28 arch/arm/cpu/armv7/spare_head.o
 .rel.data.env_htab
                0x4a0d9e18        0x8 arch/arm/cpu/armv7/spare_head.o
 .rel.u_boot_list_2_env_clbk_2_console
                0x4a0d9e20       0x10 arch/arm/cpu/armv7/spare_head.o
 .rel.data.av_  0x4a0d9e30      0x800 arch/arm/cpu/armv7/spare_head.o
 .rel.u_boot_list_2_env_clbk_2_loadaddr
                0x4a0da630       0x10 arch/arm/cpu/armv7/spare_head.o
 .rel.data.stdio_names
                0x4a0da640       0x18 arch/arm/cpu/armv7/spare_head.o
 .rel.u_boot_list_2_cmd_2_save_userdata
                0x4a0da658       0x20 arch/arm/cpu/armv7/spare_head.o
 .rel.u_boot_list_2_cmd_2_check_userdata
                0x4a0da678       0x20 arch/arm/cpu/armv7/spare_head.o
 .rel.u_boot_list_2_cmd_2_erase_userdata
                0x4a0da698       0x20 arch/arm/cpu/armv7/spare_head.o
 .rel.data.IGNORE_ENV_VARIABLE
                0x00000000        0x0 arch/arm/cpu/armv7/spare_head.o
 .rel.text.print_part_header
                0x4a0da6b8       0xa0 arch/arm/cpu/armv7/spare_head.o
 .rel.text.get_dev_hwpart
                0x4a0da758        0x8 arch/arm/cpu/armv7/spare_head.o
 .rel.text.dev_print
                0x4a0da760      0x110 arch/arm/cpu/armv7/spare_head.o
 .rel.text.print_part
                0x4a0da870       0x18 arch/arm/cpu/armv7/spare_head.o
 .rel.text.get_device
                0x4a0da888       0x18 arch/arm/cpu/armv7/spare_head.o
 .rel.text.get_device_and_partition
                0x4a0da8a0       0x70 arch/arm/cpu/armv7/spare_head.o
 .rel.text.test_block_type
                0x4a0da910       0x10 arch/arm/cpu/armv7/spare_head.o
 .rel.text.print_partition_extended
                0x4a0da920       0x30 arch/arm/cpu/armv7/spare_head.o
 .rel.text.get_partition_info_extended.constprop.1
                0x4a0da950       0x80 arch/arm/cpu/armv7/spare_head.o
 .rel.text.print_part_dos
                0x4a0da9d0        0x8 arch/arm/cpu/armv7/spare_head.o
 .rel.text.print_efiname
                0x4a0da9d8       0x10 arch/arm/cpu/armv7/spare_head.o
 .rel.text.set_protective_mbr
                0x00000000        0x0 arch/arm/cpu/armv7/spare_head.o
 .rel.text.is_gpt_valid
                0x4a0da9e8       0x68 arch/arm/cpu/armv7/spare_head.o
 .rel.text.is_pte_valid
                0x4a0daa50       0x10 arch/arm/cpu/armv7/spare_head.o
 .rel.text.print_part_efi
                0x4a0daa60       0x60 arch/arm/cpu/armv7/spare_head.o
 .rel.text.get_partition_info_efi
                0x4a0daac0       0x40 arch/arm/cpu/armv7/spare_head.o
 .rel.text.write_gpt_table
                0x00000000        0x0 arch/arm/cpu/armv7/spare_head.o
 .rel.text.gpt_fill_pte
                0x00000000        0x0 arch/arm/cpu/armv7/spare_head.o
 .rel.text.gpt_restore
                0x00000000        0x0 arch/arm/cpu/armv7/spare_head.o
 .rel.rodata.block_drvr
                0x4a0dab00       0x38 arch/arm/cpu/armv7/spare_head.o
 .rel.text.drv_lcd_close_callback
                0x00000000        0x0 arch/arm/cpu/armv7/spare_head.o
 .rel.text.drv_lcd_open_callback
                0x4a0dab38       0x38 arch/arm/cpu/armv7/spare_head.o
 .rel.text.disp_blank
                0x4a0dab70        0x8 arch/arm/cpu/armv7/spare_head.o
 .rel.text.disp_getprop_regbase
                0x4a0dab78       0x28 arch/arm/cpu/armv7/spare_head.o
 .rel.text.disp_getprop_irq
                0x4a0daba0       0x28 arch/arm/cpu/armv7/spare_head.o
 .rel.text.drv_disp_init
                0x4a0dabc8       0xd8 arch/arm/cpu/armv7/spare_head.o
 .rel.text.drv_disp_exit
                0x4a0daca0       0x18 arch/arm/cpu/armv7/spare_head.o
 .rel.text.sunxi_disp_get_source_ops
                0x4a0dacb8       0xc8 arch/arm/cpu/armv7/spare_head.o
 .rel.text.disp_ioctl
                0x4a0dad80       0x70 arch/arm/cpu/armv7/spare_head.o
 .rel.text.drv_disp_standby
                0x00000000        0x0 arch/arm/cpu/armv7/spare_head.o
 .rel.text.tasklet_init
                0x4a0dadf0        0x8 arch/arm/cpu/armv7/spare_head.o
 .rel.text.tasklet_schedule
                0x4a0dadf8        0x8 arch/arm/cpu/armv7/spare_head.o
 .rel.text.disp_fdt_init
                0x4a0dae00       0x10 arch/arm/cpu/armv7/spare_head.o
 .rel.text.disp_fdt_nodeoffset
                0x4a0dae10        0x8 arch/arm/cpu/armv7/spare_head.o
 .rel.text.disp_sys_pin_set_state
                0x4a0dae18       0x18 arch/arm/cpu/armv7/spare_head.o
 .rel.text.disp_sys_power_enable
                0x4a0dae30        0x8 arch/arm/cpu/armv7/spare_head.o
 .rel.text.disp_sys_power_disable
                0x4a0dae38        0x8 arch/arm/cpu/armv7/spare_head.o
 .rel.text.disp_sys_pwm_request
                0x4a0dae40        0x8 arch/arm/cpu/armv7/spare_head.o
 .rel.text.disp_tasklet
                0x4a0dae48        0x8 arch/arm/cpu/armv7/spare_head.o
 .rel.text.bsp_disp_shadow_protect
                0x4a0dae50        0x8 arch/arm/cpu/armv7/spare_head.o
 .rel.text.disp_device_attached
                0x00000000        0x0 arch/arm/cpu/armv7/spare_head.o
 .rel.text.disp_device_attached_and_enable
                0x4a0dae58       0x38 arch/arm/cpu/armv7/spare_head.o
 .rel.text.disp_device_detach
                0x00000000        0x0 arch/arm/cpu/armv7/spare_head.o
 .rel.text.bsp_disp_init
                0x4a0dae90       0x18 arch/arm/cpu/armv7/spare_head.o
 .rel.text.bsp_disp_sync_with_hw
                0x00000000        0x0 arch/arm/cpu/armv7/spare_head.o
 .rel.text.bsp_disp_vsync_event_enable
                0x4a0daea8        0x8 arch/arm/cpu/armv7/spare_head.o
 .rel.text.sync_event_proc
                0x4a0daeb0       0x10 arch/arm/cpu/armv7/spare_head.o
 .rel.text.bsp_disp_set_print_level
                0x00000000        0x0 arch/arm/cpu/armv7/spare_head.o
 .rel.text.bsp_disp_get_print_level
                0x00000000        0x0 arch/arm/cpu/armv7/spare_head.o
 .rel.text.bsp_disp_set_hdmi_func
                0x4a0daec0        0x8 arch/arm/cpu/armv7/spare_head.o
 .rel.text.bsp_disp_set_edp_func
                0x00000000        0x0 arch/arm/cpu/armv7/spare_head.o
 .rel.text.bsp_disp_tv_set_hpd
                0x4a0daec8        0x8 arch/arm/cpu/armv7/spare_head.o
 .rel.text.bsp_disp_tv_register
                0x4a0daed0        0x8 arch/arm/cpu/armv7/spare_head.o
 .rel.text.bsp_disp_lcd_set_panel_funs
                0x4a0daed8        0x8 arch/arm/cpu/armv7/spare_head.o
 .rel.text.bsp_disp_get_lcd_registered
                0x00000000        0x0 arch/arm/cpu/armv7/spare_head.o
 .rel.text.bsp_disp_get_hdmi_registered
                0x00000000        0x0 arch/arm/cpu/armv7/spare_head.o
 .rel.text.bsp_disp_get_tv_registered
                0x00000000        0x0 arch/arm/cpu/armv7/spare_head.o
 .rel.text.bsp_disp_get_panel_info
                0x4a0daee0        0x8 arch/arm/cpu/armv7/spare_head.o
 .rel.text.bsp_disp_lcd_dsi_mode_switch
                0x4a0daee8       0x10 arch/arm/cpu/armv7/spare_head.o
 .rel.text.bsp_disp_lcd_dsi_clk_enable
                0x4a0daef8       0x10 arch/arm/cpu/armv7/spare_head.o
 .rel.text.bsp_disp_lcd_dsi_dcs_wr
                0x4a0daf08       0x10 arch/arm/cpu/armv7/spare_head.o
 .rel.text.bsp_disp_lcd_dsi_gen_wr
                0x4a0daf18       0x10 arch/arm/cpu/armv7/spare_head.o
 .rel.text.bsp_disp_lcd_dsi_gen_short_read
                0x4a0daf28        0x8 arch/arm/cpu/armv7/spare_head.o
 .rel.text.bsp_disp_lcd_dsi_dcs_read
                0x4a0daf30        0x8 arch/arm/cpu/armv7/spare_head.o
 .rel.text.disp_device_set_manager
                0x4a0daf38        0x8 arch/arm/cpu/armv7/spare_head.o
 .rel.text.disp_device_unset_manager
                0x4a0daf40        0x8 arch/arm/cpu/armv7/spare_head.o
 .rel.text.disp_device_get_resolution
                0x4a0daf48        0x8 arch/arm/cpu/armv7/spare_head.o
 .rel.text.disp_device_get_timings
                0x4a0daf50        0x8 arch/arm/cpu/armv7/spare_head.o
 .rel.text.disp_device_is_interlace
                0x4a0daf58        0x8 arch/arm/cpu/armv7/spare_head.o
 .rel.text.disp_device_get
                0x4a0daf60        0x8 arch/arm/cpu/armv7/spare_head.o
 .rel.text.disp_device_find
                0x4a0daf68        0x8 arch/arm/cpu/armv7/spare_head.o
 .rel.text.disp_device_get_list_head
                0x00000000        0x0 arch/arm/cpu/armv7/spare_head.o
 .rel.text.disp_device_register
                0x4a0daf70        0x8 arch/arm/cpu/armv7/spare_head.o
 .rel.text.disp_lcd_get_priv
                0x4a0daf78        0x8 arch/arm/cpu/armv7/spare_head.o
 .rel.text.disp_lcd_bright_curve_init
                0x4a0daf80        0x8 arch/arm/cpu/armv7/spare_head.o
 .rel.text.disp_lcd_get_close_flow
                0x4a0daf88       0x20 arch/arm/cpu/armv7/spare_head.o
 .rel.text.disp_lcd_get_open_flow
                0x4a0dafa8       0x20 arch/arm/cpu/armv7/spare_head.o
 .rel.text.disp_lcd_init
                0x4a0dafc8      0x228 arch/arm/cpu/armv7/spare_head.o
 .rel.text.lcd_clk_disable
                0x4a0db1f0        0x8 arch/arm/cpu/armv7/spare_head.o
 .rel.text.lcd_calc_judge_line
                0x4a0db1f8        0x8 arch/arm/cpu/armv7/spare_head.o
 .rel.text.lcd_clk_enable
                0x4a0db200       0x38 arch/arm/cpu/armv7/spare_head.o
 .rel.text.disp_lcd_set_panel_funs
                0x4a0db238       0x18 arch/arm/cpu/armv7/spare_head.o
 .rel.text.disp_lcd_pin_cfg
                0x4a0db250       0x30 arch/arm/cpu/armv7/spare_head.o
 .rel.text.disp_lcd_backlight_disable
                0x4a0db280       0x18 arch/arm/cpu/armv7/spare_head.o
 .rel.text.disp_lcd_sw_enable
                0x4a0db298       0x30 arch/arm/cpu/armv7/spare_head.o
 .rel.text.disp_lcd_get_fps
                0x4a0db2c8        0x8 arch/arm/cpu/armv7/spare_head.o
 .rel.text.disp_lcd_get_dimensions
                0x4a0db2d0        0x8 arch/arm/cpu/armv7/spare_head.o
 .rel.text.disp_lcd_set_close_func
                0x4a0db2d8        0x8 arch/arm/cpu/armv7/spare_head.o
 .rel.text.disp_lcd_set_open_func
                0x4a0db2e0        0x8 arch/arm/cpu/armv7/spare_head.o
 .rel.text.disp_lcd_check_config_dirty
                0x4a0db2e8        0x8 arch/arm/cpu/armv7/spare_head.o
 .rel.text.disp_lcd_get_static_config
                0x4a0db2f0        0x8 arch/arm/cpu/armv7/spare_head.o
 .rel.text.disp_lcd_is_enabled
                0x4a0db2f8        0x8 arch/arm/cpu/armv7/spare_head.o
 .rel.text.disp_lcd_get_bright
                0x4a0db300        0x8 arch/arm/cpu/armv7/spare_head.o
 .rel.text.disp_lcd_bright_get_adjust_value
                0x4a0db308        0x8 arch/arm/cpu/armv7/spare_head.o
 .rel.text.disp_lcd_set_bright
                0x4a0db310       0x10 arch/arm/cpu/armv7/spare_head.o
 .rel.text.disp_lcd_backlight_enable
                0x4a0db320       0x20 arch/arm/cpu/armv7/spare_head.o
 .rel.text.disp_lcd_exit
                0x4a0db340        0x8 arch/arm/cpu/armv7/spare_head.o
 .rel.text.disp_lcd_set_bright_dimming
                0x4a0db348        0x8 arch/arm/cpu/armv7/spare_head.o
 .rel.text.disp_lcd_disable_gamma
                0x4a0db350        0x8 arch/arm/cpu/armv7/spare_head.o
 .rel.text.disp_lcd_enable_gamma
                0x4a0db358        0x8 arch/arm/cpu/armv7/spare_head.o
 .rel.text.disp_lcd_set_gamma_tbl
                0x4a0db360        0x8 arch/arm/cpu/armv7/spare_head.o
 .rel.text.disp_lcd_get_panel_info
                0x4a0db368        0x8 arch/arm/cpu/armv7/spare_head.o
 .rel.text.disp_lcd_get_status
                0x4a0db370        0x8 arch/arm/cpu/armv7/spare_head.o
 .rel.text.disp_lcd_power_disable
                0x4a0db378        0x8 arch/arm/cpu/armv7/spare_head.o
 .rel.text.disp_lcd_power_enable
                0x4a0db380        0x8 arch/arm/cpu/armv7/spare_head.o
 .rel.text.disp_lcd_tcon_disable
                0x4a0db388        0x8 arch/arm/cpu/armv7/spare_head.o
 .rel.text.disp_lcd_tcon_enable
                0x4a0db390        0x8 arch/arm/cpu/armv7/spare_head.o
 .rel.text.disp_lcd_pwm_disable
                0x4a0db398       0x10 arch/arm/cpu/armv7/spare_head.o
 .rel.text.disp_lcd_pwm_enable
                0x4a0db3a8       0x10 arch/arm/cpu/armv7/spare_head.o
 .rel.text.disp_lcd_gpio_set_value
                0x4a0db3b8       0x10 arch/arm/cpu/armv7/spare_head.o
 .rel.text.disp_lcd_gpio_set_direction
                0x4a0db3c8       0x10 arch/arm/cpu/armv7/spare_head.o
 .rel.text.disp_get_lcd
                0x4a0db3d8        0x8 arch/arm/cpu/armv7/spare_head.o
 .rel.text.disp_lcd_pre_disable_ex
                0x4a0db3e0       0x10 arch/arm/cpu/armv7/spare_head.o
 .rel.text.disp_lcd_post_enable_ex
                0x4a0db3f0       0x10 arch/arm/cpu/armv7/spare_head.o
 .rel.text.disp_lcd_gpio_init
                0x4a0db400       0x18 arch/arm/cpu/armv7/spare_head.o
 .rel.text.disp_lcd_pre_enable_ex
                0x4a0db418       0x28 arch/arm/cpu/armv7/spare_head.o
 .rel.text.__disp_lcd_enable
                0x4a0db440       0x30 arch/arm/cpu/armv7/spare_head.o
 .rel.text.disp_lcd_gpio_exit
                0x4a0db470       0x18 arch/arm/cpu/armv7/spare_head.o
 .rel.text.disp_lcd_post_disable_ex
                0x4a0db488       0x18 arch/arm/cpu/armv7/spare_head.o
 .rel.text.disp_lcd_disable
                0x4a0db4a0       0x28 arch/arm/cpu/armv7/spare_head.o
 .rel.text.disp_lcd_gpio_get_value
                0x00000000        0x0 arch/arm/cpu/armv7/spare_head.o
 .rel.text.disp_init_lcd
                0x4a0db4c8      0x168 arch/arm/cpu/armv7/spare_head.o
 .rel.text.disp_lyr_get_priv
                0x4a0db630        0x8 arch/arm/cpu/armv7/spare_head.o
 .rel.text.disp_lyr_dump
                0x4a0db638       0xb8 arch/arm/cpu/armv7/spare_head.o
 .rel.text.disp_lyr_dirty_clear
                0x4a0db6f0        0x8 arch/arm/cpu/armv7/spare_head.o
 .rel.text.disp_lyr_is_dirty
                0x4a0db6f8        0x8 arch/arm/cpu/armv7/spare_head.o
 .rel.text.disp_lyr_check2
                0x4a0db700        0x8 arch/arm/cpu/armv7/spare_head.o
 .rel.text.disp_lyr_check
                0x4a0db708        0x8 arch/arm/cpu/armv7/spare_head.o
 .rel.text.disp_lyr_apply
                0x4a0db710        0x8 arch/arm/cpu/armv7/spare_head.o
 .rel.text.disp_lyr_force_apply
                0x4a0db718       0x10 arch/arm/cpu/armv7/spare_head.o
 .rel.text.disp_lyr_unset_manager
                0x4a0db728       0x10 arch/arm/cpu/armv7/spare_head.o
 .rel.text.disp_lyr_set_manager
                0x4a0db738       0x10 arch/arm/cpu/armv7/spare_head.o
 .rel.text.disp_mgr_get_priv
                0x4a0db748       0x10 arch/arm/cpu/armv7/spare_head.o
 .rel.text.disp_mgr_tasklet
                0x4a0db758       0x10 arch/arm/cpu/armv7/spare_head.o
 .rel.text.disp_mgr_update_color_space
                0x4a0db768       0x10 arch/arm/cpu/armv7/spare_head.o
 .rel.text.disp_mgr_sync
                0x4a0db778       0x18 arch/arm/cpu/armv7/spare_head.o
 .rel.text.disp_mgr_shadow_protect
                0x4a0db790        0x8 arch/arm/cpu/armv7/spare_head.o
 .rel.text.disp_mgr_apply
                0x4a0db798       0x18 arch/arm/cpu/armv7/spare_head.o
 .rel.text.disp_mgr_force_apply
                0x4a0db7b0       0x10 arch/arm/cpu/armv7/spare_head.o
 .rel.text.disp_mgr_sw_enable
                0x4a0db7c0       0x10 arch/arm/cpu/armv7/spare_head.o
 .rel.text.disp_mgr_enable
                0x4a0db7d0       0x28 arch/arm/cpu/armv7/spare_head.o
 .rel.text.disp_mgr_get_clk_rate
                0x4a0db7f8        0x8 arch/arm/cpu/armv7/spare_head.o
 .rel.text.disp_mgr_dump
                0x4a0db800        0x8 arch/arm/cpu/armv7/spare_head.o
 .rel.text.disp_mgr_get_output_color_range
                0x4a0db808        0x8 arch/arm/cpu/armv7/spare_head.o
 .rel.text.disp_mgr_set_output_color_range
                0x4a0db810       0x10 arch/arm/cpu/armv7/spare_head.o
 .rel.text.disp_mgr_is_enabled
                0x4a0db820        0x8 arch/arm/cpu/armv7/spare_head.o
 .rel.text.disp_mgr_get_back_color
                0x4a0db828       0x10 arch/arm/cpu/armv7/spare_head.o
 .rel.text.disp_mgr_set_back_color
                0x4a0db838       0x10 arch/arm/cpu/armv7/spare_head.o
 .rel.text.disp_mgr_get_color_key
                0x4a0db848       0x10 arch/arm/cpu/armv7/spare_head.o
 .rel.text.disp_mgr_set_color_key
                0x4a0db858       0x10 arch/arm/cpu/armv7/spare_head.o
 .rel.text.disp_mgr_update_regs
                0x4a0db868       0x10 arch/arm/cpu/armv7/spare_head.o
 .rel.text.disp_mgr_exit
                0x4a0db878        0x8 arch/arm/cpu/armv7/spare_head.o
 .rel.text.disp_mgr_init
                0x4a0db880        0x8 arch/arm/cpu/armv7/spare_head.o
 .rel.text.disp_mgr_blank
                0x4a0db888       0x10 arch/arm/cpu/armv7/spare_head.o
 .rel.text.disp_get_layer
                0x4a0db898       0x20 arch/arm/cpu/armv7/spare_head.o
 .rel.text.disp_mgr_get_layer_config2
                0x4a0db8b8       0x10 arch/arm/cpu/armv7/spare_head.o
 .rel.text.disp_mgr_set_layer_config2
                0x4a0db8c8       0x18 arch/arm/cpu/armv7/spare_head.o
 .rel.text.disp_mgr_get_layer_config
                0x4a0db8e0       0x10 arch/arm/cpu/armv7/spare_head.o
 .rel.text.disp_mgr_set_layer_config
                0x4a0db8f0       0x18 arch/arm/cpu/armv7/spare_head.o
 .rel.text.disp_get_layer_1
                0x4a0db908       0x20 arch/arm/cpu/armv7/spare_head.o
 .rel.text.disp_lyr_save_and_dirty_check
                0x4a0db928       0x10 arch/arm/cpu/armv7/spare_head.o
 .rel.text.disp_lyr_save_and_dirty_check2
                0x4a0db938       0x10 arch/arm/cpu/armv7/spare_head.o
 .rel.text.disp_lyr_get_config
                0x4a0db948       0x10 arch/arm/cpu/armv7/spare_head.o
 .rel.text.disp_lyr_get_config2
                0x4a0db958       0x10 arch/arm/cpu/armv7/spare_head.o
 .rel.text.disp_get_layer_manager
                0x4a0db968       0x10 arch/arm/cpu/armv7/spare_head.o
 .rel.text.disp_mgr_clk_disable
                0x4a0db978        0x8 arch/arm/cpu/armv7/spare_head.o
 .rel.text.disp_mgr_disable
                0x4a0db980       0x10 arch/arm/cpu/armv7/spare_head.o
 .rel.text.disp_init_mgr
                0x4a0db990      0x1a8 arch/arm/cpu/armv7/spare_head.o
 .rel.text.dump_layer_config
                0x00000000        0x0 arch/arm/cpu/armv7/spare_head.o
 .rel.text.disp_smbl_get_priv
                0x4a0dbb38        0x8 arch/arm/cpu/armv7/spare_head.o
 .rel.text.disp_smbl_dump
                0x4a0dbb40       0x18 arch/arm/cpu/armv7/spare_head.o
 .rel.text.disp_smbl_update_regs
                0x4a0dbb58        0x8 arch/arm/cpu/armv7/spare_head.o
 .rel.text.disp_get_smbl
                0x4a0dbb60       0x10 arch/arm/cpu/armv7/spare_head.o
 .rel.text.disp_smbl_apply
                0x4a0dbb70        0x8 arch/arm/cpu/armv7/spare_head.o
 .rel.text.disp_init_smbl
                0x4a0dbb78       0xb8 arch/arm/cpu/armv7/spare_head.o
 .rel.text.disp_enhance_get_priv
                0x4a0dbc30        0x8 arch/arm/cpu/armv7/spare_head.o
 .rel.text.disp_enhance_set_manager
                0x4a0dbc38        0x8 arch/arm/cpu/armv7/spare_head.o
 .rel.text.disp_enhance_unset_manager
                0x4a0dbc40        0x8 arch/arm/cpu/armv7/spare_head.o
 .rel.text.disp_enhance_dump
                0x4a0dbc48       0x28 arch/arm/cpu/armv7/spare_head.o
 .rel.text.disp_enhance_update_regs
                0x4a0dbc70        0x8 arch/arm/cpu/armv7/spare_head.o
 .rel.text.disp_enhance_apply
                0x4a0dbc78        0x8 arch/arm/cpu/armv7/spare_head.o
 .rel.text.disp_enhance_set_denoise
                0x4a0dbc80        0x8 arch/arm/cpu/armv7/spare_head.o
 .rel.text.disp_enhance_set_detail
                0x4a0dbc88        0x8 arch/arm/cpu/armv7/spare_head.o
 .rel.text.disp_enhance_set_edge
                0x4a0dbc90        0x8 arch/arm/cpu/armv7/spare_head.o
 .rel.text.disp_enhance_set_contrast
                0x4a0dbc98        0x8 arch/arm/cpu/armv7/spare_head.o
 .rel.text.disp_enhance_set_saturation
                0x4a0dbca0        0x8 arch/arm/cpu/armv7/spare_head.o
 .rel.text.disp_enhance_set_bright
                0x4a0dbca8        0x8 arch/arm/cpu/armv7/spare_head.o
 .rel.text.disp_enhance_set_mode
                0x4a0dbcb0        0x8 arch/arm/cpu/armv7/spare_head.o
 .rel.text.disp_enhance_demo_disable
                0x4a0dbcb8        0x8 arch/arm/cpu/armv7/spare_head.o
 .rel.text.disp_enhance_demo_enable
                0x4a0dbcc0        0x8 arch/arm/cpu/armv7/spare_head.o
 .rel.text.disp_enhance_disable
                0x4a0dbcc8        0x8 arch/arm/cpu/armv7/spare_head.o
 .rel.text.disp_enhance_enable
                0x4a0dbcd0        0x8 arch/arm/cpu/armv7/spare_head.o
 .rel.text.disp_enhance_set_para
                0x4a0dbcd8        0x8 arch/arm/cpu/armv7/spare_head.o
 .rel.text.disp_enhance_force_apply
                0x4a0dbce0        0x8 arch/arm/cpu/armv7/spare_head.o
 .rel.text.disp_get_enhance
                0x4a0dbce8       0x10 arch/arm/cpu/armv7/spare_head.o
 .rel.text.disp_init_enhance
                0x4a0dbcf8      0x128 arch/arm/cpu/armv7/spare_head.o
 .rel.text.disp_hdmi_get_priv
                0x4a0dbe20        0x8 arch/arm/cpu/armv7/spare_head.o
 .rel.text.disp_hdmi_check_config_dirty
                0x4a0dbe28       0x10 arch/arm/cpu/armv7/spare_head.o
 .rel.text.disp_hdmi_set_dynamic_config
                0x4a0dbe38        0x8 arch/arm/cpu/armv7/spare_head.o
 .rel.text.disp_hdmi_set_detect
                0x4a0dbe40       0x18 arch/arm/cpu/armv7/spare_head.o
 .rel.text.disp_hdmi_disable
                0x4a0dbe58       0x38 arch/arm/cpu/armv7/spare_head.o
 .rel.text.hdmi_calc_judge_line
                0x4a0dbe90        0x8 arch/arm/cpu/armv7/spare_head.o
 .rel.text.disp_hdmi_sw_enable
                0x4a0dbe98       0x38 arch/arm/cpu/armv7/spare_head.o
 .rel.text.disp_hdmi_enable
                0x4a0dbed0       0x60 arch/arm/cpu/armv7/spare_head.o
 .rel.text.disp_hdmi_get_fps
                0x4a0dbf30        0x8 arch/arm/cpu/armv7/spare_head.o
 .rel.text.disp_hdmi_detect
                0x4a0dbf38        0x8 arch/arm/cpu/armv7/spare_head.o
 .rel.text.disp_hdmi_get_input_csc
                0x4a0dbf40        0x8 arch/arm/cpu/armv7/spare_head.o
 .rel.text.disp_hdmi_get_input_color_range
                0x4a0dbf48        0x8 arch/arm/cpu/armv7/spare_head.o
 .rel.text.disp_hdmi_get_work_mode
                0x4a0dbf50        0x8 arch/arm/cpu/armv7/spare_head.o
 .rel.text.disp_hdmi_get_support_mode
                0x4a0dbf58        0x8 arch/arm/cpu/armv7/spare_head.o
 .rel.text.disp_hdmi_check_support_mode
                0x4a0dbf60        0x8 arch/arm/cpu/armv7/spare_head.o
 .rel.text.disp_hdmi_get_mode
                0x4a0dbf68        0x8 arch/arm/cpu/armv7/spare_head.o
 .rel.text.disp_hdmi_is_enabled
                0x4a0dbf70        0x8 arch/arm/cpu/armv7/spare_head.o
 .rel.text.disp_hdmi_exit
                0x4a0dbf78       0x10 arch/arm/cpu/armv7/spare_head.o
 .rel.text.disp_hdmi_set_mode
                0x4a0dbf88       0x10 arch/arm/cpu/armv7/spare_head.o
 .rel.text.disp_hdmi_get_status
                0x4a0dbf98        0x8 arch/arm/cpu/armv7/spare_head.o
 .rel.text.disp_hdmi_resume
                0x4a0dbfa0       0x10 arch/arm/cpu/armv7/spare_head.o
 .rel.text.disp_hdmi_suspend
                0x4a0dbfb0       0x10 arch/arm/cpu/armv7/spare_head.o
 .rel.text.disp_hdmi_get_static_config
                0x4a0dbfc0        0x8 arch/arm/cpu/armv7/spare_head.o
 .rel.text.disp_hdmi_set_static_config
                0x4a0dbfc8        0x8 arch/arm/cpu/armv7/spare_head.o
 .rel.text.disp_hdmi_set_func
                0x4a0dbfd0        0x8 arch/arm/cpu/armv7/spare_head.o
 .rel.text.disp_hdmi_init
                0x4a0dbfd8       0x10 arch/arm/cpu/armv7/spare_head.o
 .rel.text.disp_get_hdmi
                0x00000000        0x0 arch/arm/cpu/armv7/spare_head.o
 .rel.text.disp_init_hdmi
                0x4a0dbfe8      0x138 arch/arm/cpu/armv7/spare_head.o
 .rel.text.disp_tv_get_priv
                0x4a0dc120        0x8 arch/arm/cpu/armv7/spare_head.o
 .rel.text.disp_tv_set_func
                0x4a0dc128       0x10 arch/arm/cpu/armv7/spare_head.o
 .rel.text.tv_calc_judge_line
                0x4a0dc138        0x8 arch/arm/cpu/armv7/spare_head.o
 .rel.text.disp_tv_sw_enable
                0x4a0dc140       0x48 arch/arm/cpu/armv7/spare_head.o
 .rel.text.disp_tv_enable
                0x4a0dc188       0x58 arch/arm/cpu/armv7/spare_head.o
 .rel.text.disp_tv_get_fps
                0x4a0dc1e0        0x8 arch/arm/cpu/armv7/spare_head.o
 .rel.text.disp_tv_check_config_dirty
                0x4a0dc1e8        0x8 arch/arm/cpu/armv7/spare_head.o
 .rel.text.disp_tv_get_static_config
                0x4a0dc1f0        0x8 arch/arm/cpu/armv7/spare_head.o
 .rel.text.disp_tv_init
                0x4a0dc1f8        0x8 arch/arm/cpu/armv7/spare_head.o
 .rel.text.disp_set_enhance_mode
                0x4a0dc200       0x20 arch/arm/cpu/armv7/spare_head.o
 .rel.text.disp_tv_check_support_mode
                0x4a0dc220        0x8 arch/arm/cpu/armv7/spare_head.o
 .rel.text.disp_tv_detect
                0x4a0dc228        0x8 arch/arm/cpu/armv7/spare_head.o
 .rel.text.disp_tv_get_input_csc
                0x4a0dc230        0x8 arch/arm/cpu/armv7/spare_head.o
 .rel.text.disp_tv_get_mode
                0x4a0dc238       0x10 arch/arm/cpu/armv7/spare_head.o
 .rel.text.disp_tv_set_mode
                0x4a0dc248       0x10 arch/arm/cpu/armv7/spare_head.o
 .rel.text.disp_tv_resume
                0x4a0dc258        0x8 arch/arm/cpu/armv7/spare_head.o
 .rel.text.disp_tv_suspend
                0x4a0dc260        0x8 arch/arm/cpu/armv7/spare_head.o
 .rel.text.disp_tv_is_enabled
                0x4a0dc268        0x8 arch/arm/cpu/armv7/spare_head.o
 .rel.text.disp_tv_event_proc
                0x4a0dc270        0x8 arch/arm/cpu/armv7/spare_head.o
 .rel.text.disp_init_tv_para
                0x4a0dc278       0x10 arch/arm/cpu/armv7/spare_head.o
 .rel.text.disp_tv_set_hpd
                0x4a0dc288        0x8 arch/arm/cpu/armv7/spare_head.o
 .rel.text.disp_tv_disable
                0x4a0dc290       0x38 arch/arm/cpu/armv7/spare_head.o
 .rel.text.disp_tv_exit
                0x4a0dc2c8        0x8 arch/arm/cpu/armv7/spare_head.o
 .rel.text.disp_init_tv
                0x4a0dc2d0      0x108 arch/arm/cpu/armv7/spare_head.o
 .rel.text.disp_vga_get_priv
                0x4a0dc3d8        0x8 arch/arm/cpu/armv7/spare_head.o
 .rel.text.vga_calc_judge_line
                0x4a0dc3e0       0x10 arch/arm/cpu/armv7/spare_head.o
 .rel.text.disp_vga_disable
                0x4a0dc3f0       0x28 arch/arm/cpu/armv7/spare_head.o
 .rel.text.disp_vga_get_fps
                0x4a0dc418        0x8 arch/arm/cpu/armv7/spare_head.o
 .rel.text.disp_vga_get_input_csc
                0x4a0dc420        0x8 arch/arm/cpu/armv7/spare_head.o
 .rel.text.disp_vga_check_support_mode
                0x4a0dc428        0x8 arch/arm/cpu/armv7/spare_head.o
 .rel.text.disp_vga_check_config_dirty
                0x4a0dc430        0x8 arch/arm/cpu/armv7/spare_head.o
 .rel.text.disp_vga_get_static_config
                0x4a0dc438        0x8 arch/arm/cpu/armv7/spare_head.o
 .rel.text.disp_vga_get_mode
                0x4a0dc440       0x10 arch/arm/cpu/armv7/spare_head.o
 .rel.text.disp_vga_set_mode
                0x4a0dc450       0x10 arch/arm/cpu/armv7/spare_head.o
 .rel.text.disp_vga_is_enabled
                0x4a0dc460        0x8 arch/arm/cpu/armv7/spare_head.o
 .rel.text.disp_vga_set_func
                0x4a0dc468        0x8 arch/arm/cpu/armv7/spare_head.o
 .rel.text.disp_vga_resume
                0x4a0dc470        0x8 arch/arm/cpu/armv7/spare_head.o
 .rel.text.disp_vga_suspend
                0x4a0dc478        0x8 arch/arm/cpu/armv7/spare_head.o
 .rel.text.vga_clk_enable
                0x4a0dc480        0x8 arch/arm/cpu/armv7/spare_head.o
 .rel.text.disp_vga_sw_enable
                0x4a0dc488       0x38 arch/arm/cpu/armv7/spare_head.o
 .rel.text.disp_vga_enable
                0x4a0dc4c0       0x48 arch/arm/cpu/armv7/spare_head.o
 .rel.text.disp_vga_event_proc
                0x4a0dc508        0x8 arch/arm/cpu/armv7/spare_head.o
 .rel.text.disp_vga_init
                0x4a0dc510        0x8 arch/arm/cpu/armv7/spare_head.o
 .rel.text.disp_vga_exit
                0x4a0dc518        0x8 arch/arm/cpu/armv7/spare_head.o
 .rel.text.disp_init_vga
                0x4a0dc520      0x110 arch/arm/cpu/armv7/spare_head.o
 .rel.text.lcd_init
                0x4a0dc630       0x10 arch/arm/cpu/armv7/spare_head.o
 .rel.text.sunxi_lcd_delay_ms
                0x4a0dc640        0x8 arch/arm/cpu/armv7/spare_head.o
 .rel.text.sunxi_lcd_delay_us
                0x4a0dc648        0x8 arch/arm/cpu/armv7/spare_head.o
 .rel.text.sunxi_lcd_tcon_enable
                0x4a0dc650        0x8 arch/arm/cpu/armv7/spare_head.o
 .rel.text.sunxi_lcd_dsi_mode_switch
                0x00000000        0x0 arch/arm/cpu/armv7/spare_head.o
 .rel.text.sunxi_lcd_tcon_disable
                0x4a0dc658        0x8 arch/arm/cpu/armv7/spare_head.o
 .rel.text.sunxi_lcd_backlight_enable
                0x4a0dc660        0x8 arch/arm/cpu/armv7/spare_head.o
 .rel.text.sunxi_lcd_backlight_disable
                0x4a0dc668        0x8 arch/arm/cpu/armv7/spare_head.o
 .rel.text.sunxi_lcd_power_enable
                0x4a0dc670        0x8 arch/arm/cpu/armv7/spare_head.o
 .rel.text.sunxi_lcd_power_disable
                0x4a0dc678        0x8 arch/arm/cpu/armv7/spare_head.o
 .rel.text.sunxi_lcd_pwm_enable
                0x4a0dc680        0x8 arch/arm/cpu/armv7/spare_head.o
 .rel.text.sunxi_lcd_pwm_disable
                0x4a0dc688        0x8 arch/arm/cpu/armv7/spare_head.o
 .rel.text.sunxi_lcd_cpu_set_auto_mode
                0x4a0dc690        0x8 arch/arm/cpu/armv7/spare_head.o
 .rel.text.sunxi_lcd_cpu_write
                0x00000000        0x0 arch/arm/cpu/armv7/spare_head.o
 .rel.text.sunxi_lcd_cpu_write_index
                0x4a0dc698        0x8 arch/arm/cpu/armv7/spare_head.o
 .rel.text.sunxi_lcd_cpu_write_data
                0x4a0dc6a0        0x8 arch/arm/cpu/armv7/spare_head.o
 .rel.text.sunxi_lcd_dsi_dcs_write
                0x4a0dc6a8        0x8 arch/arm/cpu/armv7/spare_head.o
 .rel.text.sunxi_lcd_dsi_gen_write
                0x4a0dc6b0        0x8 arch/arm/cpu/armv7/spare_head.o
 .rel.text.sunxi_lcd_dsi_clk_enable
                0x4a0dc6b8        0x8 arch/arm/cpu/armv7/spare_head.o
 .rel.text.sunxi_lcd_dsi_clk_disable
                0x4a0dc6c0        0x8 arch/arm/cpu/armv7/spare_head.o
 .rel.text.sunxi_lcd_dsi_set_max_ret_size
                0x00000000        0x0 arch/arm/cpu/armv7/spare_head.o
 .rel.text.sunxi_lcd_dsi_dcs_read
                0x00000000        0x0 arch/arm/cpu/armv7/spare_head.o
 .rel.text.sunxi_lcd_dsi_gen_short_read0p
                0x00000000        0x0 arch/arm/cpu/armv7/spare_head.o
 .rel.text.sunxi_lcd_dsi_gen_short_read1p
                0x00000000        0x0 arch/arm/cpu/armv7/spare_head.o
 .rel.text.sunxi_lcd_dsi_gen_short_read2p
                0x00000000        0x0 arch/arm/cpu/armv7/spare_head.o
 .rel.text.sunxi_lcd_set_panel_funs
                0x4a0dc6c8        0x8 arch/arm/cpu/armv7/spare_head.o
 .rel.text.sunxi_lcd_pin_cfg
                0x4a0dc6d0        0x8 arch/arm/cpu/armv7/spare_head.o
 .rel.text.sunxi_lcd_gpio_set_value
                0x4a0dc6d8        0x8 arch/arm/cpu/armv7/spare_head.o
 .rel.text.sunxi_lcd_gpio_set_direction
                0x00000000        0x0 arch/arm/cpu/armv7/spare_head.o
 .rel.text.LCD_panel_init
                0x4a0dc6e0       0x40 arch/arm/cpu/armv7/spare_head.o
 .rel.text.LCD_close_flow
                0x4a0dc720      0x140 arch/arm/cpu/armv7/spare_head.o
 .rel.text.LCD_open_flow
                0x4a0dc860      0x140 arch/arm/cpu/armv7/spare_head.o
 .rel.text.LCD_cfg_panel_info
                0x4a0dc9a0       0xa0 arch/arm/cpu/armv7/spare_head.o
 .rel.text.lcd_close_flow
                0x4a0dca40       0x60 arch/arm/cpu/armv7/spare_head.o
 .rel.text.lcd_open_flow
                0x4a0dcaa0       0x60 arch/arm/cpu/armv7/spare_head.o
 .rel.text.lcd_panel_init
                0x4a0dcb00        0x8 arch/arm/cpu/armv7/spare_head.o
 .rel.text.lcd_cfg_panel_info
                0x4a0dcb08       0x30 arch/arm/cpu/armv7/spare_head.o
 .rel.text.EINK_close_flow
                0x00000000        0x0 arch/arm/cpu/armv7/spare_head.o
 .rel.text.EINK_open_flow
                0x00000000        0x0 arch/arm/cpu/armv7/spare_head.o
 .rel.text.EINK_cfg_panel_info
                0x00000000        0x0 arch/arm/cpu/armv7/spare_head.o
 .rel.text.de_gsu_init
                0x4a0dcb38       0x30 arch/arm/cpu/armv7/spare_head.o
 .rel.text.de_gsu_update_regs
                0x4a0dcb68       0x20 arch/arm/cpu/armv7/spare_head.o
 .rel.text.de_gsu_set_reg_base
                0x00000000        0x0 arch/arm/cpu/armv7/spare_head.o
 .rel.text.de_gsu_enable
                0x00000000        0x0 arch/arm/cpu/armv7/spare_head.o
 .rel.text.de_gsu_set_para
                0x4a0dcb88       0x38 arch/arm/cpu/armv7/spare_head.o
 .rel.text.de_update_device_fps
                0x4a0dcbc0        0x8 arch/arm/cpu/armv7/spare_head.o
 .rel.text.de_update_clk_rate
                0x4a0dcbc8        0x8 arch/arm/cpu/armv7/spare_head.o
 .rel.text.de_get_clk_rate
                0x4a0dcbd0        0x8 arch/arm/cpu/armv7/spare_head.o
 .rel.text.de_al_lyr_apply
                0x4a0dcbd8       0x40 arch/arm/cpu/armv7/spare_head.o
 .rel.text.de_al_mgr_apply
                0x4a0dcc18        0x8 arch/arm/cpu/armv7/spare_head.o
 .rel.text.disp_al_layer_apply
                0x4a0dcc20        0x8 arch/arm/cpu/armv7/spare_head.o
 .rel.text.disp_al_manager_apply
                0x4a0dcc28        0x8 arch/arm/cpu/armv7/spare_head.o
 .rel.text.disp_al_lcd_get_clk_info
                0x4a0dcc30       0x20 arch/arm/cpu/armv7/spare_head.o
 .rel.text.disp_al_lcd_cfg
                0x4a0dcc50       0x18 arch/arm/cpu/armv7/spare_head.o
 .rel.text.disp_al_lcd_disable
                0x4a0dcc68        0x8 arch/arm/cpu/armv7/spare_head.o
 .rel.text.disp_al_lcd_query_irq
                0x4a0dcc70        0x8 arch/arm/cpu/armv7/spare_head.o
 .rel.text.disp_al_lcd_enable_irq
                0x4a0dcc78        0x8 arch/arm/cpu/armv7/spare_head.o
 .rel.text.disp_al_lcd_disable_irq
                0x4a0dcc80        0x8 arch/arm/cpu/armv7/spare_head.o
 .rel.text.disp_al_lcd_get_cur_line
                0x4a0dcc88        0x8 arch/arm/cpu/armv7/spare_head.o
 .rel.text.disp_al_lcd_get_start_delay
                0x4a0dcc90        0x8 arch/arm/cpu/armv7/spare_head.o
 .rel.text.disp_al_hdmi_disable
                0x4a0dcc98        0x8 arch/arm/cpu/armv7/spare_head.o
 .rel.text.disp_al_hdmi_cfg
                0x4a0dcca0        0x8 arch/arm/cpu/armv7/spare_head.o
 .rel.text.disp_al_tv_disable
                0x4a0dcca8        0x8 arch/arm/cpu/armv7/spare_head.o
 .rel.text.disp_al_tv_cfg
                0x4a0dccb0        0x8 arch/arm/cpu/armv7/spare_head.o
 .rel.text.disp_al_vga_disable
                0x4a0dccb8        0x8 arch/arm/cpu/armv7/spare_head.o
 .rel.text.disp_al_vga_cfg
                0x4a0dccc0        0x8 arch/arm/cpu/armv7/spare_head.o
 .rel.text.disp_al_vdevice_cfg
                0x00000000        0x0 arch/arm/cpu/armv7/spare_head.o
 .rel.text.disp_al_vdevice_disable
                0x00000000        0x0 arch/arm/cpu/armv7/spare_head.o
 .rel.text.disp_al_device_get_cur_line
                0x4a0dccc8        0x8 arch/arm/cpu/armv7/spare_head.o
 .rel.text.disp_al_device_get_start_delay
                0x4a0dccd0        0x8 arch/arm/cpu/armv7/spare_head.o
 .rel.text.disp_al_device_query_irq
                0x4a0dccd8        0x8 arch/arm/cpu/armv7/spare_head.o
 .rel.text.disp_al_device_enable_irq
                0x00000000        0x0 arch/arm/cpu/armv7/spare_head.o
 .rel.text.disp_al_device_disable_irq
                0x00000000        0x0 arch/arm/cpu/armv7/spare_head.o
 .rel.text.disp_al_device_get_status
                0x4a0dcce0        0x8 arch/arm/cpu/armv7/spare_head.o
 .rel.text.disp_init_al
                0x4a0dcce8        0x8 arch/arm/cpu/armv7/spare_head.o
 .rel.text.disp_al_get_display_size
                0x00000000        0x0 arch/arm/cpu/armv7/spare_head.o
 .rel.text.de_rtmx_update_regs
                0x4a0dccf0       0x60 arch/arm/cpu/armv7/spare_head.o
 .rel.text.de_rtmx_set_gld_reg_base
                0x00000000        0x0 arch/arm/cpu/armv7/spare_head.o
 .rel.text.de_rtmx_set_bld_reg_base
                0x00000000        0x0 arch/arm/cpu/armv7/spare_head.o
 .rel.text.de_rtmx_set_overlay_reg_base
                0x4a0dcd50        0x8 arch/arm/cpu/armv7/spare_head.o
 .rel.text.de_rtmx_init
                0x4a0dcd58       0x98 arch/arm/cpu/armv7/spare_head.o
 .rel.text.de_rtmx_set_display_size
                0x4a0dcdf0       0x10 arch/arm/cpu/armv7/spare_head.o
 .rel.text.de_rtmx_set_dbuff_rdy
                0x4a0dce00       0x10 arch/arm/cpu/armv7/spare_head.o
 .rel.text.de_rtmx_set_enable
                0x4a0dce10       0x68 arch/arm/cpu/armv7/spare_head.o
 .rel.text.de_rtmx_query_irq
                0x00000000        0x0 arch/arm/cpu/armv7/spare_head.o
 .rel.text.de_rtmx_enable_irq
                0x00000000        0x0 arch/arm/cpu/armv7/spare_head.o
 .rel.text.de_rtmx_set_lay_cfg
                0x4a0dce78       0x18 arch/arm/cpu/armv7/spare_head.o
 .rel.text.de_rtmx_set_lay_haddr
                0x4a0dce90       0x20 arch/arm/cpu/armv7/spare_head.o
 .rel.text.de_rtmx_set_lay_laddr
                0x4a0dceb0       0x18 arch/arm/cpu/armv7/spare_head.o
 .rel.text.de_rtmx_get_3d_out
                0x4a0dcec8       0x50 arch/arm/cpu/armv7/spare_head.o
 .rel.text.de_rtmx_set_lay_fcolor
                0x4a0dcf18       0x18 arch/arm/cpu/armv7/spare_head.o
 .rel.text.de_rtmx_set_overlay_size
                0x4a0dcf30       0x18 arch/arm/cpu/armv7/spare_head.o
 .rel.text.de_rtmx_set_coarse_fac
                0x4a0dcf48       0x18 arch/arm/cpu/armv7/spare_head.o
 .rel.text.de_rtmx_set_pf_en
                0x4a0dcf60       0x10 arch/arm/cpu/armv7/spare_head.o
 .rel.text.de_rtmx_set_pipe_cfg
                0x4a0dcf70       0x10 arch/arm/cpu/armv7/spare_head.o
 .rel.text.de_rtmx_set_route
                0x4a0dcf80       0x10 arch/arm/cpu/armv7/spare_head.o
 .rel.text.de_rtmx_set_premul
                0x4a0dcf90       0x10 arch/arm/cpu/armv7/spare_head.o
 .rel.text.de_rtmx_set_background_color
                0x4a0dcfa0       0x10 arch/arm/cpu/armv7/spare_head.o
 .rel.text.de_rtmx_set_blend_size
                0x4a0dcfb0       0x10 arch/arm/cpu/armv7/spare_head.o
 .rel.text.de_rtmx_set_blend_mode
                0x4a0dcfc0       0x10 arch/arm/cpu/armv7/spare_head.o
 .rel.text.de_rtmx_set_blend_color
                0x4a0dcfd0       0x10 arch/arm/cpu/armv7/spare_head.o
 .rel.text.de_rtmx_set_outitl
                0x4a0dcfe0       0x10 arch/arm/cpu/armv7/spare_head.o
 .rel.text.de_rtmx_set_colorkey
                0x00000000        0x0 arch/arm/cpu/armv7/spare_head.o
 .rel.text.de_rtmx_mux
                0x00000000        0x0 arch/arm/cpu/armv7/spare_head.o
 .rel.text.de_rtmx_get_mux
                0x00000000        0x0 arch/arm/cpu/armv7/spare_head.o
 .rel.text.de_rtmx_sync_hw
                0x4a0dcff0       0x60 arch/arm/cpu/armv7/spare_head.o
 .rel.text.de_rtmx_get_lay_enabled
                0x00000000        0x0 arch/arm/cpu/armv7/spare_head.o
 .rel.text.de_rtmx_get_lay_address
                0x00000000        0x0 arch/arm/cpu/armv7/spare_head.o
 .rel.text.de_rtmx_get_lay_size
                0x00000000        0x0 arch/arm/cpu/armv7/spare_head.o
 .rel.text.de_rtmx_get_lay_win
                0x00000000        0x0 arch/arm/cpu/armv7/spare_head.o
 .rel.text.de_rtmx_get_display_size
                0x4a0dd050        0x8 arch/arm/cpu/armv7/spare_head.o
 .rel.text.de_rtmx_get_lay_format
                0x00000000        0x0 arch/arm/cpu/armv7/spare_head.o
 .rel.text.de_vsu_update_regs
                0x4a0dd058       0x50 arch/arm/cpu/armv7/spare_head.o
 .rel.text.de_vsu_init
                0x4a0dd0a8       0x60 arch/arm/cpu/armv7/spare_head.o
 .rel.text.de_vsu_set_reg_base
                0x00000000        0x0 arch/arm/cpu/armv7/spare_head.o
 .rel.text.de_vsu_enable
                0x00000000        0x0 arch/arm/cpu/armv7/spare_head.o
 .rel.text.de_vsu_set_para
                0x4a0dd108       0x68 arch/arm/cpu/armv7/spare_head.o
 .rel.text.de_vsu_calc_scaler_para
                0x4a0dd170        0x8 arch/arm/cpu/armv7/spare_head.o
 .rel.text.de_feat_get_num_screens
                0x4a0dd178        0x8 arch/arm/cpu/armv7/spare_head.o
 .rel.text.de_feat_get_num_devices
                0x4a0dd180        0x8 arch/arm/cpu/armv7/spare_head.o
 .rel.text.de_feat_get_num_chns
                0x4a0dd188        0x8 arch/arm/cpu/armv7/spare_head.o
 .rel.text.de_feat_get_num_vi_chns
                0x4a0dd190        0x8 arch/arm/cpu/armv7/spare_head.o
 .rel.text.de_feat_get_num_ui_chns
                0x4a0dd198        0x8 arch/arm/cpu/armv7/spare_head.o
 .rel.text.de_feat_get_num_layers
                0x4a0dd1a0        0x8 arch/arm/cpu/armv7/spare_head.o
 .rel.text.de_feat_get_num_layers_by_chn
                0x4a0dd1a8        0x8 arch/arm/cpu/armv7/spare_head.o
 .rel.text.de_feat_is_support_vep
                0x00000000        0x0 arch/arm/cpu/armv7/spare_head.o
 .rel.text.de_feat_is_support_vep_by_chn
                0x4a0dd1b0        0x8 arch/arm/cpu/armv7/spare_head.o
 .rel.text.de_feat_is_support_smbl
                0x4a0dd1b8        0x8 arch/arm/cpu/armv7/spare_head.o
 .rel.text.de_feat_is_supported_output_types
                0x4a0dd1c0        0x8 arch/arm/cpu/armv7/spare_head.o
 .rel.text.de_feat_is_support_wb
                0x00000000        0x0 arch/arm/cpu/armv7/spare_head.o
 .rel.text.de_feat_is_support_scale
                0x4a0dd1c8        0x8 arch/arm/cpu/armv7/spare_head.o
 .rel.text.de_feat_is_support_scale_by_chn
                0x00000000        0x0 arch/arm/cpu/armv7/spare_head.o
 .rel.text.de_feat_get_scale_linebuf_for_yuv
                0x4a0dd1d0        0x8 arch/arm/cpu/armv7/spare_head.o
 .rel.text.de_feat_get_scale_linebuf_for_rgb
                0x00000000        0x0 arch/arm/cpu/armv7/spare_head.o
 .rel.text.de_feat_get_scale_linebuf_for_ed
                0x00000000        0x0 arch/arm/cpu/armv7/spare_head.o
 .rel.text.de_feat_get_tcon_type
                0x4a0dd1d8        0x8 arch/arm/cpu/armv7/spare_head.o
 .rel.text.de_feat_init
                0x4a0dd1e0       0x10 arch/arm/cpu/armv7/spare_head.o
 .rel.text.tcon0_cfg_mode_auto
                0x4a0dd1f0        0x8 arch/arm/cpu/armv7/spare_head.o
 .rel.text.tcon0_cfg_mode_tri
                0x4a0dd1f8       0x18 arch/arm/cpu/armv7/spare_head.o
 .rel.text.tcon_ceu_calc.constprop.2
                0x00000000        0x0 arch/arm/cpu/armv7/spare_head.o
 .rel.text.rgb_src_sel
                0x00000000        0x0 arch/arm/cpu/armv7/spare_head.o
 .rel.text.dsi_src_sel
                0x00000000        0x0 arch/arm/cpu/armv7/spare_head.o
 .rel.text.tcon0_out_to_gpio
                0x4a0dd210        0x8 arch/arm/cpu/armv7/spare_head.o
 .rel.text.tcon1_out_to_gpio
                0x4a0dd218        0x8 arch/arm/cpu/armv7/spare_head.o
 .rel.text.tcon1_tv_clk_enable
                0x4a0dd220        0x8 arch/arm/cpu/armv7/spare_head.o
 .rel.text.tcon1_hdmi_clk_enable
                0x4a0dd228        0x8 arch/arm/cpu/armv7/spare_head.o
 .rel.text.tcon0_dsi_clk_enable
                0x00000000        0x0 arch/arm/cpu/armv7/spare_head.o
 .rel.text.tcon_de_attach
                0x4a0dd230        0x8 arch/arm/cpu/armv7/spare_head.o
 .rel.text.tcon_get_attach_by_de_index
                0x4a0dd238        0x8 arch/arm/cpu/armv7/spare_head.o
 .rel.text.tcon_top_set_reg_base
                0x4a0dd240        0x8 arch/arm/cpu/armv7/spare_head.o
 .rel.text.tcon_top_get_reg_base
                0x00000000        0x0 arch/arm/cpu/armv7/spare_head.o
 .rel.text.lvds_open
                0x4a0dd248        0x8 arch/arm/cpu/armv7/spare_head.o
 .rel.text.lvds_close
                0x4a0dd250        0x8 arch/arm/cpu/armv7/spare_head.o
 .rel.text.tcon_get_cur_field
                0x00000000        0x0 arch/arm/cpu/armv7/spare_head.o
 .rel.text.tcon_get_timing
                0x00000000        0x0 arch/arm/cpu/armv7/spare_head.o
 .rel.text.tcon_set_reg_base
                0x4a0dd258        0x8 arch/arm/cpu/armv7/spare_head.o
 .rel.text.tcon_get_reg_base
                0x00000000        0x0 arch/arm/cpu/armv7/spare_head.o
 .rel.text.tcon_init
                0x4a0dd260        0x8 arch/arm/cpu/armv7/spare_head.o
 .rel.text.tcon_exit
                0x4a0dd268        0x8 arch/arm/cpu/armv7/spare_head.o
 .rel.text.tcon_irq_enable
                0x4a0dd270        0x8 arch/arm/cpu/armv7/spare_head.o
 .rel.text.tcon_irq_disable
                0x4a0dd278        0x8 arch/arm/cpu/armv7/spare_head.o
 .rel.text.tcon_irq_query
                0x4a0dd280        0x8 arch/arm/cpu/armv7/spare_head.o
 .rel.text.tcon_get_start_delay
                0x4a0dd288        0x8 arch/arm/cpu/armv7/spare_head.o
 .rel.text.tcon0_get_cpu_tri2_start_delay
                0x4a0dd290        0x8 arch/arm/cpu/armv7/spare_head.o
 .rel.text.tcon_get_cur_line
                0x4a0dd298        0x8 arch/arm/cpu/armv7/spare_head.o
 .rel.text.tcon_get_status
                0x4a0dd2a0        0x8 arch/arm/cpu/armv7/spare_head.o
 .rel.text.tcon0_src_select
                0x4a0dd2a8        0x8 arch/arm/cpu/armv7/spare_head.o
 .rel.text.tcon0_src_get
                0x00000000        0x0 arch/arm/cpu/armv7/spare_head.o
 .rel.text.tcon0_open
                0x4a0dd2b0        0x8 arch/arm/cpu/armv7/spare_head.o
 .rel.text.tcon0_close
                0x4a0dd2b8       0x10 arch/arm/cpu/armv7/spare_head.o
 .rel.text.tcon0_simple_close
                0x00000000        0x0 arch/arm/cpu/armv7/spare_head.o
 .rel.text.tcon0_simple_open
                0x00000000        0x0 arch/arm/cpu/armv7/spare_head.o
 .rel.text.tcon0_tri_busy
                0x4a0dd2c8        0x8 arch/arm/cpu/armv7/spare_head.o
 .rel.text.tcon0_cpu_set_auto_mode
                0x4a0dd2d0        0x8 arch/arm/cpu/armv7/spare_head.o
 .rel.text.tcon0_tri_start
                0x4a0dd2d8        0x8 arch/arm/cpu/armv7/spare_head.o
 .rel.text.tcon0_frm
                0x4a0dd2e0        0x8 arch/arm/cpu/armv7/spare_head.o
 .rel.text.tcon0_cpu_busy
                0x4a0dd2e8        0x8 arch/arm/cpu/armv7/spare_head.o
 .rel.text.tcon0_cpu_wr_24b_index
                0x4a0dd2f0        0x8 arch/arm/cpu/armv7/spare_head.o
 .rel.text.tcon0_cpu_wr_24b_data
                0x4a0dd2f8        0x8 arch/arm/cpu/armv7/spare_head.o
 .rel.text.tcon0_cpu_rd_24b_data
                0x00000000        0x0 arch/arm/cpu/armv7/spare_head.o
 .rel.text.tcon0_set_dclk_div
                0x4a0dd300        0x8 arch/arm/cpu/armv7/spare_head.o
 .rel.text.tcon0_get_dclk_div
                0x00000000        0x0 arch/arm/cpu/armv7/spare_head.o
 .rel.text.tcon1_open
                0x4a0dd308        0x8 arch/arm/cpu/armv7/spare_head.o
 .rel.text.tcon1_close
                0x4a0dd310        0x8 arch/arm/cpu/armv7/spare_head.o
 .rel.text.tcom1_cfg_correct
                0x4a0dd318        0x8 arch/arm/cpu/armv7/spare_head.o
 .rel.text.tcon_set_sync_pol
                0x00000000        0x0 arch/arm/cpu/armv7/spare_head.o
 .rel.text.tcon1_cfg
                0x4a0dd320        0x8 arch/arm/cpu/armv7/spare_head.o
 .rel.text.tcon1_hdmi_color_remap
                0x4a0dd328        0x8 arch/arm/cpu/armv7/spare_head.o
 .rel.text.tcon1_yuv_range
                0x4a0dd330        0x8 arch/arm/cpu/armv7/spare_head.o
 .rel.text.tcon1_set_timming
                0x4a0dd338        0x8 arch/arm/cpu/armv7/spare_head.o
 .rel.text.tcon1_src_select
                0x4a0dd340        0x8 arch/arm/cpu/armv7/spare_head.o
 .rel.text.tcon1_src_get
                0x00000000        0x0 arch/arm/cpu/armv7/spare_head.o
 .rel.text.tcon_ceu
                0x00000000        0x0 arch/arm/cpu/armv7/spare_head.o
 .rel.text.tcon_gamma
                0x4a0dd348        0x8 arch/arm/cpu/armv7/spare_head.o
 .rel.text.tcon_cmap
                0x4a0dd350        0x8 arch/arm/cpu/armv7/spare_head.o
 .rel.text.tcon_set_fsync_pol
                0x4a0dd358        0x8 arch/arm/cpu/armv7/spare_head.o
 .rel.text.tcon_set_fsync_active_time
                0x4a0dd360        0x8 arch/arm/cpu/armv7/spare_head.o
 .rel.text.tcon0_cfg
                0x4a0dd368       0x30 arch/arm/cpu/armv7/spare_head.o
 .rel.text.de_ccsc_update_regs
                0x4a0dd398       0x20 arch/arm/cpu/armv7/spare_head.o
 .rel.text.de_ccsc_init
                0x4a0dd3b8       0x40 arch/arm/cpu/armv7/spare_head.o
 .rel.text.de_csc_coeff_calc
                0x4a0dd3f8       0x70 arch/arm/cpu/armv7/spare_head.o
 .rel.text.de_ccsc_apply
                0x4a0dd468       0x28 arch/arm/cpu/armv7/spare_head.o
 .rel.text.de_dcsc_apply
                0x4a0dd490       0x38 arch/arm/cpu/armv7/spare_head.o
 .rel.text.de_dcsc_get_config
                0x4a0dd4c8        0x8 arch/arm/cpu/armv7/spare_head.o
 .rel.text.de_dcsc_update_regs
                0x4a0dd4d0       0x18 arch/arm/cpu/armv7/spare_head.o
 .rel.text.de_dcsc_init
                0x4a0dd4e8       0x38 arch/arm/cpu/armv7/spare_head.o
 .rel.text.de_clk_enable
                0x4a0dd520       0x18 arch/arm/cpu/armv7/spare_head.o
 .rel.text.de_clk_disable
                0x4a0dd538       0x10 arch/arm/cpu/armv7/spare_head.o
 .rel.text.de_clk_set_reg_base
                0x4a0dd548        0x8 arch/arm/cpu/armv7/spare_head.o
 .rel.text.dsi_set_reg_base
                0x4a0dd550       0x10 arch/arm/cpu/armv7/spare_head.o
 .rel.text.dsi_get_reg_base
                0x00000000        0x0 arch/arm/cpu/armv7/spare_head.o
 .rel.text.dsi_get_start_delay
                0x4a0dd560        0x8 arch/arm/cpu/armv7/spare_head.o
 .rel.text.dsi_get_cur_line
                0x4a0dd568        0x8 arch/arm/cpu/armv7/spare_head.o
 .rel.text.dsi_irq_enable
                0x4a0dd570        0x8 arch/arm/cpu/armv7/spare_head.o
 .rel.text.dsi_irq_disable
                0x4a0dd578        0x8 arch/arm/cpu/armv7/spare_head.o
 .rel.text.dsi_irq_query
                0x4a0dd580        0x8 arch/arm/cpu/armv7/spare_head.o
 .rel.text.dsi_inst_busy
                0x4a0dd588        0x8 arch/arm/cpu/armv7/spare_head.o
 .rel.text.dsi_start
                0x4a0dd590       0x38 arch/arm/cpu/armv7/spare_head.o
 .rel.text.dsi_close
                0x4a0dd5c8        0x8 arch/arm/cpu/armv7/spare_head.o
 .rel.text.dsi_io_open
                0x4a0dd5d0       0x10 arch/arm/cpu/armv7/spare_head.o
 .rel.text.dsi_io_close
                0x4a0dd5e0        0x8 arch/arm/cpu/armv7/spare_head.o
 .rel.text.dsi_dcs_rd
                0x4a0dd5e8        0x8 arch/arm/cpu/armv7/spare_head.o
 .rel.text.dsi_set_max_ret_size
                0x4a0dd5f0        0x8 arch/arm/cpu/armv7/spare_head.o
 .rel.text.dsi_gen_wr
                0x4a0dd5f8        0x8 arch/arm/cpu/armv7/spare_head.o
 .rel.text.dsi_dcs_wr
                0x4a0dd600        0x8 arch/arm/cpu/armv7/spare_head.o
 .rel.text.dsi_cfg
                0x4a0dd608       0x28 arch/arm/cpu/armv7/spare_head.o
 .rel.text.eink_set_base
                0x00000000        0x0 arch/arm/cpu/armv7/spare_head.o
 .rel.text.eink_config
                0x00000000        0x0 arch/arm/cpu/armv7/spare_head.o
 .rel.text.eink_irq_enable
                0x00000000        0x0 arch/arm/cpu/armv7/spare_head.o
 .rel.text.eink_irq_disable
                0x00000000        0x0 arch/arm/cpu/armv7/spare_head.o
 .rel.text.eink_irq_query
                0x00000000        0x0 arch/arm/cpu/armv7/spare_head.o
 .rel.text.eink_irq_query_index
                0x00000000        0x0 arch/arm/cpu/armv7/spare_head.o
 .rel.text.eink_start_idx
                0x00000000        0x0 arch/arm/cpu/armv7/spare_head.o
 .rel.text.eink_index_finish
                0x00000000        0x0 arch/arm/cpu/armv7/spare_head.o
 .rel.text.eink_get_updata_area
                0x00000000        0x0 arch/arm/cpu/armv7/spare_head.o
 .rel.text.eink_pipe_enable
                0x00000000        0x0 arch/arm/cpu/armv7/spare_head.o
 .rel.text.eink_pipe_disable
                0x00000000        0x0 arch/arm/cpu/armv7/spare_head.o
 .rel.text.eink_pipe_config
                0x00000000        0x0 arch/arm/cpu/armv7/spare_head.o
 .rel.text.eink_pipe_config_wavefile
                0x00000000        0x0 arch/arm/cpu/armv7/spare_head.o
 .rel.text.eink_decoder_start
                0x00000000        0x0 arch/arm/cpu/armv7/spare_head.o
 .rel.text.eink_edma_init
                0x00000000        0x0 arch/arm/cpu/armv7/spare_head.o
 .rel.text.eink_edma_cfg
                0x00000000        0x0 arch/arm/cpu/armv7/spare_head.o
 .rel.text.eink_edma_cfg_addr
                0x00000000        0x0 arch/arm/cpu/armv7/spare_head.o
 .rel.text.eink_edma_en
                0x00000000        0x0 arch/arm/cpu/armv7/spare_head.o
 .rel.text.eink_dbuf_rdy
                0x00000000        0x0 arch/arm/cpu/armv7/spare_head.o
 .rel.text.eink_set_wb
                0x00000000        0x0 arch/arm/cpu/armv7/spare_head.o
 .rel.text.init_eink_ctrl_data_8
                0x00000000        0x0 arch/arm/cpu/armv7/spare_head.o
 .rel.text.init_eink_ctrl_data_16
                0x00000000        0x0 arch/arm/cpu/armv7/spare_head.o
 .rel.text.init_waveform
                0x00000000        0x0 arch/arm/cpu/armv7/spare_head.o
 .rel.text.get_eink_panel_type
                0x00000000        0x0 arch/arm/cpu/armv7/spare_head.o
 .rel.text.get_eink_panel_bit_num
                0x00000000        0x0 arch/arm/cpu/armv7/spare_head.o
 .rel.text.get_waveform_data
                0x00000000        0x0 arch/arm/cpu/armv7/spare_head.o
 .rel.text.free_waveform
                0x00000000        0x0 arch/arm/cpu/armv7/spare_head.o
 .rel.text.hdmi_get_work_mode
                0x4a0dd630        0x8 arch/arm/cpu/armv7/spare_head.o
 .rel.text.hdmi_clk_disable
                0x4a0dd638       0x10 arch/arm/cpu/armv7/spare_head.o
 .rel.text.hdmi_get_video_timing_from_tv_mode
                0x4a0dd648       0x10 arch/arm/cpu/armv7/spare_head.o
 .rel.text.hdmi_get_video_timming_info
                0x4a0dd658       0x10 arch/arm/cpu/armv7/spare_head.o
 .rel.text.hdmi_get_support_mode
                0x4a0dd668       0xd8 arch/arm/cpu/armv7/spare_head.o
 .rel.text.hdmi_mode_support
                0x4a0dd740        0x8 arch/arm/cpu/armv7/spare_head.o
 .rel.text.hdmi_disable
                0x4a0dd748       0x10 arch/arm/cpu/armv7/spare_head.o
 .rel.text.hdmi_enable
                0x4a0dd758       0x30 arch/arm/cpu/armv7/spare_head.o
 .rel.text.hdmi_set_display_mode
                0x4a0dd788       0x18 arch/arm/cpu/armv7/spare_head.o
 .rel.text.hdmi_clk_get_div
                0x4a0dd7a0       0x28 arch/arm/cpu/armv7/spare_head.o
 .rel.text.hdmi_get_vic
                0x00000000        0x0 arch/arm/cpu/armv7/spare_head.o
 .rel.text.hdmi_parse_dts_timing
                0x4a0dd7c8       0xc8 arch/arm/cpu/armv7/spare_head.o
 .rel.text.hdmi_init
                0x4a0dd890      0x1b0 arch/arm/cpu/armv7/spare_head.o
 .rel.text.hdmi_exit
                0x00000000        0x0 arch/arm/cpu/armv7/spare_head.o
 .rel.text.hdmi_core_initial
                0x4a0dda40       0x58 arch/arm/cpu/armv7/spare_head.o
 .rel.text.hdmi_core_exit
                0x00000000        0x0 arch/arm/cpu/armv7/spare_head.o
 .rel.text.hdmi_core_hpd_check
                0x4a0dda98        0x8 arch/arm/cpu/armv7/spare_head.o
 .rel.text.hdmi_core_get_video_info
                0x4a0ddaa0       0x10 arch/arm/cpu/armv7/spare_head.o
 .rel.text.hdmi_core_get_audio_info
                0x00000000        0x0 arch/arm/cpu/armv7/spare_head.o
 .rel.text.hdmi_core_set_hdcp_enable
                0x4a0ddab0        0x8 arch/arm/cpu/armv7/spare_head.o
 .rel.text.hdmi_core_get_hdcp_enable
                0x00000000        0x0 arch/arm/cpu/armv7/spare_head.o
 .rel.text.hdmi_core_set_cts_enable
                0x4a0ddab8        0x8 arch/arm/cpu/armv7/spare_head.o
 .rel.text.hdmi_core_get_cts_enable
                0x00000000        0x0 arch/arm/cpu/armv7/spare_head.o
 .rel.text.hdmi_core_get_csc_type
                0x4a0ddac0       0x10 arch/arm/cpu/armv7/spare_head.o
 .rel.text.hdmi_core_get_video_mode
                0x00000000        0x0 arch/arm/cpu/armv7/spare_head.o
 .rel.text.hdmi_core_set_video_mode
                0x4a0ddad0       0x18 arch/arm/cpu/armv7/spare_head.o
 .rel.text.hdmi_core_set_video_enable
                0x4a0ddae8       0x50 arch/arm/cpu/armv7/spare_head.o
 .rel.text.hdmi_core_loop
                0x4a0ddb38       0x98 arch/arm/cpu/armv7/spare_head.o
 .rel.text.hdmi_core_get_video_enable
                0x00000000        0x0 arch/arm/cpu/armv7/spare_head.o
 .rel.text.hdmi_core_enter_lp
                0x00000000        0x0 arch/arm/cpu/armv7/spare_head.o
 .rel.text.hdmi_core_mode_support
                0x4a0ddbd0        0x8 arch/arm/cpu/armv7/spare_head.o
 .rel.text.hdmi_core_dvi_support
                0x00000000        0x0 arch/arm/cpu/armv7/spare_head.o
 .rel.text.hdmi_core_cec_enable
                0x4a0ddbd8        0x8 arch/arm/cpu/armv7/spare_head.o
 .rel.text.hdmi_core_update_detect_time
                0x4a0ddbe0        0x8 arch/arm/cpu/armv7/spare_head.o
 .rel.text.hdmi_core_cec_get_simple_msg
                0x00000000        0x0 arch/arm/cpu/armv7/spare_head.o
 .rel.text.hdmi_core_get_supported_vic
                0x4a0ddbe8        0x8 arch/arm/cpu/armv7/spare_head.o
 .rel.text.hdmi_edid_get_dt_support
                0x4a0ddbf0        0x8 arch/arm/cpu/armv7/spare_head.o
 .rel.text.hdmi_edid_get_vdb_support_vic
                0x4a0ddbf8       0x10 arch/arm/cpu/armv7/spare_head.o
 .rel.text.hdmi_edid_parse_vdb_and_get_tx_support_vic
                0x4a0ddc08       0x20 arch/arm/cpu/armv7/spare_head.o
 .rel.text.hdmi_edid_parse
                0x4a0ddc28        0x8 arch/arm/cpu/armv7/spare_head.o
 .rel.text.hdmi_edid_check_init_vic_and_get_supported_vic
                0x4a0ddc30       0x48 arch/arm/cpu/armv7/spare_head.o
 .rel.text.hdmi_get_edid_dt_timing_info
                0x4a0ddc78       0x20 arch/arm/cpu/armv7/spare_head.o
 .rel.text.hdmi_edid_is_yuv
                0x4a0ddc98        0x8 arch/arm/cpu/armv7/spare_head.o
 .rel.text.hdmi_edid_get_data
                0x00000000        0x0 arch/arm/cpu/armv7/spare_head.o
 .rel.text.hdmi_write
                0x4a0ddca0        0x8 arch/arm/cpu/armv7/spare_head.o
 .rel.text.hdmi_writel
                0x4a0ddca8        0x8 arch/arm/cpu/armv7/spare_head.o
 .rel.text.get_vid
                0x4a0ddcb0        0x8 arch/arm/cpu/armv7/spare_head.o
 .rel.text.hdmi_udelay
                0x4a0ddcb8        0x8 arch/arm/cpu/armv7/spare_head.o
 .rel.text.bsp_hdmi_inner_init
                0x4a0ddcc0        0x8 arch/arm/cpu/armv7/spare_head.o
 .rel.text.hdmi_mdelay
                0x4a0ddcc8        0x8 arch/arm/cpu/armv7/spare_head.o
 .rel.text.hdmi_phy_init.isra.2
                0x4a0ddcd0       0x28 arch/arm/cpu/armv7/spare_head.o
 .rel.text.bsp_hdmi_set_func
                0x4a0ddcf8        0x8 arch/arm/cpu/armv7/spare_head.o
 .rel.text.bsp_hdmi_set_bias_source
                0x00000000        0x0 arch/arm/cpu/armv7/spare_head.o
 .rel.text.bsp_hdmi_set_version
                0x4a0ddd00        0x8 arch/arm/cpu/armv7/spare_head.o
 .rel.text.bsp_hdmi_set_addr
                0x4a0ddd08       0x10 arch/arm/cpu/armv7/spare_head.o
 .rel.text.bsp_hdmi_set_video_en
                0x4a0ddd18        0x8 arch/arm/cpu/armv7/spare_head.o
 .rel.text.bsp_hdmi_video
                0x4a0ddd20       0x88 arch/arm/cpu/armv7/spare_head.o
 .rel.text.bsp_hdmi_audio
                0x00000000        0x0 arch/arm/cpu/armv7/spare_head.o
 .rel.text.bsp_hdmi_ddc_read
                0x4a0ddda8        0x8 arch/arm/cpu/armv7/spare_head.o
 .rel.text.bsp_hdmi_get_hpd
                0x4a0dddb0        0x8 arch/arm/cpu/armv7/spare_head.o
 .rel.text.bsp_hdmi_hdcp_err_check
                0x00000000        0x0 arch/arm/cpu/armv7/spare_head.o
 .rel.text.bsp_hdmi_cec_get_simple_msg
                0x00000000        0x0 arch/arm/cpu/armv7/spare_head.o
 .rel.text.bsp_hdmi_cec_send
                0x4a0dddb8        0x8 arch/arm/cpu/armv7/spare_head.o
 .rel.text.bsp_hdmi_cec_free_time_set
                0x4a0dddc0        0x8 arch/arm/cpu/armv7/spare_head.o
 .rel.text.bsp_hdmi_cec_sta_check
                0x00000000        0x0 arch/arm/cpu/armv7/spare_head.o
 .rel.text.tv_get_input_csc
                0x4a0dddc8        0x8 arch/arm/cpu/armv7/spare_head.o
 .rel.text.tve_top_clk_enable
                0x4a0dddd0       0x18 arch/arm/cpu/armv7/spare_head.o
 .rel.text.tve_clk_enable
                0x4a0ddde8       0x18 arch/arm/cpu/armv7/spare_head.o
 .rel.text.__pin_config
                0x4a0dde00       0x20 arch/arm/cpu/armv7/spare_head.o
 .rel.text.tve_clk_config
                0x4a0dde20       0x30 arch/arm/cpu/armv7/spare_head.o
 .rel.text.tv_set_mode
                0x4a0dde50       0x18 arch/arm/cpu/armv7/spare_head.o
 .rel.text.tv_get_mode
                0x4a0dde68       0x18 arch/arm/cpu/armv7/spare_head.o
 .rel.text.tv_disable
                0x4a0dde80       0x20 arch/arm/cpu/armv7/spare_head.o
 .rel.text.tv_resume
                0x4a0ddea0       0x30 arch/arm/cpu/armv7/spare_head.o
 .rel.text.tv_suspend
                0x4a0dded0       0x20 arch/arm/cpu/armv7/spare_head.o
 .rel.text.tv_mode_support
                0x4a0ddef0       0x18 arch/arm/cpu/armv7/spare_head.o
 .rel.text.tv_enable
                0x4a0ddf08       0x28 arch/arm/cpu/armv7/spare_head.o
 .rel.text.tv_get_video_timing_info
                0x4a0ddf30       0x20 arch/arm/cpu/armv7/spare_head.o
 .rel.text.tv_get_video_info
                0x00000000        0x0 arch/arm/cpu/armv7/spare_head.o
 .rel.text.tv_init
                0x4a0ddf50      0x118 arch/arm/cpu/armv7/spare_head.o
 .rel.text.tv_exit
                0x00000000        0x0 arch/arm/cpu/armv7/spare_head.o
 .rel.text.tve_low_set_reg_base
                0x4a0de068       0x10 arch/arm/cpu/armv7/spare_head.o
 .rel.text.tve_low_set_top_reg_base
                0x4a0de078        0x8 arch/arm/cpu/armv7/spare_head.o
 .rel.text.tve_low_init
                0x4a0de080       0x20 arch/arm/cpu/armv7/spare_head.o
 .rel.text.tve_low_dac_enable
                0x4a0de0a0       0x10 arch/arm/cpu/armv7/spare_head.o
 .rel.text.tve_low_dac_disable
                0x00000000        0x0 arch/arm/cpu/armv7/spare_head.o
 .rel.text.tve_low_open
                0x4a0de0b0        0x8 arch/arm/cpu/armv7/spare_head.o
 .rel.text.tve_low_close
                0x4a0de0b8        0x8 arch/arm/cpu/armv7/spare_head.o
 .rel.text.tve_low_set_tv_mode
                0x4a0de0c0        0x8 arch/arm/cpu/armv7/spare_head.o
 .rel.text.tve_low_get_dac_status
                0x4a0de0c8       0x10 arch/arm/cpu/armv7/spare_head.o
 .rel.text.tve_low_dac_autocheck_enable
                0x4a0de0d8       0x10 arch/arm/cpu/armv7/spare_head.o
 .rel.text.tve_low_dac_autocheck_disable
                0x4a0de0e8       0x10 arch/arm/cpu/armv7/spare_head.o
 .rel.text.tve_low_get_sid
                0x4a0de0f8        0x8 arch/arm/cpu/armv7/spare_head.o
 .rel.text.tve_low_enhance
                0x4a0de100        0x8 arch/arm/cpu/armv7/spare_head.o
 .rel.text.arisc_dvfs_cfg_vf_table
                0x00000000        0x0 arch/arm/cpu/armv7/spare_head.o
 .rel.text.sunxi_arisc_probe
                0x00000000        0x0 arch/arm/cpu/armv7/spare_head.o
 .rel.text.spinor_enter_4bytes_addr
                0x4a0de108       0x18 arch/arm/cpu/armv7/spare_head.o
 .rel.text.__spinor_sector_read
                0x4a0de120       0x18 arch/arm/cpu/armv7/spare_head.o
 .rel.text.__spinor_erase_block
                0x4a0de138       0x10 arch/arm/cpu/armv7/spare_head.o
 .rel.text.__spinor_erase_all
                0x4a0de148       0x20 arch/arm/cpu/armv7/spare_head.o
 .rel.text.__spinor_pp.constprop.1
                0x4a0de168       0x10 arch/arm/cpu/armv7/spare_head.o
 .rel.text.__spinor_sector_write
                0x4a0de178        0x8 arch/arm/cpu/armv7/spare_head.o
 .rel.text.__spinor_boot_sector_write
                0x4a0de180       0x28 arch/arm/cpu/armv7/spare_head.o
 .rel.text.__spinor_sprite_sector_write
                0x4a0de1a8       0x28 arch/arm/cpu/armv7/spare_head.o
 .rel.text.spinor_read
                0x4a0de1d0       0x28 arch/arm/cpu/armv7/spare_head.o
 .rel.text.spinor_flush_cache
                0x4a0de1f8       0x18 arch/arm/cpu/armv7/spare_head.o
 .rel.text.spinor_write
                0x4a0de210       0x28 arch/arm/cpu/armv7/spare_head.o
 .rel.text.spinor_exit
                0x4a0de238       0x30 arch/arm/cpu/armv7/spare_head.o
 .rel.text.spinor_erase
                0x00000000        0x0 arch/arm/cpu/armv7/spare_head.o
 .rel.text.spinor_size
                0x4a0de268       0x20 arch/arm/cpu/armv7/spare_head.o
 .rel.text.spinor_init
                0x4a0de288       0x80 arch/arm/cpu/armv7/spare_head.o
 .rel.text.spinor_sprite_write
                0x4a0de308        0x8 arch/arm/cpu/armv7/spare_head.o
 .rel.text.update_boot0_dram_para
                0x4a0de310       0x30 arch/arm/cpu/armv7/spare_head.o
 .rel.text.spinor_boot_write
                0x4a0de340        0x8 arch/arm/cpu/armv7/spare_head.o
 .rel.text.spinor_download_uboot
                0x4a0de348       0x20 arch/arm/cpu/armv7/spare_head.o
 .rel.text.spinor_download_boot0
                0x4a0de368       0x18 arch/arm/cpu/armv7/spare_head.o
 .rel.text.spinor_read_uboot
                0x4a0de380        0x8 arch/arm/cpu/armv7/spare_head.o
 .rel.text.spinor_datafinish
                0x00000000        0x0 arch/arm/cpu/armv7/spare_head.o
 .rel.text.try_spi_nor
                0x4a0de388       0x18 arch/arm/cpu/armv7/spare_head.o
 .rel.rodata.fmt_name.10259
                0x4a0de3a0       0x20 arch/arm/cpu/armv7/spare_head.o
 .rel.rodata.bits_name.10260
                0x4a0de3c0       0x20 arch/arm/cpu/armv7/spare_head.o
 .rel.rodata.sun8iw11_de_features
                0x4a0de3e0       0x58 arch/arm/cpu/armv7/spare_head.o
 .rel.data.device_list
                0x4a0de438       0x10 arch/arm/cpu/armv7/spare_head.o
 .rel.data.panel_array
                0x4a0de448       0x68 arch/arm/cpu/armv7/spare_head.o
 .rel.data.default_panel
                0x4a0de4b0       0x20 arch/arm/cpu/armv7/spare_head.o
 .rel.data.he0801a068_panel
                0x4a0de4d0       0x20 arch/arm/cpu/armv7/spare_head.o
 .rel.data.lt070me05000_panel
                0x4a0de4f0       0x28 arch/arm/cpu/armv7/spare_head.o
 .rel.data.wtq05027d01_panel
                0x4a0de518       0x20 arch/arm/cpu/armv7/spare_head.o
 .rel.data.t27p06_panel
                0x4a0de538       0x20 arch/arm/cpu/armv7/spare_head.o
 .rel.data.dx0960be40a1_panel
                0x4a0de558       0x20 arch/arm/cpu/armv7/spare_head.o
 .rel.data.tft720x1280_panel
                0x4a0de578       0x20 arch/arm/cpu/armv7/spare_head.o
 .rel.data.S6D7AA0X01_panel
                0x4a0de598       0x20 arch/arm/cpu/armv7/spare_head.o
 .rel.data.inet_dsi_panel
                0x4a0de5b8       0x20 arch/arm/cpu/armv7/spare_head.o
 .rel.data.gg1p4062utsw_panel
                0x4a0de5d8       0x20 arch/arm/cpu/armv7/spare_head.o
 .rel.data.vr_sharp_panel
                0x4a0de5f8       0x20 arch/arm/cpu/armv7/spare_head.o
 .rel.data.WilliamLcd_panel
                0x4a0de618       0x20 arch/arm/cpu/armv7/spare_head.o
 .rel.data.tm_dsi_panel
                0x4a0de638       0x20 arch/arm/cpu/armv7/spare_head.o
 .rel.data.default_eink
                0x00000000        0x0 arch/arm/cpu/armv7/spare_head.o
 .rel.text.sunxi_clk_is_lock
                0x4a0de658       0x10 arch/arm/cpu/armv7/spare_head.o
 .rel.text.sunxi_clk_disable_plllock
                0x4a0de668        0x8 arch/arm/cpu/armv7/spare_head.o
 .rel.text.sunxi_clk_factors_set_rate
                0x4a0de670       0x10 arch/arm/cpu/armv7/spare_head.o
 .rel.text.sunxi_clk_fators_enable
                0x4a0de680        0x8 arch/arm/cpu/armv7/spare_head.o
 .rel.text.sunxi_clk_fators_disable
                0x4a0de688        0x8 arch/arm/cpu/armv7/spare_head.o
 .rel.text.sunxi_clk_get_factors_ops
                0x4a0de690        0x8 arch/arm/cpu/armv7/spare_head.o
 .rel.text.sunxi_clk_register_factors
                0x4a0de698       0x18 arch/arm/cpu/armv7/spare_head.o
 .rel.text.sunxi_clk_get_periph_ops
                0x00000000        0x0 arch/arm/cpu/armv7/spare_head.o
 .rel.text.sunxi_clk_register_periph
                0x4a0de6b0        0x8 arch/arm/cpu/armv7/spare_head.o
 .rel.text.__clk_enable
                0x4a0de6b8       0x10 arch/arm/cpu/armv7/spare_head.o
 .rel.text.__clk_lookup
                0x4a0de6c8        0x8 arch/arm/cpu/armv7/spare_head.o
 .rel.text.__clk_init
                0x4a0de6d0       0x48 arch/arm/cpu/armv7/spare_head.o
 .rel.text.clk_set_parent
                0x4a0de718       0x20 arch/arm/cpu/armv7/spare_head.o
 .rel.text.clk_set_rate
                0x4a0de738       0x10 arch/arm/cpu/armv7/spare_head.o
 .rel.text.clk_register
                0x4a0de748       0x10 arch/arm/cpu/armv7/spare_head.o
 .rel.text.of_pll_clk_config_setup
                0x4a0de758       0x60 arch/arm/cpu/armv7/spare_head.o
 .rel.text.of_periph_clk_config_setup
                0x4a0de7b8       0x68 arch/arm/cpu/armv7/spare_head.o
 .rel.text.of_clk_get
                0x4a0de820       0x48 arch/arm/cpu/armv7/spare_head.o
 .rel.text.clk_register_fixed_rate
                0x4a0de868       0x18 arch/arm/cpu/armv7/spare_head.o
 .rel.text.get_factors_pll_ddr1
                0x4a0de880       0x18 arch/arm/cpu/armv7/spare_head.o
 .rel.text.get_factors_pll_de
                0x4a0de898       0x18 arch/arm/cpu/armv7/spare_head.o
 .rel.text.get_factors_pll_gpu
                0x4a0de8b0       0x18 arch/arm/cpu/armv7/spare_head.o
 .rel.text.get_factors_pll_sata
                0x4a0de8c8       0x18 arch/arm/cpu/armv7/spare_head.o
 .rel.text.get_factors_pll_video1
                0x4a0de8e0       0x18 arch/arm/cpu/armv7/spare_head.o
 .rel.text.get_factors_pll_periph1
                0x4a0de8f8       0x18 arch/arm/cpu/armv7/spare_head.o
 .rel.text.get_factors_pll_periph0
                0x4a0de910       0x18 arch/arm/cpu/armv7/spare_head.o
 .rel.text.get_factors_pll_ddr0
                0x4a0de928       0x18 arch/arm/cpu/armv7/spare_head.o
 .rel.text.get_factors_pll_ve
                0x4a0de940       0x18 arch/arm/cpu/armv7/spare_head.o
 .rel.text.get_factors_pll_video0
                0x4a0de958       0x18 arch/arm/cpu/armv7/spare_head.o
 .rel.text.get_factors_pll_cpu
                0x4a0de970       0x18 arch/arm/cpu/armv7/spare_head.o
 .rel.text.sunxi_clk_factor_initlimits
                0x4a0de988       0xb0 arch/arm/cpu/armv7/spare_head.o
 .rel.text.init_clocks
                0x4a0dea38       0x58 arch/arm/cpu/armv7/spare_head.o
 .rel.rodata.sunxi_clk_factors_ops
                0x4a0dea90       0x30 arch/arm/cpu/armv7/spare_head.o
 .rel.rodata.sunxi_clk_periph_ops
                0x4a0deac0       0x40 arch/arm/cpu/armv7/spare_head.o
 .rel.data.clk_fixed_rate_ops
                0x4a0deb00        0x8 arch/arm/cpu/armv7/spare_head.o
 .rel.data.sunxi_clk_periph_ve
                0x4a0deb08        0x8 arch/arm/cpu/armv7/spare_head.o
 .rel.data.sunxi_clk_periph_pll_periphahb0
                0x4a0deb10        0x8 arch/arm/cpu/armv7/spare_head.o
 .rel.data.sunxi_clk_periph_tcon0
                0x4a0deb18        0x8 arch/arm/cpu/armv7/spare_head.o
 .rel.data.sunxi_clk_periph_usbohci212m
                0x4a0deb20        0x8 arch/arm/cpu/armv7/spare_head.o
 .rel.data.sunxi_clk_periph_tcon1
                0x4a0deb28        0x8 arch/arm/cpu/armv7/spare_head.o
 .rel.data.sunxi_clk_periph_spdif
                0x4a0deb30        0x8 arch/arm/cpu/armv7/spare_head.o
 .rel.data.sunxi_clk_periph_scr
                0x4a0deb38        0x8 arch/arm/cpu/armv7/spare_head.o
 .rel.data.ve_parents
                0x4a0deb40        0x8 arch/arm/cpu/armv7/spare_head.o
 .rel.data.sunxi_clk_periph_keypad
                0x4a0deb48        0x8 arch/arm/cpu/armv7/spare_head.o
 .rel.data.sunxi_clk_periph_usbohci1
                0x4a0deb50       0x10 arch/arm/cpu/armv7/spare_head.o
 .rel.data.sunxi_clk_periph_twi3
                0x4a0deb60        0x8 arch/arm/cpu/armv7/spare_head.o
 .rel.data.hosc_parents
                0x4a0deb68        0x8 arch/arm/cpu/armv7/spare_head.o
 .rel.data.lvds_parents
                0x4a0deb70        0x8 arch/arm/cpu/armv7/spare_head.o
 .rel.data.periphx2_parents
                0x4a0deb78       0x20 arch/arm/cpu/armv7/spare_head.o
 .rel.data.sunxi_clk_periph_tvd3
                0x4a0deb98        0x8 arch/arm/cpu/armv7/spare_head.o
 .rel.data.sunxi_clk_periph_hdmi_slow
                0x4a0deba0        0x8 arch/arm/cpu/armv7/spare_head.o
 .rel.data.sunxi_clk_periph_addax4
                0x4a0deba8       0x10 arch/arm/cpu/armv7/spare_head.o
 .rel.data.sunxi_clk_periph_sdmmc1_rst
                0x4a0debb8        0x8 arch/arm/cpu/armv7/spare_head.o
 .rel.data.sunxi_clk_periph_tcon_tv0
                0x4a0debc0        0x8 arch/arm/cpu/armv7/spare_head.o
 .rel.data.sunxi_clk_periph_tcon_tv1
                0x4a0debc8        0x8 arch/arm/cpu/armv7/spare_head.o
 .rel.data.sunxi_clk_periph_sata
                0x4a0debd0        0x8 arch/arm/cpu/armv7/spare_head.o
 .rel.data.i2s_parents
                0x4a0debd8       0x20 arch/arm/cpu/armv7/spare_head.o
 .rel.data.sunxi_clk_periph_sdmmc0_bus
                0x4a0debf8        0x8 arch/arm/cpu/armv7/spare_head.o
 .rel.data.sdram_parents
                0x4a0dec00       0x20 arch/arm/cpu/armv7/spare_head.o
 .rel.data.sunxi_clk_periph_ps20
                0x4a0dec20        0x8 arch/arm/cpu/armv7/spare_head.o
 .rel.data.sunxi_clk_periph_ps21
                0x4a0dec28        0x8 arch/arm/cpu/armv7/spare_head.o
 .rel.data.cpu_parents
                0x4a0dec30       0x20 arch/arm/cpu/armv7/spare_head.o
 .rel.data.periphx_parents
                0x4a0dec50       0x40 arch/arm/cpu/armv7/spare_head.o
 .rel.data.sunxi_clk_periph_sdmmc3_bus
                0x4a0dec90        0x8 arch/arm/cpu/armv7/spare_head.o
 .rel.data.sunxi_clk_periph_de
                0x4a0dec98        0x8 arch/arm/cpu/armv7/spare_head.o
 .rel.data.sunxi_periphs_init
                0x4a0deca0      0x9a8 arch/arm/cpu/armv7/spare_head.o
 .rel.data.sunxi_clk_periph_csi_s
                0x4a0df648        0x8 arch/arm/cpu/armv7/spare_head.o
 .rel.data.sunxi_clk_periph_sdmmc0_mod
                0x4a0df650        0x8 arch/arm/cpu/armv7/spare_head.o
 .rel.data.sunxi_clk_periph_uart1
                0x4a0df658        0x8 arch/arm/cpu/armv7/spare_head.o
 .rel.data.sunxi_clk_periph_uart2
                0x4a0df660        0x8 arch/arm/cpu/armv7/spare_head.o
 .rel.data.sunxi_clk_periph_uart0
                0x4a0df668        0x8 arch/arm/cpu/armv7/spare_head.o
 .rel.data.sunxi_clk_periph_uart5
                0x4a0df670        0x8 arch/arm/cpu/armv7/spare_head.o
 .rel.data.sunxi_clk_periph_uart6
                0x4a0df678        0x8 arch/arm/cpu/armv7/spare_head.o
 .rel.data.sunxi_clk_periph_nand
                0x4a0df680        0x8 arch/arm/cpu/armv7/spare_head.o
 .rel.data.ths_parents
                0x4a0df688       0x20 arch/arm/cpu/armv7/spare_head.o
 .rel.data.sunxi_clk_periph_uart4
                0x4a0df6a8        0x8 arch/arm/cpu/armv7/spare_head.o
 .rel.data.pll_periphahb0_parents
                0x4a0df6b0        0x8 arch/arm/cpu/armv7/spare_head.o
 .rel.data.sunxi_clk_periph_tvd0
                0x4a0df6b8        0x8 arch/arm/cpu/armv7/spare_head.o
 .rel.data.sunxi_factos
                0x4a0df6c0      0x210 arch/arm/cpu/armv7/spare_head.o
 .rel.data.sunxi_clk_periph_uart3
                0x4a0df8d0        0x8 arch/arm/cpu/armv7/spare_head.o
 .rel.data.sunxi_clk_periph_tvd2
                0x4a0df8d8        0x8 arch/arm/cpu/armv7/spare_head.o
 .rel.data.sunxi_clk_periph_losc_out
                0x4a0df8e0        0x8 arch/arm/cpu/armv7/spare_head.o
 .rel.data.periph_parents
                0x4a0df8e8       0x20 arch/arm/cpu/armv7/spare_head.o
 .rel.data.de_parents
                0x4a0df908       0x40 arch/arm/cpu/armv7/spare_head.o
 .rel.data.sunxi_clk_periph_ac97
                0x4a0df948        0x8 arch/arm/cpu/armv7/spare_head.o
 .rel.data.sunxi_clk_periph_uart7
                0x4a0df950        0x8 arch/arm/cpu/armv7/spare_head.o
 .rel.data.sunxi_clk_periph_can
                0x4a0df958        0x8 arch/arm/cpu/armv7/spare_head.o
 .rel.data.com_gates
                0x4a0df960       0x28 arch/arm/cpu/armv7/spare_head.o
 .rel.data.sunxi_clk_periph_spi1
                0x4a0df988        0x8 arch/arm/cpu/armv7/spare_head.o
 .rel.data.adda_parents
                0x4a0df990        0x8 arch/arm/cpu/armv7/spare_head.o
 .rel.data.sunxi_clk_periph_cpu
                0x4a0df998        0x8 arch/arm/cpu/armv7/spare_head.o
 .rel.data.sunxi_clk_periph_dma
                0x4a0df9a0        0x8 arch/arm/cpu/armv7/spare_head.o
 .rel.data.sunxi_clk_periph_pio
                0x4a0df9a8        0x8 arch/arm/cpu/armv7/spare_head.o
 .rel.data.sunxi_clk_periph_emac
                0x4a0df9b0        0x8 arch/arm/cpu/armv7/spare_head.o
 .rel.data.sunxi_clk_periph_usbohci0
                0x4a0df9b8       0x10 arch/arm/cpu/armv7/spare_head.o
 .rel.data.sunxi_clk_periph_usbohci2
                0x4a0df9c8       0x10 arch/arm/cpu/armv7/spare_head.o
 .rel.data.tcon_parents
                0x4a0df9d8       0x40 arch/arm/cpu/armv7/spare_head.o
 .rel.data.keypad_parents
                0x4a0dfa18       0x20 arch/arm/cpu/armv7/spare_head.o
 .rel.data.hdmi_parents
                0x4a0dfa38       0x20 arch/arm/cpu/armv7/spare_head.o
 .rel.data.sunxi_clk_periph_gmac
                0x4a0dfa58        0x8 arch/arm/cpu/armv7/spare_head.o
 .rel.data.sunxi_clk_periph_spi3
                0x4a0dfa60        0x8 arch/arm/cpu/armv7/spare_head.o
 .rel.data.sunxi_clk_periph_cpuapb
                0x4a0dfa68        0x8 arch/arm/cpu/armv7/spare_head.o
 .rel.data.sunxi_clk_periph_sdmmc2_rst
                0x4a0dfa70        0x8 arch/arm/cpu/armv7/spare_head.o
 .rel.data.sunxi_clk_periph_sdram
                0x4a0dfa78        0x8 arch/arm/cpu/armv7/spare_head.o
 .rel.data.apb1mod_parents
                0x4a0dfa80        0x8 arch/arm/cpu/armv7/spare_head.o
 .rel.data.sunxi_clk_periph_spi0
                0x4a0dfa88        0x8 arch/arm/cpu/armv7/spare_head.o
 .rel.data.mipi_parents
                0x4a0dfa90       0x10 arch/arm/cpu/armv7/spare_head.o
 .rel.data.sunxi_clk_periph_sdmmc1_bus
                0x4a0dfaa0        0x8 arch/arm/cpu/armv7/spare_head.o
 .rel.data.sunxi_clk_periph_usbohci012m
                0x4a0dfaa8        0x8 arch/arm/cpu/armv7/spare_head.o
 .rel.data.sunxi_clk_periph_tvd1
                0x4a0dfab0        0x8 arch/arm/cpu/armv7/spare_head.o
 .rel.data.sunxi_clk_periph_tcon_top
                0x4a0dfab8        0x8 arch/arm/cpu/armv7/spare_head.o
 .rel.data.sunxi_clk_periph_i2s0
                0x4a0dfac0        0x8 arch/arm/cpu/armv7/spare_head.o
 .rel.data.sunxi_clk_periph_i2s1
                0x4a0dfac8        0x8 arch/arm/cpu/armv7/spare_head.o
 .rel.data.sunxi_clk_periph_i2s2
                0x4a0dfad0        0x8 arch/arm/cpu/armv7/spare_head.o
 .rel.data.sunxi_clk_periph_ts
                0x4a0dfad8        0x8 arch/arm/cpu/armv7/spare_head.o
 .rel.data.sunxi_clk_periph_ths
                0x4a0dfae0        0x8 arch/arm/cpu/armv7/spare_head.o
 .rel.data.sunxi_clk_periph_sdmmc3_mod
                0x4a0dfae8        0x8 arch/arm/cpu/armv7/spare_head.o
 .rel.data.outx_parents
                0x4a0dfaf0       0x20 arch/arm/cpu/armv7/spare_head.o
 .rel.data.sunxi_clk_periph_sdmmc1_mod
                0x4a0dfb10        0x8 arch/arm/cpu/armv7/spare_head.o
 .rel.data.sunxi_clk_periph_mipidsi
                0x4a0dfb18        0x8 arch/arm/cpu/armv7/spare_head.o
 .rel.data.apb2mod_parents
                0x4a0dfb20        0x8 arch/arm/cpu/armv7/spare_head.o
 .rel.data.sunxi_clk_periph_twi4
                0x4a0dfb28        0x8 arch/arm/cpu/armv7/spare_head.o
 .rel.data.sunxi_clk_periph_tvd_top
                0x4a0dfb30        0x8 arch/arm/cpu/armv7/spare_head.o
 .rel.data.sunxi_clk_periph_ir0
                0x4a0dfb38        0x8 arch/arm/cpu/armv7/spare_head.o
 .rel.data.sunxi_clk_periph_deinterlace
                0x4a0dfb40        0x8 arch/arm/cpu/armv7/spare_head.o
 .rel.data.apb1_parents
                0x4a0dfb48        0x8 arch/arm/cpu/armv7/spare_head.o
 .rel.data.sata_parents
                0x4a0dfb50       0x10 arch/arm/cpu/armv7/spare_head.o
 .rel.data.sunxi_clk_periph_usbotg
                0x4a0dfb60        0x8 arch/arm/cpu/armv7/spare_head.o
 .rel.data.sunxi_clk_periph_usbphy1
                0x4a0dfb68        0x8 arch/arm/cpu/armv7/spare_head.o
 .rel.data.sunxi_clk_periph_lvds
                0x4a0dfb70        0x8 arch/arm/cpu/armv7/spare_head.o
 .rel.data.ahb1mod_parents
                0x4a0dfb78        0x8 arch/arm/cpu/armv7/spare_head.o
 .rel.data.apb2_parents
                0x4a0dfb80       0x20 arch/arm/cpu/armv7/spare_head.o
 .rel.data.sunxi_clk_periph_usbphy0
                0x4a0dfba0        0x8 arch/arm/cpu/armv7/spare_head.o
 .rel.data.axi_parents
                0x4a0dfba8        0x8 arch/arm/cpu/armv7/spare_head.o
 .rel.data.sunxi_clk_periph_usbphy2
                0x4a0dfbb0        0x8 arch/arm/cpu/armv7/spare_head.o
 .rel.data.sunxi_clk_periph_csi1_m
                0x4a0dfbb8        0x8 arch/arm/cpu/armv7/spare_head.o
 .rel.data.sunxi_clk_periph_spi2
                0x4a0dfbc0        0x8 arch/arm/cpu/armv7/spare_head.o
 .rel.data.sunxi_clk_periph_axi
                0x4a0dfbc8        0x8 arch/arm/cpu/armv7/spare_head.o
 .rel.data.sunxi_clk_periph_avs
                0x4a0dfbd0        0x8 arch/arm/cpu/armv7/spare_head.o
 .rel.data.mipidsi_parents
                0x4a0dfbd8       0x20 arch/arm/cpu/armv7/spare_head.o
 .rel.data.losc_parents
                0x4a0dfbf8        0x8 arch/arm/cpu/armv7/spare_head.o
 .rel.data.addax4_parents
                0x4a0dfc00        0x8 arch/arm/cpu/armv7/spare_head.o
 .rel.data.sunxi_clk_periph_twi0
                0x4a0dfc08        0x8 arch/arm/cpu/armv7/spare_head.o
 .rel.data.sunxi_clk_periph_twi1
                0x4a0dfc10        0x8 arch/arm/cpu/armv7/spare_head.o
 .rel.data.sunxi_clk_periph_twi2
                0x4a0dfc18        0x8 arch/arm/cpu/armv7/spare_head.o
 .rel.data.sunxi_clk_periph_ahb1
                0x4a0dfc20        0x8 arch/arm/cpu/armv7/spare_head.o
 .rel.data.ts_parents
                0x4a0dfc28       0x80 arch/arm/cpu/armv7/spare_head.o
 .rel.data.sunxi_clk_periph_hdmi
                0x4a0dfca8        0x8 arch/arm/cpu/armv7/spare_head.o
 .rel.data.sunxi_clk_periph_apb1
                0x4a0dfcb0        0x8 arch/arm/cpu/armv7/spare_head.o
 .rel.data.sunxi_clk_periph_apb2
                0x4a0dfcb8        0x8 arch/arm/cpu/armv7/spare_head.o
 .rel.data.sunxi_clk_periph_usbohci112m
                0x4a0dfcc0        0x8 arch/arm/cpu/armv7/spare_head.o
 .rel.data.sunxi_clk_periph_outa
                0x4a0dfcc8        0x8 arch/arm/cpu/armv7/spare_head.o
 .rel.data.sunxi_clk_periph_sdmmc0_rst
                0x4a0dfcd0        0x8 arch/arm/cpu/armv7/spare_head.o
 .rel.data.sunxi_clk_periph_tve1
                0x4a0dfcd8        0x8 arch/arm/cpu/armv7/spare_head.o
 .rel.data.ir_parents
                0x4a0dfce0       0x20 arch/arm/cpu/armv7/spare_head.o
 .rel.data.cpuapb_parents
                0x4a0dfd00        0x8 arch/arm/cpu/armv7/spare_head.o
 .rel.data.sunxi_clk_periph_outb
                0x4a0dfd08        0x8 arch/arm/cpu/armv7/spare_head.o
 .rel.data.sunxi_clk_periph_mbus
                0x4a0dfd10        0x8 arch/arm/cpu/armv7/spare_head.o
 .rel.data.gpu_parents
                0x4a0dfd18        0x8 arch/arm/cpu/armv7/spare_head.o
 .rel.data.sunxi_clk_periph_sdmmc3_rst
                0x4a0dfd20        0x8 arch/arm/cpu/armv7/spare_head.o
 .rel.data.sunxi_clk_periph_csi0_m
                0x4a0dfd28        0x8 arch/arm/cpu/armv7/spare_head.o
 .rel.data.sunxi_clk_periph_sdmmc2_bus
                0x4a0dfd30        0x8 arch/arm/cpu/armv7/spare_head.o
 .rel.data.tvd_parents
                0x4a0dfd38       0x40 arch/arm/cpu/armv7/spare_head.o
 .rel.data.sunxi_clk_periph_adda
                0x4a0dfd78       0x10 arch/arm/cpu/armv7/spare_head.o
 .rel.data.mbus_parents
                0x4a0dfd88       0x20 arch/arm/cpu/armv7/spare_head.o
 .rel.data.sunxi_clk_periph_de_mp
                0x4a0dfda8        0x8 arch/arm/cpu/armv7/spare_head.o
 .rel.data.ahb1_parents
                0x4a0dfdb0       0x20 arch/arm/cpu/armv7/spare_head.o
 .rel.data.sunxi_clk_periph_usbehci0
                0x4a0dfdd0       0x10 arch/arm/cpu/armv7/spare_head.o
 .rel.data.sunxi_clk_periph_usbehci1
                0x4a0dfde0       0x10 arch/arm/cpu/armv7/spare_head.o
 .rel.data.sunxi_clk_periph_sdmmc2_mod
                0x4a0dfdf0        0x8 arch/arm/cpu/armv7/spare_head.o
 .rel.data.csi_m_parents
                0x4a0dfdf8       0x40 arch/arm/cpu/armv7/spare_head.o
 .rel.data.sunxi_clk_periph_usbehci2
                0x4a0dfe38       0x10 arch/arm/cpu/armv7/spare_head.o
 .rel.data.usbohci12m_parents
                0x4a0dfe48       0x20 arch/arm/cpu/armv7/spare_head.o
 .rel.data.sunxi_clk_periph_ce
                0x4a0dfe68        0x8 arch/arm/cpu/armv7/spare_head.o
 .rel.data.sunxi_clk_periph_ir1
                0x4a0dfe70        0x8 arch/arm/cpu/armv7/spare_head.o
 .rel.data.sunxi_clk_periph_tve_top
                0x4a0dfe78        0x8 arch/arm/cpu/armv7/spare_head.o
 .rel.data.sunxi_clk_periph_tve0
                0x4a0dfe80        0x8 arch/arm/cpu/armv7/spare_head.o
 .rel.data.sunxi_clk_periph_gpu
                0x4a0dfe88        0x8 arch/arm/cpu/armv7/spare_head.o
 .rel.text.sunxi_dma_int_func
                0x4a0dfe90        0x8 arch/arm/cpu/armv7/spare_head.o
 .rel.text.sunxi_dma_init
                0x4a0dfe98       0x20 arch/arm/cpu/armv7/spare_head.o
 .rel.text.sunxi_dma_request_from_last
                0x00000000        0x0 arch/arm/cpu/armv7/spare_head.o
 .rel.text.sunxi_dma_request
                0x4a0dfeb8        0x8 arch/arm/cpu/armv7/spare_head.o
 .rel.text.sunxi_dma_install_int
                0x4a0dfec0        0x8 arch/arm/cpu/armv7/spare_head.o
 .rel.text.sunxi_dma_enable_int
                0x4a0dfec8       0x10 arch/arm/cpu/armv7/spare_head.o
 .rel.text.sunxi_dma_disable_int
                0x4a0dfed8        0x8 arch/arm/cpu/armv7/spare_head.o
 .rel.text.sunxi_dma_exit
                0x4a0dfee0       0x10 arch/arm/cpu/armv7/spare_head.o
 .rel.text.gic_distributor_init
                0x4a0dfef0        0x8 arch/arm/cpu/armv7/spare_head.o
 .rel.text.default_isr
                0x4a0dfef8        0x8 arch/arm/cpu/armv7/spare_head.o
 .rel.text.irq_enable
                0x4a0dff00        0x8 arch/arm/cpu/armv7/spare_head.o
 .rel.text.irq_disable
                0x4a0dff08        0x8 arch/arm/cpu/armv7/spare_head.o
 .rel.text.irq_install_handler
                0x4a0dff10        0x8 arch/arm/cpu/armv7/spare_head.o
 .rel.text.irq_free_handler
                0x4a0dff18       0x10 arch/arm/cpu/armv7/spare_head.o
 .rel.text.do_irq
                0x4a0dff28       0x30 arch/arm/cpu/armv7/spare_head.o
 .rel.text.do_irqinfo
                0x4a0dff58       0x20 arch/arm/cpu/armv7/spare_head.o
 .rel.text.arch_interrupt_init
                0x4a0dff78       0x20 arch/arm/cpu/armv7/spare_head.o
 .rel.text.twi_send_slave_addr
                0x4a0dff98        0x8 arch/arm/cpu/armv7/spare_head.o
 .rel.text.twi_send_addr
                0x4a0dffa0        0x8 arch/arm/cpu/armv7/spare_head.o
 .rel.text.twi_stop
                0x4a0dffa8       0x20 arch/arm/cpu/armv7/spare_head.o
 .rel.text.twi_start
                0x4a0dffc8       0x18 arch/arm/cpu/armv7/spare_head.o
 .rel.text.sunxi_i2c_write
                0x4a0dffe0        0x8 arch/arm/cpu/armv7/spare_head.o
 .rel.text.sunxi_i2c_read
                0x4a0dffe8       0x18 arch/arm/cpu/armv7/spare_head.o
 .rel.text.sunxi_i2c_init
                0x4a0e0000       0x50 arch/arm/cpu/armv7/spare_head.o
 .rel.text.sunxi_i2c_exit
                0x00000000        0x0 arch/arm/cpu/armv7/spare_head.o
 .rel.text.i2c_read
                0x4a0e0050        0x8 arch/arm/cpu/armv7/spare_head.o
 .rel.text.i2c_write
                0x4a0e0058        0x8 arch/arm/cpu/armv7/spare_head.o
 .rel.text.i2c_init
                0x4a0e0060       0x30 arch/arm/cpu/armv7/spare_head.o
 .rel.data.i2c_read_pt
                0x4a0e0090        0x8 arch/arm/cpu/armv7/spare_head.o
 .rel.data.i2c_write_pt
                0x4a0e0098        0x8 arch/arm/cpu/armv7/spare_head.o
 .rel.text.input_send_keycodes
                0x00000000        0x0 arch/arm/cpu/armv7/spare_head.o
 .rel.text.input_init
                0x00000000        0x0 arch/arm/cpu/armv7/spare_head.o
 .rel.text.input_stdio_register
                0x00000000        0x0 arch/arm/cpu/armv7/spare_head.o
 .rel.text.key_matrix_decode_fdt
                0x00000000        0x0 arch/arm/cpu/armv7/spare_head.o
 .rel.rodata.kbd_to_ansi364
                0x00000000        0x0 arch/arm/cpu/armv7/spare_head.o
 .rel.text.sunxi_key_init
                0x00000000        0x0 arch/arm/cpu/armv7/spare_head.o
 .rel.text.sunxi_key_read
                0x4a0e00a0       0x10 arch/arm/cpu/armv7/spare_head.o
 .rel.text.do_key_test
                0x4a0e00b0       0x30 arch/arm/cpu/armv7/spare_head.o
 .rel.u_boot_list_2_cmd_2_key_test
                0x4a0e00e0       0x20 arch/arm/cpu/armv7/spare_head.o
 .rel.text.mmc_set_ios
                0x4a0e0100       0x18 arch/arm/cpu/armv7/spare_head.o
 .rel.text._mmc_life_time_est
                0x4a0e0118       0x68 arch/arm/cpu/armv7/spare_head.o
 .rel.text.mmc_mmc_parse_health_report
                0x4a0e0180       0x68 arch/arm/cpu/armv7/spare_head.o
 .rel.text.mmc_send_cmd
                0x4a0e01e8       0x70 arch/arm/cpu/armv7/spare_head.o
 .rel.text.mmc_go_idle
                0x4a0e0258        0x8 arch/arm/cpu/armv7/spare_head.o
 .rel.text.mmc_send_if_cond
                0x4a0e0260        0x8 arch/arm/cpu/armv7/spare_head.o
 .rel.text.sd_send_op_cond
                0x4a0e0268       0x18 arch/arm/cpu/armv7/spare_head.o
 .rel.text.mmc_send_op_cond_iter
                0x4a0e0280        0x8 arch/arm/cpu/armv7/spare_head.o
 .rel.text.mmc_send_status
                0x4a0e0288       0x28 arch/arm/cpu/armv7/spare_head.o
 .rel.text.mmc_send_manual_stop
                0x4a0e02b0        0x8 arch/arm/cpu/armv7/spare_head.o
 .rel.text.find_mmc_device
                0x4a0e02b8       0x10 arch/arm/cpu/armv7/spare_head.o
 .rel.text.mmc_bread
                0x4a0e02c8       0x50 arch/arm/cpu/armv7/spare_head.o
 .rel.text.mmc_send_op_cond
                0x4a0e0318        0x8 arch/arm/cpu/armv7/spare_head.o
 .rel.text.mmc_complete_op_cond
                0x4a0e0320       0x10 arch/arm/cpu/armv7/spare_head.o
 .rel.text.mmc_send_ext_csd
                0x4a0e0330        0x8 arch/arm/cpu/armv7/spare_head.o
 .rel.text.mmc_chk_emmc_hw_rst
                0x4a0e0338       0x10 arch/arm/cpu/armv7/spare_head.o
 .rel.text.mmc_decode_ext_csd
                0x4a0e0348        0x8 arch/arm/cpu/armv7/spare_head.o
 .rel.text.mmc_do_switch
                0x4a0e0350       0x18 arch/arm/cpu/armv7/spare_head.o
 .rel.text.mmc_en_emmc_hw_rst
                0x4a0e0368       0x30 arch/arm/cpu/armv7/spare_head.o
 .rel.text.mmc_mmc_switch_to_ds
                0x4a0e0398       0x20 arch/arm/cpu/armv7/spare_head.o
 .rel.text.mmc_mmc_switch_to_hs
                0x4a0e03b8       0x20 arch/arm/cpu/armv7/spare_head.o
 .rel.text.mmc_mmc_switch_to_hs200
                0x4a0e03d8       0x20 arch/arm/cpu/armv7/spare_head.o
 .rel.text.mmc_mmc_switch_to_hs400
                0x4a0e03f8       0x20 arch/arm/cpu/armv7/spare_head.o
 .rel.text.mmc_mmc_switch_speed_mode
                0x4a0e0418        0x8 arch/arm/cpu/armv7/spare_head.o
 .rel.text.mmc_mmc_switch_bus_width
                0x4a0e0420       0x18 arch/arm/cpu/armv7/spare_head.o
 .rel.text.mmc_mmc_switch_bus_mode
                0x4a0e0438       0x10 arch/arm/cpu/armv7/spare_head.o
 .rel.text.mmc_startup
                0x4a0e0448      0x298 arch/arm/cpu/armv7/spare_head.o
 .rel.text.mmc_switch_boot_bus_cond
                0x4a0e06e0       0x20 arch/arm/cpu/armv7/spare_head.o
 .rel.text.mmc_switch_boot_part
                0x4a0e0700       0x20 arch/arm/cpu/armv7/spare_head.o
 .rel.text.mmc_switch_part
                0x4a0e0720       0x20 arch/arm/cpu/armv7/spare_head.o
 .rel.text.mmc_select_hwpart
                0x4a0e0740        0x8 arch/arm/cpu/armv7/spare_head.o
 .rel.text.mmc_register
                0x00000000        0x0 arch/arm/cpu/armv7/spare_head.o
 .rel.text.mmc_create
                0x4a0e0748       0x28 arch/arm/cpu/armv7/spare_head.o
 .rel.text.mmc_start_init
                0x4a0e0770       0x70 arch/arm/cpu/armv7/spare_head.o
 .rel.text.mmc_update_config_for_dragonboard
                0x4a0e07e0       0xc0 arch/arm/cpu/armv7/spare_head.o
 .rel.text.mmc_update_config_for_sdly
                0x4a0e08a0      0x170 arch/arm/cpu/armv7/spare_head.o
 .rel.text.mmc_init_boot
                0x4a0e0a10       0x58 arch/arm/cpu/armv7/spare_head.o
 .rel.text.mmc_init_product
                0x4a0e0a68       0x60 arch/arm/cpu/armv7/spare_head.o
 .rel.text.mmc_init
                0x4a0e0ac8       0x18 arch/arm/cpu/armv7/spare_head.o
 .rel.text.print_mmc_devices
                0x4a0e0ae0       0x20 arch/arm/cpu/armv7/spare_head.o
 .rel.text.get_mmc_num
                0x4a0e0b00        0x8 arch/arm/cpu/armv7/spare_head.o
 .rel.text.mmc_initialize
                0x4a0e0b08       0x10 arch/arm/cpu/armv7/spare_head.o
 .rel.text.mmc_exit
                0x4a0e0b18       0x40 arch/arm/cpu/armv7/spare_head.o
 .rel.text.sunxi_mmc_init
                0x4a0e0b58      0x338 arch/arm/cpu/armv7/spare_head.o
 .rel.text.sunxi_mmc_exit
                0x00000000        0x0 arch/arm/cpu/armv7/spare_head.o
 .rel.text.mmc_set_erase_start_addr
                0x4a0e0e90       0x10 arch/arm/cpu/armv7/spare_head.o
 .rel.text.mmc_set_erase_end_addr
                0x4a0e0ea0       0x10 arch/arm/cpu/armv7/spare_head.o
 .rel.text.mmc_mmc_def_erase_timeout
                0x4a0e0eb0       0x10 arch/arm/cpu/armv7/spare_head.o
 .rel.text.mmc_mmc_update_timeout
                0x4a0e0ec0       0x10 arch/arm/cpu/armv7/spare_head.o
 .rel.text.mmc_mmc_erase_timeout
                0x4a0e0ed0       0x28 arch/arm/cpu/armv7/spare_head.o
 .rel.text.mmc_do_erase
                0x4a0e0ef8       0x20 arch/arm/cpu/armv7/spare_head.o
 .rel.text.mmc_align_erase_group
                0x4a0e0f18       0x10 arch/arm/cpu/armv7/spare_head.o
 .rel.text.mmc_erase
                0x4a0e0f28       0x38 arch/arm/cpu/armv7/spare_head.o
 .rel.text.mmc_do_sanitize
                0x4a0e0f60       0x18 arch/arm/cpu/armv7/spare_head.o
 .rel.text.mmc_insecure_secure_erase
                0x4a0e0f78       0x10 arch/arm/cpu/armv7/spare_head.o
 .rel.text.mmc_do_secure_wipe
                0x4a0e0f88       0x60 arch/arm/cpu/armv7/spare_head.o
 .rel.text.mmc_secure_wipe
                0x4a0e0fe8       0x40 arch/arm/cpu/armv7/spare_head.o
 .rel.text.mmc_mmc_erase
                0x4a0e1028       0x50 arch/arm/cpu/armv7/spare_head.o
 .rel.text.mmc_mmc_sanitize
                0x4a0e1078       0x20 arch/arm/cpu/armv7/spare_head.o
 .rel.text.mmc_mmc_trim
                0x4a0e1098       0x38 arch/arm/cpu/armv7/spare_head.o
 .rel.text.mmc_mmc_discard
                0x4a0e10d0       0x38 arch/arm/cpu/armv7/spare_head.o
 .rel.text.mmc_mmc_secure_erase
                0x4a0e1108       0x38 arch/arm/cpu/armv7/spare_head.o
 .rel.text.mmc_mmc_secure_trim
                0x4a0e1140       0x38 arch/arm/cpu/armv7/spare_head.o
 .rel.text.mmc_bwrite
                0x4a0e1178       0x38 arch/arm/cpu/armv7/spare_head.o
 .rel.text.mmc_berase
                0x4a0e11b0       0x20 arch/arm/cpu/armv7/spare_head.o
 .rel.text.mmc_align_wp_grp
                0x4a0e11d0       0x18 arch/arm/cpu/armv7/spare_head.o
 .rel.text.mmc_enable_bootop
                0x4a0e11e8       0x40 arch/arm/cpu/armv7/spare_head.o
 .rel.text.mmc_bread_mass_pro
                0x4a0e1228       0x28 arch/arm/cpu/armv7/spare_head.o
 .rel.text.mmc_read_bootp
                0x4a0e1250       0x38 arch/arm/cpu/armv7/spare_head.o
 .rel.text.mmc_mmc_user_get_wp_grp_size
                0x4a0e1288       0x10 arch/arm/cpu/armv7/spare_head.o
 .rel.text.mmc_send_wp_type
                0x4a0e1298        0x8 arch/arm/cpu/armv7/spare_head.o
 .rel.text.mmc_get_current_wp_info
                0x4a0e12a0       0x38 arch/arm/cpu/armv7/spare_head.o
 .rel.text.mmc_set_wp
                0x4a0e12d8        0x8 arch/arm/cpu/armv7/spare_head.o
 .rel.text.mmc_set_one_permanent_wp
                0x4a0e12e0       0x28 arch/arm/cpu/armv7/spare_head.o
 .rel.text.mmc_set_one_temporary_wp
                0x4a0e1308       0x30 arch/arm/cpu/armv7/spare_head.o
 .rel.text.mmc_set_one_poweron_wp
                0x4a0e1338       0x28 arch/arm/cpu/armv7/spare_head.o
 .rel.text.mmc_user_write_protect
                0x4a0e1360       0x58 arch/arm/cpu/armv7/spare_head.o
 .rel.text.mmc_mmc_user_write_protect
                0x4a0e13b8       0x38 arch/arm/cpu/armv7/spare_head.o
 .rel.text.mmc_user_clr_tem_write_protect
                0x4a0e13f0       0x48 arch/arm/cpu/armv7/spare_head.o
 .rel.text.mmc_clr_tem_wp
                0x4a0e1438       0x38 arch/arm/cpu/armv7/spare_head.o
 .rel.text.mmc_user_scan_wp_sta
                0x4a0e1470       0x70 arch/arm/cpu/armv7/spare_head.o
 .rel.text.mmc_flush_cache
                0x4a0e14e0        0x8 arch/arm/cpu/armv7/spare_head.o
 .rel.text.mmc_cache_ctrl
                0x4a0e14e8       0x20 arch/arm/cpu/armv7/spare_head.o
 .rel.text.mmc_do_burn_boot
                0x4a0e1508       0x30 arch/arm/cpu/armv7/spare_head.o
 .rel.text.mmc_bwrite_mass_pro
                0x4a0e1538       0x38 arch/arm/cpu/armv7/spare_head.o
 .rel.text.mmc_write_bootp
                0x4a0e1570       0x38 arch/arm/cpu/armv7/spare_head.o
 .rel.text.mmc_init_blk_ops
                0x4a0e15a8       0x98 arch/arm/cpu/armv7/spare_head.o
 .rel.text._skip_curr_freq
                0x4a0e1640       0x28 arch/arm/cpu/armv7/spare_head.o
 .rel.text._get_best_sdly
                0x4a0e1668       0x18 arch/arm/cpu/armv7/spare_head.o
 .rel.text.gen_pat_bus4_1bit
                0x4a0e1680        0x8 arch/arm/cpu/armv7/spare_head.o
 .rel.text.gen_pat_bus8_1bit
                0x4a0e1688        0x8 arch/arm/cpu/armv7/spare_head.o
 .rel.text.gen_tuning_blk_bus8
                0x4a0e1690       0x28 arch/arm/cpu/armv7/spare_head.o
 .rel.text.gen_tuning_blk_bus4
                0x4a0e16b8       0x28 arch/arm/cpu/armv7/spare_head.o
 .rel.text.sunxi_mmc_tuning_init
                0x4a0e16e0       0x20 arch/arm/cpu/armv7/spare_head.o
 .rel.text.sunxi_mmc_tuning_exit
                0x4a0e1700        0x8 arch/arm/cpu/armv7/spare_head.o
 .rel.text.sunxi_select_freq
                0x4a0e1708       0x40 arch/arm/cpu/armv7/spare_head.o
 .rel.text.sunxi_need_rty
                0x4a0e1748        0x8 arch/arm/cpu/armv7/spare_head.o
 .rel.text.write_tuning_try_freq
                0x4a0e1750       0x70 arch/arm/cpu/armv7/spare_head.o
 .rel.text.sunxi_write_tuning
                0x4a0e17c0        0x8 arch/arm/cpu/armv7/spare_head.o
 .rel.text.sunxi_execute_tuning
                0x4a0e17c8       0xe0 arch/arm/cpu/armv7/spare_head.o
 .rel.text.sunxi_pack_tuning_result
                0x4a0e18a8       0x10 arch/arm/cpu/armv7/spare_head.o
 .rel.text.sunxi_bus_tuning
                0x4a0e18b8       0x50 arch/arm/cpu/armv7/spare_head.o
 .rel.text.sunxi_switch_to_best_bus
                0x4a0e1908       0x58 arch/arm/cpu/armv7/spare_head.o
 .rel.text.mmc_request_update_boot0
                0x00000000        0x0 arch/arm/cpu/armv7/spare_head.o
 .rel.text.mmc_write_info
                0x4a0e1960       0x20 arch/arm/cpu/armv7/spare_head.o
 .rel.text.sunxi_decide_rty
                0x4a0e1980       0x18 arch/arm/cpu/armv7/spare_head.o
 .rel.text.mmc_update_clk
                0x4a0e1998       0x10 arch/arm/cpu/armv7/spare_head.o
 .rel.text.mmc_get_mclk
                0x4a0e19a8       0x10 arch/arm/cpu/armv7/spare_head.o
 .rel.text.mmc_config_clock_modex
                0x4a0e19b8       0x10 arch/arm/cpu/armv7/spare_head.o
 .rel.text.mmc_core_init
                0x4a0e19c8       0x40 arch/arm/cpu/armv7/spare_head.o
 .rel.text.mmc_dump_errinfo
                0x4a0e1a08       0x68 arch/arm/cpu/armv7/spare_head.o
 .rel.text.mmc_clk_io_onoff
                0x4a0e1a70        0x8 arch/arm/cpu/armv7/spare_head.o
 .rel.rodata.sunxi_mmc_ops
                0x4a0e1a78       0x30 arch/arm/cpu/armv7/spare_head.o
 .rel.data.mmc_devices
                0x4a0e1aa8       0x10 arch/arm/cpu/armv7/spare_head.o
 .rel.data.spd_name
                0x4a0e1ab8       0x28 arch/arm/cpu/armv7/spare_head.o
 .rel.text.sunxi_axp_dummy_init
                0x00000000        0x0 arch/arm/cpu/armv7/spare_head.o
 .rel.text.axp_probe
                0x4a0e1ae0       0x18 arch/arm/cpu/armv7/spare_head.o
 .rel.text.axp_reinit
                0x4a0e1af8       0x18 arch/arm/cpu/armv7/spare_head.o
 .rel.text.axp_probe_startup_cause
                0x4a0e1b10        0x8 arch/arm/cpu/armv7/spare_head.o
 .rel.text.axp_set_hardware_poweron_vol
                0x4a0e1b18       0x18 arch/arm/cpu/armv7/spare_head.o
 .rel.text.axp_set_hardware_poweroff_vol
                0x4a0e1b30       0x18 arch/arm/cpu/armv7/spare_head.o
 .rel.text.axp_set_power_off
                0x4a0e1b48       0x10 arch/arm/cpu/armv7/spare_head.o
 .rel.text.axp_probe_factory_mode
                0x4a0e1b58       0x28 arch/arm/cpu/armv7/spare_head.o
 .rel.text.axp_set_next_poweron_status
                0x4a0e1b80        0x8 arch/arm/cpu/armv7/spare_head.o
 .rel.text.axp_probe_pre_sys_mode
                0x4a0e1b88        0x8 arch/arm/cpu/armv7/spare_head.o
 .rel.text.axp_power_get_dcin_battery_exist
                0x00000000        0x0 arch/arm/cpu/armv7/spare_head.o
 .rel.text.axp_probe_battery_exist
                0x4a0e1b90        0x8 arch/arm/cpu/armv7/spare_head.o
 .rel.text.axp_probe_power_source
                0x4a0e1b98        0x8 arch/arm/cpu/armv7/spare_head.o
 .rel.text.axp_probe_battery_vol
                0x4a0e1ba0        0x8 arch/arm/cpu/armv7/spare_head.o
 .rel.text.axp_probe_rest_battery_capacity
                0x4a0e1ba8        0x8 arch/arm/cpu/armv7/spare_head.o
 .rel.text.axp_probe_key
                0x4a0e1bb0        0x8 arch/arm/cpu/armv7/spare_head.o
 .rel.text.axp_probe_charge_current
                0x00000000        0x0 arch/arm/cpu/armv7/spare_head.o
 .rel.text.axp_set_charge_current
                0x00000000        0x0 arch/arm/cpu/armv7/spare_head.o
 .rel.text.axp_set_charge_control
                0x00000000        0x0 arch/arm/cpu/armv7/spare_head.o
 .rel.text.axp_set_vbus_limit_dc
                0x00000000        0x0 arch/arm/cpu/armv7/spare_head.o
 .rel.text.axp_set_vbus_limit_pc
                0x4a0e1bb8       0x18 arch/arm/cpu/armv7/spare_head.o
 .rel.text.axp_set_suspend_chgcur
                0x00000000        0x0 arch/arm/cpu/armv7/spare_head.o
 .rel.text.axp_set_runtime_chgcur
                0x4a0e1bd0        0x8 arch/arm/cpu/armv7/spare_head.o
 .rel.text.axp_set_charge_vol_limit
                0x4a0e1bd8       0x18 arch/arm/cpu/armv7/spare_head.o
 .rel.text.axp_set_power_supply_output
                0x4a0e1bf0       0x28 arch/arm/cpu/armv7/spare_head.o
 .rel.text.axp_slave_set_power_supply_output
                0x00000000        0x0 arch/arm/cpu/armv7/spare_head.o
 .rel.text.axp_probe_power_supply_condition
                0x4a0e1c18       0x18 arch/arm/cpu/armv7/spare_head.o
 .rel.text.axp_set_supply_status
                0x4a0e1c30        0x8 arch/arm/cpu/armv7/spare_head.o
 .rel.text.axp_set_supply_status_byname
                0x4a0e1c38       0x10 arch/arm/cpu/armv7/spare_head.o
 .rel.text.axp_probe_supply_status
                0x00000000        0x0 arch/arm/cpu/armv7/spare_head.o
 .rel.text.axp_probe_supply_status_byname
                0x00000000        0x0 arch/arm/cpu/armv7/spare_head.o
 .rel.text.axp_set_supply_status_byregulator
                0x4a0e1c48       0x38 arch/arm/cpu/armv7/spare_head.o
 .rel.text.axp_probe_supply_pmu_name
                0x00000000        0x0 arch/arm/cpu/armv7/spare_head.o
 .rel.text.axp_probe_vbus_cur_limit
                0x00000000        0x0 arch/arm/cpu/armv7/spare_head.o
 .rel.text.axp_set_coulombmeter_onoff
                0x4a0e1c80        0x8 arch/arm/cpu/armv7/spare_head.o
 .rel.text.axp20_probe_vbus_cur_limit
                0x4a0e1c88       0x20 arch/arm/cpu/armv7/spare_head.o
 .rel.text.axp20_set_power_off
                0x4a0e1ca8       0x18 arch/arm/cpu/armv7/spare_head.o
 .rel.text.axp20_probe
                0x4a0e1cc0       0x10 arch/arm/cpu/armv7/spare_head.o
 .rel.text.axp20_set_power_on_vol
                0x4a0e1cd0        0x8 arch/arm/cpu/armv7/spare_head.o
 .rel.text.axp20_set_power_off_vol
                0x4a0e1cd8        0x8 arch/arm/cpu/armv7/spare_head.o
 .rel.text.axp20_set_gpio0ldo
                0x4a0e1ce0        0x8 arch/arm/cpu/armv7/spare_head.o
 .rel.text.axp20_set_dcdc_output.isra.12
                0x4a0e1ce8       0x40 arch/arm/cpu/armv7/spare_head.o
 .rel.text.axp20_set_gpioldo_output.part.16
                0x4a0e1d28        0x8 arch/arm/cpu/armv7/spare_head.o
 .rel.text.axp20_set_supply_status_byname
                0x4a0e1d30       0x68 arch/arm/cpu/armv7/spare_head.o
 .rel.text.axp22_probe_vbus_cur_limit
                0x4a0e1d98       0x18 arch/arm/cpu/armv7/spare_head.o
 .rel.text.axp22_probe
                0x4a0e1db0       0x10 arch/arm/cpu/armv7/spare_head.o
 .rel.text.axp22_usb_vbus_output
                0x4a0e1dc0       0x10 arch/arm/cpu/armv7/spare_head.o
 .rel.text.axp22_set_dcdc_output
                0x4a0e1dd0       0x78 arch/arm/cpu/armv7/spare_head.o
 .rel.text.axp22_set_aldo_output
                0x4a0e1e48       0x30 arch/arm/cpu/armv7/spare_head.o
 .rel.text.axp22_set_eldo_output
                0x4a0e1e78       0x30 arch/arm/cpu/armv7/spare_head.o
 .rel.text.axp22_set_dldo_output
                0x4a0e1ea8       0x60 arch/arm/cpu/armv7/spare_head.o
 .rel.text.axp22_set_gpioldo_output
                0x4a0e1f08       0x18 arch/arm/cpu/armv7/spare_head.o
 .rel.text.axp22_set_dc1sw
                0x4a0e1f20        0x8 arch/arm/cpu/armv7/spare_head.o
 .rel.text.axp22_set_dc5ldo
                0x4a0e1f28        0x8 arch/arm/cpu/armv7/spare_head.o
 .rel.text.axp22_set_supply_status_byname
                0x4a0e1f30       0x38 arch/arm/cpu/armv7/spare_head.o
 .rel.text.axp22_probe_supply_status_byname
                0x4a0e1f68       0x48 arch/arm/cpu/armv7/spare_head.o
 .rel.data.sunxi_axp_null
                0x4a0e1fb0       0xc8 arch/arm/cpu/armv7/spare_head.o
 .rel.data.sunxi_axp_20
                0x4a0e2078       0xc8 arch/arm/cpu/armv7/spare_head.o
 .rel.data.sunxi_axp_22
                0x4a0e2140       0xc8 arch/arm/cpu/armv7/spare_head.o
 .rel.text.sunxi_pwm_pin_set_state
                0x4a0e2208       0x38 arch/arm/cpu/armv7/spare_head.o
 .rel.text.get_pccr_reg_offset
                0x4a0e2240       0x58 arch/arm/cpu/armv7/spare_head.o
 .rel.text.sunxi_pwm_disable
                0x4a0e2298       0x18 arch/arm/cpu/armv7/spare_head.o
 .rel.text.sunxi_pwm_enable
                0x4a0e22b0       0x18 arch/arm/cpu/armv7/spare_head.o
 .rel.text.sunxi_pwm_config
                0x4a0e22c8        0x8 arch/arm/cpu/armv7/spare_head.o
 .rel.text.pwm_config
                0x4a0e22d0        0x8 arch/arm/cpu/armv7/spare_head.o
 .rel.text.pwm_enable
                0x4a0e22d8        0x8 arch/arm/cpu/armv7/spare_head.o
 .rel.text.pwm_disable
                0x4a0e22e0        0x8 arch/arm/cpu/armv7/spare_head.o
 .rel.text.pwm_set_polarity
                0x4a0e22e8        0x8 arch/arm/cpu/armv7/spare_head.o
 .rel.text.pwm_request
                0x4a0e22f0       0xb0 arch/arm/cpu/armv7/spare_head.o
 .rel.data.pwm_list
                0x4a0e23a0       0x10 arch/arm/cpu/armv7/spare_head.o
 .rel.data.sunxi_pwm_ops
                0x4a0e23b0       0x20 arch/arm/cpu/armv7/spare_head.o
 .rel.text.get_current
                0x4a0e23d0       0x10 arch/arm/cpu/armv7/spare_head.o
 .rel.text.serial_register
                0x4a0e23e0        0x8 arch/arm/cpu/armv7/spare_head.o
 .rel.text.serial_stdio_init
                0x4a0e23e8        0x8 arch/arm/cpu/armv7/spare_head.o
 .rel.text.serial_assign
                0x4a0e23f0       0x10 arch/arm/cpu/armv7/spare_head.o
 .rel.text.serial_reinit_all
                0x00000000        0x0 arch/arm/cpu/armv7/spare_head.o
 .rel.text.on_baudrate
                0x4a0e2400       0x20 arch/arm/cpu/armv7/spare_head.o
 .rel.text.serial_clk_enable
                0x4a0e2420        0x8 arch/arm/cpu/armv7/spare_head.o
 .rel.text._serial_putc
                0x4a0e2428        0x8 arch/arm/cpu/armv7/spare_head.o
 .rel.text._serial_putc_raw
                0x00000000        0x0 arch/arm/cpu/armv7/spare_head.o
 .rel.text._serial_getc
                0x4a0e2430        0x8 arch/arm/cpu/armv7/spare_head.o
 .rel.text._serial_tstc
                0x4a0e2438        0x8 arch/arm/cpu/armv7/spare_head.o
 .rel.text._serial_setbaud
                0x4a0e2440        0x8 arch/arm/cpu/armv7/spare_head.o
 .rel.text._serial_setbrg
                0x4a0e2448        0x8 arch/arm/cpu/armv7/spare_head.o
 .rel.text.default_serial_console
                0x4a0e2450       0x18 arch/arm/cpu/armv7/spare_head.o
 .rel.text.ns16550_serial_initialize
                0x4a0e2468       0x20 arch/arm/cpu/armv7/spare_head.o
 .rel.rodata.uart_clk_tab
                0x4a0e2488       0x30 arch/arm/cpu/armv7/spare_head.o
 .rel.rodata.CSWTCH.9
                0x4a0e24b8       0x18 arch/arm/cpu/armv7/spare_head.o
 .rel.u_boot_list_2_env_clbk_2_baudrate
                0x4a0e24d0       0x10 arch/arm/cpu/armv7/spare_head.o
 .rel.data.eserial1_device
                0x4a0e24e0       0x38 arch/arm/cpu/armv7/spare_head.o
 .rel.data.eserial2_device
                0x4a0e2518       0x38 arch/arm/cpu/armv7/spare_head.o
 .rel.data.eserial3_device
                0x4a0e2550       0x38 arch/arm/cpu/armv7/spare_head.o
 .rel.data.eserial4_device
                0x4a0e2588       0x38 arch/arm/cpu/armv7/spare_head.o
 .rel.text.sunxi_smc_call
                0x4a0e25c0        0x8 arch/arm/cpu/armv7/spare_head.o
 .rel.text.smc_readl
                0x4a0e25c8        0x8 arch/arm/cpu/armv7/spare_head.o
 .rel.text.smc_writel
                0x4a0e25d0        0x8 arch/arm/cpu/armv7/spare_head.o
 .rel.text.smc_efuse_readl
                0x00000000        0x0 arch/arm/cpu/armv7/spare_head.o
 .rel.text.smc_efuse_writel
                0x00000000        0x0 arch/arm/cpu/armv7/spare_head.o
 .rel.text.smc_init
                0x4a0e25d8       0x20 arch/arm/cpu/armv7/spare_head.o
 .rel.text.smc_tee_ssk_encrypt
                0x00000000        0x0 arch/arm/cpu/armv7/spare_head.o
 .rel.text.smc_tee_ssk_decrypt
                0x00000000        0x0 arch/arm/cpu/armv7/spare_head.o
 .rel.text.smc_tee_rssk_encrypt
                0x00000000        0x0 arch/arm/cpu/armv7/spare_head.o
 .rel.text.smc_aes_rssk_decrypt_to_keysram
                0x00000000        0x0 arch/arm/cpu/armv7/spare_head.o
 .rel.text.smc_aes_algorithm
                0x00000000        0x0 arch/arm/cpu/armv7/spare_head.o
 .rel.text.smc_tee_keybox_store
                0x00000000        0x0 arch/arm/cpu/armv7/spare_head.o
 .rel.text.smc_tee_probe_drm_configure
                0x4a0e25f8        0x8 arch/arm/cpu/armv7/spare_head.o
 .rel.data.smc_writel_pt
                0x4a0e2600        0x8 arch/arm/cpu/armv7/spare_head.o
 .rel.data.smc_readl_pt
                0x4a0e2608        0x8 arch/arm/cpu/armv7/spare_head.o
 .rel.text.spi_set_wordlen
                0x00000000        0x0 arch/arm/cpu/armv7/spare_head.o
 .rel.text.spic_set_clk.isra.1
                0x4a0e2610        0x8 arch/arm/cpu/armv7/spare_head.o
 .rel.text.spi_cfg_mclk.isra.8.constprop.9
                0x4a0e2618        0x8 arch/arm/cpu/armv7/spare_head.o
 .rel.text.spic_init
                0x4a0e2620       0x68 arch/arm/cpu/armv7/spare_head.o
 .rel.text.spic_rw
                0x4a0e2688       0x38 arch/arm/cpu/armv7/spare_head.o
 .rel.text.spic_exit
                0x4a0e26c0       0x20 arch/arm/cpu/armv7/spare_head.o
 .rel.text.sunxi_efuse_write
                0x4a0e26e0        0x8 arch/arm/cpu/armv7/spare_head.o
 .rel.text.sunxi_efuse_read
                0x4a0e26e8       0x10 arch/arm/cpu/armv7/spare_head.o
 .rel.text.nand_init_for_boot
                0x4a0e26f8       0x90 arch/arm/cpu/armv7/spare_head.o
 .rel.text.sdmmc_init_for_boot
                0x4a0e2788       0xd8 arch/arm/cpu/armv7/spare_head.o
 .rel.text.spinor_init_for_boot
                0x4a0e2860       0x60 arch/arm/cpu/armv7/spare_head.o
 .rel.text.nand_init_for_sprite
                0x4a0e28c0       0xb0 arch/arm/cpu/armv7/spare_head.o
 .rel.text.sdmmc_init_for_sprite
                0x4a0e2970       0xe0 arch/arm/cpu/armv7/spare_head.o
 .rel.text.sdmmc_init_card0_for_sprite
                0x4a0e2a50       0x90 arch/arm/cpu/armv7/spare_head.o
 .rel.text.spinor_init_for_sprite
                0x4a0e2ae0       0x78 arch/arm/cpu/armv7/spare_head.o
 .rel.text.card_read_boot0
                0x4a0e2b58       0x10 arch/arm/cpu/armv7/spare_head.o
 .rel.text.sunxi_flash_read
                0x4a0e2b68        0x8 arch/arm/cpu/armv7/spare_head.o
 .rel.text.sunxi_flash_part_read
                0x4a0e2b70        0x8 arch/arm/cpu/armv7/spare_head.o
 .rel.text.sunxi_flash_write
                0x4a0e2b78        0x8 arch/arm/cpu/armv7/spare_head.o
 .rel.text.sunxi_flash_part_write
                0x4a0e2b80        0x8 arch/arm/cpu/armv7/spare_head.o
 .rel.text.sunxi_flash_size
                0x4a0e2b88        0x8 arch/arm/cpu/armv7/spare_head.o
 .rel.text.sunxi_flash_exit
                0x4a0e2b90        0x8 arch/arm/cpu/armv7/spare_head.o
 .rel.text.sunxi_flash_flush
                0x4a0e2b98        0x8 arch/arm/cpu/armv7/spare_head.o
 .rel.text.sunxi_flash_phyread
                0x4a0e2ba0        0x8 arch/arm/cpu/armv7/spare_head.o
 .rel.text.sunxi_flash_phywrite
                0x4a0e2ba8        0x8 arch/arm/cpu/armv7/spare_head.o
 .rel.text.sunxi_sprite_init
                0x4a0e2bb0        0x8 arch/arm/cpu/armv7/spare_head.o
 .rel.text.sunxi_sprite_read
                0x4a0e2bb8        0x8 arch/arm/cpu/armv7/spare_head.o
 .rel.text.sunxi_sprite_write
                0x4a0e2bc0        0x8 arch/arm/cpu/armv7/spare_head.o
 .rel.text.sunxi_sprite_erase
                0x4a0e2bc8        0x8 arch/arm/cpu/armv7/spare_head.o
 .rel.text.sunxi_sprite_size
                0x4a0e2bd0        0x8 arch/arm/cpu/armv7/spare_head.o
 .rel.text.sunxi_sprite_exit
                0x4a0e2bd8        0x8 arch/arm/cpu/armv7/spare_head.o
 .rel.text.sunxi_sprite_flush
                0x00000000        0x0 arch/arm/cpu/armv7/spare_head.o
 .rel.text.sunxi_sprite_phyread
                0x4a0e2be0        0x8 arch/arm/cpu/armv7/spare_head.o
 .rel.text.sunxi_sprite_phywrite
                0x4a0e2be8        0x8 arch/arm/cpu/armv7/spare_head.o
 .rel.text.sunxi_sprite_force_erase
                0x4a0e2bf0        0x8 arch/arm/cpu/armv7/spare_head.o
 .rel.text.sunxi_flash_boot_handle
                0x4a0e2bf8       0x10 arch/arm/cpu/armv7/spare_head.o
 .rel.text.sunxi_flash_sprite_handle
                0x4a0e2c08       0x18 arch/arm/cpu/armv7/spare_head.o
 .rel.text.sunxi_flash_get_dev
                0x4a0e2c20        0x8 arch/arm/cpu/armv7/spare_head.o
 .rel.text.sunxi_flash_init_uboot
                0x4a0e2c28       0x18 arch/arm/cpu/armv7/spare_head.o
 .rel.text.sunxi_flash_handle_init
                0x4a0e2c40        0x8 arch/arm/cpu/armv7/spare_head.o
 .rel.text.sunxi_nor_flash_update_fdt
                0x00000000        0x0 arch/arm/cpu/armv7/spare_head.o
 .rel.text.sunxi_nor_flash_update_boot0
                0x00000000        0x0 arch/arm/cpu/armv7/spare_head.o
 .rel.text.read_boot_package
                0x4a0e2c48       0x30 arch/arm/cpu/armv7/spare_head.o
 .rel.text.sunxi_flash_upload_boot0
                0x4a0e2c78       0x48 arch/arm/cpu/armv7/spare_head.o
 .rel.text.sunxi_flash_get_boot0_size
                0x4a0e2cc0       0x10 arch/arm/cpu/armv7/spare_head.o
 .rel.text.sunxi_nand_emmc_flash_update_boot0
                0x00000000        0x0 arch/arm/cpu/armv7/spare_head.o
 .rel.text.sunxi_flash_update_boot0
                0x00000000        0x0 arch/arm/cpu/armv7/spare_head.o
 .rel.text.sunxi_flash_update_fdt
                0x4a0e2cd0       0x38 arch/arm/cpu/armv7/spare_head.o
 .rel.text.sunxi_secstorage_read
                0x00000000        0x0 arch/arm/cpu/armv7/spare_head.o
 .rel.text.sunxi_secstorage_write
                0x00000000        0x0 arch/arm/cpu/armv7/spare_head.o
 .rel.text.sunxi_flash_mmc_read
                0x4a0e2d08        0x8 arch/arm/cpu/armv7/spare_head.o
 .rel.text.sunxi_flash_mmc_write
                0x4a0e2d10        0x8 arch/arm/cpu/armv7/spare_head.o
 .rel.text.sunxi_flash_mmc_size
                0x4a0e2d18        0x8 arch/arm/cpu/armv7/spare_head.o
 .rel.text.sunxi_flash_mmc_phyread
                0x4a0e2d20        0x8 arch/arm/cpu/armv7/spare_head.o
 .rel.text.sunxi_flash_mmc_phywrite
                0x4a0e2d28        0x8 arch/arm/cpu/armv7/spare_head.o
 .rel.text.sunxi_sprite_mmc_read
                0x4a0e2d30        0x8 arch/arm/cpu/armv7/spare_head.o
 .rel.text.sunxi_sprite_mmc_write
                0x4a0e2d38        0x8 arch/arm/cpu/armv7/spare_head.o
 .rel.text.sunxi_sprite_mmc_size
                0x4a0e2d40        0x8 arch/arm/cpu/armv7/spare_head.o
 .rel.text.sunxi_sprite_mmc_phyread
                0x4a0e2d48        0x8 arch/arm/cpu/armv7/spare_head.o
 .rel.text.sunxi_sprite_mmc_phywrite
                0x4a0e2d50        0x8 arch/arm/cpu/armv7/spare_head.o
 .rel.text.check_secure_storage_map
                0x4a0e2d58       0x10 arch/arm/cpu/armv7/spare_head.o
 .rel.text.check_secure_storage_key
                0x4a0e2d68       0x10 arch/arm/cpu/armv7/spare_head.o
 .rel.text.sunxi_sprite_mmc_phyerase
                0x4a0e2d78       0x18 arch/arm/cpu/armv7/spare_head.o
 .rel.text.sunxi_sprite_mmc_phywipe
                0x00000000        0x0 arch/arm/cpu/armv7/spare_head.o
 .rel.text.sunxi_flash_mmc_secread
                0x4a0e2d90       0x10 arch/arm/cpu/armv7/spare_head.o
 .rel.text.sunxi_flash_mmc_secread_backup
                0x4a0e2da0       0x10 arch/arm/cpu/armv7/spare_head.o
 .rel.text.sunxi_flash_mmc_secwrite
                0x4a0e2db0       0x10 arch/arm/cpu/armv7/spare_head.o
 .rel.text.sunxi_sprite_mmc_secwrite
                0x4a0e2dc0       0x10 arch/arm/cpu/armv7/spare_head.o
 .rel.text.mmc_secure_storage_write
                0x4a0e2dd0       0x18 arch/arm/cpu/armv7/spare_head.o
 .rel.text.sunxi_sprite_mmc_secread
                0x4a0e2de8       0x10 arch/arm/cpu/armv7/spare_head.o
 .rel.text.sunxi_sprite_mmc_secread_backup
                0x4a0e2df8       0x10 arch/arm/cpu/armv7/spare_head.o
 .rel.text.mmc_secure_storage_read
                0x4a0e2e08       0x98 arch/arm/cpu/armv7/spare_head.o
 .rel.text.spinor_get_boot0_size
                0x4a0e2ea0       0x28 arch/arm/cpu/armv7/spare_head.o
 .rel.data.sunxi_sprite_init_pt
                0x4a0e2ec8        0x8 arch/arm/cpu/armv7/spare_head.o
 .rel.data.sunxi_secstorage_write_pt
                0x4a0e2ed0        0x8 arch/arm/cpu/armv7/spare_head.o
 .rel.data.sunxi_sprite_erase_pt
                0x4a0e2ed8        0x8 arch/arm/cpu/armv7/spare_head.o
 .rel.data.sunxi_flash_exit_pt
                0x4a0e2ee0        0x8 arch/arm/cpu/armv7/spare_head.o
 .rel.data.sunxi_sprite_datafinish_pt
                0x00000000        0x0 arch/arm/cpu/armv7/spare_head.o
 .rel.data.sunxi_sprite_force_erase_pt
                0x4a0e2ee8        0x8 arch/arm/cpu/armv7/spare_head.o
 .rel.data.sunxi_secstorage_read_pt
                0x4a0e2ef0        0x8 arch/arm/cpu/armv7/spare_head.o
 .rel.data.sunxi_flash_phyread_pt
                0x4a0e2ef8        0x8 arch/arm/cpu/armv7/spare_head.o
 .rel.data.sunxi_flash_flush_pt
                0x4a0e2f00        0x8 arch/arm/cpu/armv7/spare_head.o
 .rel.data.sunxi_flash_write_pt
                0x4a0e2f08        0x8 arch/arm/cpu/armv7/spare_head.o
 .rel.data.sunxi_sprite_read_pt
                0x4a0e2f10        0x8 arch/arm/cpu/armv7/spare_head.o
 .rel.data.sunxi_sprite_size_pt
                0x4a0e2f18        0x8 arch/arm/cpu/armv7/spare_head.o
 .rel.data.sunxi_sprite_phywrite_pt
                0x4a0e2f20        0x8 arch/arm/cpu/armv7/spare_head.o
 .rel.data.sunxi_flash_size_pt
                0x4a0e2f28        0x8 arch/arm/cpu/armv7/spare_head.o
 .rel.data.sunxi_sprite_phyread_pt
                0x4a0e2f30        0x8 arch/arm/cpu/armv7/spare_head.o
 .rel.data.sunxi_flash_init_pt
                0x4a0e2f38        0x8 arch/arm/cpu/armv7/spare_head.o
 .rel.data.sunxi_flash_read_pt
                0x4a0e2f40        0x8 arch/arm/cpu/armv7/spare_head.o
 .rel.data.sunxi_sprite_flush_pt
                0x4a0e2f48        0x8 arch/arm/cpu/armv7/spare_head.o
 .rel.data.sunxi_flash_phywrite_pt
                0x4a0e2f50        0x8 arch/arm/cpu/armv7/spare_head.o
 .rel.data.sunxi_sprite_write_pt
                0x4a0e2f58        0x8 arch/arm/cpu/armv7/spare_head.o
 .rel.data.sunxi_sprite_exit_pt
                0x4a0e2f60        0x8 arch/arm/cpu/armv7/spare_head.o
 .rel.text.USBC_GetVbusStatus
                0x00000000        0x0 arch/arm/cpu/armv7/spare_head.o
 .rel.text.USBC_ConfigFIFO_Base
                0x4a0e2f68        0x8 arch/arm/cpu/armv7/spare_head.o
 .rel.text.USBC_GetPortFifoStartAddr
                0x00000000        0x0 arch/arm/cpu/armv7/spare_head.o
 .rel.text.USBC_GetPortFifoSize
                0x00000000        0x0 arch/arm/cpu/armv7/spare_head.o
 .rel.text.USBC_PrintAllReg
                0x00000000        0x0 arch/arm/cpu/armv7/spare_head.o
 .rel.text.USBC_open_otg
                0x4a0e2f70       0x10 arch/arm/cpu/armv7/spare_head.o
 .rel.text.USBC_exit
                0x00000000        0x0 arch/arm/cpu/armv7/spare_head.o
 .rel.text.USBC_Dev_ConfigTransferMode
                0x4a0e2f80       0x20 arch/arm/cpu/armv7/spare_head.o
 .rel.text.USBC_Host_ConfigEp
                0x00000000        0x0 arch/arm/cpu/armv7/spare_head.o
 .rel.text.timerX_callback_default
                0x4a0e2fa0        0x8 arch/arm/cpu/armv7/spare_head.o
 .rel.text.timer1_func
                0x4a0e2fa8       0x10 arch/arm/cpu/armv7/spare_head.o
 .rel.text.timer0_func
                0x4a0e2fb8       0x10 arch/arm/cpu/armv7/spare_head.o
 .rel.text.add_timer
                0x4a0e2fc8       0x28 arch/arm/cpu/armv7/spare_head.o
 .rel.text.del_timer
                0x4a0e2ff0       0x18 arch/arm/cpu/armv7/spare_head.o
 .rel.text.stick_printf
                0x00000000        0x0 arch/arm/cpu/armv7/spare_head.o
 .rel.text.tick0_printf
                0x00000000        0x0 arch/arm/cpu/armv7/spare_head.o
 .rel.data.timer_callback
                0x4a0e3008       0x10 arch/arm/cpu/armv7/spare_head.o
 .rel.text.ehci_td_buffer
                0x4a0e3018        0x8 arch/arm/cpu/armv7/spare_head.o
 .rel.text.ehci_submit_async
                0x4a0e3020       0x30 arch/arm/cpu/armv7/spare_head.o
 .rel.text.ehci_shutdown
                0x4a0e3050        0x8 arch/arm/cpu/armv7/spare_head.o
 .rel.text.disable_periodic
                0x4a0e3058        0x8 arch/arm/cpu/armv7/spare_head.o
 .rel.text.enable_periodic
                0x4a0e3060        0x8 arch/arm/cpu/armv7/spare_head.o
 .rel.text.__ehci_set_usbmode
                0x00000000        0x0 arch/arm/cpu/armv7/spare_head.o
 .rel.text.ehci_submit_root
                0x4a0e3068       0x28 arch/arm/cpu/armv7/spare_head.o
 .rel.text.usb_lowlevel_stop
                0x4a0e3090        0x8 arch/arm/cpu/armv7/spare_head.o
 .rel.text.usb_lowlevel_init
                0x4a0e3098       0x20 arch/arm/cpu/armv7/spare_head.o
 .rel.text.create_int_queue
                0x4a0e30b8        0x8 arch/arm/cpu/armv7/spare_head.o
 .rel.text.destroy_int_queue
                0x4a0e30c0       0x10 arch/arm/cpu/armv7/spare_head.o
 .rel.text.submit_int_msg
                0x4a0e30d0       0x18 arch/arm/cpu/armv7/spare_head.o
 .rel.text.config_usb_pin
                0x4a0e30e8       0x18 arch/arm/cpu/armv7/spare_head.o
 .rel.text.alloc_pin
                0x4a0e3100       0x18 arch/arm/cpu/armv7/spare_head.o
 .rel.text.free_pin
                0x4a0e3118        0x8 arch/arm/cpu/armv7/spare_head.o
 .rel.text.open_usb_clock
                0x4a0e3120       0x10 arch/arm/cpu/armv7/spare_head.o
 .rel.text.close_usb_clock
                0x4a0e3130        0x8 arch/arm/cpu/armv7/spare_head.o
 .rel.text.usb_passby
                0x4a0e3138        0x8 arch/arm/cpu/armv7/spare_head.o
 .rel.text.sunxi_set_vbus
                0x4a0e3140        0x8 arch/arm/cpu/armv7/spare_head.o
 .rel.text.ehci_hcd_init
                0x4a0e3148       0x28 arch/arm/cpu/armv7/spare_head.o
 .rel.text.ehci_hcd_stop
                0x4a0e3170       0x10 arch/arm/cpu/armv7/spare_head.o
 .rel.text.fs_probe_unsupported
                0x4a0e3180        0x8 arch/arm/cpu/armv7/spare_head.o
 .rel.text.fs_get_info
                0x4a0e3188        0x8 arch/arm/cpu/armv7/spare_head.o
 .rel.text.fs_close
                0x4a0e3190        0x8 arch/arm/cpu/armv7/spare_head.o
 .rel.text.fs_set_blk_dev
                0x4a0e3198       0x20 arch/arm/cpu/armv7/spare_head.o
 .rel.text.fs_ls
                0x4a0e31b8        0x8 arch/arm/cpu/armv7/spare_head.o
 .rel.text.fs_exists
                0x4a0e31c0        0x8 arch/arm/cpu/armv7/spare_head.o
 .rel.text.fs_read
                0x4a0e31c8       0x10 arch/arm/cpu/armv7/spare_head.o
 .rel.text.fs_write
                0x00000000        0x0 arch/arm/cpu/armv7/spare_head.o
 .rel.text.do_load
                0x4a0e31d8       0x58 arch/arm/cpu/armv7/spare_head.o
 .rel.text.do_ls
                0x4a0e3230       0x18 arch/arm/cpu/armv7/spare_head.o
 .rel.text.do_save
                0x00000000        0x0 arch/arm/cpu/armv7/spare_head.o
 .rel.text.get_fs
                0x4a0e3248        0x8 arch/arm/cpu/armv7/spare_head.o
 .rel.text.ext4fs_free_node
                0x4a0e3250        0x8 arch/arm/cpu/armv7/spare_head.o
 .rel.text.ext4fs_read_file
                0x4a0e3258        0x8 arch/arm/cpu/armv7/spare_head.o
 .rel.text.ext4fs_ls
                0x4a0e3260       0x10 arch/arm/cpu/armv7/spare_head.o
 .rel.text.ext4fs_read
                0x4a0e3270       0x10 arch/arm/cpu/armv7/spare_head.o
 .rel.text.ext4_read_file
                0x4a0e3280       0x10 arch/arm/cpu/armv7/spare_head.o
 .rel.text.read_allocated_block
                0x4a0e3290       0xb8 arch/arm/cpu/armv7/spare_head.o
 .rel.text.ext4fs_reinit_global
                0x4a0e3348       0x48 arch/arm/cpu/armv7/spare_head.o
 .rel.text.ext4fs_close
                0x4a0e3390       0x10 arch/arm/cpu/armv7/spare_head.o
 .rel.text.ext4fs_iterate_dir
                0x4a0e33a0       0x28 arch/arm/cpu/armv7/spare_head.o
 .rel.text.ext4fs_find_file1
                0x4a0e33c8       0x10 arch/arm/cpu/armv7/spare_head.o
 .rel.text.ext4fs_find_file
                0x4a0e33d8        0x8 arch/arm/cpu/armv7/spare_head.o
 .rel.text.ext4fs_open
                0x4a0e33e0       0x10 arch/arm/cpu/armv7/spare_head.o
 .rel.text.ext4fs_mount
                0x4a0e33f0       0x10 arch/arm/cpu/armv7/spare_head.o
 .rel.text.ext4fs_set_blk_dev
                0x4a0e3400       0x18 arch/arm/cpu/armv7/spare_head.o
 .rel.text.ext4fs_devread
                0x4a0e3418       0x38 arch/arm/cpu/armv7/spare_head.o
 .rel.text.downcase
                0x4a0e3450        0x8 arch/arm/cpu/armv7/spare_head.o
 .rel.text.disk_read
                0x4a0e3458       0x10 arch/arm/cpu/armv7/spare_head.o
 .rel.text.read_bootsectandvi
                0x4a0e3468       0x20 arch/arm/cpu/armv7/spare_head.o
 .rel.text.get_cluster
                0x4a0e3488        0x8 arch/arm/cpu/armv7/spare_head.o
 .rel.text.get_vfatname
                0x4a0e3490       0x10 arch/arm/cpu/armv7/spare_head.o
 .rel.text.fat_set_blk_dev
                0x4a0e34a0       0x28 arch/arm/cpu/armv7/spare_head.o
 .rel.text.fat_register_device
                0x00000000        0x0 arch/arm/cpu/armv7/spare_head.o
 .rel.text.do_fat_read_at
                0x4a0e34c8       0x58 arch/arm/cpu/armv7/spare_head.o
 .rel.text.file_fat_detectfs
                0x4a0e3520       0xb0 arch/arm/cpu/armv7/spare_head.o
 .rel.text.file_fat_read_at
                0x4a0e35d0        0x8 arch/arm/cpu/armv7/spare_head.o
 .rel.text.fat_read_file
                0x4a0e35d8        0x8 arch/arm/cpu/armv7/spare_head.o
 .rel.text.file_getfsname
                0x00000000        0x0 arch/arm/cpu/armv7/spare_head.o
 .rel.text.file_cd
                0x00000000        0x0 arch/arm/cpu/armv7/spare_head.o
 .rel.text.file_detectfs
                0x00000000        0x0 arch/arm/cpu/armv7/spare_head.o
 .rel.text.file_ls
                0x00000000        0x0 arch/arm/cpu/armv7/spare_head.o
 .rel.text.file_read
                0x00000000        0x0 arch/arm/cpu/armv7/spare_head.o
 .rel.rodata.filesystems
                0x00000000        0x0 arch/arm/cpu/armv7/spare_head.o
 .rel.data.fstypes
                0x4a0e35e0       0x90 arch/arm/cpu/armv7/spare_head.o
 .rel.text.inflate_fast
                0x4a0e3670       0x18 arch/arm/cpu/armv7/spare_head.o
 .rel.text.inflate_table
                0x4a0e3688       0x20 arch/arm/cpu/armv7/spare_head.o
 .rel.text.inflateInit2_
                0x4a0e36a8       0x10 arch/arm/cpu/armv7/spare_head.o
 .rel.text.inflate
                0x4a0e36b8      0x188 arch/arm/cpu/armv7/spare_head.o
 .rel.text.crc7
                0x00000000        0x0 arch/arm/cpu/armv7/spare_head.o
 .rel.text.cyg_crc16
                0x00000000        0x0 arch/arm/cpu/armv7/spare_head.o
 .rel.text.fdtdec_get_compatible
                0x00000000        0x0 arch/arm/cpu/armv7/spare_head.o
 .rel.text.fdtdec_get_is_enabled
                0x00000000        0x0 arch/arm/cpu/armv7/spare_head.o
 .rel.text.fdtdec_lookup
                0x00000000        0x0 arch/arm/cpu/armv7/spare_head.o
 .rel.text.fdtdec_next_compatible
                0x00000000        0x0 arch/arm/cpu/armv7/spare_head.o
 .rel.text.fdtdec_next_compatible_subnode
                0x00000000        0x0 arch/arm/cpu/armv7/spare_head.o
 .rel.text.fdtdec_next_alias
                0x00000000        0x0 arch/arm/cpu/armv7/spare_head.o
 .rel.text.fdtdec_add_aliases_for_id
                0x00000000        0x0 arch/arm/cpu/armv7/spare_head.o
 .rel.text.fdtdec_prepare_fdt
                0x4a0e3840        0x8 arch/arm/cpu/armv7/spare_head.o
 .rel.text.fdtdec_get_config_int
                0x4a0e3848        0x8 arch/arm/cpu/armv7/spare_head.o
 .rel.text.fdtdec_get_config_bool
                0x00000000        0x0 arch/arm/cpu/armv7/spare_head.o
 .rel.text.fdtdec_get_config_string
                0x00000000        0x0 arch/arm/cpu/armv7/spare_head.o
 .rel.text.fdtdec_read_fmap_entry
                0x00000000        0x0 arch/arm/cpu/armv7/spare_head.o
 .rel.text.zunzip
                0x4a0e3850       0x28 arch/arm/cpu/armv7/spare_head.o
 .rel.text.gunzip
                0x4a0e3878       0x10 arch/arm/cpu/armv7/spare_head.o
 .rel.text.initcall_run_list
                0x4a0e3888        0x8 arch/arm/cpu/armv7/spare_head.o
 .rel.text.lmb_alloc_base
                0x4a0e3890        0x8 arch/arm/cpu/armv7/spare_head.o
 .rel.text.strmhz
                0x00000000        0x0 arch/arm/cpu/armv7/spare_head.o
 .rel.text.match_string.isra.3
                0x4a0e3898        0x8 arch/arm/cpu/armv7/spare_head.o
 .rel.text.hcreate_r
                0x4a0e38a0        0x8 arch/arm/cpu/armv7/spare_head.o
 .rel.text.hdestroy_r
                0x4a0e38a8        0x8 arch/arm/cpu/armv7/spare_head.o
 .rel.text.hmatch_r
                0x4a0e38b0        0x8 arch/arm/cpu/armv7/spare_head.o
 .rel.text.hsearch_r
                0x4a0e38b8        0x8 arch/arm/cpu/armv7/spare_head.o
 .rel.text.hdelete_r
                0x4a0e38c0        0x8 arch/arm/cpu/armv7/spare_head.o
 .rel.text.hexport_r
                0x4a0e38c8       0x18 arch/arm/cpu/armv7/spare_head.o
 .rel.text.himport_r
                0x4a0e38e0       0x20 arch/arm/cpu/armv7/spare_head.o
 .rel.text.display_options
                0x4a0e3900       0x10 arch/arm/cpu/armv7/spare_head.o
 .rel.text.print_size
                0x4a0e3910       0x28 arch/arm/cpu/armv7/spare_head.o
 .rel.text.print_buffer
                0x4a0e3938       0x28 arch/arm/cpu/armv7/spare_head.o
 .rel.text.crc32_no_comp
                0x4a0e3960        0x8 arch/arm/cpu/armv7/spare_head.o
 .rel.text.hang
                0x4a0e3968        0x8 arch/arm/cpu/armv7/spare_head.o
 .rel.text.skip_spaces
                0x4a0e3970        0x8 arch/arm/cpu/armv7/spare_head.o
 .rel.text.strim
                0x4a0e3978        0x8 arch/arm/cpu/armv7/spare_head.o
 .rel.text.strncasecmp
                0x00000000        0x0 arch/arm/cpu/armv7/spare_head.o
 .rel.text.strtok
                0x00000000        0x0 arch/arm/cpu/armv7/spare_head.o
 .rel.text.uuid_str_valid
                0x00000000        0x0 arch/arm/cpu/armv7/spare_head.o
 .rel.text.uuid_bin_to_str
                0x4a0e3980       0x18 arch/arm/cpu/armv7/spare_head.o
 .rel.text.number.isra.1
                0x4a0e3998        0x8 arch/arm/cpu/armv7/spare_head.o
 .rel.text.vsnprintf_internal.isra.3
                0x4a0e39a0       0x10 arch/arm/cpu/armv7/spare_head.o
 .rel.text.simple_strtoul
                0x4a0e39b0        0x8 arch/arm/cpu/armv7/spare_head.o
 .rel.text.simple_strtoull
                0x4a0e39b8        0x8 arch/arm/cpu/armv7/spare_head.o
 .rel.text.__assert_fail
                0x00000000        0x0 arch/arm/cpu/armv7/spare_head.o
 .rel.text.simple_itoa
                0x4a0e39c0        0x8 arch/arm/cpu/armv7/spare_head.o
 .rel.text.print_grouped_ull
                0x00000000        0x0 arch/arm/cpu/armv7/spare_head.o
 .rel.rodata.z_errmsg
                0x00000000        0x0 arch/arm/cpu/armv7/spare_head.o
 .rel.rodata.compat_names
                0x00000000        0x0 arch/arm/cpu/armv7/spare_head.o
 .rel.text.fdt_next_tag
                0x4a0e39c8       0x48 arch/arm/cpu/armv7/spare_head.o
 .rel.text.fdt_get_phandle
                0x4a0e3a10       0x10 arch/arm/cpu/armv7/spare_head.o
 .rel.text.fdt_get_alias_namelen
                0x4a0e3a20        0x8 arch/arm/cpu/armv7/spare_head.o
 .rel.text.fdt_node_check_compatible
                0x00000000        0x0 arch/arm/cpu/armv7/spare_head.o
 .rel.text.fdt_strerror
                0x4a0e3a28       0x20 arch/arm/cpu/armv7/spare_head.o
 .rel.text.fdt_find_regions
                0x00000000        0x0 arch/arm/cpu/armv7/spare_head.o
 .rel.text.fdt_create_empty_tree
                0x00000000        0x0 arch/arm/cpu/armv7/spare_head.o
 .rel.rodata.fdt_errtable
                0x4a0e3a48       0x58 arch/arm/cpu/armv7/spare_head.o
 .rel.text.compare_regions
                0x4a0e3aa0       0x18 arch/arm/cpu/armv7/spare_head.o
 .rel.text.test_stuck_address
                0x4a0e3ab8       0x48 arch/arm/cpu/armv7/spare_head.o
 .rel.text.test_random_value
                0x4a0e3b00       0x28 arch/arm/cpu/armv7/spare_head.o
 .rel.text.test_solidbits_comparison
                0x4a0e3b28       0x28 arch/arm/cpu/armv7/spare_head.o
 .rel.text.test_checkerboard_comparison
                0x4a0e3b50       0x28 arch/arm/cpu/armv7/spare_head.o
 .rel.text.test_blockseq_comparison
                0x4a0e3b78       0x28 arch/arm/cpu/armv7/spare_head.o
 .rel.text.test_walkbits0_comparison
                0x4a0e3ba0       0x28 arch/arm/cpu/armv7/spare_head.o
 .rel.text.test_walkbits1_comparison
                0x4a0e3bc8       0x28 arch/arm/cpu/armv7/spare_head.o
 .rel.text.test_bitspread_comparison
                0x4a0e3bf0       0x28 arch/arm/cpu/armv7/spare_head.o
 .rel.text.test_bitflip_comparison
                0x4a0e3c18       0x28 arch/arm/cpu/armv7/spare_head.o
 .rel.text.NAND_set_boot_mode
                0x4a0e3c40        0x8 arch/arm/cpu/armv7/spare_head.o
 .rel.text.NAND_Print
                0x4a0e3c48        0x8 arch/arm/cpu/armv7/spare_head.o
 .rel.text.NAND_Print_DBG
                0x4a0e3c50       0x10 arch/arm/cpu/armv7/spare_head.o
 .rel.text._get_ndfc_clk_v1
                0x4a0e3c60        0x8 arch/arm/cpu/armv7/spare_head.o
 .rel.text._change_ndfc_clk_v1
                0x4a0e3c68        0x8 arch/arm/cpu/armv7/spare_head.o
 .rel.text._close_ndfc_clk_v1
                0x4a0e3c70        0x8 arch/arm/cpu/armv7/spare_head.o
 .rel.text._open_ndfc_ahb_gate_and_reset_v1
                0x4a0e3c78        0x8 arch/arm/cpu/armv7/spare_head.o
 .rel.text._close_ndfc_ahb_gate_and_reset_v1
                0x4a0e3c80        0x8 arch/arm/cpu/armv7/spare_head.o
 .rel.text._cfg_ndfc_gpio_v1
                0x00000000        0x0 arch/arm/cpu/armv7/spare_head.o
 .rel.text.NAND_ClkRequest
                0x4a0e3c88       0x10 arch/arm/cpu/armv7/spare_head.o
 .rel.text.NAND_ClkRelease
                0x4a0e3c98        0x8 arch/arm/cpu/armv7/spare_head.o
 .rel.text.NAND_SetClk
                0x4a0e3ca0       0x10 arch/arm/cpu/armv7/spare_head.o
 .rel.text.NAND_GetClk
                0x4a0e3cb0        0x8 arch/arm/cpu/armv7/spare_head.o
 .rel.text.NAND_PIORequest
                0x4a0e3cb8       0x30 arch/arm/cpu/armv7/spare_head.o
 .rel.text.NAND_PIOFuncChange_DQSc
                0x00000000        0x0 arch/arm/cpu/armv7/spare_head.o
 .rel.text.NAND_PIOFuncChange_REc
                0x00000000        0x0 arch/arm/cpu/armv7/spare_head.o
 .rel.text.NAND_Malloc
                0x4a0e3ce8       0x10 arch/arm/cpu/armv7/spare_head.o
 .rel.text.NAND_AllocMemoryForDMADescs
                0x00000000        0x0 arch/arm/cpu/armv7/spare_head.o
 .rel.text.nand_request_dma
                0x4a0e3cf8       0x18 arch/arm/cpu/armv7/spare_head.o
 .rel.text.NAND_ReleaseDMA
                0x4a0e3d10       0x10 arch/arm/cpu/armv7/spare_head.o
 .rel.text.nand_dma_config_start
                0x4a0e3d20       0x18 arch/arm/cpu/armv7/spare_head.o
 .rel.text.NAND_GetNandExtPara
                0x4a0e3d38       0x20 arch/arm/cpu/armv7/spare_head.o
 .rel.text.NAND_GetNandIDNumCtrl
                0x4a0e3d58       0x28 arch/arm/cpu/armv7/spare_head.o
 .rel.text.NAND_GetNandCapacityLevel
                0x4a0e3d80       0x28 arch/arm/cpu/armv7/spare_head.o
 .rel.text.NAND_Print_Version
                0x4a0e3da8        0x8 arch/arm/cpu/armv7/spare_head.o
 .rel.text.__NAND_UpdatePhyArch
                0x00000000        0x0 arch/arm/cpu/armv7/spare_head.o
 .rel.text.NAND_PhyInit
                0x4a0e3db0       0x18 arch/arm/cpu/armv7/spare_head.o
 .rel.text.NAND_PhyExit
                0x4a0e3dc8        0x8 arch/arm/cpu/armv7/spare_head.o
 .rel.text.NAND_LogicInit
                0x4a0e3dd0       0x70 arch/arm/cpu/armv7/spare_head.o
 .rel.text.NAND_LogicExit
                0x4a0e3e40       0x10 arch/arm/cpu/armv7/spare_head.o
 .rel.text.NAND_build_all_partition
                0x00000000        0x0 arch/arm/cpu/armv7/spare_head.o
 .rel.text.NAND_VersionCheck
                0x4a0e3e50       0x50 arch/arm/cpu/armv7/spare_head.o
 .rel.text.NAND_EraseBootBlocks
                0x4a0e3ea0        0x8 arch/arm/cpu/armv7/spare_head.o
 .rel.text.NAND_UbootInit
                0x4a0e3ea8       0x20 arch/arm/cpu/armv7/spare_head.o
 .rel.text.NAND_UbootExit
                0x4a0e3ec8        0x8 arch/arm/cpu/armv7/spare_head.o
 .rel.text.NAND_UbootProbe
                0x4a0e3ed0       0x10 arch/arm/cpu/armv7/spare_head.o
 .rel.text.NAND_Uboot_Erase
                0x4a0e3ee0       0x28 arch/arm/cpu/armv7/spare_head.o
 .rel.text.NAND_Uboot_Force_Erase
                0x4a0e3f08       0x10 arch/arm/cpu/armv7/spare_head.o
 .rel.text.NAND_GetParam_store
                0x4a0e3f18       0x28 arch/arm/cpu/armv7/spare_head.o
 .rel.text.nand_get_mbr
                0x4a0e3f40       0x18 arch/arm/cpu/armv7/spare_head.o
 .rel.text.nand_uboot_init
                0x4a0e3f58       0x18 arch/arm/cpu/armv7/spare_head.o
 .rel.text.nand_uboot_init_force_sprite
                0x4a0e3f70       0x10 arch/arm/cpu/armv7/spare_head.o
 .rel.text.nand_uboot_exit
                0x4a0e3f80       0x20 arch/arm/cpu/armv7/spare_head.o
 .rel.text.nand_verify_boot0
                0x4a0e3fa0       0x50 arch/arm/cpu/armv7/spare_head.o
 .rel.text.nand_download_boot0
                0x4a0e3ff0       0x10 arch/arm/cpu/armv7/spare_head.o
 .rel.text.nand_write_boot0
                0x00000000        0x0 arch/arm/cpu/armv7/spare_head.o
 .rel.text.nand_verify_uboot
                0x4a0e4000       0x58 arch/arm/cpu/armv7/spare_head.o
 .rel.text.nand_download_uboot
                0x4a0e4058       0x10 arch/arm/cpu/armv7/spare_head.o
 .rel.text.nand_force_download_uboot
                0x4a0e4068       0x10 arch/arm/cpu/armv7/spare_head.o
 .rel.text.nand_get_dev
                0x00000000        0x0 arch/arm/cpu/armv7/spare_head.o
 .rel.text.nand_init_uboot
                0x00000000        0x0 arch/arm/cpu/armv7/spare_head.o
 .rel.text.__mbr_map_dump
                0x4a0e4078       0x50 arch/arm/cpu/armv7/spare_head.o
 .rel.text.sunxi_sprite_part_rawdata_verify
                0x4a0e40c8       0x10 arch/arm/cpu/armv7/spare_head.o
 .rel.text.sunxi_sprite_verify_mbr
                0x4a0e40d8       0x10 arch/arm/cpu/armv7/spare_head.o
 .rel.text.sunxi_sprite_get_one_valid_mbr
                0x4a0e40e8       0x10 arch/arm/cpu/armv7/spare_head.o
 .rel.text.sunxi_sprite_verify_mbr_from_flash
                0x4a0e40f8       0x28 arch/arm/cpu/armv7/spare_head.o
 .rel.text.sunxi_sprite_verify_dlmap
                0x4a0e4120        0x8 arch/arm/cpu/armv7/spare_head.o
 .rel.text.initqueue
                0x00000000        0x0 arch/arm/cpu/armv7/spare_head.o
 .rel.text.destroyqueue
                0x00000000        0x0 arch/arm/cpu/armv7/spare_head.o
 .rel.text.sunxi_queue_init
                0x00000000        0x0 arch/arm/cpu/armv7/spare_head.o
 .rel.text.sunxi_queue_destroy
                0x00000000        0x0 arch/arm/cpu/armv7/spare_head.o
 .rel.text.sunxi_queue_reset
                0x00000000        0x0 arch/arm/cpu/armv7/spare_head.o
 .rel.text.sunxi_queue_isempty
                0x00000000        0x0 arch/arm/cpu/armv7/spare_head.o
 .rel.text.sunxi_queue_isfull
                0x00000000        0x0 arch/arm/cpu/armv7/spare_head.o
 .rel.text.sunxi_inqueue_query
                0x00000000        0x0 arch/arm/cpu/armv7/spare_head.o
 .rel.text.sunxi_queue_in
                0x00000000        0x0 arch/arm/cpu/armv7/spare_head.o
 .rel.text.sunxi_outqueue_query
                0x00000000        0x0 arch/arm/cpu/armv7/spare_head.o
 .rel.text.sunxi_queue_out
                0x00000000        0x0 arch/arm/cpu/armv7/spare_head.o
 .rel.text.__download_normal_part
                0x4a0e4128       0xb8 arch/arm/cpu/armv7/spare_head.o
 .rel.text.sprite_card_firmware_probe
                0x4a0e41e0        0x8 arch/arm/cpu/armv7/spare_head.o
 .rel.text.sprite_card_fetch_download_map
                0x4a0e41e8       0x28 arch/arm/cpu/armv7/spare_head.o
 .rel.text.sprite_card_fetch_mbr
                0x4a0e4210       0x28 arch/arm/cpu/armv7/spare_head.o
 .rel.text.sunxi_sprite_deal_part
                0x4a0e4238       0xe8 arch/arm/cpu/armv7/spare_head.o
 .rel.text.sunxi_sprite_deal_uboot
                0x4a0e4320       0x60 arch/arm/cpu/armv7/spare_head.o
 .rel.text.sunxi_sprite_deal_boot0
                0x4a0e4380       0x60 arch/arm/cpu/armv7/spare_head.o
 .rel.text.sunxi_sprite_deal_recorvery_boot
                0x4a0e43e0       0xa8 arch/arm/cpu/armv7/spare_head.o
 .rel.text.card_verify_uboot
                0x4a0e4488       0x58 arch/arm/cpu/armv7/spare_head.o
 .rel.text.card_download_uboot
                0x4a0e44e0       0x18 arch/arm/cpu/armv7/spare_head.o
 .rel.text.card_verify_boot0
                0x4a0e44f8       0x48 arch/arm/cpu/armv7/spare_head.o
 .rel.text.card_download_boot0
                0x4a0e4540       0x38 arch/arm/cpu/armv7/spare_head.o
 .rel.text.card_download_standard_mbr
                0x00000000        0x0 arch/arm/cpu/armv7/spare_head.o
 .rel.text.card_erase
                0x4a0e4578       0x40 arch/arm/cpu/armv7/spare_head.o
 .rel.text.sunxi_card_fill_boot0_magic
                0x00000000        0x0 arch/arm/cpu/armv7/spare_head.o
 .rel.text.sunxi_sprite_deal_part_from_sysrevoery
                0x4a0e45b8       0x68 arch/arm/cpu/armv7/spare_head.o
 .rel.text.__imagehd
                0x4a0e4620        0x8 arch/arm/cpu/armv7/spare_head.o
 .rel.text.sunxi_sprite_deal_fullimg
                0x00000000        0x0 arch/arm/cpu/armv7/spare_head.o
 .rel.text.unsparse_probe
                0x4a0e4628       0x48 arch/arm/cpu/armv7/spare_head.o
 .rel.text.unsparse_direct_write
                0x4a0e4670       0xc0 arch/arm/cpu/armv7/spare_head.o
 .rel.text.unsparse_checksum
                0x4a0e4730        0x8 arch/arm/cpu/armv7/spare_head.o
 .rel.text.dump_dram_para
                0x4a0e4738        0x8 arch/arm/cpu/armv7/spare_head.o
 .rel.text.sunxi_sprite_download_uboot
                0x4a0e4740       0x70 arch/arm/cpu/armv7/spare_head.o
 .rel.text.sunxi_sprite_download_boot0
                0x4a0e47b0       0x90 arch/arm/cpu/armv7/spare_head.o
 .rel.text.sunxi_download_boot0_atfter_ota
                0x00000000        0x0 arch/arm/cpu/armv7/spare_head.o
 .rel.text.gpt_convert_to_sunxi_mbr
                0x4a0e4840       0x20 arch/arm/cpu/armv7/spare_head.o
 .rel.text.sunxi_mbr_convert_to_gpt
                0x4a0e4860       0x48 arch/arm/cpu/armv7/spare_head.o
 .rel.text.down_primary_gpt_for_sdmmc
                0x4a0e48a8       0x20 arch/arm/cpu/armv7/spare_head.o
 .rel.text.download_standard_gpt
                0x4a0e48c8       0x20 arch/arm/cpu/armv7/spare_head.o
 .rel.text.sunxi_sprite_download_mbr
                0x4a0e48e8       0x28 arch/arm/cpu/armv7/spare_head.o
 .rel.text.card0_convert_to_gpt
                0x4a0e4910       0x28 arch/arm/cpu/armv7/spare_head.o
 .rel.text.Img_Open
                0x4a0e4938       0x40 arch/arm/cpu/armv7/spare_head.o
 .rel.text.Img_Fat_Open
                0x00000000        0x0 arch/arm/cpu/armv7/spare_head.o
 .rel.text.Img_GetSize
                0x4a0e4978        0x8 arch/arm/cpu/armv7/spare_head.o
 .rel.text.Img_OpenItem
                0x4a0e4980       0x10 arch/arm/cpu/armv7/spare_head.o
 .rel.text.Img_GetItemSize
                0x4a0e4990        0x8 arch/arm/cpu/armv7/spare_head.o
 .rel.text.Img_GetItemStart
                0x4a0e4998       0x10 arch/arm/cpu/armv7/spare_head.o
 .rel.text.Img_GetItemOffset
                0x00000000        0x0 arch/arm/cpu/armv7/spare_head.o
 .rel.text.Img_ReadItem
                0x4a0e49a8       0x28 arch/arm/cpu/armv7/spare_head.o
 .rel.text.Img_Fat_ReadItem
                0x00000000        0x0 arch/arm/cpu/armv7/spare_head.o
 .rel.text.Img_CloseItem
                0x4a0e49d0        0x8 arch/arm/cpu/armv7/spare_head.o
 .rel.text.Img_Close
                0x4a0e49d8        0x8 arch/arm/cpu/armv7/spare_head.o
 .rel.text.sunxi_sprite_store_part_data
                0x4a0e49e0       0x50 arch/arm/cpu/armv7/spare_head.o
 .rel.text.sunxi_sprite_restore_part_data
                0x4a0e4a30       0x38 arch/arm/cpu/armv7/spare_head.o
 .rel.text.sunxi_sprite_probe_prvt
                0x4a0e4a68       0x10 arch/arm/cpu/armv7/spare_head.o
 .rel.text.sunxi_sprite_erase_private_key
                0x4a0e4a78       0x30 arch/arm/cpu/armv7/spare_head.o
 .rel.text.__dump_dlmap
                0x4a0e4aa8       0x50 arch/arm/cpu/armv7/spare_head.o
 .rel.text.__dump_mbr
                0x4a0e4af8       0x50 arch/arm/cpu/armv7/spare_head.o
 .rel.text.sunxi_card_sprite_main
                0x4a0e4b48       0xe8 arch/arm/cpu/armv7/spare_head.o
 .rel.text.sunxi_sprite_erase_flash
                0x4a0e4c30       0xb8 arch/arm/cpu/armv7/spare_head.o
 .rel.text.sunxi_sprite_force_erase_key
                0x4a0e4ce8       0x28 arch/arm/cpu/armv7/spare_head.o
 .rel.text.Img_Open_from_sysrecovery
                0x4a0e4d10       0x40 arch/arm/cpu/armv7/spare_head.o
 .rel.text.card_part_info
                0x4a0e4d50       0x18 arch/arm/cpu/armv7/spare_head.o
 .rel.text.sprite_form_sysrecovery
                0x4a0e4d68       0xa8 arch/arm/cpu/armv7/spare_head.o
 .rel.text.sprite_timer_func
                0x4a0e4e10       0x20 arch/arm/cpu/armv7/spare_head.o
 .rel.text.sprite_led_init
                0x4a0e4e30       0x50 arch/arm/cpu/armv7/spare_head.o
 .rel.text.sprite_led_exit
                0x4a0e4e80       0x38 arch/arm/cpu/armv7/spare_head.o
 .rel.text.sunxi_mass_reset
                0x00000000        0x0 arch/arm/cpu/armv7/spare_head.o
 .rel.text.sunxi_mass_usb_rx_dma_isr
                0x00000000        0x0 arch/arm/cpu/armv7/spare_head.o
 .rel.text.sunxi_mass_state_loop
                0x00000000        0x0 arch/arm/cpu/armv7/spare_head.o
 .rel.text.sunxi_mass_standard_req_op
                0x00000000        0x0 arch/arm/cpu/armv7/spare_head.o
 .rel.text.sunxi_mass_exit
                0x00000000        0x0 arch/arm/cpu/armv7/spare_head.o
 .rel.text.sunxi_mass_nonstandard_req_op
                0x00000000        0x0 arch/arm/cpu/armv7/spare_head.o
 .rel.text.sunxi_mass_init
                0x00000000        0x0 arch/arm/cpu/armv7/spare_head.o
 .rel.text.sunxi_efex_reset
                0x4a0e4eb8       0x20 arch/arm/cpu/armv7/spare_head.o
 .rel.text.sunxi_efex_usb_rx_dma_isr
                0x4a0e4ed8        0x8 arch/arm/cpu/armv7/spare_head.o
 .rel.text.__sunxi_usb_efex_fill_status
                0x4a0e4ee0        0x8 arch/arm/cpu/armv7/spare_head.o
 .rel.text.sunxi_efex_exit
                0x4a0e4ee8       0x10 arch/arm/cpu/armv7/spare_head.o
 .rel.text.sunxi_efex_init
                0x4a0e4ef8       0x40 arch/arm/cpu/armv7/spare_head.o
 .rel.text.__sunxi_usb_efex_op_cmd
                0x4a0e4f38      0x100 arch/arm/cpu/armv7/spare_head.o
 .rel.text.dram_data_recv_finish
                0x4a0e5038       0x88 arch/arm/cpu/armv7/spare_head.o
 .rel.text.sunxi_efex_state_loop
                0x4a0e50c0      0x128 arch/arm/cpu/armv7/spare_head.o
 .rel.text.sunxi_efex_standard_req_op
                0x4a0e51e8       0xc0 arch/arm/cpu/armv7/spare_head.o
 .rel.text.sunxi_efex_nonstandard_req_op
                0x4a0e52a8       0x10 arch/arm/cpu/armv7/spare_head.o
 .rel.text.sunxi_fastboot_reset
                0x4a0e52b8       0x10 arch/arm/cpu/armv7/spare_head.o
 .rel.text.sunxi_fastboot_usb_tx_dma_isr
                0x4a0e52c8        0x8 arch/arm/cpu/armv7/spare_head.o
 .rel.text.sunxi_fastboot_usb_rx_dma_isr
                0x4a0e52d0       0x10 arch/arm/cpu/armv7/spare_head.o
 .rel.text.erase_userdata
                0x4a0e52e0       0x28 arch/arm/cpu/armv7/spare_head.o
 .rel.text.sunxi_fastboot_exit
                0x4a0e5308       0x10 arch/arm/cpu/armv7/spare_head.o
 .rel.text.__fastboot_reboot
                0x4a0e5318        0x8 arch/arm/cpu/armv7/spare_head.o
 .rel.text.__limited_fastboot
                0x4a0e5320       0x10 arch/arm/cpu/armv7/spare_head.o
 .rel.text.sunxi_fastboot_standard_req_op
                0x4a0e5330       0xc8 arch/arm/cpu/armv7/spare_head.o
 .rel.text.get_fastboot_data_flag
                0x4a0e53f8        0x8 arch/arm/cpu/armv7/spare_head.o
 .rel.text.unlikely.sunxi_fastboot_write_status_flag
                0x4a0e5400       0x40 arch/arm/cpu/armv7/spare_head.o
 .rel.text.sunxi_oem_op_lock
                0x4a0e5440       0x38 arch/arm/cpu/armv7/spare_head.o
 .rel.text.sunxi_fastboot_status_read
                0x4a0e5478       0x60 arch/arm/cpu/armv7/spare_head.o
 .rel.text.sunxi_fastboot_status
                0x4a0e54d8        0x8 arch/arm/cpu/armv7/spare_head.o
 .rel.text.sunxi_fastboot_state_loop
                0x4a0e54e0      0x3e0 arch/arm/cpu/armv7/spare_head.o
 .rel.text.buf_queue_init
                0x00000000        0x0 arch/arm/cpu/armv7/spare_head.o
 .rel.text.buf_queue_exit
                0x00000000        0x0 arch/arm/cpu/armv7/spare_head.o
 .rel.text.buf_queue_empty
                0x00000000        0x0 arch/arm/cpu/armv7/spare_head.o
 .rel.text.buf_queue_full
                0x00000000        0x0 arch/arm/cpu/armv7/spare_head.o
 .rel.text.buf_queue_free_size
                0x00000000        0x0 arch/arm/cpu/armv7/spare_head.o
 .rel.text.buf_queue_get_page_size
                0x00000000        0x0 arch/arm/cpu/armv7/spare_head.o
 .rel.text.buf_enqueue
                0x00000000        0x0 arch/arm/cpu/armv7/spare_head.o
 .rel.text.buf_dequeue
                0x00000000        0x0 arch/arm/cpu/armv7/spare_head.o
 .rel.text.efex_queue_init
                0x00000000        0x0 arch/arm/cpu/armv7/spare_head.o
 .rel.text.efex_queue_exit
                0x00000000        0x0 arch/arm/cpu/armv7/spare_head.o
 .rel.text.efex_queue_write_one_page
                0x00000000        0x0 arch/arm/cpu/armv7/spare_head.o
 .rel.text.efex_queue_write_all_page
                0x00000000        0x0 arch/arm/cpu/armv7/spare_head.o
 .rel.text.efex_save_buff_to_queue
                0x00000000        0x0 arch/arm/cpu/armv7/spare_head.o
 .rel.text.sunxi_pburn_reset
                0x4a0e58c0       0x10 arch/arm/cpu/armv7/spare_head.o
 .rel.text.sunxi_pburn_usb_rx_dma_isr
                0x4a0e58d0        0x8 arch/arm/cpu/armv7/spare_head.o
 .rel.text.sunxi_pburn_exit
                0x4a0e58d8        0x8 arch/arm/cpu/armv7/spare_head.o
 .rel.text.sunxi_pburn_standard_req_op
                0x4a0e58e0       0xc0 arch/arm/cpu/armv7/spare_head.o
 .rel.text.sunxi_pburn_init
                0x4a0e59a0       0x28 arch/arm/cpu/armv7/spare_head.o
 .rel.text.sunxi_pburn_nonstandard_req_op
                0x4a0e59c8       0x10 arch/arm/cpu/armv7/spare_head.o
 .rel.text.sunxi_key_ladder_verify_rotpk_hash
                0x00000000        0x0 arch/arm/cpu/armv7/spare_head.o
 .rel.text.smc_set_sst_crypt_name
                0x00000000        0x0 arch/arm/cpu/armv7/spare_head.o
 .rel.text.sunxi_verify_rotpk_hash
                0x4a0e59d8       0x10 arch/arm/cpu/armv7/spare_head.o
 .rel.text.sunxi_deal_hdcp_key
                0x4a0e59e8       0x10 arch/arm/cpu/armv7/spare_head.o
 .rel.text.sunxi_secure_object_down
                0x4a0e59f8       0x10 arch/arm/cpu/armv7/spare_head.o
 .rel.text.set_usb_burn_boot_init_flag
                0x4a0e5a08        0x8 arch/arm/cpu/armv7/spare_head.o
 .rel.text.__sunxi_burn_key
                0x4a0e5a10      0x100 arch/arm/cpu/armv7/spare_head.o
 .rel.text.__sunxi_read_key_by_name
                0x4a0e5b10       0x58 arch/arm/cpu/armv7/spare_head.o
 .rel.text.__sunxi_erase_key
                0x4a0e5b68        0x8 arch/arm/cpu/armv7/spare_head.o
 .rel.text.__sunxi_burn_flag
                0x4a0e5b70       0x28 arch/arm/cpu/armv7/spare_head.o
 .rel.text.sunxi_burn_part_verify
                0x4a0e5b98       0x18 arch/arm/cpu/armv7/spare_head.o
 .rel.text.burn_part_probe
                0x4a0e5bb0       0x50 arch/arm/cpu/armv7/spare_head.o
 .rel.text.sunxi_pburn_state_loop
                0x4a0e5c00      0x368 arch/arm/cpu/armv7/spare_head.o
 .rel.text.sunxi_usb_dev_register
                0x4a0e5f68       0x20 arch/arm/cpu/armv7/spare_head.o
 .rel.text.__usb_bulk_ep_reset
                0x4a0e5f88        0x8 arch/arm/cpu/armv7/spare_head.o
 .rel.text.__usb_read_ep0_data
                0x4a0e5f90       0x10 arch/arm/cpu/armv7/spare_head.o
 .rel.text.sunxi_usb_irq
                0x4a0e5fa0       0xe0 arch/arm/cpu/armv7/spare_head.o
 .rel.text.otg_phy_config
                0x4a0e6080        0x8 arch/arm/cpu/armv7/spare_head.o
 .rel.text.sunxi_usb_init
                0x4a0e6088       0x50 arch/arm/cpu/armv7/spare_head.o
 .rel.text.sunxi_usb_exit
                0x4a0e60d8       0x18 arch/arm/cpu/armv7/spare_head.o
 .rel.text.sunxi_udc_start_recv_by_dma
                0x4a0e60f0       0x20 arch/arm/cpu/armv7/spare_head.o
 .rel.text.sunxi_udc_send_setup
                0x4a0e6110        0x8 arch/arm/cpu/armv7/spare_head.o
 .rel.text.sunxi_udc_set_address
                0x4a0e6118        0x8 arch/arm/cpu/armv7/spare_head.o
 .rel.text.sunxi_udc_send_data
                0x4a0e6120       0x10 arch/arm/cpu/armv7/spare_head.o
 .rel.text.sunxi_udc_get_ep_max
                0x4a0e6130        0x8 arch/arm/cpu/armv7/spare_head.o
 .rel.text.sunxi_usb_main_loop
                0x4a0e6138       0x28 arch/arm/cpu/armv7/spare_head.o
 .rel.text.sunxi_usb_extern_loop
                0x4a0e6160       0x10 arch/arm/cpu/armv7/spare_head.o
 .rel.text.__usb_index_check
                0x4a0e6170       0x18 arch/arm/cpu/armv7/spare_head.o
 .rel.text.usb_dma_init
                0x4a0e6188        0x8 arch/arm/cpu/armv7/spare_head.o
 .rel.text.usb_dma_request
                0x4a0e6190        0x8 arch/arm/cpu/armv7/spare_head.o
 .rel.text.usb_dma_release
                0x4a0e6198        0x8 arch/arm/cpu/armv7/spare_head.o
 .rel.text.usb_dma_setting
                0x4a0e61a0        0x8 arch/arm/cpu/armv7/spare_head.o
 .rel.text.usb_dma_set_pktlen
                0x4a0e61a8        0x8 arch/arm/cpu/armv7/spare_head.o
 .rel.text.usb_dma_start
                0x4a0e61b0        0x8 arch/arm/cpu/armv7/spare_head.o
 .rel.text.usb_dma_stop
                0x4a0e61b8        0x8 arch/arm/cpu/armv7/spare_head.o
 .rel.text.usb_dma_int_query
                0x4a0e61c0        0x8 arch/arm/cpu/armv7/spare_head.o
 .rel.text.usb_dma_int_clear
                0x4a0e61c8        0x8 arch/arm/cpu/armv7/spare_head.o
 .rel.data.setup_req_SUNXI_USB_DEVICE_MASS
                0x00000000        0x0 arch/arm/cpu/armv7/spare_head.o
 .rel.data.sunxi_usb_mass_dev
                0x00000000        0x0 arch/arm/cpu/armv7/spare_head.o
 .rel.data.setup_req_2
                0x4a0e61d0       0x40 arch/arm/cpu/armv7/spare_head.o
 .rel.data.setup_req_3
                0x4a0e6210       0x40 arch/arm/cpu/armv7/spare_head.o
 .rel.data.sunxi_usb_fastboot_dev
                0x4a0e6250       0x30 arch/arm/cpu/armv7/spare_head.o
 .rel.data.setup_req_4
                0x4a0e6280       0x40 arch/arm/cpu/armv7/spare_head.o
 .rel.data.sunxi_usb_pburn_dev
                0x00000000        0x0 arch/arm/cpu/armv7/spare_head.o
 .rel.text.raise
                0x4a0e62c0        0x8 arch/arm/cpu/armv7/spare_head.o
 .rel.text.print_free_list
                0x4a0e62c8       0x20 arch/arm/cpu/armv7/spare_head.o
 .rel.text.print_block_invalid_list
                0x4a0e62e8       0x20 arch/arm/cpu/armv7/spare_head.o
 .rel.text.print_block_count_list
                0x00000000        0x0 arch/arm/cpu/armv7/spare_head.o
 .rel.text.put_phy_block_to_free_list
                0x4a0e6308        0x8 arch/arm/cpu/armv7/spare_head.o
 .rel.text.put_phy_block_to_invalid_page_list
                0x4a0e6310        0x8 arch/arm/cpu/armv7/spare_head.o
 .rel.text.phy_block_from_invalid_page_incr
                0x4a0e6318       0x10 arch/arm/cpu/armv7/spare_head.o
 .rel.text._nftl_nand_read_logic_page
                0x4a0e6328        0x8 arch/arm/cpu/armv7/spare_head.o
 .rel.text.do_write_error
                0x4a0e6330       0x10 arch/arm/cpu/armv7/spare_head.o
 .rel.text.write_phy_data_to_current_block
                0x4a0e6340       0x20 arch/arm/cpu/armv7/spare_head.o
 .rel.text.write_logic_data_to_current_block
                0x4a0e6360       0x18 arch/arm/cpu/armv7/spare_head.o
 .rel.text.write_data_to_page
                0x4a0e6378        0x8 arch/arm/cpu/armv7/spare_head.o
 .rel.text.get_new_current_block
                0x4a0e6380       0x10 arch/arm/cpu/armv7/spare_head.o
 .rel.text.new_block_init_for_write
                0x4a0e6390        0x8 arch/arm/cpu/armv7/spare_head.o
 .rel.text.do_before_write
                0x4a0e6398       0x10 arch/arm/cpu/armv7/spare_head.o
 .rel.text.check_invalid_page_right
                0x4a0e63a8       0x10 arch/arm/cpu/armv7/spare_head.o
 .rel.text.write_phy_page_map_to_current_block
                0x4a0e63b8        0x8 arch/arm/cpu/armv7/spare_head.o
 .rel.text.nftl_ops_init
                0x4a0e63c0       0x48 arch/arm/cpu/armv7/spare_head.o
 .rel.text.do_after_write
                0x4a0e6408       0x18 arch/arm/cpu/armv7/spare_head.o
 .rel.text.nand_write_data_page
                0x4a0e6420       0x20 arch/arm/cpu/armv7/spare_head.o
 .rel.text._nftl_nand_write_logic_page
                0x4a0e6440        0x8 arch/arm/cpu/armv7/spare_head.o
 .rel.text.fill_no_use_data_to_page
                0x00000000        0x0 arch/arm/cpu/armv7/spare_head.o
 .rel.text.check_static_wear_leveling
                0x00000000        0x0 arch/arm/cpu/armv7/spare_head.o
 .rel.text.garbage_collect_first
                0x4a0e6448       0x68 arch/arm/cpu/armv7/spare_head.o
 .rel.text.gc_one
                0x4a0e64b0       0x10 arch/arm/cpu/armv7/spare_head.o
 .rel.text.gc_win_block
                0x4a0e64c0        0x8 arch/arm/cpu/armv7/spare_head.o
 .rel.text.gc_all
                0x00000000        0x0 arch/arm/cpu/armv7/spare_head.o
 .rel.text.garbage_collect
                0x4a0e64c8       0x18 arch/arm/cpu/armv7/spare_head.o
 .rel.text.done_static_wear_leveling
                0x00000000        0x0 arch/arm/cpu/armv7/spare_head.o
 .rel.text.do_prio_gc
                0x4a0e64e0       0x28 arch/arm/cpu/armv7/spare_head.o
 .rel.text.power_on_gc
                0x4a0e6508       0x18 arch/arm/cpu/armv7/spare_head.o
 .rel.text.nftl_cache_init
                0x4a0e6520       0x18 arch/arm/cpu/armv7/spare_head.o
 .rel.text.nand_cache_read
                0x4a0e6538       0x10 arch/arm/cpu/armv7/spare_head.o
 .rel.text.nand_op
                0x4a0e6548       0x18 arch/arm/cpu/armv7/spare_head.o
 .rel.text.__nand_write
                0x4a0e6560        0x8 arch/arm/cpu/armv7/spare_head.o
 .rel.text.__nand_read
                0x4a0e6568        0x8 arch/arm/cpu/armv7/spare_head.o
 .rel.text.flush_write_cache_to_nand
                0x4a0e6570       0x18 arch/arm/cpu/armv7/spare_head.o
 .rel.text.nand_cache_write
                0x4a0e6588       0x38 arch/arm/cpu/armv7/spare_head.o
 .rel.text.__nand_flush_write_cache
                0x4a0e65c0       0x10 arch/arm/cpu/armv7/spare_head.o
 .rel.text.nand_discard
                0x4a0e65d0        0x8 arch/arm/cpu/armv7/spare_head.o
 .rel.text.__nand_discard
                0x4a0e65d8        0x8 arch/arm/cpu/armv7/spare_head.o
 .rel.text.print_logic_page_map
                0x00000000        0x0 arch/arm/cpu/armv7/spare_head.o
 .rel.text.nftl_sector_cache_init
                0x00000000        0x0 arch/arm/cpu/armv7/spare_head.o
 .rel.text.nand_sector_cache_read
                0x00000000        0x0 arch/arm/cpu/armv7/spare_head.o
 .rel.text.nand_sector_cache_write
                0x00000000        0x0 arch/arm/cpu/armv7/spare_head.o
 .rel.text.__nand_flush_sector_write_cache
                0x00000000        0x0 arch/arm/cpu/armv7/spare_head.o
 .rel.text.malloc_logic_page_map
                0x4a0e65e0       0x18 arch/arm/cpu/armv7/spare_head.o
 .rel.text.zone_param_init
                0x4a0e65f8       0x38 arch/arm/cpu/armv7/spare_head.o
 .rel.text.init_zone_after_first_scan
                0x4a0e6630       0x18 arch/arm/cpu/armv7/spare_head.o
 .rel.text.recover_phy_page_mapping
                0x4a0e6648       0x28 arch/arm/cpu/armv7/spare_head.o
 .rel.text.recover_block_phy_page_mapping
                0x4a0e6670        0x8 arch/arm/cpu/armv7/spare_head.o
 .rel.text.recover_logic_page_mapping
                0x4a0e6678       0x18 arch/arm/cpu/armv7/spare_head.o
 .rel.text.do_write_error_in_build_list
                0x00000000        0x0 arch/arm/cpu/armv7/spare_head.o
 .rel.text.init_nrc
                0x4a0e6690       0x18 arch/arm/cpu/armv7/spare_head.o
 .rel.text.erase_block
                0x4a0e66a8       0x10 arch/arm/cpu/armv7/spare_head.o
 .rel.text.first_scan_all_blocks
                0x4a0e66b8       0x58 arch/arm/cpu/armv7/spare_head.o
 .rel.text.build_zone_list_first
                0x4a0e6710       0x10 arch/arm/cpu/armv7/spare_head.o
 .rel.text.is_no_use_device
                0x4a0e6720        0x8 arch/arm/cpu/armv7/spare_head.o
 .rel.text.get_used_page_num
                0x4a0e6728       0x20 arch/arm/cpu/armv7/spare_head.o
 .rel.text.cross_talk_rebuild_current_block
                0x4a0e6748       0x50 arch/arm/cpu/armv7/spare_head.o
 .rel.text.get_used_page_num_no_crosstalk
                0x4a0e6798       0x10 arch/arm/cpu/armv7/spare_head.o
 .rel.text.no_cross_talk_rebuild_current_block
                0x4a0e67a8       0x60 arch/arm/cpu/armv7/spare_head.o
 .rel.text.current_block_ecc_error
                0x4a0e6808       0x40 arch/arm/cpu/armv7/spare_head.o
 .rel.text.get_current_used_block
                0x4a0e6848       0x60 arch/arm/cpu/armv7/spare_head.o
 .rel.text.second_scan_all_blocks
                0x4a0e68a8       0x98 arch/arm/cpu/armv7/spare_head.o
 .rel.text.block_last_page_ecc_error
                0x00000000        0x0 arch/arm/cpu/armv7/spare_head.o
 .rel.text.adjust_free_list
                0x00000000        0x0 arch/arm/cpu/armv7/spare_head.o
 .rel.text.print_nftl_zone
                0x4a0e6940      0x1a8 arch/arm/cpu/armv7/spare_head.o
 .rel.text.build_zone_list
                0x4a0e6ae8       0x20 arch/arm/cpu/armv7/spare_head.o
 .rel.text.nand_dbg_phy_read
                0x00000000        0x0 arch/arm/cpu/armv7/spare_head.o
 .rel.text.nand_dbg_zone_phy_read
                0x00000000        0x0 arch/arm/cpu/armv7/spare_head.o
 .rel.text.nand_dbg_zone_phy_write
                0x00000000        0x0 arch/arm/cpu/armv7/spare_head.o
 .rel.text.nand_dbg_phy_write
                0x00000000        0x0 arch/arm/cpu/armv7/spare_head.o
 .rel.text.nand_clean_zone_table2
                0x00000000        0x0 arch/arm/cpu/armv7/spare_head.o
 .rel.text.nand_find_zone_table
                0x00000000        0x0 arch/arm/cpu/armv7/spare_head.o
 .rel.text.write_data_to_nand
                0x00000000        0x0 arch/arm/cpu/armv7/spare_head.o
 .rel.text.nand_check_table
                0x00000000        0x0 arch/arm/cpu/armv7/spare_head.o
 .rel.text.nftl_start
                0x4a0e6b08       0x50 arch/arm/cpu/armv7/spare_head.o
 .rel.text.print_smart
                0x4a0e6b58       0xc0 arch/arm/cpu/armv7/spare_head.o
 .rel.text.nftl_malloc
                0x4a0e6c18        0x8 arch/arm/cpu/armv7/spare_head.o
 .rel.text.nftl_initialize
                0x4a0e6c20       0x58 arch/arm/cpu/armv7/spare_head.o
 .rel.text.nftl_add
                0x4a0e6c78       0x28 arch/arm/cpu/armv7/spare_head.o
 .rel.text.nftl_build_one
                0x4a0e6ca0       0x10 arch/arm/cpu/armv7/spare_head.o
 .rel.text.nftl_build_all
                0x4a0e6cb0       0x10 arch/arm/cpu/armv7/spare_head.o
 .rel.text.nand_ftl_exit
                0x00000000        0x0 arch/arm/cpu/armv7/spare_head.o
 .rel.text.print_all_nftl_blk
                0x00000000        0x0 arch/arm/cpu/armv7/spare_head.o
 .rel.text.get_nftl_num
                0x00000000        0x0 arch/arm/cpu/armv7/spare_head.o
 .rel.text.get_nftl_cap
                0x4a0e6cc0        0x8 arch/arm/cpu/armv7/spare_head.o
 .rel.text.get_first_nftl_cap
                0x00000000        0x0 arch/arm/cpu/armv7/spare_head.o
 .rel.text.nftl_read
                0x4a0e6cc8       0x10 arch/arm/cpu/armv7/spare_head.o
 .rel.text.nftl_write
                0x4a0e6cd8       0x10 arch/arm/cpu/armv7/spare_head.o
 .rel.text.nftl_discard
                0x00000000        0x0 arch/arm/cpu/armv7/spare_head.o
 .rel.text.nftl_flush_write_cache
                0x4a0e6ce8        0x8 arch/arm/cpu/armv7/spare_head.o
 .rel.text.nftl_write_end
                0x00000000        0x0 arch/arm/cpu/armv7/spare_head.o
 .rel.text.build_nand_partition
                0x4a0e6cf0       0x48 arch/arm/cpu/armv7/spare_head.o
 .rel.text.add_new_bad_block
                0x4a0e6d38        0x8 arch/arm/cpu/armv7/spare_head.o
 .rel.text.put_factory_bad_block
                0x4a0e6d40        0x8 arch/arm/cpu/armv7/spare_head.o
 .rel.text.print_phy_partition
                0x4a0e6d48       0x60 arch/arm/cpu/armv7/spare_head.o
 .rel.text.print_all_bad_block
                0x4a0e6da8       0x18 arch/arm/cpu/armv7/spare_head.o
 .rel.text.build_phy_partition
                0x4a0e6dc0       0x68 arch/arm/cpu/armv7/spare_head.o
 .rel.text.erase_phy_partition
                0x00000000        0x0 arch/arm/cpu/armv7/spare_head.o
 .rel.text.erase_last_phy_partition
                0x00000000        0x0 arch/arm/cpu/armv7/spare_head.o
 .rel.text.write_mbr
                0x4a0e6e28       0x18 arch/arm/cpu/armv7/spare_head.o
 .rel.text.write_factory_block_table
                0x4a0e6e40       0x20 arch/arm/cpu/armv7/spare_head.o
 .rel.text.print_factory_block_table
                0x4a0e6e60        0x8 arch/arm/cpu/armv7/spare_head.o
 .rel.text.write_new_block_table
                0x00000000        0x0 arch/arm/cpu/armv7/spare_head.o
 .rel.text.write_no_use_block
                0x4a0e6e68       0x18 arch/arm/cpu/armv7/spare_head.o
 .rel.text.read_new_bad_block_table
                0x4a0e6e80       0x20 arch/arm/cpu/armv7/spare_head.o
 .rel.text.print_nand_info
                0x4a0e6ea0       0x88 arch/arm/cpu/armv7/spare_head.o
 .rel.text.build_all_phy_partition
                0x4a0e6f28       0x50 arch/arm/cpu/armv7/spare_head.o
 .rel.text.nand_info_init_v1
                0x4a0e6f78       0x78 arch/arm/cpu/armv7/spare_head.o
 .rel.text.debug_read_block
                0x00000000        0x0 arch/arm/cpu/armv7/spare_head.o
 .rel.text.debug_read_chip
                0x00000000        0x0 arch/arm/cpu/armv7/spare_head.o
 .rel.text.print_partition
                0x4a0e6ff0       0x48 arch/arm/cpu/armv7/spare_head.o
 .rel.text.launch_build_phy_partition
                0x4a0e7038       0x68 arch/arm/cpu/armv7/spare_head.o
 .rel.text.mp_build_phy_partition
                0x4a0e70a0       0x70 arch/arm/cpu/armv7/spare_head.o
 .rel.text.print_boot_info
                0x4a0e7110       0x58 arch/arm/cpu/armv7/spare_head.o
 .rel.text.get_no_use_block_v3
                0x4a0e7168        0x8 arch/arm/cpu/armv7/spare_head.o
 .rel.text.write_mbr_v2
                0x4a0e7170       0x20 arch/arm/cpu/armv7/spare_head.o
 .rel.text.read_mbr_v2
                0x4a0e7190       0x18 arch/arm/cpu/armv7/spare_head.o
 .rel.text.check_mbr_v3
                0x4a0e71a8       0x10 arch/arm/cpu/armv7/spare_head.o
 .rel.text.check_mbr_v2
                0x4a0e71b8        0x8 arch/arm/cpu/armv7/spare_head.o
 .rel.text.write_partition_v2
                0x4a0e71c0       0x18 arch/arm/cpu/armv7/spare_head.o
 .rel.text.read_partition_v2
                0x4a0e71d8       0x18 arch/arm/cpu/armv7/spare_head.o
 .rel.text.read_mbr_partition_v3
                0x4a0e71f0        0x8 arch/arm/cpu/armv7/spare_head.o
 .rel.text.write_factory_block_table_v2
                0x4a0e71f8       0x28 arch/arm/cpu/armv7/spare_head.o
 .rel.text.print_factory_block_table_v2
                0x4a0e7220        0x8 arch/arm/cpu/armv7/spare_head.o
 .rel.text.read_factory_block_v3
                0x4a0e7228       0x20 arch/arm/cpu/armv7/spare_head.o
 .rel.text.write_new_block_table_v2_old
                0x4a0e7248       0x18 arch/arm/cpu/armv7/spare_head.o
 .rel.text.write_new_block_table_v2_new
                0x4a0e7260       0x18 arch/arm/cpu/armv7/spare_head.o
 .rel.text.write_new_block_table_v2
                0x4a0e7278       0x18 arch/arm/cpu/armv7/spare_head.o
 .rel.text.write_new_block_table_v2_new_first_build
                0x4a0e7290       0x18 arch/arm/cpu/armv7/spare_head.o
 .rel.text.write_no_use_block_v2
                0x4a0e72a8       0x18 arch/arm/cpu/armv7/spare_head.o
 .rel.text.read_new_bad_block_table_v2_old
                0x4a0e72c0       0x20 arch/arm/cpu/armv7/spare_head.o
 .rel.text.read_new_bad_block_table_v2_new
                0x4a0e72e0       0x10 arch/arm/cpu/armv7/spare_head.o
 .rel.text.read_new_bad_block_table_v2
                0x4a0e72f0       0x18 arch/arm/cpu/armv7/spare_head.o
 .rel.text.print_nand_info_v2
                0x4a0e7308       0xc0 arch/arm/cpu/armv7/spare_head.o
 .rel.text.get_partition_v2
                0x4a0e73c8       0x20 arch/arm/cpu/armv7/spare_head.o
 .rel.text.get_partition_v3
                0x4a0e73e8       0x28 arch/arm/cpu/armv7/spare_head.o
 .rel.text.new_print_all_partition
                0x4a0e7410       0x10 arch/arm/cpu/armv7/spare_head.o
 .rel.text.build_all_phy_partition_v2
                0x4a0e7420       0x10 arch/arm/cpu/armv7/spare_head.o
 .rel.text.nand_info_init_v2
                0x4a0e7430       0x90 arch/arm/cpu/armv7/spare_head.o
 .rel.text.nand_info_init_v3
                0x4a0e74c0       0x68 arch/arm/cpu/armv7/spare_head.o
 .rel.text.nand_info_init
                0x4a0e7528       0x58 arch/arm/cpu/armv7/spare_head.o
 .rel.text.print_mbr_data
                0x00000000        0x0 arch/arm/cpu/armv7/spare_head.o
 .rel.text.show_nctri
                0x4a0e7580       0xa0 arch/arm/cpu/armv7/spare_head.o
 .rel.text.show_nci
                0x4a0e7620      0x120 arch/arm/cpu/armv7/spare_head.o
 .rel.text.show_nsci
                0x4a0e7740       0x90 arch/arm/cpu/armv7/spare_head.o
 .rel.text.show_nsi
                0x4a0e77d0       0x20 arch/arm/cpu/armv7/spare_head.o
 .rel.text.show_nssi
                0x4a0e77f0       0x38 arch/arm/cpu/armv7/spare_head.o
 .rel.text.show_static_info
                0x4a0e7828        0x8 arch/arm/cpu/armv7/spare_head.o
 .rel.text.show_spare
                0x00000000        0x0 arch/arm/cpu/armv7/spare_head.o
 .rel.text.nand_show_data
                0x00000000        0x0 arch/arm/cpu/armv7/spare_head.o
 .rel.text.show_dict_page
                0x00000000        0x0 arch/arm/cpu/armv7/spare_head.o
 .rel.text.show_logic_page_all_history
                0x00000000        0x0 arch/arm/cpu/armv7/spare_head.o
 .rel.text.nand_super_page_test
                0x00000000        0x0 arch/arm/cpu/armv7/spare_head.o
 .rel.text.nand_phy_page_test
                0x00000000        0x0 arch/arm/cpu/armv7/spare_head.o
 .rel.text.nand_phy_block_test
                0x00000000        0x0 arch/arm/cpu/armv7/spare_head.o
 .rel.text.nand_phy_block_erase_test
                0x00000000        0x0 arch/arm/cpu/armv7/spare_head.o
 .rel.text.nand_phy_erase_all
                0x00000000        0x0 arch/arm/cpu/armv7/spare_head.o
 .rel.text.nand_phy_check_all
                0x00000000        0x0 arch/arm/cpu/armv7/spare_head.o
 .rel.text.nand_phy_read_block_test
                0x00000000        0x0 arch/arm/cpu/armv7/spare_head.o
 .rel.text.nand_update_end
                0x00000000        0x0 arch/arm/cpu/armv7/spare_head.o
 .rel.text.nand_cfg_setting
                0x4a0e7830       0x18 arch/arm/cpu/armv7/spare_head.o
 .rel.text.NandHwInit
                0x4a0e7848       0x28 arch/arm/cpu/armv7/spare_head.o
 .rel.text.NandHwSuperStandby
                0x00000000        0x0 arch/arm/cpu/armv7/spare_head.o
 .rel.text.NandHwSuperResume
                0x00000000        0x0 arch/arm/cpu/armv7/spare_head.o
 .rel.text.NandHwNormalStandby
                0x00000000        0x0 arch/arm/cpu/armv7/spare_head.o
 .rel.text.NandHwNormalResume
                0x00000000        0x0 arch/arm/cpu/armv7/spare_head.o
 .rel.text.NandHwShutDown
                0x00000000        0x0 arch/arm/cpu/armv7/spare_head.o
 .rel.text.NAND_GetLogicPageSize
                0x00000000        0x0 arch/arm/cpu/armv7/spare_head.o
 .rel.text.do_nand_interrupt
                0x00000000        0x0 arch/arm/cpu/armv7/spare_head.o
 .rel.text.nand_write_nboot_data
                0x4a0e7870       0x18 arch/arm/cpu/armv7/spare_head.o
 .rel.text.nand_read_nboot_data
                0x4a0e7888       0x28 arch/arm/cpu/armv7/spare_head.o
 .rel.text.nand_check_nboot
                0x00000000        0x0 arch/arm/cpu/armv7/spare_head.o
 .rel.text.nand_write_uboot_one_in_block
                0x4a0e78b0       0x38 arch/arm/cpu/armv7/spare_head.o
 .rel.text.nand_write_uboot_one_in_many_block
                0x4a0e78e8       0x40 arch/arm/cpu/armv7/spare_head.o
 .rel.text.nand_read_uboot_one_in_block
                0x4a0e7928       0x30 arch/arm/cpu/armv7/spare_head.o
 .rel.text.nand_read_uboot_one_in_many_block
                0x4a0e7958       0x48 arch/arm/cpu/armv7/spare_head.o
 .rel.text.nand_read_uboot_one
                0x4a0e79a0       0x10 arch/arm/cpu/armv7/spare_head.o
 .rel.text.nand_read_uboot_data
                0x4a0e79b0       0x10 arch/arm/cpu/armv7/spare_head.o
 .rel.text.nand_get_param
                0x4a0e79c0       0x30 arch/arm/cpu/armv7/spare_head.o
 .rel.text.nand_get_param_for_uboottail
                0x4a0e79f0       0x38 arch/arm/cpu/armv7/spare_head.o
 .rel.text.NAND_UpdatePhyArch
                0x4a0e7a28       0x48 arch/arm/cpu/armv7/spare_head.o
 .rel.text.nand_is_blank
                0x4a0e7a70       0x18 arch/arm/cpu/armv7/spare_head.o
 .rel.text.nand_check_bad_block_before_first_erase
                0x4a0e7a88       0x10 arch/arm/cpu/armv7/spare_head.o
 .rel.text.nand_erase_chip
                0x4a0e7a98       0x10 arch/arm/cpu/armv7/spare_head.o
 .rel.text.nand_erase_special_block
                0x4a0e7aa8       0x20 arch/arm/cpu/armv7/spare_head.o
 .rel.text.nand_dragonborad_test_one
                0x00000000        0x0 arch/arm/cpu/armv7/spare_head.o
 .rel.text.change_uboot_start_block
                0x00000000        0x0 arch/arm/cpu/armv7/spare_head.o
 .rel.text.set_uboot_start_and_end_block
                0x4a0e7ac8       0x10 arch/arm/cpu/armv7/spare_head.o
 .rel.text.get_uboot_start_block
                0x4a0e7ad8       0x10 arch/arm/cpu/armv7/spare_head.o
 .rel.text.get_uboot_next_block
                0x4a0e7ae8       0x10 arch/arm/cpu/armv7/spare_head.o
 .rel.text.get_physic_block_reserved
                0x00000000        0x0 arch/arm/cpu/armv7/spare_head.o
 .rel.text.print_uboot_info
                0x00000000        0x0 arch/arm/cpu/armv7/spare_head.o
 .rel.text.init_phyinfo_buf
                0x4a0e7af8       0x10 arch/arm/cpu/armv7/spare_head.o
 .rel.text.physic_info_get_offset
                0x4a0e7b08       0x20 arch/arm/cpu/armv7/spare_head.o
 .rel.text.physic_info_get_one_copy
                0x4a0e7b28       0x30 arch/arm/cpu/armv7/spare_head.o
 .rel.text.clean_physic_info
                0x4a0e7b58       0x10 arch/arm/cpu/armv7/spare_head.o
 .rel.text.nand_uboot_erase_all_chip
                0x4a0e7b68       0x10 arch/arm/cpu/armv7/spare_head.o
 .rel.text.add_len_to_uboot_tail
                0x4a0e7b78       0x10 arch/arm/cpu/armv7/spare_head.o
 .rel.text.nand_write_uboot_one
                0x4a0e7b88       0x18 arch/arm/cpu/armv7/spare_head.o
 .rel.text.nand_check_uboot
                0x00000000        0x0 arch/arm/cpu/armv7/spare_head.o
 .rel.text.nand_write_uboot_data
                0x4a0e7ba0       0x10 arch/arm/cpu/armv7/spare_head.o
 .rel.text.print_physic_info
                0x00000000        0x0 arch/arm/cpu/armv7/spare_head.o
 .rel.text.physic_info_add_to_uboot_tail
                0x00000000        0x0 arch/arm/cpu/armv7/spare_head.o
 .rel.text.is_uboot_block
                0x4a0e7bb0        0x8 arch/arm/cpu/armv7/spare_head.o
 .rel.text.physic_info_read
                0x4a0e7bb8       0x40 arch/arm/cpu/armv7/spare_head.o
 .rel.text.uboot_info_init
                0x00000000        0x0 arch/arm/cpu/armv7/spare_head.o
 .rel.text.nand_get_uboot_total_len
                0x00000000        0x0 arch/arm/cpu/armv7/spare_head.o
 .rel.text.set_hynix_special_info
                0x4a0e7bf8       0x10 arch/arm/cpu/armv7/spare_head.o
 .rel.text.nand_init_temp_buf
                0x4a0e7c08       0x18 arch/arm/cpu/armv7/spare_head.o
 .rel.text.init_parameter
                0x4a0e7c20       0x60 arch/arm/cpu/armv7/spare_head.o
 .rel.text.nand_physic_init
                0x4a0e7c80       0x58 arch/arm/cpu/armv7/spare_head.o
 .rel.text.nand_physic_exit
                0x4a0e7cd8       0x88 arch/arm/cpu/armv7/spare_head.o
 .rel.text.nand_get_temp_buf
                0x4a0e7d60       0x38 arch/arm/cpu/armv7/spare_head.o
 .rel.text.nand_free_temp_buf
                0x4a0e7d98       0x10 arch/arm/cpu/armv7/spare_head.o
 .rel.text.NAND_GetPageCntPerBlk
                0x4a0e7da8        0x8 arch/arm/cpu/armv7/spare_head.o
 .rel.text.NAND_GetPageSize
                0x4a0e7db0        0x8 arch/arm/cpu/armv7/spare_head.o
 .rel.text.NAND_Get_SecureBlock_Start
                0x00000000        0x0 arch/arm/cpu/armv7/spare_head.o
 .rel.text.nand_secure_storage_clean_data
                0x00000000        0x0 arch/arm/cpu/armv7/spare_head.o
 .rel.text.is_nand_secure_storage_build
                0x00000000        0x0 arch/arm/cpu/armv7/spare_head.o
 .rel.text.is_nand_secure_storage_block
                0x4a0e7db8       0x18 arch/arm/cpu/armv7/spare_head.o
 .rel.text.nand_secure_storage_read_one
                0x4a0e7dd0       0x10 arch/arm/cpu/armv7/spare_head.o
 .rel.text.nand_secure_storage_write_init
                0x4a0e7de0       0x18 arch/arm/cpu/armv7/spare_head.o
 .rel.text.nand_secure_storage_first_build
                0x4a0e7df8       0x28 arch/arm/cpu/armv7/spare_head.o
 .rel.text.nand_secure_storage_read
                0x4a0e7e20       0x20 arch/arm/cpu/armv7/spare_head.o
 .rel.text.nand_secure_storage_check
                0x4a0e7e40       0x28 arch/arm/cpu/armv7/spare_head.o
 .rel.text.nand_secure_storage_repair
                0x4a0e7e68       0x10 arch/arm/cpu/armv7/spare_head.o
 .rel.text.nand_secure_storage_update
                0x4a0e7e78       0x18 arch/arm/cpu/armv7/spare_head.o
 .rel.text.nand_secure_storage_write
                0x4a0e7e90       0x30 arch/arm/cpu/armv7/spare_head.o
 .rel.text.nand_secure_storage_init
                0x4a0e7ec0       0x28 arch/arm/cpu/armv7/spare_head.o
 .rel.text.nand_secure_storage_test
                0x00000000        0x0 arch/arm/cpu/armv7/spare_head.o
 .rel.text.nand_secure_storage_test_read
                0x00000000        0x0 arch/arm/cpu/armv7/spare_head.o
 .rel.text.nand_reset_chip
                0x4a0e7ee8        0x8 arch/arm/cpu/armv7/spare_head.o
 .rel.text.nand_sync_reset_chip
                0x00000000        0x0 arch/arm/cpu/armv7/spare_head.o
 .rel.text.nand_first_reset_chip
                0x4a0e7ef0       0x10 arch/arm/cpu/armv7/spare_head.o
 .rel.text.nand_read_chip_status
                0x4a0e7f00        0x8 arch/arm/cpu/armv7/spare_head.o
 .rel.text.nand_read_chip_status_ready
                0x4a0e7f08       0x18 arch/arm/cpu/armv7/spare_head.o
 .rel.text.nand_read_id
                0x4a0e7f20        0x8 arch/arm/cpu/armv7/spare_head.o
 .rel.text.nand_first_read_id
                0x4a0e7f28        0x8 arch/arm/cpu/armv7/spare_head.o
 .rel.text.nand_get_feature
                0x4a0e7f30        0x8 arch/arm/cpu/armv7/spare_head.o
 .rel.text.nand_set_feature
                0x4a0e7f38        0x8 arch/arm/cpu/armv7/spare_head.o
 .rel.text.get_row_addr
                0x4a0e7f40        0x8 arch/arm/cpu/armv7/spare_head.o
 .rel.text._cal_nand_onfi_timing_mode
                0x4a0e7f48        0x8 arch/arm/cpu/armv7/spare_head.o
 .rel.text._setup_nand_onfi_ddr2_para
                0x4a0e7f50        0x8 arch/arm/cpu/armv7/spare_head.o
 .rel.text._setup_nand_onfi_driver_strength
                0x4a0e7f58       0x10 arch/arm/cpu/armv7/spare_head.o
 .rel.text._setup_nand_onfi_vendor_specific_feature
                0x4a0e7f68       0x10 arch/arm/cpu/armv7/spare_head.o
 .rel.text._change_nand_onfi_timing_mode
                0x4a0e7f78       0x10 arch/arm/cpu/armv7/spare_head.o
 .rel.text._setup_nand_toggle_ddr2_para
                0x4a0e7f88        0x8 arch/arm/cpu/armv7/spare_head.o
 .rel.text._setup_nand_toggle_driver_strength
                0x4a0e7f90       0x10 arch/arm/cpu/armv7/spare_head.o
 .rel.text._check_scan_data
                0x4a0e7fa0       0x18 arch/arm/cpu/armv7/spare_head.o
 .rel.text._change_all_nand_parameter
                0x4a0e7fb8       0xa0 arch/arm/cpu/armv7/spare_head.o
 .rel.text._get_right_timing_para
                0x4a0e8058       0x70 arch/arm/cpu/armv7/spare_head.o
 .rel.text.set_cmd_with_nand_bus
                0x4a0e80c8        0x8 arch/arm/cpu/armv7/spare_head.o
 .rel.text.get_data_with_nand_bus_one_cmd
                0x4a0e80d0       0x18 arch/arm/cpu/armv7/spare_head.o
 .rel.text.nand_physic_erase_block
                0x4a0e80e8        0x8 arch/arm/cpu/armv7/spare_head.o
 .rel.text.nand_physic_read_page
                0x4a0e80f0        0x8 arch/arm/cpu/armv7/spare_head.o
 .rel.text.nand_physic_write_page
                0x4a0e80f8        0x8 arch/arm/cpu/armv7/spare_head.o
 .rel.text.nand_physic_bad_block_check
                0x4a0e8100        0x8 arch/arm/cpu/armv7/spare_head.o
 .rel.text.nand_physic_bad_block_mark
                0x00000000        0x0 arch/arm/cpu/armv7/spare_head.o
 .rel.text.nand_write_data_in_whole_block
                0x00000000        0x0 arch/arm/cpu/armv7/spare_head.o
 .rel.text.nand_read_data_in_whole_block
                0x00000000        0x0 arch/arm/cpu/armv7/spare_head.o
 .rel.text.nand_physic_block_copy
                0x4a0e8108        0x8 arch/arm/cpu/armv7/spare_head.o
 .rel.text.nci_add_to_nsi
                0x4a0e8110        0x8 arch/arm/cpu/armv7/spare_head.o
 .rel.text.nci_add_to_nctri
                0x4a0e8118        0x8 arch/arm/cpu/armv7/spare_head.o
 .rel.text.search_id
                0x4a0e8120        0x8 arch/arm/cpu/armv7/spare_head.o
 .rel.text.init_nci_from_id
                0x4a0e8128       0x30 arch/arm/cpu/armv7/spare_head.o
 .rel.text.nand_build_nsi
                0x4a0e8158       0x40 arch/arm/cpu/armv7/spare_head.o
 .rel.text.read_nand_structure
                0x4a0e8198       0x38 arch/arm/cpu/armv7/spare_head.o
 .rel.text.write_nand_structure
                0x00000000        0x0 arch/arm/cpu/armv7/spare_head.o
 .rel.text.set_nand_structure
                0x00000000        0x0 arch/arm/cpu/armv7/spare_head.o
 .rel.text.NAND_GetLsbblksize
                0x4a0e81d0        0x8 arch/arm/cpu/armv7/spare_head.o
 .rel.text.NAND_GetLsbPages
                0x4a0e81d8        0x8 arch/arm/cpu/armv7/spare_head.o
 .rel.text.NAND_GetPhyblksize
                0x4a0e81e0        0x8 arch/arm/cpu/armv7/spare_head.o
 .rel.text.NAND_UsedLsbPages
                0x00000000        0x0 arch/arm/cpu/armv7/spare_head.o
 .rel.text.NAND_GetPageNo
                0x4a0e81e8        0x8 arch/arm/cpu/armv7/spare_head.o
 .rel.text.nand_wait_all_rb_ready
                0x4a0e81f0        0x8 arch/arm/cpu/armv7/spare_head.o
 .rel.text.nand_physic_erase_super_block
                0x4a0e81f8        0x8 arch/arm/cpu/armv7/spare_head.o
 .rel.text.nand_physic_read_super_page
                0x4a0e8200        0x8 arch/arm/cpu/armv7/spare_head.o
 .rel.text.nand_physic_write_super_page
                0x4a0e8208        0x8 arch/arm/cpu/armv7/spare_head.o
 .rel.text.nand_physic_super_bad_block_check
                0x4a0e8210        0x8 arch/arm/cpu/armv7/spare_head.o
 .rel.text.nand_physic_super_bad_block_mark
                0x4a0e8218        0x8 arch/arm/cpu/armv7/spare_head.o
 .rel.text.get_nand_structure
                0x4a0e8220       0x30 arch/arm/cpu/armv7/spare_head.o
 .rel.text.init_nsci_from_nctri
                0x4a0e8250        0x8 arch/arm/cpu/armv7/spare_head.o
 .rel.text.nand_build_nssi
                0x4a0e8258       0x28 arch/arm/cpu/armv7/spare_head.o
 .rel.text.nand_build_storage_info
                0x4a0e8280       0x20 arch/arm/cpu/armv7/spare_head.o
 .rel.text.add_to_nctri
                0x4a0e82a0        0x8 arch/arm/cpu/armv7/spare_head.o
 .rel.text.before_update_nctri_interface
                0x4a0e82a8       0x18 arch/arm/cpu/armv7/spare_head.o
 .rel.text.start_update_nctri_interface
                0x4a0e82c0       0x38 arch/arm/cpu/armv7/spare_head.o
 .rel.text.update_1st_nctri_interface
                0x4a0e82f8       0x20 arch/arm/cpu/armv7/spare_head.o
 .rel.text.update_other_nctri_interface
                0x4a0e8318       0x40 arch/arm/cpu/armv7/spare_head.o
 .rel.text._update_ext_accessfreq_para
                0x4a0e8358       0x28 arch/arm/cpu/armv7/spare_head.o
 .rel.text.set_nand_script_frequence
                0x4a0e8380       0x10 arch/arm/cpu/armv7/spare_head.o
 .rel.text.update_nctri
                0x4a0e8390       0x48 arch/arm/cpu/armv7/spare_head.o
 .rel.text.check_nctri
                0x4a0e83d8       0x28 arch/arm/cpu/armv7/spare_head.o
 .rel.text.gen_rand_num
                0x00000000        0x0 arch/arm/cpu/armv7/spare_head.o
 .rel.text.wait_reg_status
                0x4a0e8400        0x8 arch/arm/cpu/armv7/spare_head.o
 .rel.text.ndfc_print_reg
                0x4a0e8408       0xf0 arch/arm/cpu/armv7/spare_head.o
 .rel.text.ndfc_print_save_reg
                0x4a0e84f8       0xf0 arch/arm/cpu/armv7/spare_head.o
 .rel.text._cal_random_seed
                0x00000000        0x0 arch/arm/cpu/armv7/spare_head.o
 .rel.text.ndfc_soft_reset
                0x4a0e85e8       0x10 arch/arm/cpu/armv7/spare_head.o
 .rel.text.ndfc_wait_cmdfifo_free
                0x4a0e85f8        0x8 arch/arm/cpu/armv7/spare_head.o
 .rel.text.ndfc_wait_fsm_ready
                0x4a0e8600        0x8 arch/arm/cpu/armv7/spare_head.o
 .rel.text.ndfc_wait_cmd_finish
                0x4a0e8608        0x8 arch/arm/cpu/armv7/spare_head.o
 .rel.text.ndfc_set_rand_seed
                0x4a0e8610        0x8 arch/arm/cpu/armv7/spare_head.o
 .rel.text.ndfc_wait_rb_ready_int
                0x4a0e8618       0x10 arch/arm/cpu/armv7/spare_head.o
 .rel.text.ndfc_change_page_size
                0x4a0e8628        0x8 arch/arm/cpu/armv7/spare_head.o
 .rel.text._normal_cmd_io_send
                0x4a0e8630        0x8 arch/arm/cpu/armv7/spare_head.o
 .rel.text._normal_cmd_io_wait
                0x4a0e8638       0x18 arch/arm/cpu/armv7/spare_head.o
 .rel.text._batch_cmd_io_send
                0x4a0e8650       0x10 arch/arm/cpu/armv7/spare_head.o
 .rel.text._batch_cmd_io_wait
                0x4a0e8660       0x18 arch/arm/cpu/armv7/spare_head.o
 .rel.text.print_cmd_seq
                0x00000000        0x0 arch/arm/cpu/armv7/spare_head.o
 .rel.text.ndfc_execute_cmd
                0x4a0e8678       0x28 arch/arm/cpu/armv7/spare_head.o
 .rel.text.ndfc_get_spare_data
                0x4a0e86a0        0x8 arch/arm/cpu/armv7/spare_head.o
 .rel.text.ndfc_set_spare_data
                0x4a0e86a8        0x8 arch/arm/cpu/armv7/spare_head.o
 .rel.text._set_ndfc_def_timing_param
                0x00000000        0x0 arch/arm/cpu/armv7/spare_head.o
 .rel.text.init_nctri
                0x4a0e86b0       0x20 arch/arm/cpu/armv7/spare_head.o
 .rel.text.ndfc_dma_config_start
                0x4a0e86d0        0x8 arch/arm/cpu/armv7/spare_head.o
 .rel.text.ndfc_wait_dma_end
                0x4a0e86d8       0x18 arch/arm/cpu/armv7/spare_head.o
 .rel.text.ndfc_check_read_data_sta
                0x4a0e86f0        0x8 arch/arm/cpu/armv7/spare_head.o
 .rel.text.ndfc_get_bad_blk_flag
                0x4a0e86f8       0x10 arch/arm/cpu/armv7/spare_head.o
 .rel.text.ndfc_update_ecc_sta_and_spare_data
                0x4a0e8708        0x8 arch/arm/cpu/armv7/spare_head.o
 .rel.text._generate_page_map_tab
                0x4a0e8710       0x20 arch/arm/cpu/armv7/spare_head.o
 .rel.text.m0_write_boot0_one_pagetab_4k
                0x4a0e8730       0x48 arch/arm/cpu/armv7/spare_head.o
 .rel.text.m0_write_boot0_one_pagetab_2k
                0x4a0e8778       0x48 arch/arm/cpu/armv7/spare_head.o
 .rel.text.m0_write_boot0_one_1k_mode
                0x4a0e87c0       0x40 arch/arm/cpu/armv7/spare_head.o
 .rel.text.m0_write_boot0_one
                0x4a0e8800       0x10 arch/arm/cpu/armv7/spare_head.o
 .rel.text.m0_erase_block_start
                0x4a0e8810       0x10 arch/arm/cpu/armv7/spare_head.o
 .rel.text.m0_erase_block
                0x4a0e8820       0x18 arch/arm/cpu/armv7/spare_head.o
 .rel.text.m0_read_page_start
                0x4a0e8838       0x10 arch/arm/cpu/armv7/spare_head.o
 .rel.text.m0_read_page_end_not_retry
                0x4a0e8848       0x10 arch/arm/cpu/armv7/spare_head.o
 .rel.text.m0_read_page_end
                0x4a0e8858       0x18 arch/arm/cpu/armv7/spare_head.o
 .rel.text.m0_read_page
                0x4a0e8870       0x20 arch/arm/cpu/armv7/spare_head.o
 .rel.text.m0_write_page_start
                0x4a0e8890       0x20 arch/arm/cpu/armv7/spare_head.o
 .rel.text.m0_write_page_end
                0x4a0e88b0       0x10 arch/arm/cpu/armv7/spare_head.o
 .rel.text.m0_write_page
                0x4a0e88c0       0x28 arch/arm/cpu/armv7/spare_head.o
 .rel.text.m0_read_two_plane_page_start
                0x00000000        0x0 arch/arm/cpu/armv7/spare_head.o
 .rel.text.m0_read_two_plane_page
                0x4a0e88e8        0x8 arch/arm/cpu/armv7/spare_head.o
 .rel.text.m0_write_two_plane_page
                0x4a0e88f0        0x8 arch/arm/cpu/armv7/spare_head.o
 .rel.text.m0_bad_block_check
                0x4a0e88f8       0x28 arch/arm/cpu/armv7/spare_head.o
 .rel.text.m0_bad_block_mark
                0x4a0e8920       0x30 arch/arm/cpu/armv7/spare_head.o
 .rel.text.nand_phy_low_page_write_cache_set
                0x4a0e8950       0x10 arch/arm/cpu/armv7/spare_head.o
 .rel.text.nand_phy_low_page_cache_get_for_write
                0x4a0e8960       0x18 arch/arm/cpu/armv7/spare_head.o
 .rel.text.nand_phy_low_page_write_cache_cancle
                0x4a0e8978       0x10 arch/arm/cpu/armv7/spare_head.o
 .rel.text.nand_phy_low_page_cache_get_for_read
                0x4a0e8988       0x10 arch/arm/cpu/armv7/spare_head.o
 .rel.text.m0_use_chip_function
                0x4a0e8998        0x8 arch/arm/cpu/armv7/spare_head.o
 .rel.text.m0_rw_use_chip_function
                0x4a0e89a0       0x18 arch/arm/cpu/armv7/spare_head.o
 .rel.text.m0_special_init
                0x4a0e89b8       0x18 arch/arm/cpu/armv7/spare_head.o
 .rel.text.m0_special_exit
                0x4a0e89d0        0x8 arch/arm/cpu/armv7/spare_head.o
 .rel.text.m1_write_page_FF
                0x4a0e89d8       0x18 arch/arm/cpu/armv7/spare_head.o
 .rel.text.m1_vender_set_param
                0x4a0e89f0        0x8 arch/arm/cpu/armv7/spare_head.o
 .rel.text.m1_major_check_byte
                0x4a0e89f8       0x18 arch/arm/cpu/armv7/spare_head.o
 .rel.text.m1_get_read_retry_cfg
                0x4a0e8a10       0x40 arch/arm/cpu/armv7/spare_head.o
 .rel.text.m1_read_otp_info_hynix
                0x4a0e8a50       0x18 arch/arm/cpu/armv7/spare_head.o
 .rel.text.m1_get_rr_value_otp_hynix
                0x4a0e8a68       0x18 arch/arm/cpu/armv7/spare_head.o
 .rel.text.m1_getotpparam
                0x4a0e8a80        0x8 arch/arm/cpu/armv7/spare_head.o
 .rel.text.m1_setdefaultparam
                0x4a0e8a88       0x28 arch/arm/cpu/armv7/spare_head.o
 .rel.text.m1_readretry_exit
                0x4a0e8ab0        0x8 arch/arm/cpu/armv7/spare_head.o
 .rel.text.m1_set_readretry
                0x4a0e8ab8       0x18 arch/arm/cpu/armv7/spare_head.o
 .rel.text.m1_read_page_end
                0x4a0e8ad0       0x20 arch/arm/cpu/armv7/spare_head.o
 .rel.text.m1_special_exit
                0x4a0e8af0       0x10 arch/arm/cpu/armv7/spare_head.o
 .rel.text.m1_is_lsb_page
                0x4a0e8b00        0x8 arch/arm/cpu/armv7/spare_head.o
 .rel.text.m1_get_hynix_special_info
                0x4a0e8b08       0x18 arch/arm/cpu/armv7/spare_head.o
 .rel.text.m1_init_readretry_param
                0x4a0e8b20       0x30 arch/arm/cpu/armv7/spare_head.o
 .rel.text.m1_readretry_init
                0x4a0e8b50       0x28 arch/arm/cpu/armv7/spare_head.o
 .rel.text.m1_special_init
                0x4a0e8b78       0x40 arch/arm/cpu/armv7/spare_head.o
 .rel.text.m8_read_boot0_page_cfg_mode
                0x4a0e8bb8       0x10 arch/arm/cpu/armv7/spare_head.o
 .rel.text.m8_write_boot0_page_cfg_mode
                0x4a0e8bc8       0x18 arch/arm/cpu/armv7/spare_head.o
 .rel.text.m8_read_boot0_one_pagetab_4k
                0x4a0e8be0       0x20 arch/arm/cpu/armv7/spare_head.o
 .rel.text.m8_read_boot0_one_pagetab_2k
                0x4a0e8c00       0x20 arch/arm/cpu/armv7/spare_head.o
 .rel.text.m8_read_boot0_one_1k_mode
                0x4a0e8c20       0x38 arch/arm/cpu/armv7/spare_head.o
 .rel.text.m8_read_boot0_one
                0x4a0e8c58       0x10 arch/arm/cpu/armv7/spare_head.o
 .rel.text.m8_write_boot0_one
                0x4a0e8c68       0x50 arch/arm/cpu/armv7/spare_head.o
 .rel.text.m2_write_boot0_one
                0x4a0e8cb8       0x68 arch/arm/cpu/armv7/spare_head.o
 .rel.text.m2_lsb_init
                0x4a0e8d20       0x30 arch/arm/cpu/armv7/spare_head.o
 .rel.text.m2_lsb_enable
                0x4a0e8d50       0x20 arch/arm/cpu/armv7/spare_head.o
 .rel.text.m2_lsb_disable
                0x4a0e8d70       0x18 arch/arm/cpu/armv7/spare_head.o
 .rel.text.m2_lsb_exit
                0x4a0e8d88        0x8 arch/arm/cpu/armv7/spare_head.o
 .rel.text.m2_vender_get_param_otp_hynix
                0x4a0e8d90       0x20 arch/arm/cpu/armv7/spare_head.o
 .rel.text.m2_getotpparam
                0x4a0e8db0       0x10 arch/arm/cpu/armv7/spare_head.o
 .rel.text.m2_setdefaultparam
                0x4a0e8dc0       0x28 arch/arm/cpu/armv7/spare_head.o
 .rel.text.m2_init_readretry_param
                0x4a0e8de8       0x38 arch/arm/cpu/armv7/spare_head.o
 .rel.text.m2_readretry_init
                0x4a0e8e20       0x28 arch/arm/cpu/armv7/spare_head.o
 .rel.text.m2_readretry_exit
                0x4a0e8e48        0x8 arch/arm/cpu/armv7/spare_head.o
 .rel.text.m2_set_readretry
                0x4a0e8e50       0x30 arch/arm/cpu/armv7/spare_head.o
 .rel.text.m2_read_page_end
                0x4a0e8e80       0x30 arch/arm/cpu/armv7/spare_head.o
 .rel.text.m2_special_init
                0x4a0e8eb0       0x40 arch/arm/cpu/armv7/spare_head.o
 .rel.text.m2_special_exit
                0x4a0e8ef0       0x10 arch/arm/cpu/armv7/spare_head.o
 .rel.text.m2_is_lsb_page
                0x4a0e8f00        0x8 arch/arm/cpu/armv7/spare_head.o
 .rel.text.m3_write_boot0_one
                0x4a0e8f08       0x68 arch/arm/cpu/armv7/spare_head.o
 .rel.text.m3_vender_set_param
                0x4a0e8f70        0x8 arch/arm/cpu/armv7/spare_head.o
 .rel.text.m3_lsb_init
                0x4a0e8f78       0x30 arch/arm/cpu/armv7/spare_head.o
 .rel.text.m3_lsb_enable
                0x4a0e8fa8       0x20 arch/arm/cpu/armv7/spare_head.o
 .rel.text.m3_lsb_disable
                0x4a0e8fc8       0x18 arch/arm/cpu/armv7/spare_head.o
 .rel.text.m3_lsb_exit
                0x4a0e8fe0        0x8 arch/arm/cpu/armv7/spare_head.o
 .rel.text.m3_getdefaultparam
                0x4a0e8fe8       0x10 arch/arm/cpu/armv7/spare_head.o
 .rel.text.m3_setdefaultparam
                0x4a0e8ff8       0x28 arch/arm/cpu/armv7/spare_head.o
 .rel.text.m3_get_default_param
                0x4a0e9020        0x8 arch/arm/cpu/armv7/spare_head.o
 .rel.text.m3_readretry_init
                0x4a0e9028       0x40 arch/arm/cpu/armv7/spare_head.o
 .rel.text.m3_readretry_exit
                0x4a0e9068        0x8 arch/arm/cpu/armv7/spare_head.o
 .rel.text.m3_set_readretry
                0x4a0e9070       0x38 arch/arm/cpu/armv7/spare_head.o
 .rel.text.m3_read_page_end
                0x4a0e90a8       0x20 arch/arm/cpu/armv7/spare_head.o
 .rel.text.m3_special_init
                0x4a0e90c8       0x40 arch/arm/cpu/armv7/spare_head.o
 .rel.text.m3_special_exit
                0x4a0e9108       0x10 arch/arm/cpu/armv7/spare_head.o
 .rel.text.m3_is_lsb_page
                0x4a0e9118        0x8 arch/arm/cpu/armv7/spare_head.o
 .rel.text.micron_intel_set_feature
                0x4a0e9120        0x8 arch/arm/cpu/armv7/spare_head.o
 .rel.text.m4_readretry_init
                0x4a0e9128       0x40 arch/arm/cpu/armv7/spare_head.o
 .rel.text.m4_readretry_exit
                0x00000000        0x0 arch/arm/cpu/armv7/spare_head.o
 .rel.text.m4_set_readretry
                0x4a0e9168       0x10 arch/arm/cpu/armv7/spare_head.o
 .rel.text.m4_read_page_end
                0x4a0e9178       0x20 arch/arm/cpu/armv7/spare_head.o
 .rel.text.m4_special_init
                0x4a0e9198       0x38 arch/arm/cpu/armv7/spare_head.o
 .rel.text.m4_special_exit
                0x4a0e91d0       0x20 arch/arm/cpu/armv7/spare_head.o
 .rel.text.m4_0x40_is_lsb_page
                0x4a0e91f0        0x8 arch/arm/cpu/armv7/spare_head.o
 .rel.text.m4_0x41_is_lsb_page
                0x4a0e91f8        0x8 arch/arm/cpu/armv7/spare_head.o
 .rel.text.m5_readretry_init
                0x4a0e9200       0x18 arch/arm/cpu/armv7/spare_head.o
 .rel.text.m5_vender_set_param
                0x4a0e9218       0x10 arch/arm/cpu/armv7/spare_head.o
 .rel.text.m5_set_readretry
                0x4a0e9228       0x18 arch/arm/cpu/armv7/spare_head.o
 .rel.text.m5_read_page_end
                0x4a0e9240       0x20 arch/arm/cpu/armv7/spare_head.o
 .rel.text.m5_special_init
                0x4a0e9260       0x38 arch/arm/cpu/armv7/spare_head.o
 .rel.text.m5_special_exit
                0x4a0e9298       0x10 arch/arm/cpu/armv7/spare_head.o
 .rel.text.m5_is_lsb_page
                0x4a0e92a8        0x8 arch/arm/cpu/armv7/spare_head.o
 .rel.text.m6_readretry_init
                0x4a0e92b0       0x20 arch/arm/cpu/armv7/spare_head.o
 .rel.text.m6_vender_pre_condition
                0x4a0e92d0       0x10 arch/arm/cpu/armv7/spare_head.o
 .rel.text.m6_read_retry_clock_save
                0x4a0e92e0       0x10 arch/arm/cpu/armv7/spare_head.o
 .rel.text.m6_read_retry_clock_recover
                0x4a0e92f0       0x10 arch/arm/cpu/armv7/spare_head.o
 .rel.text.m6_vender_set_param
                0x4a0e9300       0x40 arch/arm/cpu/armv7/spare_head.o
 .rel.text.m6_set_readretry
                0x4a0e9340       0x38 arch/arm/cpu/armv7/spare_head.o
 .rel.text.m6_exit_readretry
                0x4a0e9378       0x38 arch/arm/cpu/armv7/spare_head.o
 .rel.text.m6_read_page_end
                0x4a0e93b0       0x28 arch/arm/cpu/armv7/spare_head.o
 .rel.text.m6_special_init
                0x4a0e93d8       0x40 arch/arm/cpu/armv7/spare_head.o
 .rel.text.m6_special_exit
                0x4a0e9418       0x10 arch/arm/cpu/armv7/spare_head.o
 .rel.text.m6_is_lsb_page
                0x4a0e9428        0x8 arch/arm/cpu/armv7/spare_head.o
 .rel.text.m7_activation_seq
                0x4a0e9430       0x20 arch/arm/cpu/armv7/spare_head.o
 .rel.text.m7_readretry_init
                0x4a0e9450       0x20 arch/arm/cpu/armv7/spare_head.o
 .rel.text.m7_read_retry_clock_save
                0x4a0e9470       0x10 arch/arm/cpu/armv7/spare_head.o
 .rel.text.m7_read_retry_clock_recover
                0x4a0e9480       0x10 arch/arm/cpu/armv7/spare_head.o
 .rel.text.m7_end_one_read_retry
                0x4a0e9490       0x18 arch/arm/cpu/armv7/spare_head.o
 .rel.text.m7_vender_set_param
                0x4a0e94a8       0x20 arch/arm/cpu/armv7/spare_head.o
 .rel.text.m7_set_readretry
                0x4a0e94c8       0x50 arch/arm/cpu/armv7/spare_head.o
 .rel.text.m7_exit_readretry
                0x4a0e9518       0x28 arch/arm/cpu/armv7/spare_head.o
 .rel.text.m7_read_page_end
                0x4a0e9540       0x28 arch/arm/cpu/armv7/spare_head.o
 .rel.text.m7_special_init
                0x4a0e9568       0x40 arch/arm/cpu/armv7/spare_head.o
 .rel.text.m7_special_exit
                0x4a0e95a8       0x10 arch/arm/cpu/armv7/spare_head.o
 .rel.text.m7_is_lsb_page
                0x4a0e95b8        0x8 arch/arm/cpu/armv7/spare_head.o
 .rel.text.m9_dsp_on
                0x4a0e95c0        0x8 arch/arm/cpu/armv7/spare_head.o
 .rel.text.m9_cmd25
                0x4a0e95c8        0x8 arch/arm/cpu/armv7/spare_head.o
 .rel.text.m9_set_lmflgfix_next
                0x4a0e95d0       0x10 arch/arm/cpu/armv7/spare_head.o
 .rel.text.m9_readretry_init
                0x4a0e95e0       0x28 arch/arm/cpu/armv7/spare_head.o
 .rel.text.m9_read_retry_clock_save
                0x00000000        0x0 arch/arm/cpu/armv7/spare_head.o
 .rel.text.m9_read_retry_clock_recover
                0x00000000        0x0 arch/arm/cpu/armv7/spare_head.o
 .rel.text.m9_vender_set_param
                0x4a0e9608        0x8 arch/arm/cpu/armv7/spare_head.o
 .rel.text.m9_set_readretry
                0x4a0e9610       0x28 arch/arm/cpu/armv7/spare_head.o
 .rel.text.m9_exit_readretry
                0x4a0e9638        0x8 arch/arm/cpu/armv7/spare_head.o
 .rel.text.m9_read_page_end
                0x4a0e9640       0x40 arch/arm/cpu/armv7/spare_head.o
 .rel.text.m9_special_init
                0x4a0e9680       0x40 arch/arm/cpu/armv7/spare_head.o
 .rel.text.m9_special_exit
                0x4a0e96c0       0x18 arch/arm/cpu/armv7/spare_head.o
 .rel.text.m9_check_bad_block_first_burn
                0x4a0e96d8       0x10 arch/arm/cpu/armv7/spare_head.o
 .rel.data.nand_physic_function
                0x4a0e96e8      0x770 arch/arm/cpu/armv7/spare_head.o

.rel_dyn_end    0x4a0e9e58        0x0
 *(.__rel_dyn_end)
 .__rel_dyn_end
                0x4a0e9e58        0x0 arch/arm/lib/built-in.o

.end            0x4a0e9e58        0x0
 *(.__end)
 .__end         0x4a0e9e58        0x0 arch/arm/lib/built-in.o
                0x4a0e9e58                _image_binary_end = .
                0x4a0ea000                . = ALIGN (0x1000)

.mmutable
 *(.mmutable)

.bss_start      0x4a0d5460        0x0
 *(.__bss_start)
 .__bss_start   0x4a0d5460        0x0 arch/arm/lib/built-in.o
                0x4a0d5460                __bss_start
                0x4a0d5460                __bss_base = .

.bss            0x4a0d5460    0x4e4bc
 *(.bss*)
 .bss.params    0x4a0d5460        0x4 arch/arm/lib/built-in.o
 .bss.sprite_source
                0x4a0d5464       0x1c board/sunxi/cartoon/built-in.o
                0x4a0d5464                sprite_source
 .bss.progressbar_hd
                0x4a0d5480        0x4 board/sunxi/cartoon/built-in.o
 .bss.last_rate
                0x4a0d5484        0x4 board/sunxi/cartoon/built-in.o
 .bss.ui_char_info
                0x4a0d5488       0x24 board/sunxi/cartoon/built-in.o
                0x4a0d5488                ui_char_info
 .bss.face      0x4a0d54ac        0x4 board/sunxi/cartoon/built-in.o
                0x4a0d54ac                face
 .bss.font      0x4a0d54b0        0x4 board/sunxi/cartoon/built-in.o
                0x4a0d54b0                font
 .bss.partition_op
                0x4a0d54b4        0x4 board/sunxi/common/built-in.o
 .bss.PowerStart
                0x4a0d54b8        0x4 board/sunxi/common/built-in.o
                0x4a0d54b8                PowerStart
 .bss.disp_para
                0x4a0d54bc        0x4 board/sunxi/common/built-in.o
 .bss.screen_id
                0x4a0d54c0        0x4 board/sunxi/common/built-in.o
 .bss.disp_para1
                0x4a0d54c4        0x4 board/sunxi/common/built-in.o
 .bss.disp_para2
                0x4a0d54c8        0x4 board/sunxi/common/built-in.o
 .bss.tmp_buf   0x4a0d54cc      0x100 common/built-in.o
 .bss.tmp_buf.4031
                0x4a0d55cc      0x200 common/built-in.o
 .bss.flag_repeat
                0x4a0d57cc        0x4 common/built-in.o
 .bss.ifs       0x4a0d57d0        0x4 common/built-in.o
 .bss.the_command.4269
                0x4a0d57d4      0x101 common/built-in.o
 *fill*         0x4a0d58d5        0x3 00
 .bss.last_return_code
                0x4a0d58d8        0x4 common/built-in.o
 .bss.map       0x4a0d58dc      0x100 common/built-in.o
 .bss.do_repeat
                0x4a0d59dc        0x4 common/built-in.o
 .bss.buf.4469  0x4a0d59e0       0x28 common/built-in.o
 .bss.top_vars  0x4a0d5a08        0x4 common/built-in.o
 .bss.hist_list
                0x4a0d5a0c       0x50 common/built-in.o
 .bss.hist_lines
                0x4a0d5a5c     0x1414 common/built-in.o
 .bss.hist_max  0x4a0d6e70        0x4 common/built-in.o
 .bss.initted.4141
                0x4a0d6e74        0x4 common/built-in.o
 .bss.hist_add_idx
                0x4a0d6e78        0x4 common/built-in.o
 .bss.hist_num  0x4a0d6e7c        0x4 common/built-in.o
 .bss.console_buffer
                0x4a0d6e80      0x101 common/built-in.o
                0x4a0d6e80                console_buffer
 .bss.uboot_shell
                0x4a0d6f81        0x1 common/built-in.o
                0x4a0d6f81                uboot_shell
 *fill*         0x4a0d6f82        0x2 00
 .bss.stored_bootdelay
                0x4a0d6f84        0x4 common/built-in.o
 .bss.monitor_flash_len
                0x4a0d6f88        0x4 common/built-in.o
                0x4a0d6f88                monitor_flash_len
 .bss.images    0x4a0d6f8c      0x130 common/built-in.o
                0x4a0d6f8c                images
 .bss.timer0_t  0x4a0d70bc       0x10 common/built-in.o
                0x4a0d70bc                timer0_t
 .bss.timer_test_flag
                0x4a0d70cc        0x8 common/built-in.o
 .bss.timer1_t  0x4a0d70d4       0x10 common/built-in.o
                0x4a0d70d4                timer1_t
 .bss.sunxi_usb_probe_update_action
                0x4a0d70e4        0x4 common/built-in.o
                0x4a0d70e4                sunxi_usb_probe_update_action
 .bss.callback_list
                0x4a0d70e8        0x4 common/built-in.o
 .bss.flags_list
                0x4a0d70ec        0x4 common/built-in.o
 .bss.data.4641
                0x4a0d70f0      0x400 common/built-in.o
 .bss.dp_last_addr
                0x4a0d74f0        0x4 common/built-in.o
 .bss.base_address
                0x4a0d74f4        0x4 common/built-in.o
 .bss.mm_last_size
                0x4a0d74f8        0x4 common/built-in.o
 .bss.mm_last_addr
                0x4a0d74fc        0x4 common/built-in.o
 .bss.dp_last_size
                0x4a0d7500        0x4 common/built-in.o
 .bss.card1_init.4487
                0x4a0d7504        0x4 common/built-in.o
 .bss.card0_init.4474
                0x4a0d7508        0x4 common/built-in.o
 .bss.dev_index
                0x4a0d750c        0x4 common/built-in.o
 *fill*         0x4a0d7510       0x30 00
 .bss.usb_dev   0x4a0d7540    0x11000 common/built-in.o
 .bss.asynch_allowed
                0x4a0e8540        0x4 common/built-in.o
 .bss.usb_started
                0x4a0e8544        0x1 common/built-in.o
                0x4a0e8544                usb_started
 *fill*         0x4a0e8545        0x3 00
 .bss.usb_hub_index
                0x4a0e8548        0x4 common/built-in.o
 .bss.hub_dev   0x4a0e854c      0x100 common/built-in.o
 .bss.usb_stor  0x4a0e864c      0x104 common/built-in.o
 .bss.usb_dev_desc
                0x4a0e8750      0x3d4 common/built-in.o
 .bss.usb_max_devs
                0x4a0e8b24        0x4 common/built-in.o
 .bss.CBWTag    0x4a0e8b28        0x4 common/built-in.o
 *fill*         0x4a0e8b2c       0x14 00
 .bss.usb_ccb   0x4a0e8b40       0xc0 common/built-in.o
 .bss.ctrlc_was_pressed
                0x4a0e8c00        0x4 common/built-in.o
 .bss.ctrlc_disabled
                0x4a0e8c04        0x4 common/built-in.o
 .bss.max_total_mem
                0x4a0e8c08        0x4 common/built-in.o
 .bss.mem_malloc_brk
                0x4a0e8c0c        0x4 common/built-in.o
                0x4a0e8c0c                mem_malloc_brk
 .bss.max_sbrked_mem
                0x4a0e8c10        0x4 common/built-in.o
 .bss.current_mallinfo
                0x4a0e8c14       0x28 common/built-in.o
 .bss.mem_malloc_end
                0x4a0e8c3c        0x4 common/built-in.o
                0x4a0e8c3c                mem_malloc_end
 .bss.top_pad   0x4a0e8c40        0x4 common/built-in.o
 .bss.mem_malloc_start
                0x4a0e8c44        0x4 common/built-in.o
                0x4a0e8c44                mem_malloc_start
 .bss.andr_tmp_str
                0x4a0e8c48      0x201 common/built-in.o
 *fill*         0x4a0e8e49        0x3 00
 .bss.devs      0x4a0e8e4c       0x3c common/built-in.o
 .bss.stdio_devices
                0x4a0e8e88        0xc common/built-in.o
                0x4a0e8e88                stdio_devices
 .bss.boot_heap_head
                0x4a0e8e94       0x10 common/built-in.o
 .bss.boot_heap_tail
                0x4a0e8ea4       0x10 common/built-in.o
 .bss.name.4135
                0x4a0e8eb4       0x25 disk/built-in.o
 *fill*         0x4a0e8ed9        0x7 00
 .bss.lyr_cfg2  0x4a0e8ee0      0xe00 drivers/built-in.o
                0x4a0e8ee0                lyr_cfg2
 .bss.power_status_init
                0x4a0e9ce0        0x4 drivers/built-in.o
 .bss.lcd_op_start
                0x4a0e9ce4        0x2 drivers/built-in.o
 *fill*         0x4a0e9ce6        0x2 00
 .bss.g_disp_drv
                0x4a0e9ce8      0x20c drivers/built-in.o
                0x4a0e9ce8                g_disp_drv
 *fill*         0x4a0e9ef4        0x4 00
 .bss.lyr_cfg   0x4a0e9ef8      0xb80 drivers/built-in.o
                0x4a0e9ef8                lyr_cfg
 .bss.suspend_output_type
                0x4a0eaa78        0x8 drivers/built-in.o
 .bss.lcd_flow_cnt
                0x4a0eaa80        0x8 drivers/built-in.o
 .bss.lcd_timer
                0x4a0eaa88       0x20 drivers/built-in.o
 .bss.lcd_op_finished
                0x4a0eaaa8        0x2 drivers/built-in.o
 *fill*         0x4a0eaaaa        0x2 00
 .bss.gdisp     0x4a0eaaac      0x628 drivers/built-in.o
                0x4a0eaaac                gdisp
 .bss.lcd_private
                0x4a0eb0d4        0x4 drivers/built-in.o
 .bss.lcd_data_lock
                0x4a0eb0d8        0x4 drivers/built-in.o
 .bss.lcds      0x4a0eb0dc        0x4 drivers/built-in.o
 .bss.mgrs      0x4a0eb0e0        0x4 drivers/built-in.o
 .bss.mgr_cfgs  0x4a0eb0e4        0x4 drivers/built-in.o
 .bss.lyrs      0x4a0eb0e8        0x4 drivers/built-in.o
 .bss.lyr_private
                0x4a0eb0ec        0x4 drivers/built-in.o
 .bss.mgr_private
                0x4a0eb0f0        0x4 drivers/built-in.o
 .bss.lyr_cfgs  0x4a0eb0f4        0x4 drivers/built-in.o
 .bss.mgr_data_lock
                0x4a0eb0f8        0x4 drivers/built-in.o
 .bss.mgr_mlock
                0x4a0eb0fc        0x4 drivers/built-in.o
 .bss.smbl_private
                0x4a0eb100        0x4 drivers/built-in.o
 .bss.smbls     0x4a0eb104        0x4 drivers/built-in.o
 .bss.smbl_data_lock
                0x4a0eb108        0x4 drivers/built-in.o
 .bss.enhance_private
                0x4a0eb10c        0x4 drivers/built-in.o
 .bss.enhance_data_lock
                0x4a0eb110        0x4 drivers/built-in.o
 .bss.enhances  0x4a0eb114        0x4 drivers/built-in.o
 .bss.hdmi_mlock
                0x4a0eb118        0x4 drivers/built-in.o
 .bss.hdmis     0x4a0eb11c        0x4 drivers/built-in.o
 .bss.hdmi_private
                0x4a0eb120        0x4 drivers/built-in.o
 .bss.hdmi_data_lock
                0x4a0eb124        0x4 drivers/built-in.o
 .bss.hdmi_used
                0x4a0eb128        0x5 drivers/built-in.o
 *fill*         0x4a0eb12d        0x3 00
 .bss.g_ptv_private
                0x4a0eb130        0x4 drivers/built-in.o
 .bss.g_init_para
                0x4a0eb134       0xcc drivers/built-in.o
                0x4a0eb134                g_init_para
 .bss.g_tv_data_lock
                0x4a0eb200        0x4 drivers/built-in.o
 .bss.g_ptv_devices
                0x4a0eb204        0x4 drivers/built-in.o
 .bss.vga_private
                0x4a0eb208        0x4 drivers/built-in.o
 .bss.vgas      0x4a0eb20c        0x4 drivers/built-in.o
 .bss.g_lcd_drv
                0x4a0eb210       0x64 drivers/built-in.o
                0x4a0eb210                g_lcd_drv
 .bss.gsu_dev   0x4a0eb274       0x18 drivers/built-in.o
 .bss.gsu_glb_block
                0x4a0eb28c       0x60 drivers/built-in.o
 .bss.gsu_out_block
                0x4a0eb2ec       0x60 drivers/built-in.o
 .bss.gsu_scale_block
                0x4a0eb34c       0x60 drivers/built-in.o
 .bss.gsu_coeff_block
                0x4a0eb3ac       0x60 drivers/built-in.o
 .bss.lay_cfg.8025
                0x4a0eb40c      0x440 drivers/built-in.o
 .bss.ovl_cpara.8030
                0x4a0eb84c       0x10 drivers/built-in.o
 .bss.g_de_freq
                0x4a0eb85c        0x4 drivers/built-in.o
 .bss.para.7940
                0x4a0eb860      0x100 drivers/built-in.o
 .bss.g_de_blank
                0x4a0eb960        0x2 drivers/built-in.o
 *fill*         0x4a0eb962        0x2 00
 .bss.ovl_para.8029
                0x4a0eb964       0x40 drivers/built-in.o
 .bss.cpara.7941
                0x4a0eb9a4       0x40 drivers/built-in.o
 .bss.al_priv   0x4a0eb9e4       0xa4 drivers/built-in.o
 .bss.vi_size_block
                0x4a0eba88       0x20 drivers/built-in.o
 .bss.ui_size_block
                0x4a0ebaa8       0x60 drivers/built-in.o
 .bss.bld_out_block
                0x4a0ebb08       0x20 drivers/built-in.o
 .bss.bld_ctl_block
                0x4a0ebb28       0x20 drivers/built-in.o
 .bss.bld_ck_block
                0x4a0ebb48       0x20 drivers/built-in.o
 .bss.glb_ctl_block
                0x4a0ebb68       0x20 drivers/built-in.o
 .bss.bld_attr_block
                0x4a0ebb88       0x20 drivers/built-in.o
 .bss.vi_haddr_block
                0x4a0ebba8       0x20 drivers/built-in.o
 .bss.ui_haddr_block
                0x4a0ebbc8       0x60 drivers/built-in.o
 .bss.vi_attr_block
                0x4a0ebc28       0x80 drivers/built-in.o
 .bss.vi_fc_block
                0x4a0ebca8       0x20 drivers/built-in.o
 .bss.de_base   0x4a0ebcc8        0x8 drivers/built-in.o
 .bss.ui_attr_block
                0x4a0ebcd0      0x180 drivers/built-in.o
 .bss.de200_rtmx
                0x4a0ebe50       0x30 drivers/built-in.o
 .bss.vsu_chcoeff1_block
                0x4a0ebe80       0x20 drivers/built-in.o
 .bss.vsu_yvcoeff_block
                0x4a0ebea0       0x20 drivers/built-in.o
 .bss.vsu_chcoeff0_block
                0x4a0ebec0       0x20 drivers/built-in.o
 .bss.vsu_yscale_block
                0x4a0ebee0       0x20 drivers/built-in.o
 .bss.vsu_yhcoeff0_block
                0x4a0ebf00       0x20 drivers/built-in.o
 .bss.vsu_out_block
                0x4a0ebf20       0x20 drivers/built-in.o
 .bss.vsu_dev   0x4a0ebf40        0x8 drivers/built-in.o
 .bss.vsu_yhcoeff1_block
                0x4a0ebf48       0x20 drivers/built-in.o
 .bss.vsu_cscale_block
                0x4a0ebf68       0x20 drivers/built-in.o
 .bss.vsu_glb_block
                0x4a0ebf88       0x20 drivers/built-in.o
 .bss.vsu_cvcoeff_block
                0x4a0ebfa8       0x20 drivers/built-in.o
 .bss.de_cur_features
                0x4a0ebfc8        0x4 drivers/built-in.o
 .bss.lcd_dev   0x4a0ebfcc       0x10 drivers/built-in.o
 .bss.lcd_top   0x4a0ebfdc        0x4 drivers/built-in.o
 .bss.icsc_block
                0x4a0ebfe0       0x80 drivers/built-in.o
 .bss.csc_block
                0x4a0ec060       0x80 drivers/built-in.o
 .bss.ccsc_dev  0x4a0ec0e0       0x20 drivers/built-in.o
 .bss.vi_num    0x4a0ec100        0x8 drivers/built-in.o
 .bss.icsc_dev  0x4a0ec108       0x20 drivers/built-in.o
 .bss.vep_support
                0x4a0ec128       0x20 drivers/built-in.o
 .bss.dcsc_enable_block
                0x4a0ec148       0x20 drivers/built-in.o
 .bss.dcsc2_dev
                0x4a0ec168        0x8 drivers/built-in.o
 .bss.dcsc_dev  0x4a0ec170        0x8 drivers/built-in.o
 .bss.g_dcsc_config
                0x4a0ec178       0x70 drivers/built-in.o
 .bss.dcsc_coeff_block
                0x4a0ec1e8       0x20 drivers/built-in.o
 .bss.is_in_smbl
                0x4a0ec208        0x8 drivers/built-in.o
 .bss.dsi_dev   0x4a0ec210        0x4 drivers/built-in.o
 .bss.dphy_dev  0x4a0ec214        0x4 drivers/built-in.o
 .bss.b_hdmi_suspend_pre
                0x4a0ec218        0x1 drivers/built-in.o
 .bss.b_hdmi_suspend
                0x4a0ec219        0x1 drivers/built-in.o
 *fill*         0x4a0ec21a        0x2 00
 .bss.power_enable_count
                0x4a0ec21c        0x4 drivers/built-in.o
 .bss.hdmi_work_mode
                0x4a0ec220        0x4 drivers/built-in.o
 .bss.hdmi_io_used
                0x4a0ec224        0x5 drivers/built-in.o
 .bss.hdmi_power_used
                0x4a0ec229        0x1 drivers/built-in.o
 *fill*         0x4a0ec22a        0x2 00
 .bss.clk_enable_count
                0x4a0ec22c        0x4 drivers/built-in.o
 .bss.io_enable_count
                0x4a0ec230        0x4 drivers/built-in.o
 .bss.hdmi_io_regulator_used
                0x4a0ec234        0x1 drivers/built-in.o
 *fill*         0x4a0ec235        0x3 00
 .bss.hdmi_clk  0x4a0ec238        0x4 drivers/built-in.o
 .bss.ghdmi     0x4a0ec23c       0x14 drivers/built-in.o
                0x4a0ec23c                ghdmi
 .bss.hdmi_io_regulator
                0x4a0ec250       0x19 drivers/built-in.o
 *fill*         0x4a0ec269        0x3 00
 .bss.hdmi_ddc_clk
                0x4a0ec26c        0x4 drivers/built-in.o
 .bss.hdmi_io   0x4a0ec270      0x12c drivers/built-in.o
 .bss.hdmi_cec_support
                0x4a0ec39c        0x1 drivers/built-in.o
 *fill*         0x4a0ec39d        0x3 00
 .bss.io_regulator_enable_count
                0x4a0ec3a0        0x4 drivers/built-in.o
 .bss.hdmi_clk_parent
                0x4a0ec3a4        0x4 drivers/built-in.o
 .bss.hdmi_power
                0x4a0ec3a8       0x19 drivers/built-in.o
 *fill*         0x4a0ec3c1        0x3 00
 .bss.mlock     0x4a0ec3c4        0x4 drivers/built-in.o
 .bss.glb_video_para
                0x4a0ec3c8       0x4c drivers/built-in.o
 .bss.glb_audio_para
                0x4a0ec414       0x18 drivers/built-in.o
 .bss.hdmi_hpd_mask
                0x4a0ec42c        0x4 drivers/built-in.o
                0x4a0ec42c                hdmi_hpd_mask
 .bss.audio_info
                0x4a0ec430       0x10 drivers/built-in.o
 .bss.HPD       0x4a0ec440        0x4 drivers/built-in.o
 .bss.times.10583
                0x4a0ec444        0x4 drivers/built-in.o
 .bss.hdmi_lock
                0x4a0ec448        0x4 drivers/built-in.o
 .bss.hdcp_enable
                0x4a0ec44c        0x4 drivers/built-in.o
 .bss.video_on  0x4a0ec450        0x4 drivers/built-in.o
 .bss.cts_enable
                0x4a0ec454        0x4 drivers/built-in.o
 .bss.hdmi_state
                0x4a0ec458        0x4 drivers/built-in.o
 .bss.video_enable
                0x4a0ec45c        0x1 drivers/built-in.o
 .bss.hdmi_cec_enable
                0x4a0ec45d        0x1 drivers/built-in.o
 *fill*         0x4a0ec45e        0x2 00
 .bss.audio_on  0x4a0ec460        0x4 drivers/built-in.o
 .bss.is_yuv    0x4a0ec464        0x4 drivers/built-in.o
 .bss.is_exp    0x4a0ec468        0x4 drivers/built-in.o
                0x4a0ec468                is_exp
 .bss.Device_Support_VIC
                0x4a0ec46c      0x200 drivers/built-in.o
                0x4a0ec46c                Device_Support_VIC
 .bss.bias_source
                0x4a0ec66c        0x4 drivers/built-in.o
 .bss.tmp_rcal_200
                0x4a0ec670        0x4 drivers/built-in.o
 .bss.rcal_flag
                0x4a0ec674        0x4 drivers/built-in.o
 .bss.tmp_rcal_100
                0x4a0ec678        0x4 drivers/built-in.o
 .bss.hdmi_base_addr
                0x4a0ec67c        0x4 drivers/built-in.o
 .bss.hdmi_func
                0x4a0ec680        0x8 drivers/built-in.o
 .bss.hdmi_version
                0x4a0ec688        0x4 drivers/built-in.o
 .bss.suspend   0x4a0ec68c        0x4 drivers/built-in.o
 .bss.g_tv_info
                0x4a0ec690       0xa8 drivers/built-in.o
                0x4a0ec690                g_tv_info
 .bss.offset    0x4a0ec738       0x10 drivers/built-in.o
 .bss.tve_reg_base
                0x4a0ec748        0x8 drivers/built-in.o
 .bss.dac_info  0x4a0ec750       0x20 drivers/built-in.o
 .bss.dac_type_info
                0x4a0ec770       0x20 drivers/built-in.o
 .bss.tve_top_reg_base
                0x4a0ec790        0x4 drivers/built-in.o
 .bss.spinor_write_cache
                0x4a0ec794        0x4 drivers/built-in.o
 .bss.spinor_store_buffer
                0x4a0ec798        0x4 drivers/built-in.o
 .bss.spinor_4bytes_addr_mode
                0x4a0ec79c        0x4 drivers/built-in.o
 .bss.spi_freq  0x4a0ec7a0        0x4 drivers/built-in.o
 .bss.spinor_flash_inited
                0x4a0ec7a4        0x4 drivers/built-in.o
 .bss.pllve_max
                0x4a0ec7a8        0x4 drivers/clk/built-in.o
 .bss.pllvideo0_max
                0x4a0ec7ac        0x4 drivers/clk/built-in.o
 .bss.pllcpu_max
                0x4a0ec7b0        0x4 drivers/clk/built-in.o
 .bss.pllddr0_max
                0x4a0ec7b4        0x4 drivers/clk/built-in.o
 .bss.sunxi_clk_base
                0x4a0ec7b8        0x4 drivers/clk/built-in.o
                0x4a0ec7b8                sunxi_clk_base
 .bss.pllperiph1_max
                0x4a0ec7bc        0x4 drivers/clk/built-in.o
 .bss.pllgpu_max
                0x4a0ec7c0        0x4 drivers/clk/built-in.o
 .bss.pllsata_max
                0x4a0ec7c4        0x4 drivers/clk/built-in.o
 .bss.pllvideo1_max
                0x4a0ec7c8        0x4 drivers/clk/built-in.o
 .bss.pllde_max
                0x4a0ec7cc        0x4 drivers/clk/built-in.o
 .bss.clk_lock  0x4a0ec7d0        0x4 drivers/clk/built-in.o
 .bss.pllddr1_max
                0x4a0ec7d4        0x4 drivers/clk/built-in.o
 .bss.pll_mipi_ops
                0x4a0ec7d8       0x2c drivers/clk/built-in.o
                0x4a0ec7d8                pll_mipi_ops
 .bss.pllperiph0_max
                0x4a0ec804        0x4 drivers/clk/built-in.o
 .bss.dma_int_count
                0x4a0ec808        0x4 drivers/dma/built-in.o
 .bss.dma_channal_source
                0x4a0ec80c      0x1c0 drivers/dma/built-in.o
 .bss.sunxi_int_handlers
                0x4a0ec9cc      0x428 drivers/gic/built-in.o
                0x4a0ec9cc                sunxi_int_handlers
 .bss.ext_sdly_spd_freq_sdc0
                0x4a0ecdf4       0x28 drivers/mmc/built-in.o
 .bss.ext_sdly_spd_freq
                0x4a0ece1c       0x28 drivers/mmc/built-in.o
 .bss.mmc_host_reg_bak
                0x4a0ece44      0x60c drivers/mmc/built-in.o
                0x4a0ece44                mmc_host_reg_bak
 .bss.ext_odly_spd_freq
                0x4a0ed450       0x28 drivers/mmc/built-in.o
 .bss.ext_odly_spd_freq_sdc0
                0x4a0ed478       0x28 drivers/mmc/built-in.o
 .bss.mmc_host  0x4a0ed4a0      0xe10 drivers/mmc/built-in.o
                0x4a0ed4a0                mmc_host
 .bss.serial_devices
                0x4a0ee2b0        0x4 drivers/serial/built-in.o
 .bss.serial_current
                0x4a0ee2b4        0x4 drivers/serial/built-in.o
 .bss.result.4449
                0x4a0ee2b8       0x10 drivers/smc/built-in.o
 .bss.spi_tx_dma_hd
                0x4a0ee2c8        0x4 drivers/spi/built-in.o
 .bss.spi_tx_dma
                0x4a0ee2cc        0x4 drivers/spi/built-in.o
 .bss.spi_rx_dma
                0x4a0ee2d0        0x4 drivers/spi/built-in.o
 .bss.g_cfg_mclk
                0x4a0ee2d4        0x4 drivers/spi/built-in.o
 .bss.spi_rx_dma_hd
                0x4a0ee2d8        0x4 drivers/spi/built-in.o
 .bss.sunxi_flash_blk_dev
                0x4a0ee2dc       0xc4 drivers/sunxi_flash/built-in.o
 .bss.mmc_boot  0x4a0ee3a0        0x4 drivers/sunxi_flash/built-in.o
 .bss._inner_buffer
                0x4a0ee3a4     0x1040 drivers/sunxi_flash/built-in.o
 .bss.mmc_sprite
                0x4a0ef3e4        0x4 drivers/sunxi_flash/built-in.o
 .bss.mmc_no    0x4a0ef3e8        0x4 drivers/sunxi_flash/built-in.o
 .bss.usbc_info_g
                0x4a0ef3ec       0x18 drivers/sunxi_usb/built-in.o
 .bss.usbc_otg_array
                0x4a0ef404       0x80 drivers/sunxi_usb/built-in.o
 .bss.timer_used_status
                0x4a0ef484        0x4 drivers/timer/built-in.o
 .bss.periodic_schedules
                0x4a0ef488        0x4 drivers/usb/host/built-in.o
 *fill*         0x4a0ef48c       0x34 00
 .bss.ehcic     0x4a0ef4c0      0x140 drivers/usb/host/built-in.o
 .bss.usb_vbus_handle
                0x4a0ef600        0x4 drivers/usb/host/built-in.o
 .bss.fs_partition
                0x4a0ef604       0x50 fs/built-in.o
 .bss.fs_type   0x4a0ef654        0x4 fs/built-in.o
 .bss.fs_dev_desc
                0x4a0ef658        0x4 fs/built-in.o
 *fill*         0x4a0ef65c        0x4 00
 .bss.ext_fs    0x4a0ef660       0x48 fs/built-in.o
                0x4a0ef660                ext_fs
 .bss.ext4fs_indir3_block
                0x4a0ef6a8        0x4 fs/built-in.o
                0x4a0ef6a8                ext4fs_indir3_block
 .bss.ext4fs_root
                0x4a0ef6ac        0x4 fs/built-in.o
                0x4a0ef6ac                ext4fs_root
 .bss.ext4fs_indir3_size
                0x4a0ef6b0        0x4 fs/built-in.o
                0x4a0ef6b0                ext4fs_indir3_size
 .bss.ext4fs_indir1_block
                0x4a0ef6b4        0x4 fs/built-in.o
                0x4a0ef6b4                ext4fs_indir1_block
 .bss.ext4fs_indir2_size
                0x4a0ef6b8        0x4 fs/built-in.o
                0x4a0ef6b8                ext4fs_indir2_size
 .bss.ext4fs_indir2_block
                0x4a0ef6bc        0x4 fs/built-in.o
                0x4a0ef6bc                ext4fs_indir2_block
 .bss.ext4fs_indir1_size
                0x4a0ef6c0        0x4 fs/built-in.o
                0x4a0ef6c0                ext4fs_indir1_size
 .bss.symlinknest
                0x4a0ef6c4        0x4 fs/built-in.o
 .bss.ext4fs_file
                0x4a0ef6c8        0x4 fs/built-in.o
                0x4a0ef6c8                ext4fs_file
 .bss.part_info
                0x4a0ef6cc        0x4 fs/built-in.o
 .bss.ext4fs_block_dev_desc
                0x4a0ef6d0        0x4 fs/built-in.o
 .bss.part_offset
                0x4a0ef6d4        0x4 fs/built-in.o
                0x4a0ef6d4                part_offset
 *fill*         0x4a0ef6d8       0x28 00
 .bss.do_fat_read_at_block
                0x4a0ef700    0x10000 fs/built-in.o
                0x4a0ef700                do_fat_read_at_block
 .bss.get_dentfromdir_block
                0x4a0ff700    0x10000 fs/built-in.o
                0x4a0ff700                get_dentfromdir_block
 .bss.cur_part_info
                0x4a10f700       0x50 fs/built-in.o
 *fill*         0x4a10f750       0x30 00
 .bss.get_contents_vfatname_block
                0x4a10f780    0x10000 fs/built-in.o
                0x4a10f780                get_contents_vfatname_block
 .bss.cur_dev   0x4a11f780        0x4 fs/built-in.o
 .bss.errno     0x4a11f784        0x4 lib/built-in.o
                0x4a11f784                errno
 .bss.local.4199
                0x4a11f788       0x16 lib/built-in.o
 *fill*         0x4a11f79e        0x2 00
 .bss.use_phys  0x4a11f7a0        0x4 memtest/built-in.o
                0x4a11f7a0                use_phys
 .bss.nand_nodeoffset
                0x4a11f7a4        0x4 nand_sunxi/built-in.o
 .bss._buf.5156
                0x4a11f7a8      0x400 nand_sunxi/built-in.o
 .bss._buf.5161
                0x4a11fba8      0x400 nand_sunxi/built-in.o
 .bss.boot_mode
                0x4a11ffa8        0x4 nand_sunxi/built-in.o
 .bss.dma_chan  0x4a11ffac        0x4 nand_sunxi/built-in.o
                0x4a11ffac                dma_chan
 .bss.flash_scaned
                0x4a11ffb0        0x4 nand_sunxi/built-in.o
 .bss.mbr_burned_flag
                0x4a11ffb4        0x4 nand_sunxi/built-in.o
                0x4a11ffb4                mbr_burned_flag
 .bss.nand_partition_num
                0x4a11ffb8        0x4 nand_sunxi/built-in.o
 .bss.nand_mbr  0x4a11ffbc      0xd88 nand_sunxi/built-in.o
                0x4a11ffbc                nand_mbr
 .bss.g_nand_info
                0x4a120d44        0x4 nand_sunxi/built-in.o
 .bss.nand_para_store
                0x4a120d48      0x100 nand_sunxi/built-in.o
 .bss.nand_open_times
                0x4a120e48        0x4 nand_sunxi/built-in.o
 .bss.imghd     0x4a120e4c        0x4 sprite/built-in.o
 .bss.imgitemhd
                0x4a120e50        0x4 sprite/built-in.o
 .bss.total_chunks
                0x4a120e54        0x4 sprite/built-in.o
 .bss.flash_start
                0x4a120e58        0x4 sprite/built-in.o
 .bss.chunk_count
                0x4a120e5c        0x4 sprite/built-in.o
 .bss.globl_header
                0x4a120e60       0x1c sprite/built-in.o
 .bss.sparse_format_type
                0x4a120e7c        0x4 sprite/built-in.o
 .bss.android_format_checksum
                0x4a120e80        0x4 sprite/built-in.o
 .bss.chunk_length
                0x4a120e84        0x4 sprite/built-in.o
 .bss.last_rest_size
                0x4a120e88        0x4 sprite/built-in.o
 .bss.img_file_start
                0x4a120e8c        0x4 sprite/built-in.o
                0x4a120e8c                img_file_start
 .bss.part_info
                0x4a120e90      0x280 sprite/built-in.o
                0x4a120e90                part_info
 .bss.sprite_led_hd
                0x4a121110        0x4 sprite/built-in.o
 .bss.sprite_led_status
                0x4a121114        0x4 sprite/built-in.o
 .bss.TIMER0    0x4a121118       0x10 sprite/built-in.o
                0x4a121118                TIMER0
 .bss.trans_data
                0x4a121128       0x98 usb_sunxi/built-in.o
 .bss.pmu_config
                0x4a1211c0       0x28 usb_sunxi/built-in.o
 .bss.sunxi_efex_next_action
                0x4a1211e8        0x4 usb_sunxi/built-in.o
 .bss.sunxi_usb_efex_write_enable
                0x4a1211ec        0x4 usb_sunxi/built-in.o
 .bss.efex_suspend_flag
                0x4a1211f0        0x4 usb_sunxi/built-in.o
                0x4a1211f0                efex_suspend_flag
 .bss.global_unseq_mem_addr
                0x4a1211f4        0x8 usb_sunxi/built-in.o
 .bss.csw.7131  0x4a1211fc        0xd usb_sunxi/built-in.o
 *fill*         0x4a121209        0x3 00
 .bss.sunxi_usb_efex_status
                0x4a12120c        0x4 usb_sunxi/built-in.o
 .bss.cbw.7130  0x4a121210        0x4 usb_sunxi/built-in.o
 .bss.cmd_buf   0x4a121214        0x4 usb_sunxi/built-in.o
 .bss.sunxi_usb_fastboot_write_enable
                0x4a121218        0x4 usb_sunxi/built-in.o
 .bss.all_download_bytes
                0x4a12121c        0x4 usb_sunxi/built-in.o
 .bss.fastboot_data_flag
                0x4a121220        0x4 usb_sunxi/built-in.o
                0x4a121220                fastboot_data_flag
 .bss.sunxi_usb_fastboot_status
                0x4a121224        0x4 usb_sunxi/built-in.o
 .bss.burn_part_bytes
                0x4a121228        0x8 usb_sunxi/built-in.o
                0x4a121228                burn_part_bytes
 .bss.fel_verify
                0x4a121230        0x4 usb_sunxi/built-in.o
 .bss.sunxi_usb_pburn_status
                0x4a121234        0x4 usb_sunxi/built-in.o
 .bss.sunxi_usb_burn_from_boot_init
                0x4a121238        0x4 usb_sunxi/built-in.o
                0x4a121238                sunxi_usb_burn_from_boot_init
 .bss.burn_part_result_state
                0x4a12123c        0x4 usb_sunxi/built-in.o
 .bss.private_data_ext_buff
                0x4a121240        0x4 usb_sunxi/built-in.o
 .bss.sunxi_usb_pburn_write_enable
                0x4a121244        0x4 usb_sunxi/built-in.o
 .bss.burn_private_start
                0x4a121248        0x4 usb_sunxi/built-in.o
 .bss.sunxi_usb_burn_from_boot_handshake
                0x4a12124c        0x4 usb_sunxi/built-in.o
                0x4a12124c                sunxi_usb_burn_from_boot_handshake
 .bss.pburn_flash_sectors.6584
                0x4a121250        0x4 usb_sunxi/built-in.o
 .bss.sunxi_usb_burn_from_boot_setup
                0x4a121254        0x4 usb_sunxi/built-in.o
                0x4a121254                sunxi_usb_burn_from_boot_setup
 .bss.burn_part_start
                0x4a121258        0x4 usb_sunxi/built-in.o
 .bss.cbw.6580  0x4a12125c        0x4 usb_sunxi/built-in.o
 .bss.burn_private_len
                0x4a121260        0x4 usb_sunxi/built-in.o
 .bss.efex_cbw.6581
                0x4a121264        0x4 usb_sunxi/built-in.o
 .bss.pburn_flash_start.6583
                0x4a121268        0x4 usb_sunxi/built-in.o
 .bss.burn_part_len
                0x4a12126c        0x4 usb_sunxi/built-in.o
 .bss.csw.6582  0x4a121270        0xd usb_sunxi/built-in.o
 *fill*         0x4a12127d        0x3 00
 .bss.private_data_ext_buff_step
                0x4a121280        0x4 usb_sunxi/built-in.o
 .bss.sunxi_usb_ep0_buffer
                0x4a121284      0x200 usb_sunxi/built-in.o
 .bss.usb_dma_trans_unaliged_bytes
                0x4a121484        0x4 usb_sunxi/built-in.o
 .bss.sunxi_udev_active
                0x4a121488        0x4 usb_sunxi/built-in.o
                0x4a121488                sunxi_udev_active
 .bss.ep0_stage.5726
                0x4a12148c        0x4 usb_sunxi/built-in.o
 .bss.sunxi_udc_source
                0x4a121490       0x2c usb_sunxi/built-in.o
                0x4a121490                sunxi_udc_source
 .bss.sunxi_ubuf
                0x4a1214bc       0x14 usb_sunxi/built-in.o
 .bss.usb_dma_trans_unaligned_buf
                0x4a1214d0        0x4 usb_sunxi/built-in.o
 .bss.usb_dma_used
                0x4a1214d4       0x20 usb_sunxi/built-in.o
 .bss.usb_hd    0x4a1214f4        0x4 usb_sunxi/built-in.o
 .bss.nftl_blk_head
                0x4a1214f8       0x48 nand_sunxi/sun8iw11p1/libnand-sun8iw11p1
                0x4a1214f8                nftl_blk_head
 .bss.nand_physic_temp8
                0x4a121540        0x4 nand_sunxi/sun8iw11p1/libnand-sun8iw11p1
                0x4a121540                nand_physic_temp8
 .bss.g_nctri   0x4a121544        0x4 nand_sunxi/sun8iw11p1/libnand-sun8iw11p1
                0x4a121544                g_nctri
 .bss.nand_physic_special_init
                0x4a121548        0x4 nand_sunxi/sun8iw11p1/libnand-sun8iw11p1
                0x4a121548                nand_physic_special_init
 .bss.nand_physic_temp7
                0x4a12154c        0x4 nand_sunxi/sun8iw11p1/libnand-sun8iw11p1
                0x4a12154c                nand_physic_temp7
 .bss.phyinfo_buf
                0x4a121550        0x4 nand_sunxi/sun8iw11p1/libnand-sun8iw11p1
                0x4a121550                phyinfo_buf
 .bss.g_phy_cfg
                0x4a121554        0x4 nand_sunxi/sun8iw11p1/libnand-sun8iw11p1
                0x4a121554                g_phy_cfg
 .bss.g_nssi    0x4a121558        0x4 nand_sunxi/sun8iw11p1/libnand-sun8iw11p1
                0x4a121558                g_nssi
 .bss.g_nssi_data
                0x4a12155c       0x1c nand_sunxi/sun8iw11p1/libnand-sun8iw11p1
                0x4a12155c                g_nssi_data
 .bss.g_nctri_data
                0x4a121578      0xad0 nand_sunxi/sun8iw11p1/libnand-sun8iw11p1
                0x4a121578                g_nctri_data
 .bss.nsci_data
                0x4a122048      0x2c0 nand_sunxi/sun8iw11p1/libnand-sun8iw11p1
                0x4a122048                nsci_data
 .bss.g_nand_storage_info
                0x4a122308        0x4 nand_sunxi/sun8iw11p1/libnand-sun8iw11p1
                0x4a122308                g_nand_storage_info
 .bss.g_nand_storage_info_data
                0x4a12230c       0x60 nand_sunxi/sun8iw11p1/libnand-sun8iw11p1
                0x4a12230c                g_nand_storage_info_data
 .bss.g_nsi     0x4a12236c        0x4 nand_sunxi/sun8iw11p1/libnand-sun8iw11p1
                0x4a12236c                g_nsi
 .bss.nci_data  0x4a122370      0x980 nand_sunxi/sun8iw11p1/libnand-sun8iw11p1
                0x4a122370                nci_data
 .bss.nand_physic_special_exit
                0x4a122cf0        0x4 nand_sunxi/sun8iw11p1/libnand-sun8iw11p1
                0x4a122cf0                nand_physic_special_exit
 .bss.ntf       0x4a122cf4       0x84 nand_sunxi/sun8iw11p1/libnand-sun8iw11p1
                0x4a122cf4                ntf
 .bss.aw_nand_info
                0x4a122d78      0x9c8 nand_sunxi/sun8iw11p1/libnand-sun8iw11p1
                0x4a122d78                aw_nand_info
 .bss.g_nsi_data
                0x4a123740        0xc nand_sunxi/sun8iw11p1/libnand-sun8iw11p1
                0x4a123740                g_nsi_data
 .bss.nand_physic_temp2
                0x4a12374c        0x4 nand_sunxi/sun8iw11p1/libnand-sun8iw11p1
                0x4a12374c                nand_physic_temp2
 .bss.nand_physic_temp1
                0x4a123750        0x4 nand_sunxi/sun8iw11p1/libnand-sun8iw11p1
                0x4a123750                nand_physic_temp1
 .bss.nand_physic_temp4
                0x4a123754        0x4 nand_sunxi/sun8iw11p1/libnand-sun8iw11p1
                0x4a123754                nand_physic_temp4
 .bss.nand_physic_temp5
                0x4a123758        0x4 nand_sunxi/sun8iw11p1/libnand-sun8iw11p1
                0x4a123758                nand_physic_temp5
 .bss.nand_physic_temp6
                0x4a12375c        0x4 nand_sunxi/sun8iw11p1/libnand-sun8iw11p1
                0x4a12375c                nand_physic_temp6
 .bss.nand_physic_temp3
                0x4a123760        0x4 nand_sunxi/sun8iw11p1/libnand-sun8iw11p1
                0x4a123760                nand_physic_temp3
 .bss.flag.5918
                0x4a123764        0x4 nand_sunxi/sun8iw11p1/libnand-sun8iw11p1
 .bss.nand_secure_storage_block_bak
                0x4a123768        0x4 nand_sunxi/sun8iw11p1/libnand-sun8iw11p1
                0x4a123768                nand_secure_storage_block_bak
 .bss.nand_secure_storage_block
                0x4a12376c        0x4 nand_sunxi/sun8iw11p1/libnand-sun8iw11p1
                0x4a12376c                nand_secure_storage_block
 .bss.function_read_page_end
                0x4a123770        0x4 nand_sunxi/sun8iw11p1/libnand-sun8iw11p1
                0x4a123770                function_read_page_end
 .bss.nand_phy_w_cache
                0x4a123774      0x100 nand_sunxi/sun8iw11p1/libnand-sun8iw11p1
                0x4a123774                nand_phy_w_cache
 .bss.m1_read_retry_mode
                0x4a123874        0x1 nand_sunxi/sun8iw11p1/libnand-sun8iw11p1
                0x4a123874                m1_read_retry_mode
 .bss.m1_read_retry_cycle
                0x4a123875        0x1 nand_sunxi/sun8iw11p1/libnand-sun8iw11p1
                0x4a123875                m1_read_retry_cycle
 .bss.m1_read_retry_reg_adr
                0x4a123876        0x4 nand_sunxi/sun8iw11p1/libnand-sun8iw11p1
                0x4a123876                m1_read_retry_reg_adr
 .bss.m1_read_retry_reg_num
                0x4a12387a        0x1 nand_sunxi/sun8iw11p1/libnand-sun8iw11p1
                0x4a12387a                m1_read_retry_reg_num
 .bss.m2_read_retry_mode
                0x4a12387b        0x1 nand_sunxi/sun8iw11p1/libnand-sun8iw11p1
                0x4a12387b                m2_read_retry_mode
 .bss.m2_lsb_mode_default_val
                0x4a12387c        0x4 nand_sunxi/sun8iw11p1/libnand-sun8iw11p1
                0x4a12387c                m2_lsb_mode_default_val
 .bss.m2_read_retry_cycle
                0x4a123880        0x1 nand_sunxi/sun8iw11p1/libnand-sun8iw11p1
                0x4a123880                m2_read_retry_cycle
 .bss.m2_lsb_mode_reg_adr
                0x4a123881        0x4 nand_sunxi/sun8iw11p1/libnand-sun8iw11p1
                0x4a123881                m2_lsb_mode_reg_adr
 .bss.m2_lsb_mode_reg_num
                0x4a123885        0x1 nand_sunxi/sun8iw11p1/libnand-sun8iw11p1
                0x4a123885                m2_lsb_mode_reg_num
 .bss.m2_read_retry_reg_adr
                0x4a123886        0x8 nand_sunxi/sun8iw11p1/libnand-sun8iw11p1
                0x4a123886                m2_read_retry_reg_adr
 .bss.m2_read_retry_reg_num
                0x4a12388e        0x1 nand_sunxi/sun8iw11p1/libnand-sun8iw11p1
                0x4a12388e                m2_read_retry_reg_num
 .bss.m2_lsb_mode_val
                0x4a12388f        0x4 nand_sunxi/sun8iw11p1/libnand-sun8iw11p1
                0x4a12388f                m2_lsb_mode_val
 .bss.m3_lsb_mode_default_val
                0x4a123893        0x5 nand_sunxi/sun8iw11p1/libnand-sun8iw11p1
                0x4a123893                m3_lsb_mode_default_val
 .bss.m3_read_retry_mode
                0x4a123898        0x1 nand_sunxi/sun8iw11p1/libnand-sun8iw11p1
                0x4a123898                m3_read_retry_mode
 .bss.m3_lsb_mode_val
                0x4a123899        0x5 nand_sunxi/sun8iw11p1/libnand-sun8iw11p1
                0x4a123899                m3_lsb_mode_val
 .bss.m3_read_retry_val
                0x4a12389e       0x38 nand_sunxi/sun8iw11p1/libnand-sun8iw11p1
                0x4a12389e                m3_read_retry_val
 .bss.m3_read_retry_cycle
                0x4a1238d6        0x1 nand_sunxi/sun8iw11p1/libnand-sun8iw11p1
                0x4a1238d6                m3_read_retry_cycle
 .bss.m3_read_retry_reg_adr
                0x4a1238d7        0x4 nand_sunxi/sun8iw11p1/libnand-sun8iw11p1
                0x4a1238d7                m3_read_retry_reg_adr
 .bss.m3_read_retry_reg_num
                0x4a1238db        0x1 nand_sunxi/sun8iw11p1/libnand-sun8iw11p1
                0x4a1238db                m3_read_retry_reg_num
 .bss.m3_lsb_mode_reg_adr
                0x4a1238dc        0x5 nand_sunxi/sun8iw11p1/libnand-sun8iw11p1
                0x4a1238dc                m3_lsb_mode_reg_adr
 .bss.m3_lsb_mode_reg_num
                0x4a1238e1        0x1 nand_sunxi/sun8iw11p1/libnand-sun8iw11p1
                0x4a1238e1                m3_lsb_mode_reg_num
 .bss.m4_read_retry_cycle
                0x4a1238e2        0x1 nand_sunxi/sun8iw11p1/libnand-sun8iw11p1
                0x4a1238e2                m4_read_retry_cycle
 *fill*         0x4a1238e3        0x1 00
 .bss.m4_p1     0x4a1238e4        0x4 nand_sunxi/sun8iw11p1/libnand-sun8iw11p1
 .bss.m4_read_retry_mode
                0x4a1238e8        0x1 nand_sunxi/sun8iw11p1/libnand-sun8iw11p1
                0x4a1238e8                m4_read_retry_mode
 .bss.m5_read_retry_mode
                0x4a1238e9        0x1 nand_sunxi/sun8iw11p1/libnand-sun8iw11p1
                0x4a1238e9                m5_read_retry_mode
 .bss.m5_read_retry_cycle
                0x4a1238ea        0x1 nand_sunxi/sun8iw11p1/libnand-sun8iw11p1
                0x4a1238ea                m5_read_retry_cycle
 *fill*         0x4a1238eb        0x1 00
 .bss.m6_sclk1_bak
                0x4a1238ec        0x4 nand_sunxi/sun8iw11p1/libnand-sun8iw11p1
 .bss.m6_read_retry_mode
                0x4a1238f0        0x1 nand_sunxi/sun8iw11p1/libnand-sun8iw11p1
                0x4a1238f0                m6_read_retry_mode
 *fill*         0x4a1238f1        0x3 00
 .bss.m6_toggle_mode_flag
                0x4a1238f4        0x4 nand_sunxi/sun8iw11p1/libnand-sun8iw11p1
 .bss.m6_read_retry_cycle
                0x4a1238f8        0x1 nand_sunxi/sun8iw11p1/libnand-sun8iw11p1
                0x4a1238f8                m6_read_retry_cycle
 .bss.m6_read_retry_reg_cnt
                0x4a1238f9        0x1 nand_sunxi/sun8iw11p1/libnand-sun8iw11p1
                0x4a1238f9                m6_read_retry_reg_cnt
 *fill*         0x4a1238fa        0x2 00
 .bss.m6_sclk0_bak
                0x4a1238fc        0x4 nand_sunxi/sun8iw11p1/libnand-sun8iw11p1
 .bss.m6_retry_flag
                0x4a123900        0x4 nand_sunxi/sun8iw11p1/libnand-sun8iw11p1
 .bss.m7_sclk1_bak
                0x4a123904        0x4 nand_sunxi/sun8iw11p1/libnand-sun8iw11p1
 .bss.m7_read_retry_mode
                0x4a123908        0x1 nand_sunxi/sun8iw11p1/libnand-sun8iw11p1
                0x4a123908                m7_read_retry_mode
 *fill*         0x4a123909        0x3 00
 .bss.m7_toggle_mode_flag
                0x4a12390c        0x4 nand_sunxi/sun8iw11p1/libnand-sun8iw11p1
 .bss.m7_read_retry_reg_cnt
                0x4a123910        0x1 nand_sunxi/sun8iw11p1/libnand-sun8iw11p1
                0x4a123910                m7_read_retry_reg_cnt
 .bss.m7_read_retry_cycle
                0x4a123911        0x1 nand_sunxi/sun8iw11p1/libnand-sun8iw11p1
                0x4a123911                m7_read_retry_cycle
 *fill*         0x4a123912        0x2 00
 .bss.m7_sclk0_bak
                0x4a123914        0x4 nand_sunxi/sun8iw11p1/libnand-sun8iw11p1
 .bss.m9_read_retry_cycle
                0x4a123918        0x1 nand_sunxi/sun8iw11p1/libnand-sun8iw11p1
                0x4a123918                m9_read_retry_cycle
 .bss.m9_read_retry_mode
                0x4a123919        0x1 nand_sunxi/sun8iw11p1/libnand-sun8iw11p1
                0x4a123919                m9_read_retry_mode
 .bss.m9_read_retry_reg_cnt
                0x4a12391a        0x1 nand_sunxi/sun8iw11p1/libnand-sun8iw11p1
                0x4a12391a                m9_read_retry_reg_cnt
                0x4a12391c                . = ALIGN (0x4)
 *fill*         0x4a12391b        0x1 00
                0x4a12391c                __bss_limit = .

.bss_end        0x4a12391c        0x0
 *(.__bss_end)
 .__bss_end     0x4a12391c        0x0 arch/arm/lib/built-in.o
                0x4a12391c                __bss_end

.dynsym         0x4a0e9e58       0x60
 *(.dynsym)
 .dynsym        0x4a0e9e58       0x60 arch/arm/cpu/armv7/spare_head.o

.dynbss         0x4a0e9eb8        0x0
 *(.dynbss)
 .dynbss        0x00000000        0x0 arch/arm/cpu/armv7/spare_head.o

.dynstr         0x4a0e9eb8       0x2a
 *(.dynstr*)
 .dynstr        0x4a0e9eb8       0x2a arch/arm/cpu/armv7/spare_head.o

.dynamic        0x4a0e9ee4       0x80
 *(.dynamic*)
 .dynamic       0x4a0e9ee4       0x80 arch/arm/cpu/armv7/spare_head.o
                0x4a0e9ee4                _DYNAMIC

.plt            0x4a0e9f64        0x0
 *(.plt*)
 .plt           0x00000000        0x0 arch/arm/cpu/armv7/spare_head.o

.interp         0x4a0e9f64       0x11
 *(.interp*)
 .interp        0x4a0e9f64       0x11 arch/arm/cpu/armv7/spare_head.o

.gnu.hash
 *(.gnu.hash)

.gnu            0x4a0e9f78        0x0
 *(.gnu*)
 .gnu.version_d
                0x00000000        0x0 arch/arm/cpu/armv7/spare_head.o
 .gnu.version   0x00000000        0x0 arch/arm/cpu/armv7/spare_head.o
 .gnu.version_r
                0x00000000        0x0 arch/arm/cpu/armv7/spare_head.o

.ARM.exidx      0x4a0e9f78       0x10
 *(.ARM.exidx*)
 .ARM.exidx     0x4a0e9f78       0x10 drivers/smc/built-in.o
                                  0x8 (size before relaxing)

.gnu.linkonce.armexidx
 *(.gnu.linkonce.armexidx.*)
LOAD arch/arm/cpu/armv7/start.o
START GROUP
LOAD arch/arm/cpu/built-in.o
LOAD arch/arm/cpu/armv7/built-in.o
LOAD arch/arm/cpu/armv7/sun8iw11p1/built-in.o
LOAD arch/arm/cpu/armv7/sunxi-common/built-in.o
LOAD arch/arm/lib/built-in.o
LOAD board/sunxi/cartoon/built-in.o
LOAD board/sunxi/common/built-in.o
LOAD board/sunxi/sun8iw11p1/built-in.o
LOAD common/built-in.o
LOAD disk/built-in.o
LOAD drivers/built-in.o
LOAD drivers/clk/built-in.o
LOAD drivers/dma/built-in.o
LOAD drivers/gic/built-in.o
LOAD drivers/gpio/built-in.o
LOAD drivers/i2c/built-in.o
LOAD drivers/input/built-in.o
LOAD drivers/key/built-in.o
LOAD drivers/mmc/built-in.o
LOAD drivers/mtd/built-in.o
LOAD drivers/mtd/onenand/built-in.o
LOAD drivers/mtd/spi/built-in.o
LOAD drivers/net/built-in.o
LOAD drivers/net/phy/built-in.o
LOAD drivers/pci/built-in.o
LOAD drivers/power/built-in.o
LOAD drivers/power/battery/built-in.o
LOAD drivers/power/fuel_gauge/built-in.o
LOAD drivers/power/mfd/built-in.o
LOAD drivers/power/pmic/built-in.o
LOAD drivers/pwm/built-in.o
LOAD drivers/rsb/built-in.o
LOAD drivers/serial/built-in.o
LOAD drivers/smc/built-in.o
LOAD drivers/spi/built-in.o
LOAD drivers/sunxi_crypto/built-in.o
LOAD drivers/sunxi_flash/built-in.o
LOAD drivers/sunxi_usb/built-in.o
LOAD drivers/timer/built-in.o
LOAD drivers/usb/eth/built-in.o
LOAD drivers/usb/gadget/built-in.o
LOAD drivers/usb/host/built-in.o
LOAD drivers/usb/musb-new/built-in.o
LOAD drivers/usb/musb/built-in.o
LOAD drivers/usb/phy/built-in.o
LOAD drivers/usb/ulpi/built-in.o
LOAD fs/built-in.o
LOAD lib/built-in.o
LOAD lib/libfdt/built-in.o
LOAD memtest/built-in.o
LOAD nand_sunxi/built-in.o
LOAD net/built-in.o
LOAD sprite/built-in.o
LOAD test/built-in.o
LOAD test/dm/built-in.o
LOAD usb_sunxi/built-in.o
END GROUP
LOAD arch/arm/lib/eabi_compat.o
LOAD /home/taga/NuttX/brandy/gcc-linaro/bin/../lib/gcc/arm-linux-gnueabi/4.6.3/libgcc.a
LOAD nand_sunxi/sun8iw11p1/libnand-sun8iw11p1
OUTPUT(u-boot elf32-littlearm)

.debug_info     0x00000000   0x189757
 .debug_info    0x00000000      0x6f3 arch/arm/cpu/armv7/spare_head.o
 .debug_info    0x000006f3      0x3a5 arch/arm/cpu/armv7/uboot_hash.o
 .debug_info    0x00000a98       0x68 arch/arm/cpu/armv7/start.o
 .debug_info    0x00000b00     0x1472 arch/arm/cpu/armv7/built-in.o
 .debug_info    0x00001f72     0x1b81 arch/arm/cpu/armv7/sun8iw11p1/built-in.o
 .debug_info    0x00003af3      0xfab arch/arm/cpu/armv7/sunxi-common/built-in.o
 .debug_info    0x00004a9e     0x4166 arch/arm/lib/built-in.o
 .debug_info    0x00008c04     0x3ab3 board/sunxi/cartoon/built-in.o
 .debug_info    0x0000c6b7     0xfde5 board/sunxi/common/built-in.o
 .debug_info    0x0001c49c      0xf42 board/sunxi/sun8iw11p1/built-in.o
 .debug_info    0x0001d3de    0x36bd1 common/built-in.o
 .debug_info    0x00053faf     0x3cc2 disk/built-in.o
 .debug_info    0x00057c71    0x6c5ec drivers/built-in.o
 .debug_info    0x000c425d     0x76fc drivers/clk/built-in.o
 .debug_info    0x000cb959      0xcbd drivers/dma/built-in.o
 .debug_info    0x000cc616     0x106b drivers/gic/built-in.o
 .debug_info    0x000cd681     0x15bb drivers/i2c/built-in.o
 .debug_info    0x000cec3c      0x75c drivers/key/built-in.o
 .debug_info    0x000cf398    0x11b31 drivers/mmc/built-in.o
 .debug_info    0x000e0ec9     0x7629 drivers/power/built-in.o
 .debug_info    0x000e84f2     0x173b drivers/pwm/built-in.o
 .debug_info    0x000e9c2d     0x2cc1 drivers/serial/built-in.o
 .debug_info    0x000ec8ee     0x1379 drivers/smc/built-in.o
 .debug_info    0x000edc67     0x1297 drivers/spi/built-in.o
 .debug_info    0x000eeefe      0xb47 drivers/sunxi_crypto/built-in.o
 .debug_info    0x000efa45     0x59b3 drivers/sunxi_flash/built-in.o
 .debug_info    0x000f53f8     0xa11d drivers/sunxi_usb/built-in.o
 .debug_info    0x000ff515      0xc77 drivers/timer/built-in.o
 .debug_info    0x0010018c     0x27a1 drivers/usb/host/built-in.o
 .debug_info    0x0010292d     0x77fe fs/built-in.o
 .debug_info    0x0010a12b     0xae31 lib/built-in.o
 .debug_info    0x00114f5c     0x4660 lib/libfdt/built-in.o
 .debug_info    0x001195bc      0xcbc memtest/built-in.o
 .debug_info    0x0011a278     0x4d42 nand_sunxi/built-in.o
 .debug_info    0x0011efba     0xab35 sprite/built-in.o
 .debug_info    0x00129aef     0xaee3 usb_sunxi/built-in.o
 .debug_info    0x001349d2      0x3dc arch/arm/lib/eabi_compat.o
 .debug_info    0x00134dae    0x549a9 nand_sunxi/sun8iw11p1/libnand-sun8iw11p1

.debug_abbrev   0x00000000    0x32e4c
 .debug_abbrev  0x00000000      0x108 arch/arm/cpu/armv7/spare_head.o
 .debug_abbrev  0x00000108       0xea arch/arm/cpu/armv7/uboot_hash.o
 .debug_abbrev  0x000001f2       0x14 arch/arm/cpu/armv7/start.o
 .debug_abbrev  0x00000206      0x5ba arch/arm/cpu/armv7/built-in.o
 .debug_abbrev  0x000007c0      0x4cb arch/arm/cpu/armv7/sun8iw11p1/built-in.o
 .debug_abbrev  0x00000c8b      0x31f arch/arm/cpu/armv7/sunxi-common/built-in.o
 .debug_abbrev  0x00000faa      0xce7 arch/arm/lib/built-in.o
 .debug_abbrev  0x00001c91      0xc76 board/sunxi/cartoon/built-in.o
 .debug_abbrev  0x00002907     0x23b0 board/sunxi/common/built-in.o
 .debug_abbrev  0x00004cb7      0x20a board/sunxi/sun8iw11p1/built-in.o
 .debug_abbrev  0x00004ec1     0x9b07 common/built-in.o
 .debug_abbrev  0x0000e9c8      0x9c6 disk/built-in.o
 .debug_abbrev  0x0000f38e     0xac19 drivers/built-in.o
 .debug_abbrev  0x00019fa7     0x1039 drivers/clk/built-in.o
 .debug_abbrev  0x0001afe0      0x2cd drivers/dma/built-in.o
 .debug_abbrev  0x0001b2ad      0x386 drivers/gic/built-in.o
 .debug_abbrev  0x0001b633      0x410 drivers/i2c/built-in.o
 .debug_abbrev  0x0001ba43      0x191 drivers/key/built-in.o
 .debug_abbrev  0x0001bbd4     0x1d24 drivers/mmc/built-in.o
 .debug_abbrev  0x0001d8f8     0x10ce drivers/power/built-in.o
 .debug_abbrev  0x0001e9c6      0x40b drivers/pwm/built-in.o
 .debug_abbrev  0x0001edd1      0x79f drivers/serial/built-in.o
 .debug_abbrev  0x0001f570      0x334 drivers/smc/built-in.o
 .debug_abbrev  0x0001f8a4      0x493 drivers/spi/built-in.o
 .debug_abbrev  0x0001fd37      0x337 drivers/sunxi_crypto/built-in.o
 .debug_abbrev  0x0002006e      0xa3e drivers/sunxi_flash/built-in.o
 .debug_abbrev  0x00020aac      0xd82 drivers/sunxi_usb/built-in.o
 .debug_abbrev  0x0002182e      0x3cd drivers/timer/built-in.o
 .debug_abbrev  0x00021bfb      0x6a0 drivers/usb/host/built-in.o
 .debug_abbrev  0x0002229b     0x1008 fs/built-in.o
 .debug_abbrev  0x000232a3     0x2a57 lib/built-in.o
 .debug_abbrev  0x00025cfa      0xda4 lib/libfdt/built-in.o
 .debug_abbrev  0x00026a9e      0x17d memtest/built-in.o
 .debug_abbrev  0x00026c1b      0xbf6 nand_sunxi/built-in.o
 .debug_abbrev  0x00027811     0x19cd sprite/built-in.o
 .debug_abbrev  0x000291de     0x1a51 usb_sunxi/built-in.o
 .debug_abbrev  0x0002ac2f      0x118 arch/arm/lib/eabi_compat.o
 .debug_abbrev  0x0002ad47     0x8105 nand_sunxi/sun8iw11p1/libnand-sun8iw11p1

.debug_line     0x00000000    0x49872
 .debug_line    0x00000000       0xf4 arch/arm/cpu/armv7/spare_head.o
 .debug_line    0x000000f4       0xd1 arch/arm/cpu/armv7/uboot_hash.o
 .debug_line    0x000001c5       0x94 arch/arm/cpu/armv7/start.o
 .debug_line    0x00000259      0x513 arch/arm/cpu/armv7/built-in.o
 .debug_line    0x0000076c      0x55b arch/arm/cpu/armv7/sun8iw11p1/built-in.o
 .debug_line    0x00000cc7      0x36d arch/arm/cpu/armv7/sunxi-common/built-in.o
 .debug_line    0x00001034      0xcec arch/arm/lib/built-in.o
 .debug_line    0x00001d20      0xe42 board/sunxi/cartoon/built-in.o
 .debug_line    0x00002b62     0x2fa8 board/sunxi/common/built-in.o
 .debug_line    0x00005b0a      0x230 board/sunxi/sun8iw11p1/built-in.o
 .debug_line    0x00005d3a     0xa752 common/built-in.o
 .debug_line    0x0001048c      0xb24 disk/built-in.o
 .debug_line    0x00010fb0    0x111dc drivers/built-in.o
 .debug_line    0x0002218c     0x1440 drivers/clk/built-in.o
 .debug_line    0x000235cc      0x340 drivers/dma/built-in.o
 .debug_line    0x0002390c      0x34a drivers/gic/built-in.o
 .debug_line    0x00023c56      0x3af drivers/i2c/built-in.o
 .debug_line    0x00024005      0x1e4 drivers/key/built-in.o
 .debug_line    0x000241e9     0x3639 drivers/mmc/built-in.o
 .debug_line    0x00027822     0x250c drivers/power/built-in.o
 .debug_line    0x00029d2e      0x4d5 drivers/pwm/built-in.o
 .debug_line    0x0002a203      0x8d9 drivers/serial/built-in.o
 .debug_line    0x0002aadc      0x4b5 drivers/smc/built-in.o
 .debug_line    0x0002af91      0x3d2 drivers/spi/built-in.o
 .debug_line    0x0002b363      0x2c5 drivers/sunxi_crypto/built-in.o
 .debug_line    0x0002b628      0xf35 drivers/sunxi_flash/built-in.o
 .debug_line    0x0002c55d     0x154c drivers/sunxi_usb/built-in.o
 .debug_line    0x0002daa9      0x306 drivers/timer/built-in.o
 .debug_line    0x0002ddaf      0x9ea drivers/usb/host/built-in.o
 .debug_line    0x0002e799     0x163e fs/built-in.o
 .debug_line    0x0002fdd7     0x3576 lib/built-in.o
 .debug_line    0x0003334d     0x1318 lib/libfdt/built-in.o
 .debug_line    0x00034665      0x4d9 memtest/built-in.o
 .debug_line    0x00034b3e     0x11d7 nand_sunxi/built-in.o
 .debug_line    0x00035d15     0x236f sprite/built-in.o
 .debug_line    0x00038084     0x22b2 usb_sunxi/built-in.o
 .debug_line    0x0003a336       0xfd arch/arm/lib/eabi_compat.o
 .debug_line    0x0003a433     0xf43f nand_sunxi/sun8iw11p1/libnand-sun8iw11p1

.debug_str      0x00000000    0x333d8
 .debug_str     0x00000000      0x401 arch/arm/cpu/armv7/spare_head.o
                                0x4fe (size before relaxing)
 .debug_str     0x00000401       0x20 arch/arm/cpu/armv7/uboot_hash.o
                                0x2e2 (size before relaxing)
 .debug_str     0x00000421      0x374 arch/arm/cpu/armv7/built-in.o
                                0xbe6 (size before relaxing)
 .debug_str     0x00000795      0x6dc arch/arm/cpu/armv7/sun8iw11p1/built-in.o
                               0x107e (size before relaxing)
 .debug_str     0x00000e71      0x212 arch/arm/cpu/armv7/sunxi-common/built-in.o
                                0xa56 (size before relaxing)
 .debug_str     0x00001083     0x10e5 arch/arm/lib/built-in.o
                               0x30ae (size before relaxing)
 .debug_str     0x00002168      0xafd board/sunxi/cartoon/built-in.o
                               0x22fe (size before relaxing)
 .debug_str     0x00002c65     0x44a6 board/sunxi/common/built-in.o
                               0xa29f (size before relaxing)
 .debug_str     0x0000710b      0x12f board/sunxi/sun8iw11p1/built-in.o
                                0xb5a (size before relaxing)
 .debug_str     0x0000723a     0x5993 common/built-in.o
                              0x21801 (size before relaxing)
 .debug_str     0x0000cbcd      0x507 disk/built-in.o
                               0x1ec1 (size before relaxing)
 .debug_str     0x0000d0d4     0xf1dc drivers/built-in.o
                              0x4bd90 (size before relaxing)
 .debug_str     0x0001c2b0     0x19e8 drivers/clk/built-in.o
                               0x33aa (size before relaxing)
 .debug_str     0x0001dc98      0x35e drivers/dma/built-in.o
                                0x6e9 (size before relaxing)
 .debug_str     0x0001dff6      0x16b drivers/gic/built-in.o
                                0x83e (size before relaxing)
 .debug_str     0x0001e161      0x252 drivers/i2c/built-in.o
                                0x5a1 (size before relaxing)
 .debug_str     0x0001e3b3       0xcf drivers/key/built-in.o
                                0x4b8 (size before relaxing)
 .debug_str     0x0001e482     0x19ea drivers/mmc/built-in.o
                               0x7e09 (size before relaxing)
 .debug_str     0x0001fe6c     0x12b9 drivers/power/built-in.o
                               0x33a3 (size before relaxing)
 .debug_str     0x00021125      0x21d drivers/pwm/built-in.o
                                0x747 (size before relaxing)
 .debug_str     0x00021342      0x5bb drivers/serial/built-in.o
                               0x177c (size before relaxing)
 .debug_str     0x000218fd      0x3ae drivers/smc/built-in.o
                                0xa50 (size before relaxing)
 .debug_str     0x00021cab      0x217 drivers/spi/built-in.o
                                0x8ab (size before relaxing)
 .debug_str     0x00021ec2      0x2e1 drivers/sunxi_crypto/built-in.o
                                0x5f2 (size before relaxing)
 .debug_str     0x000221a3      0xdc6 drivers/sunxi_flash/built-in.o
                               0x332c (size before relaxing)
 .debug_str     0x00022f69     0x1ee1 drivers/sunxi_usb/built-in.o
                               0x2f80 (size before relaxing)
 .debug_str     0x00024e4a      0x18f drivers/timer/built-in.o
                                0x526 (size before relaxing)
 .debug_str     0x00024fd9      0x594 drivers/usb/host/built-in.o
                               0x1372 (size before relaxing)
 .debug_str     0x0002556d      0xf47 fs/built-in.o
                               0x3b73 (size before relaxing)
 .debug_str     0x000264b4     0x1313 lib/built-in.o
                               0x6110 (size before relaxing)
 .debug_str     0x000277c7      0x916 lib/libfdt/built-in.o
                               0x1760 (size before relaxing)
 .debug_str     0x000280dd      0x1a3 memtest/built-in.o
                                0x47b (size before relaxing)
 .debug_str     0x00028280      0xd00 nand_sunxi/built-in.o
                               0x2b11 (size before relaxing)
 .debug_str     0x00028f80     0x1293 sprite/built-in.o
                               0x677e (size before relaxing)
 .debug_str     0x0002a213     0x1a8c usb_sunxi/built-in.o
                               0x5efd (size before relaxing)
 .debug_str     0x0002bc9f       0x56 arch/arm/lib/eabi_compat.o
                                0x307 (size before relaxing)
 .debug_str     0x0002bcf5     0x76e3 nand_sunxi/sun8iw11p1/libnand-sun8iw11p1
                              0x3999e (size before relaxing)

.comment        0x00000000       0x64
 .comment       0x00000000       0x64 arch/arm/cpu/armv7/spare_head.o
                                 0x65 (size before relaxing)
 .comment       0x00000000       0x65 arch/arm/cpu/armv7/uboot_hash.o
 .comment       0x00000000      0x12f arch/arm/cpu/armv7/built-in.o
 .comment       0x00000000      0x12f arch/arm/cpu/armv7/sun8iw11p1/built-in.o
 .comment       0x00000000       0x65 arch/arm/cpu/armv7/sunxi-common/built-in.o
 .comment       0x00000000      0x2c3 arch/arm/lib/built-in.o
 .comment       0x00000000      0x25e board/sunxi/cartoon/built-in.o
 .comment       0x00000000      0x5eb board/sunxi/common/built-in.o
 .comment       0x00000000       0x65 board/sunxi/sun8iw11p1/built-in.o
 .comment       0x00000000     0x1940 common/built-in.o
 .comment       0x00000000      0x12f disk/built-in.o
 .comment       0x00000000     0x1b39 drivers/built-in.o
 .comment       0x00000000      0x1f9 drivers/clk/built-in.o
 .comment       0x00000000       0x65 drivers/dma/built-in.o
 .comment       0x00000000       0x65 drivers/gic/built-in.o
 .comment       0x00000000       0x65 drivers/i2c/built-in.o
 .comment       0x00000000       0x65 drivers/key/built-in.o
 .comment       0x00000000      0x38d drivers/mmc/built-in.o
 .comment       0x00000000      0x2c3 drivers/power/built-in.o
 .comment       0x00000000       0x65 drivers/pwm/built-in.o
 .comment       0x00000000      0x12f drivers/serial/built-in.o
 .comment       0x00000000       0x65 drivers/smc/built-in.o
 .comment       0x00000000       0xca drivers/spi/built-in.o
 .comment       0x00000000       0x65 drivers/sunxi_crypto/built-in.o
 .comment       0x00000000      0x194 drivers/sunxi_flash/built-in.o
 .comment       0x00000000      0x1f9 drivers/sunxi_usb/built-in.o
 .comment       0x00000000       0x65 drivers/timer/built-in.o
 .comment       0x00000000       0xca drivers/usb/host/built-in.o
 .comment       0x00000000      0x25e fs/built-in.o
 .comment       0x00000000      0x9dd lib/built-in.o
 .comment       0x00000000      0x2c3 lib/libfdt/built-in.o
 .comment       0x00000000       0x65 memtest/built-in.o
 .comment       0x00000000      0x1f9 nand_sunxi/built-in.o
 .comment       0x00000000      0x521 sprite/built-in.o
 .comment       0x00000000      0x38d usb_sunxi/built-in.o
 .comment       0x00000000       0x65 arch/arm/lib/eabi_compat.o
 .comment       0x00000000     0x141f nand_sunxi/sun8iw11p1/libnand-sun8iw11p1

.note.GNU-stack
                0x00000000        0x0
 .note.GNU-stack
                0x00000000        0x0 arch/arm/cpu/armv7/spare_head.o
 .note.GNU-stack
                0x00000000        0x0 arch/arm/cpu/armv7/uboot_hash.o
 .note.GNU-stack
                0x00000000        0x0 arch/arm/cpu/armv7/built-in.o
 .note.GNU-stack
                0x00000000        0x0 arch/arm/cpu/armv7/sun8iw11p1/built-in.o
 .note.GNU-stack
                0x00000000        0x0 arch/arm/cpu/armv7/sunxi-common/built-in.o
 .note.GNU-stack
                0x00000000        0x0 arch/arm/lib/built-in.o
 .note.GNU-stack
                0x00000000        0x0 board/sunxi/cartoon/built-in.o
 .note.GNU-stack
                0x00000000        0x0 board/sunxi/common/built-in.o
 .note.GNU-stack
                0x00000000        0x0 board/sunxi/sun8iw11p1/built-in.o
 .note.GNU-stack
                0x00000000        0x0 common/built-in.o
 .note.GNU-stack
                0x00000000        0x0 disk/built-in.o
 .note.GNU-stack
                0x00000000        0x0 drivers/built-in.o
 .note.GNU-stack
                0x00000000        0x0 drivers/clk/built-in.o
 .note.GNU-stack
                0x00000000        0x0 drivers/dma/built-in.o
 .note.GNU-stack
                0x00000000        0x0 drivers/gic/built-in.o
 .note.GNU-stack
                0x00000000        0x0 drivers/i2c/built-in.o
 .note.GNU-stack
                0x00000000        0x0 drivers/key/built-in.o
 .note.GNU-stack
                0x00000000        0x0 drivers/mmc/built-in.o
 .note.GNU-stack
                0x00000000        0x0 drivers/power/built-in.o
 .note.GNU-stack
                0x00000000        0x0 drivers/pwm/built-in.o
 .note.GNU-stack
                0x00000000        0x0 drivers/serial/built-in.o
 .note.GNU-stack
                0x00000000        0x0 drivers/smc/built-in.o
 .note.GNU-stack
                0x00000000        0x0 drivers/spi/built-in.o
 .note.GNU-stack
                0x00000000        0x0 drivers/sunxi_crypto/built-in.o
 .note.GNU-stack
                0x00000000        0x0 drivers/sunxi_flash/built-in.o
 .note.GNU-stack
                0x00000000        0x0 drivers/sunxi_usb/built-in.o
 .note.GNU-stack
                0x00000000        0x0 drivers/timer/built-in.o
 .note.GNU-stack
                0x00000000        0x0 drivers/usb/host/built-in.o
 .note.GNU-stack
                0x00000000        0x0 fs/built-in.o
 .note.GNU-stack
                0x00000000        0x0 lib/built-in.o
 .note.GNU-stack
                0x00000000        0x0 lib/libfdt/built-in.o
 .note.GNU-stack
                0x00000000        0x0 memtest/built-in.o
 .note.GNU-stack
                0x00000000        0x0 nand_sunxi/built-in.o
 .note.GNU-stack
                0x00000000        0x0 sprite/built-in.o
 .note.GNU-stack
                0x00000000        0x0 usb_sunxi/built-in.o
 .note.GNU-stack
                0x00000000        0x0 arch/arm/lib/eabi_compat.o
 .note.GNU-stack
                0x00000000        0x0 /home/taga/NuttX/brandy/gcc-linaro/bin/../lib/gcc/arm-linux-gnueabi/4.6.3/libgcc.a(_udivsi3.o)
 .note.GNU-stack
                0x00000000        0x0 /home/taga/NuttX/brandy/gcc-linaro/bin/../lib/gcc/arm-linux-gnueabi/4.6.3/libgcc.a(_divsi3.o)
 .note.GNU-stack
                0x00000000        0x0 /home/taga/NuttX/brandy/gcc-linaro/bin/../lib/gcc/arm-linux-gnueabi/4.6.3/libgcc.a(_lshrdi3.o)
 .note.GNU-stack
                0x00000000        0x0 /home/taga/NuttX/brandy/gcc-linaro/bin/../lib/gcc/arm-linux-gnueabi/4.6.3/libgcc.a(_ashrdi3.o)
 .note.GNU-stack
                0x00000000        0x0 /home/taga/NuttX/brandy/gcc-linaro/bin/../lib/gcc/arm-linux-gnueabi/4.6.3/libgcc.a(_ashldi3.o)
 .note.GNU-stack
                0x00000000        0x0 /home/taga/NuttX/brandy/gcc-linaro/bin/../lib/gcc/arm-linux-gnueabi/4.6.3/libgcc.a(_arm_addsubdf3.o)
 .note.GNU-stack
                0x00000000        0x0 /home/taga/NuttX/brandy/gcc-linaro/bin/../lib/gcc/arm-linux-gnueabi/4.6.3/libgcc.a(_arm_muldivdf3.o)
 .note.GNU-stack
                0x00000000        0x0 /home/taga/NuttX/brandy/gcc-linaro/bin/../lib/gcc/arm-linux-gnueabi/4.6.3/libgcc.a(_arm_fixdfsi.o)
 .note.GNU-stack
                0x00000000        0x0 /home/taga/NuttX/brandy/gcc-linaro/bin/../lib/gcc/arm-linux-gnueabi/4.6.3/libgcc.a(_dvmd_lnx.o)
 .note.GNU-stack
                0x00000000        0x0 nand_sunxi/sun8iw11p1/libnand-sun8iw11p1

.ARM.attributes
                0x00000000       0x31
 .ARM.attributes
                0x00000000       0x2f arch/arm/cpu/armv7/spare_head.o
 .ARM.attributes
                0x0000002f       0x2f arch/arm/cpu/armv7/uboot_hash.o
 .ARM.attributes
                0x0000005e       0x21 arch/arm/cpu/armv7/start.o
 .ARM.attributes
                0x0000007f       0x2f arch/arm/cpu/armv7/built-in.o
 .ARM.attributes
                0x000000ae       0x2f arch/arm/cpu/armv7/sun8iw11p1/built-in.o
 .ARM.attributes
                0x000000dd       0x2f arch/arm/cpu/armv7/sunxi-common/built-in.o
 .ARM.attributes
                0x0000010c       0x2d arch/arm/lib/built-in.o
 .ARM.attributes
                0x00000139       0x2f board/sunxi/cartoon/built-in.o
 .ARM.attributes
                0x00000168       0x2f board/sunxi/common/built-in.o
 .ARM.attributes
                0x00000197       0x2f board/sunxi/sun8iw11p1/built-in.o
 .ARM.attributes
                0x000001c6       0x2f common/built-in.o
 .ARM.attributes
                0x000001f5       0x2f disk/built-in.o
 .ARM.attributes
                0x00000224       0x2f drivers/built-in.o
 .ARM.attributes
                0x00000253       0x2f drivers/clk/built-in.o
 .ARM.attributes
                0x00000282       0x2f drivers/dma/built-in.o
 .ARM.attributes
                0x000002b1       0x2f drivers/gic/built-in.o
 .ARM.attributes
                0x000002e0       0x2f drivers/i2c/built-in.o
 .ARM.attributes
                0x0000030f       0x2f drivers/key/built-in.o
 .ARM.attributes
                0x0000033e       0x2f drivers/mmc/built-in.o
 .ARM.attributes
                0x0000036d       0x2f drivers/power/built-in.o
 .ARM.attributes
                0x0000039c       0x2f drivers/pwm/built-in.o
 .ARM.attributes
                0x000003cb       0x2f drivers/serial/built-in.o
 .ARM.attributes
                0x000003fa       0x31 drivers/smc/built-in.o
 .ARM.attributes
                0x0000042b       0x2f drivers/spi/built-in.o
 .ARM.attributes
                0x0000045a       0x2f drivers/sunxi_crypto/built-in.o
 .ARM.attributes
                0x00000489       0x2f drivers/sunxi_flash/built-in.o
 .ARM.attributes
                0x000004b8       0x2f drivers/sunxi_usb/built-in.o
 .ARM.attributes
                0x000004e7       0x2f drivers/timer/built-in.o
 .ARM.attributes
                0x00000516       0x2f drivers/usb/host/built-in.o
 .ARM.attributes
                0x00000545       0x2f fs/built-in.o
 .ARM.attributes
                0x00000574       0x2f lib/built-in.o
 .ARM.attributes
                0x000005a3       0x2f lib/libfdt/built-in.o
 .ARM.attributes
                0x000005d2       0x2f memtest/built-in.o
 .ARM.attributes
                0x00000601       0x2f nand_sunxi/built-in.o
 .ARM.attributes
                0x00000630       0x2f sprite/built-in.o
 .ARM.attributes
                0x0000065f       0x2f usb_sunxi/built-in.o
 .ARM.attributes
                0x0000068e       0x2f arch/arm/lib/eabi_compat.o
 .ARM.attributes
                0x000006bd       0x23 /home/taga/NuttX/brandy/gcc-linaro/bin/../lib/gcc/arm-linux-gnueabi/4.6.3/libgcc.a(_udivsi3.o)
 .ARM.attributes
                0x000006e0       0x23 /home/taga/NuttX/brandy/gcc-linaro/bin/../lib/gcc/arm-linux-gnueabi/4.6.3/libgcc.a(_divsi3.o)
 .ARM.attributes
                0x00000703       0x23 /home/taga/NuttX/brandy/gcc-linaro/bin/../lib/gcc/arm-linux-gnueabi/4.6.3/libgcc.a(_lshrdi3.o)
 .ARM.attributes
                0x00000726       0x23 /home/taga/NuttX/brandy/gcc-linaro/bin/../lib/gcc/arm-linux-gnueabi/4.6.3/libgcc.a(_ashrdi3.o)
 .ARM.attributes
                0x00000749       0x23 /home/taga/NuttX/brandy/gcc-linaro/bin/../lib/gcc/arm-linux-gnueabi/4.6.3/libgcc.a(_ashldi3.o)
 .ARM.attributes
                0x0000076c       0x23 /home/taga/NuttX/brandy/gcc-linaro/bin/../lib/gcc/arm-linux-gnueabi/4.6.3/libgcc.a(_arm_addsubdf3.o)
 .ARM.attributes
                0x0000078f       0x23 /home/taga/NuttX/brandy/gcc-linaro/bin/../lib/gcc/arm-linux-gnueabi/4.6.3/libgcc.a(_arm_muldivdf3.o)
 .ARM.attributes
                0x000007b2       0x23 /home/taga/NuttX/brandy/gcc-linaro/bin/../lib/gcc/arm-linux-gnueabi/4.6.3/libgcc.a(_arm_fixdfsi.o)
 .ARM.attributes
                0x000007d5       0x23 /home/taga/NuttX/brandy/gcc-linaro/bin/../lib/gcc/arm-linux-gnueabi/4.6.3/libgcc.a(_dvmd_lnx.o)
 .ARM.attributes
                0x000007f8       0x2f nand_sunxi/sun8iw11p1/libnand-sun8iw11p1

.debug_aranges  0x00000000     0x9ee8
 .debug_aranges
                0x00000000       0x20 arch/arm/cpu/armv7/start.o
 .debug_aranges
                0x00000020      0x110 arch/arm/cpu/armv7/built-in.o
 .debug_aranges
                0x00000130      0x108 arch/arm/cpu/armv7/sun8iw11p1/built-in.o
 .debug_aranges
                0x00000238       0xd0 arch/arm/cpu/armv7/sunxi-common/built-in.o
 .debug_aranges
                0x00000308      0x270 arch/arm/lib/built-in.o
 .debug_aranges
                0x00000578      0x1c8 board/sunxi/cartoon/built-in.o
 .debug_aranges
                0x00000740      0x708 board/sunxi/common/built-in.o
 .debug_aranges
                0x00000e48       0x78 board/sunxi/sun8iw11p1/built-in.o
 .debug_aranges
                0x00000ec0     0x15d0 common/built-in.o
 .debug_aranges
                0x00002490      0x120 disk/built-in.o
 .debug_aranges
                0x000025b0     0x2680 drivers/built-in.o
 .debug_aranges
                0x00004c30      0x2b0 drivers/clk/built-in.o
 .debug_aranges
                0x00004ee0       0x88 drivers/dma/built-in.o
 .debug_aranges
                0x00004f68       0x88 drivers/gic/built-in.o
 .debug_aranges
                0x00004ff0       0x78 drivers/i2c/built-in.o
 .debug_aranges
                0x00005068       0x48 drivers/key/built-in.o
 .debug_aranges
                0x000050b0      0x538 drivers/mmc/built-in.o
 .debug_aranges
                0x000055e8      0x4c0 drivers/power/built-in.o
 .debug_aranges
                0x00005aa8       0x80 drivers/pwm/built-in.o
 .debug_aranges
                0x00005b28      0x220 drivers/serial/built-in.o
 .debug_aranges
                0x00005d48      0x138 drivers/smc/built-in.o
 .debug_aranges
                0x00005e80       0x78 drivers/spi/built-in.o
 .debug_aranges
                0x00005ef8       0x78 drivers/sunxi_crypto/built-in.o
 .debug_aranges
                0x00005f70      0x400 drivers/sunxi_flash/built-in.o
 .debug_aranges
                0x00006370      0x508 drivers/sunxi_usb/built-in.o
 .debug_aranges
                0x00006878       0xa0 drivers/timer/built-in.o
 .debug_aranges
                0x00006918      0x128 drivers/usb/host/built-in.o
 .debug_aranges
                0x00006a40      0x288 fs/built-in.o
 .debug_aranges
                0x00006cc8      0x690 lib/built-in.o
 .debug_aranges
                0x00007358      0x2e8 lib/libfdt/built-in.o
 .debug_aranges
                0x00007640       0xa0 memtest/built-in.o
 .debug_aranges
                0x000076e0      0x430 nand_sunxi/built-in.o
 .debug_aranges
                0x00007b10      0x430 sprite/built-in.o
 .debug_aranges
                0x00007f40      0x428 usb_sunxi/built-in.o
 .debug_aranges
                0x00008368       0x30 arch/arm/lib/eabi_compat.o
 .debug_aranges
                0x00008398     0x1b50 nand_sunxi/sun8iw11p1/libnand-sun8iw11p1

.debug_frame    0x00000000    0x1afc0
 .debug_frame   0x00000000      0x1f8 arch/arm/cpu/armv7/built-in.o
 .debug_frame   0x000001f8      0x224 arch/arm/cpu/armv7/sun8iw11p1/built-in.o
 .debug_frame   0x0000041c      0x1d8 arch/arm/cpu/armv7/sunxi-common/built-in.o
 .debug_frame   0x000005f4      0x3c0 arch/arm/lib/built-in.o
 .debug_frame   0x000009b4      0x4d0 board/sunxi/cartoon/built-in.o
 .debug_frame   0x00000e84     0x1410 board/sunxi/common/built-in.o
 .debug_frame   0x00002294       0xf0 board/sunxi/sun8iw11p1/built-in.o
 .debug_frame   0x00002384     0x39e0 common/built-in.o
 .debug_frame   0x00005d64      0x394 disk/built-in.o
 .debug_frame   0x000060f8     0x6b58 drivers/built-in.o
 .debug_frame   0x0000cc50      0x770 drivers/clk/built-in.o
 .debug_frame   0x0000d3c0      0x14c drivers/dma/built-in.o
 .debug_frame   0x0000d50c      0x154 drivers/gic/built-in.o
 .debug_frame   0x0000d660      0x150 drivers/i2c/built-in.o
 .debug_frame   0x0000d7b0       0x90 drivers/key/built-in.o
 .debug_frame   0x0000d840     0x1100 drivers/mmc/built-in.o
 .debug_frame   0x0000e940      0xd94 drivers/power/built-in.o
 .debug_frame   0x0000f6d4      0x168 drivers/pwm/built-in.o
 .debug_frame   0x0000f83c      0x4bc drivers/serial/built-in.o
 .debug_frame   0x0000fcf8      0x398 drivers/smc/built-in.o
 .debug_frame   0x00010090      0x10c drivers/spi/built-in.o
 .debug_frame   0x0001019c      0x11c drivers/sunxi_crypto/built-in.o
 .debug_frame   0x000102b8      0x9e0 drivers/sunxi_flash/built-in.o
 .debug_frame   0x00010c98      0x9d8 drivers/sunxi_usb/built-in.o
 .debug_frame   0x00011670      0x19c drivers/timer/built-in.o
 .debug_frame   0x0001180c      0x368 drivers/usb/host/built-in.o
 .debug_frame   0x00011b74      0x720 fs/built-in.o
 .debug_frame   0x00012294     0x1028 lib/built-in.o
 .debug_frame   0x000132bc      0x914 lib/libfdt/built-in.o
 .debug_frame   0x00013bd0      0x25c memtest/built-in.o
 .debug_frame   0x00013e2c      0xa54 nand_sunxi/built-in.o
 .debug_frame   0x00014880      0xafc sprite/built-in.o
 .debug_frame   0x0001537c      0xad8 usb_sunxi/built-in.o
 .debug_frame   0x00015e54       0x48 arch/arm/lib/eabi_compat.o
 .debug_frame   0x00015e9c       0x20 /home/taga/NuttX/brandy/gcc-linaro/bin/../lib/gcc/arm-linux-gnueabi/4.6.3/libgcc.a(_udivsi3.o)
 .debug_frame   0x00015ebc       0x20 /home/taga/NuttX/brandy/gcc-linaro/bin/../lib/gcc/arm-linux-gnueabi/4.6.3/libgcc.a(_divsi3.o)
 .debug_frame   0x00015edc     0x50e4 nand_sunxi/sun8iw11p1/libnand-sun8iw11p1

.debug_loc      0x00000000    0xa27c4
 .debug_loc     0x00000000      0x70c arch/arm/cpu/armv7/built-in.o
 .debug_loc     0x0000070c      0x967 arch/arm/cpu/armv7/sun8iw11p1/built-in.o
 .debug_loc     0x00001073      0x191 arch/arm/cpu/armv7/sunxi-common/built-in.o
 .debug_loc     0x00001204      0x946 arch/arm/lib/built-in.o
 .debug_loc     0x00001b4a     0x1eab board/sunxi/cartoon/built-in.o
 .debug_loc     0x000039f5     0x8926 board/sunxi/common/built-in.o
 .debug_loc     0x0000c31b      0x10a board/sunxi/sun8iw11p1/built-in.o
 .debug_loc     0x0000c425    0x17d56 common/built-in.o
 .debug_loc     0x0002417b     0x1784 disk/built-in.o
 .debug_loc     0x000258ff    0x222a7 drivers/built-in.o
 .debug_loc     0x00047ba6     0x38c1 drivers/clk/built-in.o
 .debug_loc     0x0004b467      0x525 drivers/dma/built-in.o
 .debug_loc     0x0004b98c      0x604 drivers/gic/built-in.o
 .debug_loc     0x0004bf90     0x118c drivers/i2c/built-in.o
 .debug_loc     0x0004d11c      0x1bc drivers/key/built-in.o
 .debug_loc     0x0004d2d8     0xae95 drivers/mmc/built-in.o
 .debug_loc     0x0005816d     0x5a7d drivers/power/built-in.o
 .debug_loc     0x0005dbea     0x116a drivers/pwm/built-in.o
 .debug_loc     0x0005ed54      0x9aa drivers/serial/built-in.o
 .debug_loc     0x0005f6fe      0xb40 drivers/smc/built-in.o
 .debug_loc     0x0006023e      0x89d drivers/spi/built-in.o
 .debug_loc     0x00060adb      0x838 drivers/sunxi_crypto/built-in.o
 .debug_loc     0x00061313     0x2347 drivers/sunxi_flash/built-in.o
 .debug_loc     0x0006365a     0x494d drivers/sunxi_usb/built-in.o
 .debug_loc     0x00067fa7      0x45d drivers/timer/built-in.o
 .debug_loc     0x00068404     0x18b7 drivers/usb/host/built-in.o
 .debug_loc     0x00069cbb     0x40fc fs/built-in.o
 .debug_loc     0x0006ddb7     0x7eac lib/built-in.o
 .debug_loc     0x00075c63     0x3ee8 lib/libfdt/built-in.o
 .debug_loc     0x00079b4b     0x13cb memtest/built-in.o
 .debug_loc     0x0007af16     0x2324 nand_sunxi/built-in.o
 .debug_loc     0x0007d23a     0x4087 sprite/built-in.o
 .debug_loc     0x000812c1     0x526b usb_sunxi/built-in.o
 .debug_loc     0x0008652c       0x3e arch/arm/lib/eabi_compat.o
 .debug_loc     0x0008656a    0x1c25a nand_sunxi/sun8iw11p1/libnand-sun8iw11p1

.debug_ranges   0x00000000    0x115b8
 .debug_ranges  0x00000000      0x180 arch/arm/cpu/armv7/built-in.o
 .debug_ranges  0x00000180      0x2b8 arch/arm/cpu/armv7/sun8iw11p1/built-in.o
 .debug_ranges  0x00000438       0xc0 arch/arm/cpu/armv7/sunxi-common/built-in.o
 .debug_ranges  0x000004f8      0x1d0 arch/arm/lib/built-in.o
 .debug_ranges  0x000006c8      0x1c0 board/sunxi/cartoon/built-in.o
 .debug_ranges  0x00000888      0xe38 board/sunxi/common/built-in.o
 .debug_ranges  0x000016c0       0x68 board/sunxi/sun8iw11p1/built-in.o
 .debug_ranges  0x00001728     0x2798 common/built-in.o
 .debug_ranges  0x00003ec0      0x328 disk/built-in.o
 .debug_ranges  0x000041e8     0x4120 drivers/built-in.o
 .debug_ranges  0x00008308      0x6d8 drivers/clk/built-in.o
 .debug_ranges  0x000089e0       0x78 drivers/dma/built-in.o
 .debug_ranges  0x00008a58      0x178 drivers/gic/built-in.o
 .debug_ranges  0x00008bd0      0x280 drivers/i2c/built-in.o
 .debug_ranges  0x00008e50       0x38 drivers/key/built-in.o
 .debug_ranges  0x00008e88     0x1020 drivers/mmc/built-in.o
 .debug_ranges  0x00009ea8     0x1100 drivers/power/built-in.o
 .debug_ranges  0x0000afa8      0x318 drivers/pwm/built-in.o
 .debug_ranges  0x0000b2c0      0x460 drivers/serial/built-in.o
 .debug_ranges  0x0000b720      0x108 drivers/smc/built-in.o
 .debug_ranges  0x0000b828      0x128 drivers/spi/built-in.o
 .debug_ranges  0x0000b950       0x98 drivers/sunxi_crypto/built-in.o
 .debug_ranges  0x0000b9e8      0x3c0 drivers/sunxi_flash/built-in.o
 .debug_ranges  0x0000bda8      0x850 drivers/sunxi_usb/built-in.o
 .debug_ranges  0x0000c5f8      0x168 drivers/timer/built-in.o
 .debug_ranges  0x0000c760      0x168 drivers/usb/host/built-in.o
 .debug_ranges  0x0000c8c8      0x6f0 fs/built-in.o
 .debug_ranges  0x0000cfb8      0x9f8 lib/built-in.o
 .debug_ranges  0x0000d9b0      0xab8 lib/libfdt/built-in.o
 .debug_ranges  0x0000e468       0x90 memtest/built-in.o
 .debug_ranges  0x0000e4f8      0x440 nand_sunxi/built-in.o
 .debug_ranges  0x0000e938      0x458 sprite/built-in.o
 .debug_ranges  0x0000ed90      0xab0 usb_sunxi/built-in.o
 .debug_ranges  0x0000f840       0x20 arch/arm/lib/eabi_compat.o
 .debug_ranges  0x0000f860     0x1d58 nand_sunxi/sun8iw11p1/libnand-sun8iw11p1
