Archive member included because of file (symbol)

nand_sunxi/sun8iw5/libnand-sun8iw5(nftl_uboot_interface.o)
                              nand_sunxi/sun8iw5/nand_interface/libnand_interface.o (get_nftl_cap)
nand_sunxi/sun8iw5/libnand-sun8iw5(nand_format.o)
                              nand_sunxi/sun8iw5/osal/libnand_osal.o (ClearNandStruct)
nand_sunxi/sun8iw5/libnand-sun8iw5(nand_phy.o)
                              nand_sunxi/sun8iw5/osal/libnand_osal.o (PHY_SimpleRead_Seq)
nand_sunxi/sun8iw5/libnand-sun8iw5(nand_physic_interface.o)
                              nand_sunxi/sun8iw5/osal/libnand_osal.o (NandHwInit)
nand_sunxi/sun8iw5/libnand-sun8iw5(nand_scan.o)
                              nand_sunxi/sun8iw5/osal/libnand_osal.o (NAND_GetBlankBlockFlag)
nand_sunxi/sun8iw5/libnand-sun8iw5(nand_simple_r.o)
                              nand_sunxi/sun8iw5/libnand-sun8iw5(nand_phy.o) (_add_cmd_list)
nand_sunxi/sun8iw5/libnand-sun8iw5(nand_simple_w.o)
                              nand_sunxi/sun8iw5/libnand-sun8iw5(nand_phy.o) (_write_single_page_first)
nand_sunxi/sun8iw5/libnand-sun8iw5(nfc_reg.o)
                              nand_sunxi/sun8iw5/libnand-sun8iw5(nand_simple_r.o) (NDFC_READ_REG_CTL)
nand_sunxi/sun8iw5/libnand-sun8iw5(nfc_r.o)
                              nand_sunxi/sun8iw5/libnand-sun8iw5(nand_phy.o) (NFC_InitDDRParam)
nand_sunxi/sun8iw5/libnand-sun8iw5(nfc_w.o)
                              nand_sunxi/sun8iw5/libnand-sun8iw5(nand_phy.o) (NFC_GetUniqueId)
nand_sunxi/sun8iw5/libnand-sun8iw5(nand_info_init_v2.o)
                              nand_sunxi/sun8iw5/osal/libnand_osal.o (nand_info_init)
nand_sunxi/sun8iw5/libnand-sun8iw5(build_phy_partition_v2.o)
                              nand_sunxi/sun8iw5/libnand-sun8iw5(nand_info_init_v2.o) (print_partition)
nand_sunxi/sun8iw5/libnand-sun8iw5(build_nand_partition.o)
                              nand_sunxi/sun8iw5/libnand-sun8iw5(nftl_uboot_interface.o) (build_nand_partition)
nand_sunxi/sun8iw5/libnand-sun8iw5(build_phy_partition.o)
                              nand_sunxi/sun8iw5/libnand-sun8iw5(build_phy_partition_v2.o) (BlockErase)
nand_sunxi/sun8iw5/libnand-sun8iw5(nand_info_init.o)
                              nand_sunxi/sun8iw5/libnand-sun8iw5(nand_info_init_v2.o) (nand_info_init_v1)
nand_sunxi/sun8iw5/libnand-sun8iw5(nftl_common.o)
                              nand_sunxi/sun8iw5/libnand-sun8iw5(nftl_uboot_interface.o) (set_physic_op_par)
nand_sunxi/sun8iw5/libnand-sun8iw5(nftl_build.o)
                              nand_sunxi/sun8iw5/libnand-sun8iw5(nftl_uboot_interface.o) (erase_block)
nand_sunxi/sun8iw5/libnand-sun8iw5(nftl_interface.o)
                              nand_sunxi/sun8iw5/libnand-sun8iw5(nftl_build.o) (print_smart)
nand_sunxi/sun8iw5/libnand-sun8iw5(nftl_init.o)
                              nand_sunxi/sun8iw5/libnand-sun8iw5(nftl_uboot_interface.o) (nftl_malloc)
nand_sunxi/sun8iw5/libnand-sun8iw5(nand_id.o)
                              nand_sunxi/sun8iw5/libnand-sun8iw5(nand_scan.o) (DefaultNandTbl)
nand_sunxi/sun8iw5/libnand-sun8iw5(nftl_list.o)
                              nand_sunxi/sun8iw5/libnand-sun8iw5(nftl_build.o) (print_free_list)
nand_sunxi/sun8iw5/libnand-sun8iw5(nftl_logic.o)
                              nand_sunxi/sun8iw5/libnand-sun8iw5(nftl_build.o) (new_block_init_for_write)
nand_sunxi/sun8iw5/libnand-sun8iw5(nftl_gc.o)
                              nand_sunxi/sun8iw5/libnand-sun8iw5(nftl_build.o) (add_prio_gc)
nand_sunxi/sun8iw5/libnand-sun8iw5(nftl_cache.o)
                              nand_sunxi/sun8iw5/libnand-sun8iw5(nftl_build.o) (nftl_cache_init)
nand_sunxi/sun8iw5/libnand-sun8iw5(nftl_start.o)
                              nand_sunxi/sun8iw5/libnand-sun8iw5(nftl_init.o) (nftl_start)
nand_sunxi/sun8iw5/libnand-sun8iw5(nftl_hw_interface.o)
                              nand_sunxi/sun8iw5/libnand-sun8iw5(nftl_logic.o) (_nftl_nand_erase_superblk)
/home/taga/NuttX/brandy-dev-moon/gcc-linaro/bin/../lib/gcc/arm-linux-gnueabi/4.6.3/libgcc.a(_lshrdi3.o)
                              lib/libgeneric.o (__aeabi_llsr)
/home/taga/NuttX/brandy-dev-moon/gcc-linaro/bin/../lib/gcc/arm-linux-gnueabi/4.6.3/libgcc.a(_ashrdi3.o)
                              drivers/video_sunxi/libvideo_sunxi.o (__aeabi_lasr)
/home/taga/NuttX/brandy-dev-moon/gcc-linaro/bin/../lib/gcc/arm-linux-gnueabi/4.6.3/libgcc.a(_ashldi3.o)
                              drivers/mmc/libmmc.o (__aeabi_llsl)
/home/taga/NuttX/brandy-dev-moon/gcc-linaro/bin/../lib/gcc/arm-linux-gnueabi/4.6.3/libgcc.a(_arm_addsubdf3.o)
                              board/sunxi/libsunxi.o (__aeabi_i2d)
/home/taga/NuttX/brandy-dev-moon/gcc-linaro/bin/../lib/gcc/arm-linux-gnueabi/4.6.3/libgcc.a(_arm_muldivdf3.o)
                              board/sunxi/libsunxi.o (__aeabi_ddiv)
/home/taga/NuttX/brandy-dev-moon/gcc-linaro/bin/../lib/gcc/arm-linux-gnueabi/4.6.3/libgcc.a(_arm_truncdfsf2.o)
                              board/sunxi/libsunxi.o (__aeabi_d2f)
/home/taga/NuttX/brandy-dev-moon/gcc-linaro/bin/../lib/gcc/arm-linux-gnueabi/4.6.3/libgcc.a(_arm_addsubsf3.o)
                              board/sunxi/libsunxi.o (__aeabi_fsub)
/home/taga/NuttX/brandy-dev-moon/gcc-linaro/bin/../lib/gcc/arm-linux-gnueabi/4.6.3/libgcc.a(_arm_muldivsf3.o)
                              board/sunxi/libsunxi.o (__aeabi_fmul)
/home/taga/NuttX/brandy-dev-moon/gcc-linaro/bin/../lib/gcc/arm-linux-gnueabi/4.6.3/libgcc.a(_arm_fixsfsi.o)
                              board/sunxi/libsunxi.o (__aeabi_f2iz)
/home/taga/NuttX/brandy-dev-moon/gcc-linaro/bin/../lib/gcc/arm-linux-gnueabi/4.6.3/libgcc.a(_aeabi_uldivmod.o)
                              drivers/video_sunxi/libvideo_sunxi.o (__aeabi_uldivmod)
/home/taga/NuttX/brandy-dev-moon/gcc-linaro/bin/../lib/gcc/arm-linux-gnueabi/4.6.3/libgcc.a(_dvmd_lnx.o)
                              /home/taga/NuttX/brandy-dev-moon/gcc-linaro/bin/../lib/gcc/arm-linux-gnueabi/4.6.3/libgcc.a(_aeabi_uldivmod.o) (__aeabi_ldiv0)
/home/taga/NuttX/brandy-dev-moon/gcc-linaro/bin/../lib/gcc/arm-linux-gnueabi/4.6.3/libgcc.a(bpabi.o)
                              /home/taga/NuttX/brandy-dev-moon/gcc-linaro/bin/../lib/gcc/arm-linux-gnueabi/4.6.3/libgcc.a(_aeabi_uldivmod.o) (__gnu_uldivmod_helper)
/home/taga/NuttX/brandy-dev-moon/gcc-linaro/bin/../lib/gcc/arm-linux-gnueabi/4.6.3/libgcc.a(_divdi3.o)
                              /home/taga/NuttX/brandy-dev-moon/gcc-linaro/bin/../lib/gcc/arm-linux-gnueabi/4.6.3/libgcc.a(bpabi.o) (__divdi3)
/home/taga/NuttX/brandy-dev-moon/gcc-linaro/bin/../lib/gcc/arm-linux-gnueabi/4.6.3/libgcc.a(_udivdi3.o)
                              /home/taga/NuttX/brandy-dev-moon/gcc-linaro/bin/../lib/gcc/arm-linux-gnueabi/4.6.3/libgcc.a(bpabi.o) (__udivdi3)
/home/taga/NuttX/brandy-dev-moon/gcc-linaro/bin/../lib/gcc/arm-linux-gnueabi/4.6.3/libgcc.a(_udivsi3.o)
                              /home/taga/NuttX/brandy-dev-moon/gcc-linaro/bin/../lib/gcc/arm-linux-gnueabi/4.6.3/libgcc.a(_divdi3.o) (__aeabi_uidiv)

Memory Configuration

Name             Origin             Length             Attributes
*default*        0x00000000         0xffffffff

Linker script and memory map

                0x47000000                . = 0x47000000
                0x47000000                . = ALIGN (0x4)

.head           0x47000000      0x500
 arch/arm/cpu/armv7/sun8iw5/spare_head.o(.data)
 .data          0x47000000      0x500 arch/arm/cpu/armv7/sun8iw5/spare_head.o
                0x47000000                uboot_spare_head

.hash           0x47000500       0x40
 arch/arm/cpu/armv7/sun8iw5/../uboot_hash.o(.data)
 .data          0x47000500       0x40 arch/arm/cpu/armv7/sun8iw5/../uboot_hash.o
                0x47000500                uboot_hash_value
                0x47000540                . = ALIGN (0x1)

.text           0x47000540    0x8cc80
                0x47000540                __int_vector_start = .
 arch/arm/cpu/armv7/start.o(.text*)
 .text          0x47000540      0x4e0 arch/arm/cpu/armv7/start.o
                0x47000540                _start
                0x47000580                _TEXT_BASE
                0x47000580                _end_vect
                0x47000584                _bss_start_ofs
                0x47000588                _image_copy_end_ofs
                0x4700058c                _bss_end_ofs
                0x47000590                _end_ofs
                0x47000594                __int_vector_start__
                0x47000598                __int_vector_end__
                0x4700059c                IRQ_STACK_START
                0x470005a0                FIQ_STACK_START
                0x470005a4                IRQ_STACK_START_IN
                0x470005dc                relocate_code
                0x47000a20                __int_vector_end = .
 *(.text)
 .text          0x47000a20        0x0 arch/arm/cpu/armv7/sun8iw5/spare_head.o
 .text          0x47000a20        0x0 arch/arm/cpu/armv7/sun8iw5/../uboot_hash.o
 .text          0x47000a20      0x338 arch/arm/cpu/armv7/libarmv7.o
                0x47000bd0                invalidate_dcache_all
                0x47000be4                flush_dcache_all
                0x47000bf8                flush_icache_all
                0x47000c04                invalidate_dcache_range
                0x47000c28                flush_dcache_range
                0x47000c4c                arm_init_before_mmu
                0x47000c74                flush_cache
                0x47000c7c                invalidate_icache_all
                0x47000c94                __v7_outer_cache_enable
                0x47000c98                __v7_outer_cache_disable
                0x47000c98                v7_outer_cache_disable
                0x47000c9c                __v7_outer_cache_flush_all
                0x47000c9c                v7_outer_cache_flush_all
                0x47000ca0                __v7_outer_cache_inval_all
                0x47000ca4                __v7_outer_cache_flush_range
                0x47000ca8                __v7_outer_cache_inval_range
                0x47000ca8                v7_outer_cache_inval_range
                0x47000cac                save_boot_params
                0x47000cac                save_boot_params_default
                0x47000cb0                cleanup_before_linux
                0x47000cd0                __cpu0_set_detected_paras
                0x47000cd4                arch_cpu_init
                0x47000cf4                sdelay
                0x47000d00                sr32
                0x47000d24                wait_on_value
 .text          0x47000d58     0x2fb4 arch/arm/cpu/armv7/sun8iw5/libsun8iw5.o
                0x47000ec8                irq_enable
                0x47000f40                irq_disable
                0x47000fb8                irq_install_handler
                0x47001000                irq_free_handler
                0x47001038                do_irq
                0x47001124                arch_interrupt_init
                0x47001160                arch_interrupt_exit
                0x47001174                sunxi_clock_get_corepll
                0x470011bc                sunxi_clock_get_axi
                0x4700121c                sunxi_clock_get_apb2
                0x47001224                sunxi_clock_set_corepll
                0x470012f0                sunxi_clock_get_pll6
                0x47001320                sunxi_clock_get_ahb
                0x47001374                sunxi_clock_get_apb1
                0x470013ac                timer1_func
                0x4700140c                timer0_func
                0x4700146c                timer_init
                0x470014a4                timer_exit
                0x470014ec                watchdog_disable
                0x47001500                watchdog_enable
                0x47001518                get_timer
                0x47001534                runtime_tick
                0x47001544                get_timer_masked
                0x47001554                __usdelay
                0x4700157c                __msdelay
                0x4700159c                get_ticks
                0x470015b8                get_tbclk
                0x470015c0                init_timer
                0x470015c4                add_timer
                0x470016e0                del_timer
                0x4700175c                stick_printf
                0x47001780                tick0_printf
                0x470017d4                print_boot_type
                0x47001850                get_base
                0x4700185c                s_init
                0x47001860                reset_cpu
                0x4700186c                v7_outer_cache_enable
                0x47001870                v7_outer_cache_inval_all
                0x47001874                v7_outer_cache_flush_range
                0x47001878                enable_caches
                0x47001888                disable_caches
                0x47001898                display_inner
                0x470018b8                script_init
                0x470018f4                power_source_init
                0x47001a08                sunxi_key_init
                0x47001a38                sunxi_key_exit
                0x47001a58                sunxi_key_read
                0x47001aa8                do_key_test
                0x47001af0                USBC_GetVbusStatus
                0x47001b20                USBC_OTG_SelectMode
                0x47001b24                USBC_ReadLenFromFifo
                0x47001b50                USBC_WritePacket
                0x47001bbc                USBC_ReadPacket
                0x47001c28                USBC_ConfigFIFO_Base
                0x47001c64                USBC_GetPortFifoStartAddr
                0x47001c94                USBC_GetPortFifoSize
                0x47001cb8                USBC_SelectFIFO
                0x47001cc8                __USBC_ConfigFifo_TxEp
                0x47001d18                __USBC_ConfigFifo_RxEp_Default
                0x47001d28                __USBC_ConfigFifo_RxEp
                0x47001d78                USBC_ConfigFifo_Default
                0x47001db0                USBC_ConfigFifo
                0x47001dec                USBC_GetLastFrameNumber
                0x47001dfc                USBC_GetStatus_Dp
                0x47001e10                USBC_GetStatus_Dm
                0x47001e24                USBC_GetStatus_DpDm
                0x47001e44                USBC_GetOtgMode_Form_ID
                0x47001e5c                USBC_GetOtgMode_Form_BDevice
                0x47001e74                USBC_SelectBus
                0x47001eb8                USBC_INT_EpPending
                0x47001ef4                USBC_INT_ClearEpPending
                0x47001f48                USBC_INT_ClearEpPendingAll
                0x47001f80                USBC_INT_MiscPending
                0x47001f90                USBC_INT_ClearMiscPending
                0x47001fa4                USBC_INT_ClearMiscPendingAll
                0x47001fb8                USBC_INT_EnableEp
                0x4700200c                USBC_INT_EnableUsbMiscUint
                0x47002028                USBC_INT_DisableEp
                0x47002074                USBC_INT_DisableUsbMiscUint
                0x4700208c                USBC_INT_DisableEpAll
                0x470020bc                USBC_INT_DisableUsbMiscAll
                0x470020d0                USBC_GetActiveEp
                0x470020e0                USBC_SelectActiveEp
                0x470020f0                USBC_EnhanceSignal
                0x470020f4                USBC_EnterMode_TestPacket
                0x4700210c                USBC_EnterMode_Test_K
                0x47002124                USBC_EnterMode_Test_J
                0x4700213c                USBC_EnterMode_Test_SE0_NAK
                0x47002154                USBC_EnterMode_Idle
                0x470021a0                USBC_SetWakeUp_Default
                0x470021a4                USBC_EnableIdPullUp
                0x470021bc                USBC_DisableIdPullUp
                0x470021d4                USBC_EnableDpDmPullUp
                0x470021ec                USBC_DisableDpDmPullUp
                0x47002204                USBC_ForceId
                0x4700223c                USBC_ForceVbusValid
                0x47002284                USBC_A_valid_InputSelect
                0x47002288                USBC_EnableUsbLineStateBypass
                0x4700228c                USBC_DisableUsbLineStateBypass
                0x47002290                USBC_EnableHosc
                0x470022a8                USBC_DisableHosc
                0x470022bc                USBC_IsVbusChange
                0x470022d8                USBC_IsIdChange
                0x470022f4                USBC_IsDpDmChange
                0x47002310                USBC_DisableWakeIrq
                0x47002324                USBC_DisableVbusChange
                0x47002338                USBC_DisableIdChange
                0x4700234c                USBC_DisableDpDmChange
                0x47002360                USBC_EnableWakeIrq
                0x47002378                USBC_EnableVbusChange
                0x47002390                USBC_EnableIdChange
                0x470023a8                USBC_EnableDpDmChange
                0x470023c0                USBC_TestMode_ReadReg
                0x470023fc                USBC_PrintAllReg
                0x47002758                USBC_open_otg
                0x4700279c                USBC_close_otg
                0x470027c4                USBC_init
                0x470027cc                USBC_exit
                0x47002814                USBC_Dev_SetAddress_default
                0x47002828                USBC_Dev_SetAddress
                0x47002838                USBC_Dev_QueryTransferMode
                0x47002858                USBC_Dev_ConfigTransferMode
                0x470028c8                USBC_Dev_ConectSwitch
                0x470028ec                USBC_Dev_QueryPowerStatus
                0x47002900                USBC_Dev_ConfigEp
                0x47002a0c                USBC_Dev_ConfigEp_Default
                0x47002a74                USBC_Dev_ConfigEpDma
                0x47002adc                USBC_Dev_ClearEpDma
                0x47002b4c                USBC_Dev_IsEpStall
                0x47002b94                USBC_Dev_EpSendStall
                0x47002bfc                USBC_Dev_EpClearStall
                0x47002c94                USBC_Dev_Ctrl_IsSetupEnd
                0x47002ca8                USBC_Dev_Ctrl_ClearSetupEnd
                0x47002cc0                USBC_Dev_WriteDataStatus
                0x47002d4c                USBC_Dev_ReadDataStatus
                0x47002dcc                USBC_Dev_IsReadDataReady
                0x47002e0c                USBC_Dev_IsWriteDataReady
                0x47002e48                USBC_Dev_IsWriteDataReady_FifoEmpty
                0x47002e84                USBC_Dev_IsoUpdateEnable
                0x47002ea4                USBC_Dev_FlushFifo
                0x47002eec                USBC_Host_SetFunctionAddress_Deafult
                0x47002f48                USBC_Host_SetFunctionAddress
                0x47002fd0                USBC_Host_SetHubAddress_Deafult
                0x47003000                USBC_Host_SetHubAddress
                0x47003048                USBC_Host_SetHPortAddress_Deafult
                0x47003078                USBC_Host_SetHPortAddress
                0x470030a0                USBC_Host_QueryTransferMode
                0x470030c0                USBC_Host_ConfigTransferMode
                0x470030f4                USBC_Host_ResetPort
                0x4700310c                USBC_Host_ClearResetPortFlag
                0x47003124                USBC_Host_RusumePort
                0x4700313c                USBC_Host_ClearRusumePortFlag
                0x47003154                USBC_Host_SuspendPort
                0x4700316c                USBC_Host_QueryPowerStatus
                0x4700317c                USBC_Host_StartSession
                0x47003194                USBC_Host_EndSession
                0x470031ac                USBC_Host_PeripheralType
                0x470031cc                USBC_Host_FlushFifo
                0x47003214                USBC_Host_ConfigEp_Default
                0x47003298                USBC_Host_ConfigEp
                0x470033f4                USBC_Host_ConfigEpDma
                0x47003438                USBC_Host_ClearEpDma
                0x47003488                USBC_Host_IsEpNakTimeOut
                0x470034cc                USBC_Host_ClearEpNakTimeOut
                0x4700351c                USBC_Host_IsEpError
                0x47003570                USBC_Host_ClearEpError
                0x470035d0                USBC_Host_IsEpStall
                0x4700361c                USBC_Host_ClearEpStall
                0x4700367c                USBC_Host_ClearEpCSR
                0x470036b8                USBC_Host_IsReadDataReady
                0x470036f8                USBC_Host_IsWriteDataReady
                0x47003740                USBC_Host_ReadDataStatus
                0x470037dc                USBC_Host_WriteDataStatus
                0x47003860                USBC_Host_IsReqPktSet
                0x470038a0                USBC_Host_StartInToken
                0x470038e4                USBC_Host_StopInToken
                0x47003930                USBC_Host_ConfigRqPktCount
                0x47003944                USBC_Host_ClearRqPktCount
                0x47003958                USBC_Host_EnablePing
                0x47003974                USBC_Host_DisablePing
                0x4700398c                USBC_Host_SendCtrlStatus
                0x470039b0                USBC_Host_SendSetupPkt
                0x470039fc                USBC_PHY_SetCommonConfig
                0x47003a00                USBC_PHY_SetPrivateConfig
                0x47003a04                USBC_PHY_GetCommonConfig
                0x47003a0c                USBC_phy_Standby
                0x47003a60                USBC_Phy_Standby_Recover
                0x47003a64                usb_open_clock
                0x47003ab8                usb_close_clock
                0x47003b0c                usb_probe_vbus_type
                0x47003b70                USBC_Dma_Set_ChannalPara
                0x47003bb4                USBC_Dma_Set_PktLen
                0x47003bf4                USBC_Dma_Start
                0x47003c74                USBC_Dma_Int_Stop
                0x47003ca8                USBC_Dma_Int_Query
                0x47003cc4                USBC_Dma_Int_Clear
                0x47003cec                lowlevel_init
 .text          0x47003d0c     0x14e4 arch/arm/lib/libarm.o
                0x47003d0c                memcpy
                0x47004174                __coloured_LED_init
                0x47004174                coloured_LED_init
                0x47004178                red_LED_on
                0x47004178                __red_LED_on
                0x4700417c                red_LED_off
                0x4700417c                __red_LED_off
                0x47004180                __green_LED_on
                0x47004180                green_LED_on
                0x47004184                green_LED_off
                0x47004184                __green_LED_off
                0x47004188                yellow_LED_on
                0x47004188                __yellow_LED_on
                0x4700418c                __yellow_LED_off
                0x4700418c                yellow_LED_off
                0x47004190                __blue_LED_on
                0x47004190                blue_LED_on
                0x47004194                __blue_LED_off
                0x47004194                blue_LED_off
                0x47004198                __dram_init_banksize
                0x470041b4                __sunxi_probe_securemode
                0x470041b4                sunxi_probe_securemode
                0x470041bc                __smc_init
                0x470041c4                board_init_f
                0x4700431c                board_init_r
                0x470044c8                hang
                0x47004648                arch_lmb_reserve
                0x4700466c                do_bootm_linux
                0x470049bc                do_boota_linux
                0x47004d64                __flush_cache
                0x47004d68                __flush_dcache_all
                0x47004d74                __enable_caches
                0x47004f0c                __arm_init_before_mmu
                0x47004f10                icache_enable
                0x47004f18                icache_disable
                0x47004f20                icache_status
                0x47004f2c                dcache_enable
                0x47004f34                dcache_disable
                0x47004f3c                dcache_status
                0x47004f48                interrupt_init
                0x47004f88                interrupt_exit
                0x47004f8c                enable_interrupts
                0x47004f9c                disable_interrupts
                0x47004fb8                bad_mode
                0x47004fc8                show_regs
                0x47005108                do_undefined_instruction
                0x47005128                do_software_interrupt
                0x47005148                do_prefetch_abort
                0x47005168                do_data_abort
                0x47005188                do_not_used
                0x470051a8                do_fiq
                0x470051c8                do_reset
 .text          0x470051f0     0xd23c common/libcommon.o
                0x470051f0                do_go_exec
                0x47005208                do_go
                0x4700527c                __do_sunxi_boot_signature
                0x47005284                memcpy2
                0x470052d8                do_boota
                0x470053c0                do_bootd
                0x47005a48                arch_preboot_os
                0x47005a48                __arch_preboot_os
                0x47005a4c                do_bootm_subcommand
                0x47005c90                do_bootm
                0x47005f24                bootm_maybe_autostart
                0x47005f98                do_probe_secure_storage
                0x47005fd0                do_burn_from_boot
                0x4700623c                do_exit
                0x4700626c                do_fat_fsinfo
                0x47006344                do_fat_ls
                0x4700644c                do_fat_fsdown
                0x470065bc                do_fat_fsload
                0x47006728                fat_fsload_file
                0x470067d0                do_efex
                0x470067ec                do_help
                0x47006830                do_sysconfig
                0x47006970                do_delay_test
                0x470069c0                do_memcpy_test
                0x470069f4                do_efex_test
                0x47006a30                do_mass_test
                0x47006a6c                do_fastboot_test
                0x47006aa8                do_sprite_test
                0x47006c34                do_power_probe
                0x47006c98                do_timer_test1
                0x47006d18                do_timer_test
                0x47006d98                do_mem_base
                0x47006dd8                do_mem_mtest
                0x47006f78                do_mem_loop
                0x4700706c                do_mem_md
                0x47007140                do_mem_crc
                0x470071e8                do_mem_cp
                0x470072c8                do_mem_cmp
                0x47007454                do_mem_mw
                0x4700764c                do_mem_nm
                0x47007664                do_mem_mm
                0x4700767c                do_mmcops
                0x47007a6c                do_mmcinfo
                0x47007fa0                do_modify_cfg
                0x470080bc                do_savecfg
                0x470083fc                do_nfs
                0x47008408                do_tftpb
                0x47008414                do_bootp
                0x47008420                do_ping
                0x470087b0                do_env_save
                0x47008874                do_env_print
                0x470088f8                get_env_id
                0x47008908                _do_env_set
                0x47008cd0                do_env_set
                0x47008cec                setenv
                0x47008f4c                envmatch
                0x47008fb0                getenv_f
                0x4700906c                getenv
                0x470090d8                do_onekey_sprite_recovery
                0x470091e0                do_shutdown
                0x470091e4                do_standby
                0x470093b4                sunxi_bmp_decode
                0x4700975c                sunxi_bmp_display
                0x47009854                do_sunxi_logo
                0x47009860                do_sunxi_flash
                0x47009bb4                memtester_pagesize
                0x47009bcc                usage
                0x47009ee8                probe_high_level_power_mod
                0x47009f24                rsa_init
                0x47009fa4                rsa_dump
                0x4700a028                rsa_encrypt
                0x4700a068                rsa_decrypt
                0x4700a0ac                prepareCryptTable
                0x4700a0b0                HashString
                0x4700a4fc                HashString_init
                0x4700a510                signature_erase_all
                0x4700a63c                sunxi_oem_op_lock
                0x4700a9d8                do_sunxi_boot_signature
                0x4700abbc                erase_private_data
                0x4700ac94                save_user_private_data
                0x4700ae74                do_save_user_data
                0x4700aea8                user_data_list
                0x4700af94                do_check_userdata
                0x4700afbc                check_user_data
                0x4700b168                update_user_data
                0x4700b2c0                do_false
                0x4700b2c8                do_true
                0x4700b2d0                do_test
                0x4700b73c                do_version
                0x4700b774                find_cmd_tbl
                0x4700b810                find_cmd
                0x4700b838                cmd_usage
                0x4700b894                _do_help
                0x4700ba18                var_complete
                0x4700baa0                cmd_auto_complete
                0x4700bf1c                cmd_get_data_size
                0x4700c010                serial_printf
                0x4700c050                fgetc
                0x4700c07c                ftstc
                0x4700c0a8                fputc
                0x4700c0d0                fputs
                0x4700c0f8                fprintf
                0x4700c140                getc
                0x4700c158                tstc
                0x4700c170                putc
                0x4700c18c                puts
                0x4700c1a8                printf
                0x4700c1f4                tick_printf
                0x4700c270                vprintf
                0x4700c2a4                ctrlc
                0x4700c2f0                disable_ctrlc
                0x4700c308                had_ctrlc
                0x4700c318                clear_ctrlc
                0x4700c32c                dbg
                0x4700c338                search_device
                0x4700c360                console_assign
                0x4700c3a0                console_init_f
                0x4700c3b0                stdio_print_current_devices
                0x4700c464                console_init_r
                0x4700c544                sbrk
                0x4700c5a0                mem_malloc_init
                0x4700c5c4                malloc_trim
                0x4700c694                free
                0x4700c8b4                cfree
                0x4700c8b8                malloc
                0x4700ce84                calloc
                0x4700cf58                memalign
                0x4700d060                pvalloc
                0x4700d078                valloc
                0x4700d084                realloc
                0x4700d48c                malloc_usable_size
                0x4700d4c8                mallopt
                0x4700d53c                env_get_addr
                0x4700d560                env_get_char_memory
                0x4700d570                env_get_char
                0x4700d5a4                set_default_env
                0x4700d644                env_import
                0x4700d714                env_relocate
                0x4700d744                env_complete
                0x4700d9f4                env_get_char_spec
                0x4700da00                env_init
                0x4700da1c                saveenv
                0x4700da40                env_relocate_spec
                0x4700da54                get_version
                0x4700da5c                jumptable_init
                0x4700de88                do_showvar
                0x4700e3cc                simple_itoa
                0x4700e410                get_local_var
                0x4700e5d4                set_local_var
                0x4700e790                unset_local_var
                0x4700e830                new_pipe
                0x4700e8a0                reserved_word
                0x4700eb64                mapset
                0x4700eb88                update_ifs_map
                0x4700ebf8                parse_string_outer
                0x4700fae4                parse_file_outer
                0x4700fb28                u_boot_hush_start
                0x4700fbb0                image_check_hcrc
                0x4700fc00                image_check_dcrc
                0x4700fc3c                image_multi_count
                0x4700fc60                image_multi_getimg
                0x4700fce4                getenv_yesno
                0x4700fd0c                getenv_bootm_low
                0x4700fd3c                getenv_bootm_size
                0x4700fd98                getenv_bootm_mapsize
                0x4700fdc8                memmove_wd
                0x4700fdd4                genimg_print_size
                0x4700fe04                get_table_entry_name
                0x4700fe30                genimg_get_os_name
                0x4700fe48                genimg_get_arch_name
                0x4700fe60                genimg_get_type_name
                0x4700fe78                genimg_get_comp_name
                0x4700fe90                image_print_contents
                0x47010008                get_table_entry_id
                0x47010054                genimg_get_os_id
                0x4701006c                genimg_get_arch_id
                0x47010084                genimg_get_type_id
                0x4701009c                genimg_get_comp_id
                0x470100b4                genimg_get_format
                0x470100c8                genimg_get_image
                0x470100cc                genimg_has_config
                0x470100d4                boot_get_ramdisk
                0x47010304                boot_ramdisk_high
                0x47010424                boot_get_cmdline
                0x47010664                __show_boot_progress
                0x47010664                show_boot_progress
                0x47010668                main_loop
                0x47010764                readline_into_buffer
                0x4701108c                readline
                0x470110a8                parse_line
                0x47011134                run_command
                0x470114e0                do_run
                0x47011554                get_ram_size
                0x470116c8                srec_decode
                0x47011928                stdio_get_list
                0x47011934                stdio_get_by_name
                0x47011988                stdio_clone
                0x470119d0                stdio_register
                0x47011a14                stdio_init
                0x47011a9c                mem_noncache_malloc_init
                0x47011ac8                malloc_noncache
                0x47011b44                free_noncache
                0x47011b84                CYGACC_COMM_IF_GETC_TIMEOUT
                0x47011e68                CYGACC_COMM_IF_PUTC
                0x47011e70                parse_num
                0x47011f8c                xyzModem_stream_open
                0x470120d8                xyzModem_stream_read
                0x47012328                xyzModem_stream_close
                0x47012378                xyzModem_stream_terminate
                0x4701240c                xyzModem_error
 .text          0x4701242c      0x8b4 disk/libdisk.o
                0x4701242c                get_dev
                0x4701248c                dev_print
                0x47012680                init_part
                0x4701269c                get_partition_info
                0x470126c4                print_part
                0x47012c30                test_part_dos
                0x47012c98                print_part_dos
                0x47012cc4                get_partition_info_dos
 .text          0x47012ce0      0x590 drivers/dma/libdma.o
                0x47012d7c                sunxi_dma_init
                0x47012e24                __sunxi_disable_dma_clock
                0x47012e24                sunxi_disable_dma_clock
                0x47012e28                sunxi_dma_request
                0x47012e7c                sunxi_dma_setting
                0x47012ed4                sunxi_dma_start
                0x47012f0c                sunxi_dma_stop
                0x47012f28                sunxi_dma_querystatus
                0x47012f50                sunxi_dma_install_int
                0x47012fc8                sunxi_dma_enable_int
                0x47013080                sunxi_dma_disable_int
                0x4701313c                sunxi_dma_free_int
                0x470131ac                sunxi_dma_release
                0x470131e8                sunxi_dma_exit
 .text          0x47013270     0x5df8 drivers/mmc/libmmc.o
                0x47013278                __board_mmc_getcd
                0x47013278                board_mmc_getcd
                0x47013280                mmc_update_phase
                0x47013290                mmc_send_cmd
                0x470132a0                mmc_send_status
                0x47013374                mmc_set_blocklen
                0x470133c0                mmc_set_erase_start_addr
                0x47013444                mmc_set_erase_end_addr
                0x470134c8                mmc_launch_erase
                0x47013500                mmc_sd_erase_timeout
                0x47013508                mmc_mmc_def_erase_timeout
                0x470135a0                mmc_mmc_erase_timeout
                0x4701365c                mmc_erase_timeout
                0x47013674                mmc_erase_group_aligned
                0x470136ac                mmc_align_erase_group
                0x47013720                mmc_add_skip_space
                0x47013748                mmc_send_manual_stop
                0x470138d0                find_mmc_device
                0x47013bc8                mmc_read_blocks
                0x47013e7c                mmc_go_idle
                0x47013ee0                sd_send_op_cond
                0x4701405c                mmc_send_op_cond
                0x470141dc                mmc_send_ext_csd
                0x47014248                mmc_mmc_update_timeout
                0x47014344                mmc_do_erase
                0x4701440c                mmc_erase
                0x4701452c                mmc_mmc_secure_trim
                0x47014624                mmc_mmc_discard
                0x4701471c                mmc_mmc_trim
                0x4701480c                mmc_insecure_secure_erase
                0x47014940                mmc_mmc_secure_erase
                0x47014a34                mmc_do_switch
                0x47014ac4                mmc_do_sanitize
                0x47014b24                mmc_mmc_sanitize
                0x47014b90                mmc_mmc_erase
                0x47014d1c                mmc_do_secure_wipe
                0x47014f74                mmc_secure_wipe
                0x47015050                mmc_switch
                0x47015064                mmc_change_freq
                0x4701518c                mmc_switch_boot_bus_cond
                0x47015264                mmc_switch_boot_part
                0x47015458                mmc_switch_part
                0x47015510                sd_switch
                0x47015580                sd_change_freq
                0x470157a0                mmc_set_ios
                0x470157b0                mmc_set_clock
                0x47015a04                mmc_set_bus_width
                0x47015a18                mmc_startup
                0x4701648c                mmc_send_if_cond
                0x4701651c                mmc_register
                0x4701660c                mmc_unregister
                0x47016614                mmc_get_dev
                0x47016628                sunxi_need_rty
                0x47016684                mmc_write_info
                0x47016720                mmc_init
                0x4701707c                cpu_mmc_init
                0x47017084                print_mmc_devices
                0x470170e8                get_mmc_num
                0x470170ec                mmc_initialize
                0x47017118                mmc_exit
                0x47017298                sunxi_detail_errno
                0x47017b4c                sunxi_decide_rty
                0x47018134                sunxi_update_sdly
                0x47018208                mmc_dump_errinfo
                0x4701831c                sunxi_mci_regs_save
                0x470183b8                sunxi_mci_regs_restore
                0x47018ce4                sunxi_mmc_init
                0x47019018                sunxi_mmc_exit
 .text          0x47019068        0x0 drivers/pcmcia/libpcmcia.o
 .text          0x47019068     0x29a0 drivers/power/libpower.o
                0x47019068                axp_probe
                0x470190d8                axp_reinit
                0x47019110                axp_get_power_vol_level
                0x47019118                axp_probe_startup_cause
                0x4701922c                axp_set_hardware_poweron_vol
                0x47019288                axp_set_hardware_poweroff_vol
                0x470192e4                axp_set_power_off
                0x47019300                axp_probe_factory_mode
                0x470193ac                axp_set_next_poweron_status
                0x470193c8                axp_probe_pre_sys_mode
                0x470193e4                axp_power_get_dcin_battery_exist
                0x47019420                axp_probe_power_source
                0x47019458                axp_probe_battery_vol
                0x47019474                axp_probe_rest_battery_capacity
                0x47019490                axp_probe_key
                0x470194ac                axp_probe_charge_current
                0x470194c8                axp_set_charge_current
                0x470194e4                axp_set_charge_control
                0x47019500                axp_set_vbus_limit_dc
                0x47019534                axp_set_vbus_limit_pc
                0x47019568                axp_set_all_limit
                0x47019638                axp_set_suspend_chgcur
                0x47019658                axp_set_runtime_chgcur
                0x47019678                axp_set_charge_vol_limit
                0x470196e0                axp_set_power_supply_output
                0x470197d0                axp_slave_set_power_supply_output
                0x47019924                axp_probe_power_supply_condition
                0x47019a18                axp_int_enable
                0x47019a54                axp_int_disable
                0x47019a78                axp_int_query
                0x47019a94                axp_set_supply_status
                0x47019abc                axp_set_supply_status_byname
                0x47019b30                axp_probe_supply_status
                0x47019b58                axp_probe_supply_status_byname
                0x47019bbc                axp_set_supply_status_byregulator
                0x47019dd0                axp_probe_supply_pmu_name
                0x47019e34                axp_probe_vbus_cur_limit
                0x47019e74                axp22_set_next_sys_mode
                0x47019e90                axp22_set_int_enable
                0x47019ee4                axp22_probe_vbus_cur_limit
                0x47019f58                axp22_set_coulombmeter_onoff
                0x47019fa8                axp22_set_charge_control
                0x4701a018                axp22_probe_battery_ratio
                0x4701a03c                axp22_probe_power_status
                0x4701a074                axp22_probe_battery_exist
                0x4701a0a4                axp22_probe_battery_vol
                0x4701a0f8                axp22_probe_key
                0x4701a144                axp22_probe_pre_sys_mode
                0x4701a164                axp22_probe_this_poweron_cause
                0x4701a188                axp22_set_power_off
                0x4701a1c4                axp22_set_power_onoff_vol
                0x4701a24c                axp22_set_charge_current
                0x4701a2b8                axp22_probe_charge_current
                0x4701a2e8                axp22_set_vbus_cur_limit
                0x4701a348                axp22_set_vbus_vol_limit
                0x4701a3c0                axp22_probe_int_pending
                0x4701a430                axp22_probe_int_enable
                0x4701a470                axp22_probe
                0x4701b30c                axp22_set_supply_status
                0x4701b408                axp22_set_supply_status_byname
                0x4701b55c                axp22_probe_supply_status
                0x4701b564                axp22_probe_supply_status_byname
                0x4701b948                axpnull_set_coulombmeter_onoff
                0x4701b950                axpnull_set_charge_control
                0x4701b958                axpnull_probe_battery_ratio
                0x4701b960                axpnull_probe_power_status
                0x4701b968                axpnull_probe_battery_exist
                0x4701b970                axpnull_probe_battery_vol
                0x4701b978                axpnull_probe_key
                0x4701b980                axpnull_probe_pre_sys_mode
                0x4701b988                axpnull_set_next_sys_mode
                0x4701b990                axpnull_probe_this_poweron_cause
                0x4701b998                axpnull_set_power_off
                0x4701b9a0                axpnull_set_power_onoff_vol
                0x4701b9a8                axpnull_set_charge_current
                0x4701b9b0                axpnull_probe_charge_current
                0x4701b9b8                axpnull_set_vbus_cur_limit
                0x4701b9c0                axpnull_set_vbus_vol_limit
                0x4701b9c8                axpnull_probe_int_pending
                0x4701b9d0                axpnull_probe_int_enable
                0x4701b9d8                axpnull_set_int_enable
                0x4701b9e0                axpnull_probe_vbus_cur_limit
                0x4701b9e8                axpnull_set_supply_status
                0x4701b9f0                axpnull_set_supply_status_byname
                0x4701b9f8                axpnull_probe_supply_status
                0x4701ba00                axpnull_probe_supply_status_byname
 .text          0x4701ba08      0x3a4 drivers/pwm/libsunxi_pwm.o
                0x4701ba08                sunxi_pwm_read_reg
                0x4701ba18                sunxi_pwm_write_reg
                0x4701ba2c                sunxi_pwm_get_sys_config
                0x4701bb14                sunxi_pwm_set_polarity
                0x4701bb68                sunxi_pwm_config
                0x4701bccc                sunxi_pwm_enable
                0x4701bd38                sunxi_pwm_disable
                0x4701bd94                sunxi_pwm_init
 .text          0x4701bdac      0x944 drivers/rsb/librsb.o
                0x4701c424                sunxi_rsb_init
                0x4701c6a0                sunxi_rsb_exit
                0x4701c6a8                sunxi_rsb_config
                0x4701c6c0                sunxi_rsb_read
                0x4701c6d8                sunxi_rsb_write
 .text          0x4701c6f0        0x0 drivers/rtc/librtc.o
 .text          0x4701c6f0      0x278 drivers/serial/libserial.o
                0x4701c6f0                NS16550_init
                0x4701c738                NS16550_reinit
                0x4701c784                NS16550_putc
                0x4701c798                NS16550_getc
                0x4701c7ac                NS16550_tstc
                0x4701c7d8                serial_init
                0x4701c81c                _serial_putc
                0x4701c854                _serial_putc_raw
                0x4701c870                _serial_puts
                0x4701c898                _serial_getc
                0x4701c8b4                _serial_tstc
                0x4701c8c8                _serial_setbrg
                0x4701c8f0                serial_putc
                0x4701c904                serial_putc_raw
                0x4701c918                serial_puts
                0x4701c92c                serial_getc
                0x4701c940                serial_tstc
                0x4701c954                serial_setbrg
 .text          0x4701c968       0x5c drivers/smc/libsmc.o
                0x4701c968                smc_init
                0x4701c970                sunxi_smc_call
 .text          0x4701c9c4      0x768 drivers/spi/libspi.o
                0x4701c9c4                ccm_module_disable_bak
                0x4701c9f8                ccm_module_enable_bak
                0x4701ca2c                ccm_clock_enable_bak
                0x4701ca84                ccm_clock_disable_bak
                0x4701cadc                ccm_module_reset_bak
                0x4701cafc                ccm_get_pll_periph_clk
                0x4701cb30                pattern_goto
                0x4701cb34                spi_cfg_mclk
                0x4701cc08                spi_get_mlk
                0x4701cc18                spi_gpio_cfg
                0x4701cc48                spi_onoff
                0x4701cc7c                spic_set_clk
                0x4701ccfc                spic_init
                0x4701cec0                spic_rw
                0x4701d0e8                spic_exit
 .text          0x4701d12c      0xf00 drivers/spinor/libspinor.o
                0x4701d4e8                spinor_init
                0x4701d5cc                spinor_exit
                0x4701d644                spinor_read
                0x4701d718                spinor_write
                0x4701d80c                spinor_flush_cache
                0x4701d86c                spinor_erase_all_blocks
                0x4701d884                spinor_size
                0x4701d88c                spinor_sprite_write
                0x4701d8c8                update_boot0_dram_para
                0x4701d9b0                sunxi_sprite_store_private_data
                0x4701db38                sunxi_sprite_restore_private_data
                0x4701dc80                spinor_datafinish
                0x4701dd40                spi_nor_rw_test
                0x4701dfac                try_spi_nor
 .text          0x4701e02c      0xdb0 drivers/storage_type/libstorage_type.o
                0x4701e0f0                sunxi_flash_mmc_phyread
                0x4701e124                sunxi_flash_mmc_phywrite
                0x4701e1dc                sunxi_sprite_mmc_phyread
                0x4701e210                sunxi_sprite_mmc_phywrite
                0x4701e244                sunxi_sprite_mmc_force_erase
                0x4701e294                sunxi_flash_mmc_secread
                0x4701e2c8                sunxi_flash_mmc_secread_backup
                0x4701e2fc                sunxi_flash_mmc_secwrite
                0x4701e330                sunxi_sprite_mmc_secwrite
                0x4701e370                sunxi_sprite_mmc_secread
                0x4701e3b0                sunxi_sprite_mmc_secread_backup
                0x4701e3f0                sunxi_sprite_mmc_phyerase
                0x4701e450                sunxi_sprite_mmc_phywipe
                0x4701e4b0                sunxi_sprite_setdata_finish
                0x4701e4c8                sunxi_flash_read
                0x4701e4e0                sunxi_flash_part_read
                0x4701e52c                sunxi_flash_write
                0x4701e544                sunxi_flash_part_write
                0x4701e590                sunxi_flash_size
                0x4701e5a8                sunxi_flash_exit
                0x4701e5c0                sunxi_flash_flush
                0x4701e5d8                sunxi_flash_phyread
                0x4701e5f0                sunxi_flash_phywrite
                0x4701e608                sunxi_sprite_init
                0x4701e620                sunxi_sprite_read
                0x4701e638                sunxi_sprite_write
                0x4701e650                sunxi_sprite_erase
                0x4701e668                sunxi_sprite_size
                0x4701e680                sunxi_sprite_exit
                0x4701e698                sunxi_sprite_flush
                0x4701e6b0                sunxi_sprite_phyread
                0x4701e6c8                sunxi_sprite_phywrite
                0x4701e6e0                sunxi_sprite_force_erase
                0x4701e6f8                sunxi_flash_get_dev
                0x4701e718                sunxi_flash_init_uboot
                0x4701e76c                sunxi_flash_sprite_handler
                0x4701ea54                sunxi_flash_boot_handler
                0x4701ed84                sunxi_flash_handle_init
 .text          0x4701eddc     0x2898 drivers/usb/gadget/libusb_gadget.o
                0x4701f444                usb_eth_halt
                0x47020004                strlcpy
                0x470206d4                usb_eth_initialize
                0x47020738                usb_ep_autoconfig
                0x4702092c                usb_ep_autoconfig_reset
                0x47020968                usb_descriptor_fillbuf
                0x470209c8                usb_gadget_config_buf
                0x47020a4c                usb_gadget_get_string
                0x47020c5c                rndis_signal_connect
                0x47020ce4                rndis_signal_disconnect
                0x47020d04                rndis_set_host_mac
                0x47020d1c                rndis_get_state
                0x47020d38                rndis_msg_parser
                0x470213ac                rndis_register
                0x470213d4                rndis_deregister
                0x470213f4                rndis_set_param_dev
                0x4702142c                rndis_set_param_vendor
                0x47021454                rndis_set_param_medium
                0x47021470                rndis_add_hdr
                0x470214c4                rndis_free_response
                0x4702152c                rndis_get_next_response
                0x470215a0                rndis_uninit
                0x470215ec                rndis_rm_hdr
                0x47021640                rndis_init
                0x47021670                rndis_exit
 .text          0x47021674     0x2b44 drivers/usb/sunxi_usb/libusb_sunxi_usb.o
                0x47022b6c                usb_gadget_register_driver
                0x47022cb0                usb_gadget_unregister_driver
                0x47022d64                sunxi_udc_dma_completion
                0x47022fb8                sunxi_udc_probe
                0x47023108                usb_gadget_handle_interrupts
                0x47023e1c                sunxi_udc_bsp_init
                0x47023ec8                sunxi_udc_io_init
                0x47023f0c                sunxi_udc_io_exit
                0x47023f60                dma_map_single
                0x47023f64                dma_unmap_single
                0x47023f68                dma_sync_single_for_device
                0x47023f6c                dma_sync_single_for_cpu
                0x47023f70                sunxi_udc_switch_bus_to_dma
                0x47023f74                sunxi_udc_switch_bus_to_pio
                0x47023f78                sunxi_udc_enable_dma_channel_irq
                0x47023f7c                sunxi_udc_disable_dma_channel_irq
                0x47023f80                sunxi_udc_dma_request
                0x47023fc4                sunxi_udc_dma_release
                0x4702401c                sunxi_dma_set_config
                0x470240d0                sunxi_udc_dma_set_config
                0x47024190                sunxi_udc_dma_start
                0x47024194                sunxi_udc_dma_stop
                0x47024198                sunxi_udc_dma_transmit_length
                0x470241a0                sunxi_udc_dma_is_busy
                0x470241a8                sunxi_udc_dma_probe
                0x470241b0                sunxi_udc_dma_remove
 .text          0x470241b8    0x1b58c drivers/video_sunxi/libvideo_sunxi.o
                0x47024448                drv_disp_init
                0x47024578                drv_disp_exit
                0x470245ac                sunxi_disp_get_source_ops
                0x47024674                disp_ioctl
                0x47024b90                drv_disp_standby
                0x47024c48                osal_ccmu_get_clk_by_name
                0x47024ce8                osal_init_clk_pll
                0x47024cec                OSAL_CCMU_SetSrcFreq
                0x47024d34                OSAL_CCMU_GetSrcFreq
                0x47024d70                OSAL_CCMU_OpenMclk
                0x47024d74                OSAL_CCMU_CloseMclk
                0x47024d7c                OSAL_CCMU_SetMclkSrc
                0x47024d80                OSAL_CCMU_GetMclkSrc
                0x47024d84                OSAL_CCMU_SetMclkFreq
                0x47024d88                OSAL_CCMU_GetMclkFreq
                0x47024d8c                OSAL_CCMU_MclkOnOff
                0x47024d90                OSAL_RegISR
                0x47024da8                OSAL_UnRegISR
                0x47024dac                OSAL_InterruptEnable
                0x47024db0                OSAL_InterruptDisable
                0x47024db4                OSAL_CacheRangeFlush
                0x47024db8                OSAL_malloc
                0x47024de0                OSAL_free
                0x47024de4                OSAL_PhyAlloc
                0x47024de8                OSAL_PhyFree
                0x47024dec                OSAL_VAtoPA
                0x47024df0                OSAL_PAtoVA
                0x47024df4                OSAL_putchar
                0x47024dfc                OSAL_puts
                0x47024e04                OSAL_getchar
                0x47024e0c                OSAL_gets
                0x47024e14                OSAL_strtol
                0x47024e1c                OSAL_int2str_dec
                0x47024e20                OSAL_int2str_hex
                0x47024e24                OSAL_uint2str_dec
                0x47024e28                OSAL_GPIO_Request
                0x47024e90                OSAL_GPIO_Request_early
                0x47024ed4                OSAL_GPIO_Request_Ex
                0x47024ed8                OSAL_GPIO_Release
                0x47024ef4                OSAL_GPIO_DevGetAllPins_Status
                0x47024ef8                OSAL_GPIO_DevGetONEPins_Status
                0x47024efc                OSAL_GPIO_DevSetONEPin_Status
                0x47024f00                OSAL_GPIO_DevSetONEPIN_IO_STATUS
                0x47024f04                OSAL_GPIO_DevSetONEPIN_PULL_STATUS
                0x47024f08                OSAL_GPIO_DevREAD_ONEPIN_DATA
                0x47024f0c                OSAL_GPIO_DevWRITE_ONEPIN_DATA
                0x47024f10                OSAL_Script_FetchParser_Data
                0x47024f80                OSAL_Script_FetchParser_Data_Ex
                0x47024fbc                OSAL_sw_get_ic_ver
                0x47024fc4                OSAL_Pwm_request
                0x47024fcc                OSAL_Pwm_free
                0x47024fd4                OSAL_Pwm_Enable
                0x47024fdc                OSAL_Pwm_Disable
                0x47024fe4                OSAL_Pwm_Config
                0x47024fec                OSAL_Pwm_Set_Polarity
                0x47024ff4                OSAL_Power_Enable
                0x470250b8                OSAL_Power_Disable
                0x4702517c                DE_Set_Reg_Base
                0x47025190                DE_Get_Reg_Base
                0x470251a0                DE_BE_Reg_Init
                0x470251dc                DE_BE_Set_SystemPalette
                0x47025220                DE_BE_Get_SystemPalette
                0x4702526c                DE_BE_Enable
                0x4702529c                DE_BE_Disable
                0x470252cc                DE_BE_Output_Select
                0x47025310                DE_BE_Set_BkColor
                0x47025348                DE_BE_Set_ColorKey
                0x470253c0                DE_BE_reg_auto_load_en
                0x470253e4                DE_BE_Cfg_Ready
                0x47025404                DE_BE_Sprite_Enable
                0x47025428                DE_BE_Sprite_Disable
                0x47025448                DE_BE_Sprite_Set_Format
                0x47025468                DE_BE_Sprite_Global_Alpha_Enable
                0x47025480                DE_BE_Sprite_Set_Global_Alpha
                0x470254a4                DE_BE_Sprite_Block_Set_Pos
                0x470254c8                DE_BE_Sprite_Block_Set_Size
                0x47025500                DE_BE_Sprite_Block_Set_fb
                0x47025530                DE_BE_Sprite_Block_Set_Next_Id
                0x47025558                DE_BE_Sprite_Set_Palette_Table
                0x4702559c                DE_BE_Set_Enhance_ex
                0x47026ee0                DE_BE_enhance_enable
                0x47026ef8                DE_BE_deflicker_enable
                0x47026f1c                DE_BE_Set_Outitl_enable
                0x47026f40                DE_BE_set_display_size
                0x47026f64                DE_BE_get_display_width
                0x47026f80                DE_BE_get_display_height
                0x47026f9c                DE_BE_EnableINT
                0x47026fbc                DE_BE_DisableINT
                0x47026fdc                DE_BE_QueryINT
                0x47026ff0                DE_BE_ClearINT
                0x47027008                DE_SCAL_Set_Reg_Base
                0x4702701c                DE_SCAL_Get_Reg_Base
                0x4702702c                DE_SCAL_Config_Src
                0x470276f8                DE_SCAL_Set_Fb_Addr
                0x4702773c                DE_SCAL_Set_Init_Phase
                0x47027a04                DE_SCAL_Agth_Config
                0x47027b68                DE_SCAL_Set_Scaling_Factor
                0x47027cc0                DE_SCAL_Set_Scaling_Coef
                0x47028038                DE_SCAL_Set_CSC_Coef
                0x47028148                DE_SCAL_Set_Out_Format
                0x470281a0                DE_SCAL_Set_Out_Size
                0x47028280                DE_SCAL_Set_Trig_Line
                0x470282ac                DE_SCAL_Set_Int_En
                0x47028304                DE_SCAL_Set_Di_Ctrl
                0x47028358                DE_SCAL_Set_Di_PreFrame_Addr
                0x47028384                DE_SCAL_Set_Di_MafFlag_Src
                0x470283a4                DE_SCAL_Start
                0x470283c4                DE_SCAL_Set_Filtercoef_Ready
                0x470283e4                DE_SCAL_Set_Reg_Rdy
                0x47028404                DE_SCAL_Reset
                0x47028448                DE_SCAL_Input_Select
                0x47028468                DE_SCAL_Output_Select
                0x470284b4                DE_SCAL_Writeback_Enable
                0x470284d4                DE_SCAL_Writeback_Disable
                0x470284f4                DE_SCAL_Writeback_Linestride_Enable
                0x47028510                DE_SCAL_Writeback_Linestride_Disable
                0x47028528                DE_SCAL_Enable
                0x47028554                DE_SCAL_Disable
                0x47028574                DE_SCAL_Set_Writeback_Addr
                0x470285a0                DE_SCAL_Get_Input_Format
                0x470285b8                DE_SCAL_Get_Input_Mode
                0x470285d0                DE_SCAL_Get_Output_Format
                0x470285e8                DE_SCAL_Get_Input_Width
                0x47028608                DE_SCAL_Get_Input_Height
                0x47028624                DE_SCAL_Get_Output_Width
                0x47028644                DE_SCAL_Get_Output_Height
                0x47028660                DE_SCAL_Get_Start_Status
                0x47028694                DE_SCAL_Get_Field_Status
                0x470286ac                iDE_SCAL_Matrix_Mul
                0x470291ec                iDE_SCAL_Csc_Lmt
                0x47029270                DE_SCAL_Set_CSC_Coef_Enhance
                0x4702a4a8                DE_SCAL_Get_3D_In_Single_Size
                0x4702a584                DE_SCAL_Get_3D_Out_Single_Size
                0x4702a604                DE_SCAL_Get_3D_Out_Full_Size
                0x4702a684                DE_SCAL_Set_3D_Fb_Addr
                0x4702a730                DE_SCAL_Set_3D_Di_PreFrame_Addr
                0x4702a7b0                DE_SCAL_Set_3D_Ctrl
                0x4702a8f0                DE_SCAL_Config_3D_Src
                0x4702b9f0                DE_SCAL_EnableINT
                0x4702ba10                DE_SCAL_DisableINT
                0x4702ba30                DE_SCAL_QueryINT
                0x4702ba44                DE_SCAL_ClearINT
                0x4702ba64                DE_SCAL_Set_Writeback_Addr_ex
                0x4702bbac                DE_BE_HWC_Enable
                0x4702bbd0                DE_BE_HWC_Set_Pos
                0x4702bc14                DE_BE_HWC_Get_Pos
                0x4702bc40                DE_BE_HWC_Set_Palette
                0x4702bc80                DE_BE_HWC_Set_Src
                0x4702bd7c                dif
                0x4702bd8c                calc_src_coef3
                0x4702bef4                calc_src_coef2
                0x4702bfa8                de_get_pll_rate
                0x4702c170                de_set_pll_rate
                0x4702c3d8                de_clk_init_pll
                0x4702c40c                de_set_mclk_src
                0x4702c524                de_get_mclk_src
                0x4702c5d8                de_set_mclk_freq
                0x4702c6fc                de_get_mclk_freq
                0x4702c7b0                de_pll_enable
                0x4702c8c0                de_mclk_enable
                0x4702cb14                DE_BE_Format_To_Bpp
                0x4702cb2c                DE_BE_Offset_To_Addr
                0x4702cb4c                DE_BE_Addr_To_Offset
                0x4702cb78                DE_BE_Layer_Set_Work_Mode
                0x4702cba0                DE_BE_Layer_Set_Format
                0x4702cbf8                DE_BE_Layer_Set_Framebuffer
                0x4702ccc8                DE_BE_Layer_Set_Screen_Win
                0x4702cd28                DE_BE_Layer_Video_Enable
                0x4702cd50                DE_BE_Layer_Video_Ch_Sel
                0x4702cd78                DE_BE_Layer_Yuv_Ch_Enable
                0x4702cda0                DE_BE_Layer_Set_Prio
                0x4702cdc8                DE_BE_Layer_Set_Pipe
                0x4702cdf0                DE_BE_Layer_ColorKey_Enable
                0x4702ce1c                DE_BE_Layer_Alpha_Enable
                0x4702ce48                DE_BE_Layer_Set_Alpha_Value
                0x4702ce70                DE_BE_Layer_Enable
                0x4702cea0                DE_BE_YUV_CH_Set_Src
                0x4702d008                DE_BE_YUV_CH_Enable
                0x4702d030                hmdi_src_sel
                0x4702d050                dsi_src_sel
                0x4702d070                lvds_open
                0x4702d244                lvds_close
                0x4702d2e4                tcon_get_timing
                0x4702d3e4                tcon_set_reg_base
                0x4702d3f8                tcon_get_reg_base
                0x4702d408                tcon_init
                0x4702d460                tcon_exit
                0x4702d48c                tcon_irq_enable
                0x4702d4b4                tcon_irq_disable
                0x4702d4d8                tcon_irq_query
                0x4702d510                tcon_get_start_delay
                0x4702d54c                tcon_get_cur_line
                0x4702d58c                tcon0_src_select
                0x4702d5ac                tcon0_src_get
                0x4702d5c4                tcon0_open
                0x4702d654                tcon0_close
                0x4702d6a4                tcon0_cfg_mode_auto
                0x4702d870                tcon0_cfg_mode_tri
                0x4702dacc                tcon0_tri_busy
                0x4702dae4                tcon0_tri_start
                0x4702db10                tcon0_frm
                0x4702dc28                tcon0_cpu_16b_to_24b
                0x4702dc50                tcon0_cpu_24b_to_16b
                0x4702dc74                tcon0_cpu_busy
                0x4702dc98                tcon0_cpu_wr_24b_index
                0x4702dcf8                tcon0_cpu_wr_24b_data
                0x4702dd58                tcon0_cpu_wr_24b
                0x4702dd7c                tcon0_cpu_rd_24b
                0x4702dd84                tcon0_cpu_wr_16b
                0x4702ddbc                tcon0_cpu_wr_16b_index
                0x4702dde0                tcon0_cpu_wr_16b_data
                0x4702de04                tcon0_cpu_rd_16b
                0x4702de0c                tcon0_set_dclk_div
                0x4702de2c                tcon0_get_dclk_div
                0x4702de44                tcon1_open
                0x4702de70                tcon1_close
                0x4702de9c                tcon1_cfg
                0x4702e0d8                tcon1_cfg_ex
                0x4702e0e0                tcon1_set_hdmi_mode
                0x4702e168                tcon1_set_tv_mode
                0x4702e170                tcon1_src_select
                0x4702e198                tcon1_src_get
                0x4702e1b0                tcon_ceu_range_cut
                0x4702e1dc                tcon_ceu_reg_corr
                0x4702e1ec                tcon_ceu_rect_multi
                0x4702e28c                tcon_ceu_rect_calc
                0x4702e3fc                tcon_ceu_calc
                0x4702e5d8                tcon_ceu
                0x4702ea08                tcon_gamma
                0x4702ea64                tcon_cmap
                0x4702ebb4                tcon0_cfg
                0x4702eec8                dsi_set_reg_base
                0x4702eee8                dsi_get_reg_base
                0x4702eef8                dsi_dphy_get_reg_base
                0x4702ef0c                dsi_get_start_delay
                0x4702ef78                dsi_get_cur_line
                0x4702efd8                dsi_irq_enable
                0x4702f000                dsi_irq_disable
                0x4702f024                dsi_irq_query
                0x4702f064                dsi_inst_busy
                0x4702f07c                dsi_start
                0x4702f144                dsi_open
                0x4702f174                dsi_close
                0x4702f1ac                dsi_tri_start
                0x4702f1c0                DSI_delay_ms
                0x4702f1c4                dsi_dcs_wr_index
                0x4702f1cc                dsi_dcs_wr_data
                0x4702f1d4                dsi_dphy_cfg
                0x4702f28c                dsi_io_open
                0x4702f490                dsi_io_close
                0x4702f644                dsi_clk_enable
                0x4702f660                dsi_basic_cfg
                0x4702fb94                dsi_exit
                0x4702fb9c                dsi_ecc_pro
                0x4702fe38                dsi_dcs_rd
                0x4702ff8c                dsi_set_max_ret_size
                0x4702ffdc                dsi_dcs_rd_memory
                0x470300a0                dsi_crc_pro
                0x4703010c                dsi_dcs_wr
                0x47030254                dsi_dcs_wr_memory
                0x470302f0                dsi_dcs_wr_5para
                0x4703032c                dsi_dcs_wr_4para
                0x47030360                dsi_dcs_wr_3para
                0x4703038c                dsi_dcs_wr_2para
                0x470303b0                dsi_dcs_wr_1para
                0x470303d4                dsi_dcs_wr_0para
                0x470303f0                dsi_crc_pro_pd_repeat
                0x4703045c                dsi_packet_cfg
                0x47030934                dsi_cfg
                0x47030964                TVE_set_reg_base
                0x4703098c                TVE_open
                0x470309b4                TVE_close
                0x470309fc                TVE_set_tv_mode
                0x47031b1c                TVE_set_vga_mode
                0x47031bb0                TVE_query_int
                0x47031bd4                TVE_clear_int
                0x47031c10                TVE_get_dac_status
                0x47031c70                TVE_dac_int_enable
                0x47031cb8                TVE_dac_int_disable
                0x47031d00                TVE_dac_autocheck_enable
                0x47031d44                TVE_dac_autocheck_disable
                0x47031d88                TVE_exit
                0x47031df4                TVE_dac_enable
                0x47031e50                TVE_dac_disable
                0x47031e90                TVE_dac_set_source
                0x47031f1c                TVE_dac_get_source
                0x47031f68                TVE_dac_set_de_bounce
                0x47031ff4                TVE_dac_get_de_bounce
                0x47032048                TVE_dac_sel
                0x470321c8                TVE_csc_init
                0x47032220                TVE_init
                0x47032380                TVE_csc_enable
                0x470323ac                TVE_csc_disable
                0x470323d8                WB_EBIOS_Set_Reg_Base
                0x470323ec                WB_EBIOS_Get_Reg_Base
                0x470323fc                WB_EBIOS_Enable
                0x4703241c                WB_EBIOS_Reset
                0x4703243c                WB_EBIOS_Set_Reg_Rdy
                0x4703245c                WB_EBIOS_Set_Capture_Mode
                0x47032488                WB_EBIOS_Init
                0x470324d4                WB_EBIOS_Writeback_Enable
                0x470324f4                WB_EBIOS_Writeback_Disable
                0x47032514                WB_EBIOS_Set_Para
                0x470327d8                WB_EBIOS_Set_Addr
                0x47032810                WB_EBIOS_Get_Status
                0x47032854                WB_EBIOS_EnableINT
                0x47032874                WB_EBIOS_DisableINT
                0x47032894                WB_EBIOS_QueryINT
                0x470328a8                WB_EBIOS_ClearINT
                0x470328c8                drc_init
                0x4703297c                drc_proc
                0x47032c7c                drc_close_proc
                0x47032cb4                drc_enable
                0x47032ce0                IEP_Drc_Init
                0x47032e08                IEP_Drc_Exit
                0x47032e2c                IEP_Drc_Enable
                0x47032e3c                IEP_Drc_Set_Winodw
                0x47032e7c                IEP_Drc_Operation_In_Vblanking
                0x47032e8c                IEP_Drc_Set_Reg_Base
                0x47032e9c                IEP_Drc_Set_Mode
                0x47032eb8                IEP_Drc_Get_Cur_Backlight
                0x47032ed0                IEP_Drc_Update_Backlight
                0x47032eec                IEP_Drc_Get_Backlight_Dimming
                0x47032f04                IEP_Drc_Set_Backlight_Dimming
                0x47032f20                IEP_Drc_Early_Suspend
                0x47032f28                iep_drc_suspend
                0x47032f30                iep_drc_resume
                0x47032f38                IEP_Drc_Late_Resume
                0x47032f40                IEP_Drc_Set_Imgsize
                0x47032f68                disp_al_get_priv
                0x47032f94                disp_al_sat_notifier_callback
                0x47032fe8                disp_al_be_notifier_callback
                0x47033094                disp_al_drc_notifier_callback
                0x470330f8                disp_al_notifier_init
                0x47033114                disp_al_notifier_register
                0x47033160                disp_al_notifier_unregister
                0x470331d4                disp_al_notifier_call_chain
                0x47033234                disp_al_query_mod
                0x4703326c                disp_al_query_be_mod
                0x47033294                disp_al_query_fe_mod
                0x470332bc                disp_al_query_lcd_mod
                0x470332e4                disp_al_query_smart_color_mod
                0x470332ec                disp_al_query_drc_mod
                0x47033324                disp_al_query_dsi_mod
                0x4703334c                disp_al_query_edp_mod
                0x47033354                disp_al_check_csc
                0x4703335c                disp_al_check_display_size
                0x47033364                disp_al_lcd_clk_init
                0x47033394                disp_al_lcd_clk_exit
                0x470333b8                disp_al_lcd_cfg
                0x470334b4                disp_al_edp_init
                0x470334bc                disp_al_edp_disable_cfg
                0x470334c4                disp_al_edp_cfg
                0x470334cc                disp_al_edp_int
                0x470334d4                disp_al_lcd_init
                0x470334d8                disp_al_lcd_exit
                0x470334dc                disp_al_lcd_clk_enable
                0x47033500                disp_al_lcd_clk_disable
                0x47033524                disp_al_lcd_enable
                0x47033600                disp_al_lcd_set_src
                0x47033674                disp_al_lcd_query_irq
                0x470336b8                disp_al_lcd_tri_busy
                0x470336d8                disp_al_lcd_tri_start
                0x47033714                disp_al_lcd_io_cfg
                0x47033748                disp_al_lcd_set_clk_div
                0x47033750                disp_al_lcd_get_clk_div
                0x47033754                disp_al_lcd_get_cur_line
                0x470337a4                disp_al_lcd_get_start_delay
                0x470337e4                disp_al_manager_clk_init
                0x47033828                disp_al_manager_clk_exit
                0x4703384c                disp_al_manager_clk_enable
                0x47033870                disp_al_manager_clk_disable
                0x47033894                disp_al_manager_init
                0x47033898                disp_al_mnanger_exit
                0x470338a0                disp_al_manager_set_display_size
                0x470338dc                disp_al_manager_get_display_size
                0x47033920                disp_al_manager_set_backcolor
                0x47033928                disp_al_manager_set_color_key
                0x47033948                disp_al_manager_sync
                0x4703396c                disp_al_manager_query_irq
                0x47033998                disp_al_get_pixel_type
                0x470339a8                scaler_sw_para_to_reg
                0x47033a8c                scaler_3d_sw_para_to_reg
                0x47033b5c                scaler_clk_init
                0x47033bb0                scaler_clk_exit
                0x47033bec                scaler_clk_on
                0x47033c20                scaler_clk_off
                0x47033c50                scaler_init
                0x47033ccc                scaler_exit
                0x47033cfc                scaler_open
                0x47033d68                scaler_close
                0x47033dd4                disp_al_manager_enable
                0x47033ed4                scaler_request
                0x47033f54                scaler_release
                0x47033fe0                scaler_sync
                0x47034028                disp_al_fe_notifier_callback
                0x470340bc                scaler_output_select
                0x470340fc                scaler_alpha_is_support
                0x4703412c                scaler_set_para
                0x470344c0                disp_al_be_sw_para_to_reg
                0x47034538                disp_al_format_to_bpp
                0x47034554                disp_al_layer_set_pipe
                0x47034560                disp_al_layer_set_zorder
                0x47034594                disp_al_layer_set_alpha_mode
                0x470345d0                disp_al_layer_color_key_enable
                0x470345dc                disp_al_layer_set_screen_window
                0x470345e4                disp_al_layer_set_framebuffer
                0x47034684                disp_al_layer_enable
                0x470346bc                disp_al_layer_set_extra_info
                0x47034814                disp_al_layer_sync
                0x4703482c                disp_al_capture_init
                0x4703483c                disp_al_capture_screen
                0x470349cc                disp_al_capture_screen_stop
                0x47034a04                disp_al_capture_screen_switch_buff
                0x47034b38                disp_al_capture_screen_proc
                0x47034b9c                disp_al_capture_screen_get_buffer_id
                0x47034bac                disp_al_capture_sync
                0x47034c00                disp_al_smbl_enable
                0x47034c04                disp_al_smbl_set_window
                0x47034c60                disp_al_smbl_sync
                0x47034c64                disp_al_smbl_update_backlight
                0x47034c68                disp_al_smbl_get_backlight_dimming
                0x47034c6c                disp_al_smcl_set_para
                0x47034c74                disp_al_smcl_set_window
                0x47034cb4                disp_al_smcl_enable
                0x47034d10                disp_al_smcl_sync
                0x47034d14                disp_init_al
                0x47034e0c                DRC_EBIOS_Set_Reg_Base
                0x47034e20                DRC_EBIOS_Get_Reg_Base
                0x47034e30                DRC_EBIOS_Enable
                0x47034e50                DRC_EBIOS_Disable
                0x47034e70                DRC_EBIOS_Set_Mode
                0x47034e90                DRC_EBIOS_Bist_Enable
                0x47034eb0                DRC_EBIOS_Set_Reg_Refresh_Edge
                0x47034ed0                DRC_EBIOS_Set_Csc_Coeff
                0x470350c4                DRC_EBIOS_Set_Display_Size
                0x470350f8                DRC_EBIOS_Win_Enable
                0x47035118                DRC_EBIOS_Set_Win_Para
                0x47035160                DRC_EBIOS_Drc_Cfg_Rdy
                0x4703518c                DRC_EBIOS_Drc_Set_Lgc_Addr
                0x470351a8                DRC_EBIOS_Drc_Set_Lgc_Autoload_Disable
                0x470351c8                DRC_EBIOS_Drc_Adjust_Enable
                0x470351e8                DRC_EBIOS_Drc_Set_Adjust_Para
                0x47035210                DRC_EBIOS_Drc_Set_Spa_Coeff
                0x4703526c                DRC_EBIOS_Drc_Set_Int_Coeff
                0x470352bc                DRC_EBIOS_Drc_Set_Mode
                0x470352f0                DRC_EBIOS_Lh_Set_Mode
                0x47035310                DRC_EBIOS_Lh_Clr_Rec
                0x47035330                DRC_EBIOS_Lh_Set_Thres
                0x4703537c                DRC_EBIOS_Lh_Get_Sum_Rec
                0x470353ac                DRC_EBIOS_Lh_Get_Cnt_Rec
                0x470353dc                SAT_Set_Reg_Base
                0x470353f0                SAT_Get_Reg_Base
                0x47035400                SAT_Enable_Disable
                0x47035418                SAT_Set_Display_Size
                0x47035434                SAT_Set_Window
                0x47035478                SAT_Set_Sync_Para
                0x470358d0                bsp_disp_feat_get_num_screens
                0x470358e4                bsp_disp_feat_get_num_layers
                0x470358fc                bsp_disp_feat_get_num_scalers
                0x47035910                bsp_disp_feat_get_num_captures
                0x47035924                bsp_disp_feat_get_num_smart_backlights
                0x47035938                bsp_disp_feat_get_num_color_managers
                0x4703594c                bsp_disp_feat_get_supported_output_types
                0x47035964                bsp_disp_feat_get_layer_feats
                0x4703598c                bsp_disp_feat_get_smart_backlight_support
                0x470359a4                bsp_disp_feat_get_image_enhance_support
                0x470359bc                disp_init_feat
                0x470359d8                disp_get_lcd
                0x47035a1c                disp_lcd_get_priv
                0x47035a58                disp_lcd_gpio_set_value
                0x47035ae8                disp_lcd_gpio_set_direction
                0x47035b78                disp_lcd_event_proc
                0x47035c78                disp_lcd_get_panel_info
                0x47035ccc                disp_lcd_get_timing
                0x47035d90                disp_lcd_get_input_csc
                0x47035dd0                disp_lcd_get_physical_size
                0x47035e24                disp_lcd_get_resolution
                0x47035e78                disp_lcd_get_bright
                0x47035ec4                disp_lcd_is_enabled
                0x47035f08                disp_lcd_pre_disable
                0x47035fbc                disp_lcd_post_enable
                0x47036044                disp_lcd_get_close_flow
                0x47036078                disp_lcd_get_open_flow
                0x470360a4                disp_lcd_set_panel_funs
                0x4703612c                disp_lcd_set_close_func
                0x47036194                disp_lcd_set_open_func
                0x470361f8                disp_lcd_tcon_disable
                0x47036240                disp_lcd_tcon_enable
                0x47036284                disp_lcd_get_driver_name
                0x470362ec                disp_lcd_pin_cfg
                0x47036440                disp_lcd_is_used
                0x47036478                disp_lcd_power_disable
                0x47036544                disp_lcd_power_enable
                0x470365f8                disp_lcd_pwm_disable
                0x47036668                disp_lcd_pwm_enable
                0x470366c0                disp_lcd_backlight_disable
                0x47036794                disp_lcd_backlight_enable
                0x47036864                disp_lcd_set_bright
                0x470369cc                lcd_parse_panel_para
                0x47036ffc                lcd_get_sys_config
                0x470374d4                lcd_clk_init
                0x47037660                lcd_clk_exit
                0x470377b8                disp_lcd_exit
                0x47037888                lcd_clk_enable
                0x47037b24                disp_lcd_pre_enable
                0x47037c10                lcd_clk_disable
                0x47037d54                disp_lcd_post_disable
                0x47037dcc                disp_lcd_update_bright_dimming
                0x47037e14                disp_lcd_notifier_callback
                0x47037e64                disp_lcd_gpio_init
                0x47037f84                disp_lcd_init
                0x470381b4                disp_lcd_gpio_exit
                0x470382e4                disp_lcd_gpio_get_value
                0x4703836c                disp_init_lcd
                0x4703878c                disp_get_layer
                0x47038820                disp_lyr_get_priv
                0x470388a8                disp_lyr_set_manager
                0x470388f0                disp_lyr_get_frame_id
                0x47038924                disp_lyr_get_info
                0x47038978                disp_lyr_sync
                0x470389d8                disp_lyr_is_enabled
                0x47038a0c                disp_lyr_disable
                0x47038a84                disp_lyr_enable
                0x47038af8                disp_lyr_exit
                0x47038b2c                disp_lyr_init
                0x47038b60                disp_lyr_shadow_protect
                0x47038bb4                disp_lyr_update_regs
                0x47038d30                disp_lyr_clear_regs
                0x47038d84                disp_lyr_apply
                0x47038df4                disp_lyr_set_info
                0x47038e58                disp_lyr_force_update_regs
                0x47038e98                disp_init_lyr
                0x470390b0                disp_get_layer_manager
                0x4703911c                disp_mgr_get_priv
                0x47039180                disp_mgr_is_enabled
                0x470391b4                disp_mgr_add_layer
                0x47039214                disp_mgr_get_screen_size
                0x470392ac                disp_mgr_set_screen_size
                0x470392f8                disp_mgr_sync
                0x47039380                disp_mgr_get_output_type
                0x470393d8                disp_mgr_set_output_type
                0x4703941c                disp_mgr_get_color_key
                0x47039470                disp_mgr_set_color_key
                0x470394cc                disp_mgr_get_back_color
                0x47039520                disp_mgr_set_back_color
                0x4703957c                disp_mgr_clk_init
                0x470395c0                disp_mgr_init
                0x4703960c                disp_mgr_clk_exit
                0x4703965c                disp_mgr_exit
                0x470396d0                disp_mgr_clk_enable
                0x47039720                disp_mgr_clk_disable
                0x47039770                disp_mgr_shadow_protect
                0x470397c4                disp_mgr_update_regs
                0x47039868                disp_mgr_clear_regs
                0x470398f4                disp_mgr_disable
                0x47039958                disp_mgr_apply
                0x470399c8                disp_mgr_force_update_regs
                0x47039a3c                disp_mgr_enable
                0x47039aa0                disp_init_mgr
                0x47039cf4                bsp_disp_delay_ms
                0x47039d04                bsp_disp_delay_us
                0x47039d48                disp_notifier_init
                0x47039d64                disp_notifier_register
                0x47039db0                disp_notifier_unregister
                0x47039e18                disp_notifier_call_chain
                0x47039e70                disp_smbl_set_manager
                0x47039e90                disp_get_smbl
                0x47039ee0                disp_smbl_get_priv
                0x47039f38                disp_smbl_exit
                0x47039f5c                disp_smbl_init
                0x47039fd8                disp_smbl_is_enabled
                0x4703a00c                disp_smbl_apply
                0x4703a06c                disp_smbl_set_window
                0x4703a0c4                disp_smbl_disable
                0x4703a108                disp_smbl_enable
                0x4703a14c                disp_smbl_force_update_regs
                0x4703a18c                disp_smbl_notifier_callback
                0x4703a210                disp_smbl_update_regs
                0x4703a2bc                disp_smbl_sync
                0x4703a32c                disp_smbl_shadow_protect
                0x4703a370                disp_init_smbl
                0x4703a518                disp_smcl_set_manager
                0x4703a538                disp_get_smcl
                0x4703a588                disp_smcl_get_priv
                0x4703a5e0                disp_smcl_exit
                0x4703a604                disp_smcl_init
                0x4703a674                disp_smcl_is_enabled
                0x4703a698                disp_smcl_sync
                0x4703a6dc                disp_smcl_shadow_protect
                0x4703a720                disp_smcl_update_regs
                0x4703a7f8                disp_smcl_apply
                0x4703a85c                disp_smcl_set_window
                0x4703a8b4                disp_smcl_set_mode
                0x4703a8fc                disp_smcl_set_hue
                0x4703a944                disp_smcl_set_saturation
                0x4703a98c                disp_smcl_set_bright
                0x4703a9d4                disp_smcl_disable
                0x4703aa1c                disp_smcl_enable
                0x4703aa64                disp_smcl_force_update_regs
                0x4703aaa4                disp_smcl_notifier_callback
                0x4703aaf8                disp_init_smcl
                0x4703accc                bsp_disp_exit
                0x4703ad8c                bsp_disp_open
                0x4703ad94                bsp_disp_close
                0x4703ad9c                disp_init_connections
                0x4703aebc                bsp_disp_init
                0x4703af40                bsp_disp_cfg_get
                0x4703af54                bsp_disp_vsync_event_enable
                0x4703af6c                disp_sync_all
                0x4703afec                sync_event_proc
                0x4703b048                bsp_disp_get_output_type
                0x4703b094                bsp_disp_shadow_protect
                0x4703b204                bsp_disp_get_screen_width
                0x4703b248                bsp_disp_get_screen_height
                0x4703b28c                bsp_disp_get_screen_physical_width
                0x4703b2c8                bsp_disp_get_screen_physical_height
                0x4703b304                bsp_disp_get_screen_width_from_output_type
                0x4703b3b4                bsp_disp_get_screen_height_from_output_type
                0x4703b46c                bsp_disp_get_timming
                0x4703b4e4                bsp_disp_get_panel_info
                0x4703b530                bsp_disp_lcd_pre_enable
                0x4703b61c                bsp_disp_lcd_post_enable
                0x4703b660                bsp_disp_lcd_pre_disable
                0x4703b690                bsp_disp_lcd_post_disable
                0x4703b71c                bsp_disp_lcd_backlight_enable
                0x4703b74c                bsp_disp_lcd_backlight_disable
                0x4703b77c                bsp_disp_lcd_pwm_enable
                0x4703b7ac                bsp_disp_lcd_pwm_disable
                0x4703b7dc                bsp_disp_lcd_power_enable
                0x4703b814                bsp_disp_lcd_power_disable
                0x4703b850                bsp_disp_lcd_set_bright
                0x4703b888                bsp_disp_lcd_get_bright
                0x4703b8bc                bsp_disp_lcd_get_open_flow
                0x4703b8ec                bsp_disp_lcd_get_close_flow
                0x4703b91c                bsp_disp_lcd_set_panel_funs
                0x4703b9d4                LCD_OPEN_FUNC
                0x4703ba08                LCD_CLOSE_FUNC
                0x4703ba3c                bsp_disp_lcd_is_used
                0x4703ba6c                bsp_disp_lcd_tcon_enable
                0x4703ba9c                bsp_disp_lcd_tcon_disable
                0x4703bacc                bsp_disp_lcd_pin_cfg
                0x4703bb04                bsp_disp_lcd_delay_ms
                0x4703bb08                bsp_disp_lcd_delay_us
                0x4703bb0c                bsp_disp_lcd_gpio_set_value
                0x4703bb4c                bsp_disp_lcd_gpio_set_direction
                0x4703bb8c                bsp_disp_get_lcd_registered
                0x4703bba0                bsp_disp_get_hdmi_registered
                0x4703bbb0                bsp_disp_layer_set_info
                0x4703bc14                bsp_disp_layer_get_info
                0x4703bc78                bsp_disp_layer_enable
                0x4703bcd4                bsp_disp_layer_disable
                0x4703bd30                bsp_disp_layer_is_enabled
                0x4703bd8c                bsp_disp_layer_get_frame_id
                0x4703bde8                bsp_disp_set_back_color
                0x4703be38                bsp_disp_smcl_enable
                0x4703be80                bsp_disp_smcl_disable
                0x4703bec8                bsp_disp_smcl_is_enabled
                0x4703bf10                bsp_disp_smcl_set_bright
                0x4703bf60                bsp_disp_smcl_get_bright
                0x4703bfa8                bsp_disp_smcl_set_saturation
                0x4703bff8                bsp_disp_smcl_get_saturation
                0x4703c040                bsp_disp_smcl_set_contrast
                0x4703c090                bsp_disp_smcl_get_contrast
                0x4703c0d8                bsp_disp_smcl_set_hue
                0x4703c128                bsp_disp_smcl_get_hue
                0x4703c170                bsp_disp_smcl_set_mode
                0x4703c1c0                bsp_disp_smcl_get_mode
                0x4703c208                bsp_disp_smcl_set_window
                0x4703c258                bsp_disp_smcl_get_window
                0x4703c2a8                bsp_disp_smbl_enable
                0x4703c2f0                bsp_disp_smbl_disable
                0x4703c338                bsp_disp_smbl_is_enabled
                0x4703c380                bsp_disp_smbl_set_window
                0x4703c3d0                bsp_disp_smbl_get_window
                0x4703c420                LCD_set_panel_funs
                0x4703c448                lcd_init
                0x4703c464                sunxi_lcd_delay_ms
                0x4703c48c                sunxi_lcd_delay_us
                0x4703c4b4                sunxi_lcd_tcon_enable
                0x4703c4d4                sunxi_lcd_tcon_disable
                0x4703c4f4                sunxi_lcd_backlight_enable
                0x4703c514                sunxi_lcd_backlight_disable
                0x4703c534                sunxi_lcd_power_enable
                0x4703c554                sunxi_lcd_power_disable
                0x4703c574                sunxi_lcd_pwm_enable
                0x4703c59c                sunxi_lcd_pwm_disable
                0x4703c5c4                sunxi_lcd_cpu_write
                0x4703c5ec                sunxi_lcd_cpu_write_index
                0x4703c614                sunxi_lcd_cpu_write_data
                0x4703c63c                sunxi_lcd_dsi_write
                0x4703c664                sunxi_lcd_dsi_clk_enable
                0x4703c690                sunxi_lcd_dsi_clk_disable
                0x4703c6bc                sunxi_disp_get_num_screens
                0x4703c6dc                sunxi_lcd_get_driver_name
                0x4703c704                sunxi_lcd_set_panel_funs
                0x4703c72c                sunxi_lcd_pin_cfg
                0x4703c754                sunxi_lcd_gpio_set_value
                0x4703c77c                sunxi_lcd_gpio_set_direction
 .text          0x4703f744     0x36ac fs/aw_fs/libawfat.o
                0x470400a0                get_fattime
                0x470400a8                clust2sect
                0x470400cc                get_fat
                0x470402f0                aw_get_fat
                0x47040414                put_fat
                0x47040cec                aw_put_fat
                0x47040f88                f_mount
                0x47041008                f_mount_ex
                0x4704106c                f_open
                0x47041264                f_read
                0x47041594                f_write
                0x470418ec                f_sync
                0x470419dc                f_close
                0x47041ba8                f_tell
                0x47041bc8                f_eof
                0x47041c18                f_lseek
                0x47041e48                f_opendir
                0x47041ef8                f_readdir
                0x47041f84                f_stat
                0x47041ff4                f_getfree
                0x47042154                f_truncate
                0x47042250                f_unlink
                0x470423a0                f_mkdir
                0x4704258c                f_chmod
                0x47042618                f_utime
                0x470426b0                f_rename
                0x47042870                f_gets
                0x470428e8                f_putc
                0x4704292c                f_puts
                0x47042970                f_printf
                0x47042ce4                disk_initialize
                0x47042cec                disk_status
                0x47042cf4                disk_read_fs
                0x47042d6c                disk_write
                0x47042de8                disk_ioctl
 .text          0x47042df0     0x2870 fs/fat/libfat.o
                0x47042e24                downcase
                0x47042e48                disk_read
                0x47042e9c                fat_register_device
                0x47042fac                get_name
                0x47043070                get_fatent
                0x4704319c                get_cluster
                0x47043230                get_contents
                0x470433ac                slot2str
                0x47043478                get_vfatname
                0x47043634                mkcksum
                0x47043664                read_bootsectandvi
                0x47043754                do_fat_read
                0x47044004                file_fat_detectfs
                0x4704415c                file_fat_ls
                0x4704416c                file_fat_read
                0x470452cc                file_fat_write
                0x47045300                file_getfsname
                0x47045318                file_cd
                0x4704550c                file_detectfs
                0x47045548                file_ls
                0x470455cc                file_read
 .text          0x47045660     0x2d00 lib/libgeneric.o
                0x47045660                crc7
                0x47045690                cyg_crc16
                0x470456d4                crc32_no_comp
                0x470457b4                crc32
                0x470457c8                crc32_wd
                0x470457cc                display_options
                0x470457ec                print_size
                0x47045920                print_buffer
                0x47045a6c                zfree
                0x47045a74                zalloc
                0x47045a84                zunzip
                0x47045b8c                gunzip
                0x47045c4c                hcreate_r
                0x47045cec                hdestroy_r
                0x47045d60                hstrstr_r
                0x47045e0c                hmatch_r
                0x47045eac                hsearch_r
                0x47046198                hdelete_r
                0x47046220                hexport_r
                0x4704643c                himport_r
                0x47046844                lmb_dump_all
                0x47046848                lmb_init
                0x47046870                lmb_add
                0x47046874                lmb_free
                0x47046998                lmb_reserve
                0x470469a0                lmb_overlaps_region
                0x470469fc                __lmb_alloc_base
                0x47046b2c                lmb_alloc_base
                0x47046b60                lmb_alloc
                0x47046b68                lmb_is_reserved
                0x47046bc8                __board_lmb_reserve
                0x47046bc8                board_lmb_reserve
                0x47046bcc                __arch_lmb_reserve
                0x47046bd0                ldiv
                0x47046bf8                string_to_ip
                0x47046c54                qsort
                0x47046d20                strcmp_compar
                0x47046d2c                strmhz
                0x47046d88                __div64_32
                0x47046e58                strcpy
                0x47046e70                strncpy
                0x47046e94                strcat
                0x47046ec0                strncat
                0x47046f14                strcmp
                0x47046f3c                strncmp
                0x47046f80                strcasecmp
                0x47046fdc                strncasecmp
                0x47047040                strchr
                0x47047074                strlen
                0x47047094                strrchr
                0x470470d0                strnlen
                0x470470fc                strdup
                0x47047130                strspn
                0x47047170                strpbrk
                0x470471ac                strtok
                0x47047224                strsep
                0x47047258                strswab
                0x470472a4                memset
                0x47047314                bcopy
                0x4704733c                memmove
                0x470473a8                memcmp
                0x470473dc                memscan
                0x47047408                strstr
                0x47047468                memchr
                0x47047498                udelay
                0x470479cc                simple_strtoul
                0x47047a78                strict_strtoul
                0x47047af0                simple_strtol
                0x47047b18                ustrtoul
                0x47047b8c                simple_strtoull
                0x47047c8c                vsprintf
                0x470482e4                sprintf
                0x47048308                panic
                0x4704834c                __assert_fail
 .text          0x47048360     0x269c lib/zlib/libz.o
                0x47048360                zcfree
                0x47048368                zcalloc
                0x47048370                inflate_fast
                0x4704891c                inflate_table
                0x47048ee0                inflateReset
                0x47048f60                inflateInit2_
                0x47049064                inflateInit_
                0x47049078                inflateEnd
                0x470490e4                adler32
                0x470493a0                inflate
 .text          0x4704a9fc      0xbc0 memtest/libsunxi_memtest.o
                0x4704a9fc                compare_regions
                0x4704aa80                test_stuck_address
                0x4704aba4                test_random_value
                0x4704ac64                test_xor_comparison
                0x4704accc                test_sub_comparison
                0x4704ad34                test_mul_comparison
                0x4704ad9c                test_div_comparison
                0x4704ae0c                test_or_comparison
                0x4704ae74                test_and_comparison
                0x4704aedc                test_seqinc_comparison
                0x4704af38                test_solidbits_comparison
                0x4704b00c                test_checkerboard_comparison
                0x4704b0ec                test_blockseq_comparison
                0x4704b1b4                test_walkbits0_comparison
                0x4704b298                test_walkbits1_comparison
                0x4704b37c                test_bitspread_comparison
                0x4704b4bc                test_bitflip_comparison
 .text          0x4704b5bc      0x408 nand_sunxi/sun8iw5/nand_interface/libnand_interface.o
                0x4704b5bc                nand_get_mbr
                0x4704b728                nand_uboot_init
                0x4704b784                nand_uboot_exit
                0x4704b7ec                nand_uboot_probe
                0x4704b7f0                nand_uboot_read
                0x4704b80c                nand_uboot_write
                0x4704b828                nand_download_boot0
                0x4704b860                nand_download_uboot
                0x4704b898                nand_force_download_uboot
                0x4704b8e0                nand_uboot_erase
                0x4704b8e4                nand_uboot_get_flash_info
                0x4704b8e8                nand_uboot_set_flash_info
                0x4704b8f0                nand_uboot_get_flash_size
                0x4704b8f4                nand_uboot_flush
                0x4704b8f8                nand_write_uboot
                0x4704b920                nand_read_uboot
                0x4704b948                nand_get_dev
                0x4704b968                nand_erase_uboot
                0x4704b970                nand_init_uboot
 .text          0x4704b9c4     0x2c28 nand_sunxi/sun8iw5/osal/libnand_osal.o
                0x4704ba54                NAND_set_boot_mode
                0x4704ba68                NAND_Print
                0x4704bab0                NAND_CleanFlushDCacheRegion
                0x4704bac0                NAND_DMASingleMap
                0x4704bac8                NAND_DMASingleUnmap
                0x4704bad0                NAND_AllocMemoryForDMADescs
                0x4704bb20                NAND_FreeMemoryForDMADescs
                0x4704bb44                NAND_WaitDmaFinish
                0x4704bb4c                _Getpll6Clk
                0x4704bb80                _get_ndfc_clk_v1
                0x4704bc0c                _change_ndfc_clk_v1
                0x4704bd10                _open_ndfc_ahb_gate_and_reset_v1
                0x4704bd7c                _cfg_ndfc_gpio_v1
                0x4704be08                NAND_ClkRequest
                0x4704be64                NAND_ClkRelease
                0x4704be68                NAND_SetClk
                0x4704bebc                NAND_GetClk
                0x4704bee8                NAND_PIORequest
                0x4704bf20                NAND_PIOFuncChange_DQSc
                0x4704bf38                NAND_PIOFuncChange_REc
                0x4704bf50                NAND_PIORelease
                0x4704bf80                NAND_Memset
                0x4704bf84                NAND_Memcpy
                0x4704bf88                NAND_Malloc
                0x4704bf8c                NAND_Free
                0x4704bf90                OSAL_IrqUnLock
                0x4704bf94                OSAL_IrqLock
                0x4704bf98                NAND_WaitRbReady
                0x4704bfa0                NAND_IORemap
                0x4704bfa4                NAND_VA_TO_PA
                0x4704bfa8                NAND_GetIOBaseAddrCH0
                0x4704bfb4                NAND_GetIOBaseAddrCH1
                0x4704bfc0                NAND_GetNdfcVersion
                0x4704bfc8                NAND_GetNdfcDmaMode
                0x4704bfd0                NAND_PhysicLockInit
                0x4704bfd8                NAND_PhysicLock
                0x4704bfe0                NAND_PhysicUnLock
                0x4704bfe8                NAND_PhysicLockExit
                0x4704bff0                NAND_GetMaxChannelCnt
                0x4704bff8                NAND_GetPlatform
                0x4704c000                nand_request_dma
                0x4704c04c                NAND_ReleaseDMA
                0x4704c088                nand_dma_config_start
                0x4704c1ec                NAND_GetNandExtPara
                0x4704c27c                NAND_GetNandIDNumCtrl
                0x4704c2d4                nand_cond_resched
                0x4704c2d8                NAND_GetNandCapacityLevel
                0x4704c330                Nand_support_sorting
                0x4704c388                NAND_DumpReg
                0x4704c408                NAND_ShowEnv
                0x4704c4a8                NAND_Print_Version
                0x4704c4f8                NAND_GetVoltage
                0x4704c500                NAND_ReleaseVoltage
                0x4704c508                NAND_Get_Secure_Mode
                0x4704c510                __NAND_UpdatePhyArch
                0x4704c528                msg
                0x4704c548                NAND_PhyInit
                0x4704c5c4                NAND_PhyExit
                0x4704c5e0                NAND_LogicWrite
                0x4704c5e4                NAND_LogicRead
                0x4704c5e8                NAND_LogicInit
                0x4704c7d4                NAND_LogicExit
                0x4704c800                NAND_build_all_partition
                0x4704c8b8                max_badblk
                0x4704c8c4                cal_real_chip
                0x4704c904                get_bad_blk_marked_page
                0x4704c94c                mark_bad_block
                0x4704ca7c                NAND_VersionGet
                0x4704cab0                NAND_VersionCheck
                0x4704cc84                NAND_EraseBootBlocks
                0x4704ccfc                NAND_EraseChip
                0x4704cfcc                NAND_EraseChip_force
                0x4704d278                NAND_BadBlockScan
                0x4704d610                NAND_UbootInit
                0x4704d670                NAND_UbootExit
                0x4704d674                NAND_UbootProbe
                0x4704d6a8                NAND_UbootRead
                0x4704d6ac                NAND_UbootWrite
                0x4704d6b0                NAND_Uboot_Erase
                0x4704d77c                NAND_Uboot_Force_Erase
                0x4704d7bc                burn_boot0_1k_mode
                0x4704d92c                burn_boot0_lsb_mode
                0x4704db78                burn_boot0_lsb_FF_mode
                0x4704de6c                burn_boot0_1k_fullpage_mode
                0x4704e024                NAND_BurnBoot0
                0x4704e0a4                burn_uboot_in_one_blk
                0x4704e34c                burn_uboot_in_many_blks
                0x4704e4e8                NAND_BurnUboot
                0x4704e584                NAND_GetParam_store
                0x4704e5e8                NAND_FlushCache
 .text          0x4704e5ec     0x3640 net/libnet.o
                0x4704e9ac                BootpRequest
                0x4704ebe8                cpu_eth_init
                0x4704ec48                eth_parse_enetaddr
                0x4704ec9c                eth_getenv_enetaddr
                0x4704ecf8                eth_setenv_enetaddr
                0x4704ed2c                eth_getenv_enetaddr_by_index
                0x4704ed7c                eth_get_dev
                0x4704ed8c                eth_get_dev_by_name
                0x4704ee10                eth_get_dev_by_index
                0x4704ee58                eth_get_dev_index
                0x4704eea8                eth_write_hwaddr
                0x4704eff4                eth_register
                0x4704f078                eth_initialize
                0x4704f20c                eth_halt
                0x4704f23c                eth_send
                0x4704f274                eth_rx
                0x4704f2a0                eth_try_another
                0x4704f318                eth_init
                0x4704f3e4                eth_set_current
                0x4704f474                eth_get_name
                0x4704f518                NetSetHandler
                0x4704f528                NetSetTimeout
                0x4704f558                NetStartAgain
                0x4704f660                NetSendPacket
                0x4704f664                NetCksum
                0x4704f698                NetCksumOk
                0x4704f6b8                NetEthHdrSize
                0x4704f6f4                NetSetEther
                0x4704f798                NetReceive
                0x4704fc68                ArpRequest
                0x4704fd58                ArpTimeoutCheck
                0x4704fdc4                PingSend
                0x4704fefc                NetSetIP
                0x4704fff4                NetSendUDPPacket
                0x4705012c                copy_filename
                0x47050170                random_port
                0x4705018c                ip_to_string
                0x470501c0                VLAN_to_string
                0x4705020c                string_to_VLAN
                0x47050254                getenv_VLAN
                0x47050264                NetLoop
                0x47051228                NfsStart
                0x47051948                TftpStart
 .text          0x47051c2c     0x4b78 sprite/libsprite.o
                0x47051c2c                add_sum
                0x47051c9c                sunxi_sprite_part_rawdata_verify
                0x47051d98                sunxi_sprite_part_sparsedata_verify
                0x47051d9c                sunxi_sprite_generate_checksum
                0x47051e20                sunxi_sprite_verify_checksum
                0x47051eb0                sunxi_sprite_verify_mbr
                0x47052040                sunxi_sprite_verify_dlmap
                0x47052080                initqueue
                0x47052130                destroyqueue
                0x47052160                resetqueue
                0x470521b4                enqueue
                0x470521b8                outqueue
                0x470521bc                isqueueempty
                0x470521d4                isqueuefull
                0x470521fc                inqueue_query
                0x47052224                inqueue_ex
                0x47052250                outqueue_query
                0x47052268                outqueue_ex
                0x4705229c                sunxi_queue_init
                0x470522e4                sunxi_queue_destroy
                0x470522f4                sunxi_queue_reset
                0x47052304                sunxi_queue_isempty
                0x47052314                sunxi_queue_isfull
                0x47052324                sunxi_inqueue_query
                0x47052338                sunxi_queue_in
                0x47052348                sunxi_outqueue_query
                0x47052364                sunxi_queue_out
                0x4705291c                sprite_card_firmware_start
                0x47052924                sprite_card_firmware_probe
                0x47052948                sprite_card_fetch_download_map
                0x470529cc                sprite_card_fetch_mbr
                0x47052a50                sunxi_sprite_deal_part
                0x47052ff4                sunxi_sprite_deal_uboot
                0x470530d4                sunxi_sprite_deal_boot0
                0x470531c8                card_download_uboot
                0x470531ec                card_download_boot0
                0x47053210                card_upload_boot0
                0x4705323c                card_download_standard_mbr
                0x4705340c                card_erase
                0x47053678                sunxi_card_fill_boot0_magic
                0x4705380c                sunxi_sprite_deal_part_from_sysrevoery
                0x47053984                __imagehd
                0x470539a0                sunxi_sprite_deal_fullimg
                0x47053c94                get_code_key
                0x47053cd8                init_code
                0x47053d48                encode
                0x47053d60                decode
                0x47053d8c                exit_code
                0x47053d94                TFInitial
                0x47053e0c                TFDecode
                0x47053e5c                TFUnInitial
                0x47053e84                qp
                0x47053efc                gen_qtab
                0x47053f40                gen_mtab
                0x47054010                h_fun
                0x47054170                gen_mk_tab
                0x470544e4                mds_rem
                0x4705453c                twofish_new_set_key
                0x47054668                twofish_new_decrypt
                0x47054854                unsparse_probe
                0x470548e0                unsparse_direct_write
                0x47054bfc                unsparse_checksum
                0x47054c0c                sunxi_set_secure_mode
                0x47054c0c                __sunxi_set_secure_mode
                0x47054c14                sunxi_sprite_download_mbr
                0x47054cc8                sunxi_sprite_download_uboot
                0x47054e40                sunxi_sprite_download_boot0
                0x470550d0                Img_Open
                0x470551d8                Img_GetSize
                0x47055214                Img_OpenItem
                0x470552d8                Img_GetItemSize
                0x4705531c                Img_GetItemStart
                0x47055398                Img_ReadItem
                0x47055474                Img_CloseItem
                0x470554a0                Img_Close
                0x470554fc                sunxi_sprite_store_part_data
                0x470556b0                sunxi_sprite_restore_part_data
                0x47055820                sunxi_sprite_probe_prvt
                0x4705588c                sunxi_sprite_erase_private_key
                0x470559a8                sunxi_card_sprite_main
                0x47055f18                sunxi_sprite_erase_flash
                0x47056154                sunxi_sprite_force_erase_key
                0x470561f4                Img_Open_from_sysrecovery
                0x470562f8                card_part_info
                0x47056400                sprite_form_sysrecovery
                0x47056614                sprite_led_init
                0x47056714                sprite_led_exit
 .text          0x470567a4     0x6f40 usb_sunxi/libsunxi_usb.o
                0x470567a4                sunxi_usb_dev_register
                0x47056864                usb_dma_init
                0x47056878                usb_dma_request
                0x470568b4                usb_dma_release
                0x470568d4                usb_dma_setting
                0x47056910                usb_dma_set_pktlen
                0x47056944                usb_dma_start
                0x47056980                usb_dma_stop
                0x470569ac                usb_dma_int_query
                0x470569bc                usb_dma_int_clear
                0x47056b80                sunxi_usb_irq
                0x470572f0                sunxi_usb_init
                0x47057594                sunxi_usb_exit
                0x4705762c                sunxi_udc_ep_reset
                0x47057630                sunxi_udc_start_recv_by_dma
                0x470576ac                sunxi_udc_send_setup
                0x470576f4                sunxi_udc_set_configuration
                0x470576fc                sunxi_udc_set_address
                0x47057744                sunxi_udc_send_data
                0x470577dc                sunxi_udc_get_ep_max
                0x470577ec                sunxi_udc_get_ep_in_type
                0x470577f4                sunxi_udc_get_ep_out_type
                0x470577fc                sunxi_usb_main_loop
                0x47057878                sunxi_usb_extern_loop
                0x47057dd4                sunxi_burn_part_verify
                0x47057e50                burn_part_probe
                0x4705bc88                buf_queue_init
                0x4705bdf4                buf_queue_exit
                0x4705be6c                buf_queue_empty
                0x4705be84                buf_queue_full
                0x4705beac                buf_queue_free_size
                0x4705becc                buf_queue_get_page_size
                0x4705bedc                buf_enqueue
                0x4705bf58                buf_dequeue
                0x4705bfc0                efex_queue_init
                0x4705c038                efex_queue_exit
                0x4705c05c                efex_queue_write_one_page
                0x4705c0b0                efex_queue_write_all_page
                0x4705c118                efex_save_buff_to_queue
                0x4705c7dc                sunxi_probe_axp_each_volt
                0x4705c954                replace_boot_logo
                0x4705cb8c                read_file
 .text          0x4705d6e4      0x57c board/sunxi/sun8iw5/libsun8iw5.o
                0x4705d6e4                board_init
                0x4705d708                dram_init_banksize
                0x4705d770                dram_init
                0x4705da6c                board_mmc_init
                0x4705da80                board_mmc_pre_init
                0x4705da94                board_mmc_get_num
                0x4705da9c                board_mmc_set_num
                0x4705daa4                cpu0_set_detected_paras
                0x4705daac                board_eth_init
 .text          0x4705dc60     0x7074 board/sunxi/libsunxi.o
                0x4705df14                sunxi_flush_allcaches
                0x4705df28                __mmc_exit
                0x4705df30                sunxi_board_close_source
                0x4705df60                sunxi_board_restart
                0x4705dfa8                sunxi_board_shutdown
                0x4705e000                sunxi_board_run_fel
                0x4705e064                sunxi_board_run_fel_eraly
                0x4705e0b4                sunxi_update_subsequent_processing
                0x4705e140                fastboot_partition_init
                0x4705e38c                check_uart_input
                0x4705e430                gpio_control
                0x4705e490                write_usb_recovery_to_misc
                0x4705e52c                check_physical_key_early
                0x4705e66c                respond_physical_key_action
                0x4705e6a8                modify_uboot_uart
                0x4705e8b8                modify_system_uart
                0x4705ea8c                change_to_debug_mode
                0x4705eae4                check_update_key
                0x4705ee38                check_android_misc
                0x4705f3ac                board_late_init
                0x4705f3c4                get_debugmode_flag
                0x4705f424                __usb_probe_vbus_type
                0x4705f42c                power_limit_init
                0x4705f4fc                board_display_layer_request
                0x4705f508                board_display_layer_release
                0x4705f510                board_display_wait_lcd_open
                0x4705f574                board_display_wait_lcd_close
                0x4705f5d8                board_display_set_exit_mode
                0x4705f634                board_display_layer_open
                0x4705f668                board_display_layer_close
                0x4705f69c                board_display_layer_para_set
                0x4705f6d8                board_display_show_until_lcd_open
                0x4705f710                board_display_show
                0x4705f724                board_display_framebuffer_set
                0x4705f848                board_display_set_alpha_mode
                0x4705f860                board_display_framebuffer_change
                0x4705f868                board_display_device_open
                0x4705f8a4                board_display_setenv
                0x4705f8c4                borad_display_get_screen_width
                0x4705f8f0                borad_display_get_screen_height
                0x4705fa08                usb_detect_enter
                0x4705fb6c                usb_detect_exit
                0x4705fba8                usb_detect_for_charge
                0x4705fbc4                get_serial_num_from_file
                0x4705fd10                get_serial_num_from_chipid
                0x4705fd98                sunxi_set_serial_num
                0x4705fe90                check_update_key_gpio
                0x4705ff38                board_status_probe
                0x47060138                sprite_cartoon_screen_set
                0x470601e4                sprite_cartoon_test
                0x4706037c                do_sunxi_screen_char
                0x47060380                sprite_cartoon_create
                0x4706046c                sprite_cartoon_upgrade
                0x4706049c                sprite_cartoon_destroy
                0x470604b8                sprite_cartoon_progressbar_create
                0x47060568                sprite_cartoon_progressbar_config
                0x470605b0                sprite_cartoon_progressbar_active
                0x47060614                sprite_cartoon_progressbar_destroy
                0x47060658                sprite_cartoon_progressbar_upgrate
                0x47060714                sprite_cartoon_ui_draw_hollowrectangle
                0x470607e8                sprite_cartoon_ui_draw_solidrectangle
                0x47060894                sprite_cartoon_ui_draw_line
                0x47060b40                sprite_cartoon_ui_draw_lineto
                0x47060b78                sprite_cartoon_ui_draw_point
                0x47060ba8                sprite_cartoon_ui_set_color
                0x47060bbc                sprite_cartoon_ui_get_color
                0x47060bcc                sprite_cartoon_ui_moveto
                0x47060be4                sprite_cartoon_ui_clear
                0x47060c08                battery_charge_cartoon_init
                0x47060da0                battery_charge_cartoon_exit
                0x47060df0                battery_charge_cartoon_rate
                0x47060e64                battery_charge_cartoon_reset
                0x47060e88                battery_charge_cartoon_degrade
                0x47060f34                sprite_uichar_init
                0x47061058                sprite_uichar_printf
                0x470611e0                open_font
                0x470612b4                close_font
                0x470612fc                check_change_line
                0x47061354                draw_bmp_ulc
                0x47061420                draw_cursor
                0x470615c8                SFTE_New_Face
                0x470617dc                SFTE_Done_Face
                0x4706181c                SFTE_Set_Pixel_Sizes
                0x4706199c                SFTE_Get_Pixel_Sizes
                0x470619d4                SFTE_Get_Pixel_Size_List
                0x47061a3c                SFTE_Get_Pixel_Size_Count
                0x47061a54                SFTE_Get_Glyph
                0x47061c20                SFTE_Get_XAdvance
                0x47061cb0                sunxi_keydata_burn_by_usb
                0x47061df8                sunxi_partition_get_total_num
                0x47061e10                sunxi_partition_get_name
                0x47061e58                sunxi_partition_get_offset
                0x47061e88                sunxi_partition_get_size
                0x47061eb8                sunxi_partition_get_offset_byname
                0x47061f24                sunxi_partition_get_partno_byname
                0x47061f80                sunxi_partition_get_size_byname
                0x47061fec                sunxi_partition_get_info_byname
                0x47062074                sunxi_partition_fetch_mbr
                0x47062090                sunxi_partition_refresh
                0x470620d8                sunxi_partition_init
                0x47062280                sw_cfg_get_int
                0x470622b0                sw_cfg_get_str
                0x470622fc                script_parser_init
                0x4706231c                script_get_length
                0x47062328                script_parser_exit
                0x47062338                script_parser_subkey
                0x470623e0                script_parser_fetch_subkey_start
                0x47062490                script_parser_fetch_subkey_next
                0x47062548                script_parser_fetch
                0x47062758                script_parser_fetch_ex
                0x47062994                script_parser_patch_all
                0x47062a6c                script_parser_patch
                0x47062c80                script_parser_subkey_count
                0x47062d24                script_parser_mainkey_count
                0x47062d38                script_parser_mainkey_get_gpio_count
                0x47062e1c                script_parser_mainkey_get_gpio_cfg
                0x47062f70                sw_gpio_init
                0x47062f78                gpio_exit
                0x47062f80                gpio_request_early
                0x470635c4                gpio_request
                0x47063c64                gpio_request_ex
                0x47063d04                gpio_request_simple
                0x47063db8                gpio_release
                0x47064044                gpio_get_all_pin_status
                0x47064390                gpio_get_one_pin_status
                0x47064584                gpio_set_one_pin_status
                0x47064778                gpio_set_one_pin_io_status
                0x47064850                gpio_set_one_pin_pull
                0x47064928                gpio_set_one_pin_driver_level
                0x47064a00                gpio_read_one_pin_value
                0x47064b00                gpio_write_one_pin_value
                0x47064c38                upper
                0x47064c58                lower
                0x47064c78                sunxi_dump
 .text          0x47064cd4      0x864 nand_sunxi/sun8iw5/libnand-sun8iw5(nftl_uboot_interface.o)
                0x47064cd4                nand_ftl_exit
                0x47064d04                print_all_nftl_blk
                0x47064d38                get_nftl_num
                0x47064d5c                get_nftl_cap
                0x47064d84                get_first_nftl_cap
                0x47064d98                nftl_read
                0x47064e08                nftl_write
                0x47064e78                nftl_discard
                0x47064ee4                nftl_flush_write_cache
                0x47064f1c                recovery_panic_data
                0x470653fc                nftl_add
                0x4706548c                nftl_build_one
                0x470654ec                nftl_build_all
 .text          0x47065538     0x114c nand_sunxi/sun8iw5/libnand-sun8iw5(nand_format.o)
                0x47065538                _CalculatePhyOpPar
                0x470655fc                ClearNandStruct
                0x47065610                _ReadCheckSpare
                0x47065800                _WaitAllRbReady
                0x470658c0                _ChangeNandOpSta
                0x4706593c                _VirtualPageRead
                0x47065ad0                PHY_WaitAllRbReady
                0x47065ae4                PHY_VirtualPageRead
                0x47065b84                PHY_VirtualPageWrite
                0x47065e2c                PHY_VirtualBlockErase
                0x47065f28                FMT_NandSorting_IsBadblk
                0x47065fac                PHY_VirtualBadBlockCheck
                0x470662f0                PHY_VirtualBadBlockMark
                0x47066538                FMT_Init
                0x4706665c                FMT_Exit
 .text          0x47066684     0x6d2c nand_sunxi/sun8iw5/libnand-sun8iw5(nand_phy.o)
                0x470666d0                _cal_block_in_chip
                0x4706675c                _read_single_page_seq
                0x4706699c                _read_single_page_seq_16k
                0x47066bdc                _read_single_page_cfg
                0x47066e24                _read_single_page_1K
                0x4706704c                _read_single_page_1st_1K_normal_ecc
                0x47067278                _read_single_page_spare
                0x47067ec8                _read_single_page_spare_first
                0x470680bc                _read_single_page_spare_wait
                0x4706821c                PHY_SimpleRead_Seq
                0x47068230                PHY_SimpleRead_Seq_16K
                0x47068244                PHY_SimpleRead_CFG
                0x4706825c                PHY_SimpleRead_1K
                0x47068270                PHY_SimpleRead_1KCurCH
                0x47068278                PHY_SimpleRead_1st1K
                0x4706828c                PHY_SimpleRead_1st1KCurCH
                0x47068294                PHY_BlockErase
                0x47068604                _read_sectors
                0x47068fe8                _read_sectors_first_new
                0x47069664                _read_sectors_first
                0x4706a04c                _read_sectors_wait
                0x4706a054                _read_sectors_v2_first
                0x4706a928                _read_sectors_v2_wait
                0x4706a930                _two_plane_read
                0x4706aba0                send_flag
                0x4706abc8                PHY_PageRead
                0x4706b370                _cal_addr_in_chip_for_spare
                0x4706b434                _read_sectors_for_spare
                0x4706bcc0                PHY_PageReadSpare
                0x4706c20c                PHY_FreePageCheck
                0x4706c2e0                PHY_PageWrite
                0x4706c694                _single_copy_back
                0x4706c85c                _multi_copy_back
                0x4706cbe0                PHY_PageCopyback
                0x4706ccd8                PHY_ScanDDRParam
                0x4706cef8                PHY_ReadNandUniqueId
                0x4706d0d8                PHY_Nand_Sorting_scan_badblock_info
                0x4706d204                PHY_NAND_Sorting_Init
                0x4706d270                PHY_Nand_Sorting_IsBadblock
                0x4706d2f8                PHY_Nand_Sorting_IsBadblock_superblk
 .text          0x4706d3b0     0x1920 nand_sunxi/sun8iw5/libnand-sun8iw5(nand_physic_interface.o)
                0x4706d3b0                NandHwInit
                0x4706d564                GetUbootStartBlock
                0x4706d578                GetUbootNextBlock
                0x4706d58c                GetLogicStartBlock
                0x4706d5a0                NandHwExit
                0x4706d5b4                NandHwNormalStandby
                0x4706d5c4                NandHwNormalResume
                0x4706d5d4                NandHwSuperStandby
                0x4706d714                NandHwSuperResume
                0x4706da28                NandHwShutDown
                0x4706dad0                NandHw_DbgInfo
                0x4706dfac                PHY_SimpleBad
                0x4706e058                print_uboot_info
                0x4706e160                uboot_info_init
                0x4706e32c                nand_read_uboot_one
                0x4706e604                nand_write_uboot_one
                0x4706e894                nand_clean_uboot_one
                0x4706e9ec                nand_check_uboot
                0x4706ec44                nand_read_nboot_one
                0x4706ec48                nand_write_nboot_one
                0x4706ec4c                nand_check_nboot
                0x4706ec54                check_phyisc
 .text          0x4706ecd0     0x1a60 nand_sunxi/sun8iw5/libnand-sun8iw5(nand_scan.o)
                0x4706ecd0                NAND_GetPlaneCnt
                0x4706ece0                NAND_GetBlankBlockFlag
                0x4706ecf0                NAND_GetPageSize
                0x4706ed04                NAND_GetLogicPageSize
                0x4706ed28                NAND_GetFactoryBadBlockSize
                0x4706ed54                NAND_GetPageCntPerBlk
                0x4706ed64                NAND_GetBlkCntPerChip
                0x4706ed7c                NAND_GetChipCnt
                0x4706ed8c                NAND_GetChipConnect
                0x4706ed9c                NAND_GetBadBlockFlagPos
                0x4706eda4                NAND_GetReadRetryType
                0x4706edb4                NAND_GetValidBlkRatio
                0x4706edc4                NAND_SetValidBlkRatio
                0x4706eddc                NAND_GetFrequencePar
                0x4706edec                NAND_SetFrequencePar
                0x4706ee04                NAND_GetBlkCntOfDie
                0x4706ee14                NAND_GetDieSkipFlag
                0x4706ee28                NAND_GetChannelCnt
                0x4706ee38                NAND_GetOperationOpt
                0x4706ee48                NAND_GetCurrentCH
                0x4706ee58                NAND_SetCurrentCH
                0x4706ee68                NAND_GetNandVersion
                0x4706ee74                NAND_GetVersion
                0x4706ee88                NAND_GetNandVersionDate
                0x4706ee94                NAND_GetParam
                0x4706eff0                NAND_GetFlashInfo
                0x4706f034                NAND_GetLsbpagetype
                0x4706f03c                Nand_Is_lsb_page
                0x4706f044                NAND_GetLsbblksize
                0x4706f060                NAND_Is_Blank
                0x4706f1a4                NAND_GetLsbpages
                0x4706f1b4                _GetOldPhysicArch
                0x4706f3a8                _SetNewPhysicArch
                0x4706f5e8                _UpdateExtMultiPlanePara
                0x4706f754                _UpdateExtAccessFreqPara
                0x4706f838                NAND_SetPhyArch_V3
                0x4706f84c                NAND_UpdatePhyArch
                0x4706f8e0                NAND_ReadPhyArch
                0x4706f91c                _SearchNandArchi
                0x4706fb78                SCN_AnalyzeNandSystem
 .text          0x47070730     0x4f7c nand_sunxi/sun8iw5/libnand-sun8iw5(nand_simple_r.o)
                0x47070730                _add_cmd_list
                0x47070768                _cal_addr_in_chip
                0x47070828                _cal_real_chip
                0x47070930                _cal_real_rb
                0x470709ac                _read_status
                0x47070a34                _phy_read_status
                0x47070aec                _wait_rb_ready
                0x47070b3c                _wait_rb_ready_int
                0x47070bb8                _pending_dma_irq_sem
                0x47070bbc                _random_seed_init
                0x47070bc0                _cal_random_seed
                0x47070bd8                _set_nand_feature
                0x47070c64                _get_nand_feature
                0x47070cf0                _cal_nand_onfi_timing_mode
                0x47070e04                _setup_nand_onfi_ddr2_para
                0x47070ec4                _setup_nand_onfi_driver_strength
                0x47070f50                _setup_nand_onfi_vendor_specific_feature
                0x4707102c                _change_nand_onfi_timing_mode
                0x47071138                _setup_nand_toggle_ddr2_para
                0x470711f8                _setup_nand_toggle_driver_strength
                0x47071294                _setup_nand_toggle_vendor_specific_feature
                0x470712fc                _setup_ndfc_ddr2_para
                0x4707138c                _set_ndfc_def_timing_param
                0x470713e8                _check_scan_data
                0x47071668                _change_nand_parameter
                0x47072000                _get_right_timing_para
                0x470725e0                _read_single_page_first
                0x470727e0                PHY_Init
                0x470728f0                PHY_SetDefaultParam
                0x470729dc                PHY_Readretry_reset
                0x47072a5c                PHY_ChangeMode
                0x47073258                PHY_Exit
                0x470734d8                PHY_ResetChip
                0x47073610                PHY_ResetChip_CurCH
                0x470736c4                _read_single_page
                0x470740f8                _read_single_page_wait
                0x47074188                PHY_SyncResetChip_CurCH
                0x47074280                PHY_SyncResetChip
                0x470743c8                PHY_ReadNandId
                0x4707455c                PHY_CheckWp
                0x47074628                _pending_rb_irq_sem
                0x4707462c                _do_irq
                0x47074630                PHY_SimpleRead
                0x47074644                PHY_SimpleRead_CurCH
                0x4707464c                PHY_SimpleRead_2CH
                0x47074708                PHY_SimpleCheckBadBlock_Sandisk_2CH
                0x4707479c                PHY_SynchBank
                0x470749b4                _get_normal_uboot_offset
                0x470749bc                _get_secure_uboot_offset
                0x470749c4                _get_uboot_offset
                0x470749e0                _is_normal_uboot_magic
                0x47074a10                _is_secure_uboot_magic
                0x47074a2c                _is_uboot_magic
                0x47074a64                _check_magic_physic_info
                0x47074a98                _check_sum_physic_info
                0x47074b2c                _cal_sum_physic_info
                0x47074bb4                Physic_Info_Get_Offset
                0x47074cbc                Physic_Info_Get_One_Copy
                0x47074f08                Clean_Physic_Info
                0x47074f4c                is_uboot_block
                0x47074fc0                Physic_Info_Read
                0x470750d0                Set_Hynix_Special_Info
                0x47075190                Physic_Info_Add_To_Uboot_Tail
                0x47075244                Get_Hynix_Special_Info
                0x47075358                PHY_GetDefaultParam
 .text          0x470756ac     0x1518 nand_sunxi/sun8iw5/libnand-sun8iw5(nand_simple_w.o)
                0x470756ac                _write_single_page
                0x47075870                _write_single_page_first
                0x470759dc                _write_single_page_wait
                0x47075a54                _write_single_page_seq
                0x47075c14                _write_single_page_seq_16k
                0x47075dd4                _write_single_page_0xff
                0x47075ef4                _write_single_page_0xff_8K
                0x47076014                _write_single_page_cfg
                0x470761a4                _write_single_page_1K
                0x4707632c                _erase_single_block
                0x47076430                _check_badblock_sandisk
                0x47076538                PHY_SimpleWrite
                0x470765c4                PHY_SimpleWrite_CurCH
                0x47076644                PHY_SimpleWrite_Seq
                0x470766d0                PHY_SimpleWrite_Seq_16K
                0x4707675c                PHY_SimpleWrite_0xFF
                0x470767e8                PHY_SimpleWrite_0xFF_8K
                0x47076874                PHY_SimpleWrite_CFG
                0x47076914                PHY_SimpleWrite_1K
                0x470769a0                PHY_SimpleWrite_1KCurCH
                0x47076a20                PHY_SimpleErase
                0x47076a98                PHY_SimpleErase_CurCH
                0x47076b00                PHY_SimpleErase_2CH
 .text          0x47076bc4     0x1dd8 nand_sunxi/sun8iw5/libnand-sun8iw5(nfc_reg.o)
                0x47076bc4                ndfc_init_version
                0x47076c10                ndfc_init_dma_mode
                0x47076c9c                NDFC_READ_REG_CTL
                0x47076cf0                NDFC_WRITE_REG_CTL
                0x47076d38                NDFC_READ_REG_ST
                0x47076d8c                NDFC_WRITE_REG_ST
                0x47076dd4                NDFC_READ_REG_INT
                0x47076e28                NDFC_WRITE_REG_INT
                0x47076e70                NDFC_READ_REG_TIMING_CTL
                0x47076ec4                NDFC_WRITE_REG_TIMING_CTL
                0x47076f0c                NDFC_READ_REG_TIMING_CFG
                0x47076f60                NDFC_WRITE_REG_TIMING_CFG
                0x47076fa8                NDFC_READ_REG_ADDR_LOW
                0x47076ffc                NDFC_WRITE_REG_ADDR_LOW
                0x47077044                NDFC_READ_REG_ADDR_HIGH
                0x47077098                NDFC_WRITE_REG_ADDR_HIGH
                0x470770e0                NDFC_READ_REG_SECTOR_NUM
                0x4707712c                NDFC_WRITE_REG_SECTOR_NUM
                0x4707716c                NDFC_READ_REG_BLOCK_MASK
                0x470771b8                NDFC_WRITE_REG_BLOCK_MASK
                0x470771f8                NDFC_READ_REG_CNT
                0x4707724c                NDFC_WRITE_REG_CNT
                0x47077294                NDFC_READ_REG_CMD
                0x470772e8                NDFC_WRITE_REG_CMD
                0x47077330                NDFC_READ_REG_RCMD_SET
                0x47077384                NDFC_WRITE_REG_RCMD_SET
                0x470773cc                NDFC_READ_REG_WCMD_SET
                0x47077420                NDFC_WRITE_REG_WCMD_SET
                0x47077468                NDFC_READ_REG_IO_DATA
                0x470774bc                NDFC_WRITE_REG_IO_DATA
                0x47077504                NDFC_READ_REG_ECC_CTL
                0x47077558                NDFC_WRITE_REG_ECC_CTL
                0x470775a0                NDFC_READ_REG_ECC_ST
                0x470775ec                NDFC_WRITE_REG_ECC_ST
                0x4707762c                NDFC_READ_REG_ERR_ST
                0x47077678                NDFC_WRITE_REG_ERR_ST
                0x470776b8                NDFC_READ_REG_PAT_ST
                0x47077704                NDFC_WRITE_REG_PAT_ST
                0x47077744                NDFC_READ_REG_DEBUG
                0x470777b0                NDFC_WRITE_REG_DEBUG
                0x47077810                NDFC_READ_REG_RDATA_ST
                0x4707785c                NDFC_WRITE_REG_RDATA_ST
                0x4707789c                NDFC_READ_REG_ECC_CNT0
                0x47077908                NDFC_WRITE_REG_ECC_CNT0
                0x47077968                NDFC_READ_REG_ECC_CNT1
                0x470779d4                NDFC_WRITE_REG_ECC_CNT1
                0x47077a34                NDFC_READ_REG_ECC_CNT2
                0x47077aa0                NDFC_WRITE_REG_ECC_CNT2
                0x47077b00                NDFC_READ_REG_ECC_CNT3
                0x47077b6c                NDFC_WRITE_REG_ECC_CNT3
                0x47077bcc                NDFC_READ_REG_ECC_CNT4
                0x47077c18                NDFC_WRITE_REG_ECC_CNT4
                0x47077c58                NDFC_READ_REG_ECC_CNT5
                0x47077ca4                NDFC_WRITE_REG_ECC_CNT5
                0x47077ce4                NDFC_READ_REG_ECC_CNT6
                0x47077d30                NDFC_WRITE_REG_ECC_CNT6
                0x47077d70                NDFC_READ_REG_ECC_CNT7
                0x47077dbc                NDFC_WRITE_REG_ECC_CNT7
                0x47077dfc                NDFC_READ_REG_USER_DATA
                0x47077e6c                NDFC_WRITE_REG_USER_DATA
                0x47077ed4                NDFC_READ_REG_EFNAND_STATUS
                0x47077f40                NDFC_WRITE_REG_EFNAND_STATUS
                0x47077fa0                NDFC_READ_REG_SPARE_AREA
                0x4707800c                NDFC_WRITE_REG_SPARE_AREA
                0x4707806c                NDFC_READ_REG_PATTERN_ID
                0x470780b8                NDFC_WRITE_REG_PATTERN_ID
                0x470780f8                NDFC_READ_REG_PATTERN_ID_0
                0x47078144                NDFC_WRITE_REG_PATTERN_ID_0
                0x47078184                NDFC_READ_REG_PATTERN_ID_1
                0x470781d0                NDFC_WRITE_REG_PATTERN_ID_1
                0x47078210                NDFC_READ_REG_MDMA_ADDR
                0x4707825c                NDFC_WRITE_REG_MDMA_ADDR
                0x4707829c                NDFC_READ_REG_DMA_CNT
                0x470782e8                NDFC_WRITE_REG_DMA_CNT
                0x47078328                NDFC_READ_REG_SPEC_CTL
                0x47078374                NDFC_WRITE_REG_SPEC_CTL
                0x470783b4                NDFC_READ_REG_DMA_DL_BASE
                0x47078400                NDFC_WRITE_REG_DMA_DL_BASE
                0x47078440                NDFC_READ_REG_DMA_INT_STA
                0x4707848c                NDFC_WRITE_REG_DMA_INT_STA
                0x470784cc                NDFC_READ_REG_DMA_INT_MASK
                0x47078518                NDFC_WRITE_REG_DMA_INT_MASK
                0x47078558                NDFC_READ_REG_DMA_CUR_DESC
                0x470785a4                NDFC_WRITE_REG_DMA_CUR_DESC
                0x470785e4                NDFC_READ_REG_DMA_CUR_BUF
                0x47078630                NDFC_WRITE_REG_DMA_CUR_BUF
                0x47078670                NDFC_READ_RAM0_W
                0x470786c8                NDFC_READ_RAM0_B
                0x47078720                NDFC_WRITE_RAM0_W
                0x47078770                NDFC_WRITE_RAM0_B
                0x470787c0                NDFC_READ_RAM1_W
                0x47078818                NDFC_READ_RAM1_B
                0x47078870                NDFC_WRITE_RAM1_W
                0x470788c0                NDFC_WRITE_RAM1_B
                0x47078910                NDFC_READ_REG_INT_DEBUG
                0x4707895c                NDFC_WRITE_REG_INT_DEBUG
 .text          0x4707899c     0x4498 nand_sunxi/sun8iw5/libnand-sun8iw5(nfc_r.o)
                0x4707899c                NFC_InitDDRParam
                0x470789b0                nfc_repeat_mode_enable
                0x470789d0                nfc_repeat_mode_disable
                0x470789f0                _wait_cmdfifo_free
                0x47078a34                _wait_cmd_finish
                0x47078a9c                _show_desc_list_cfg
                0x47078aa0                _dma_config_start
                0x47078c74                _wait_dma_end
                0x47078d88                _dma_config_start_v2
                0x47078f58                _wait_dma_end_v2
                0x4707902c                _reset
                0x47079090                _check_ecc
                0x47079200                _disable_ecc
                0x47079214                _enable_ecc
                0x47079244                _enter_nand_critical
                0x4707924c                _exit_nand_critical
                0x47079254                _set_addr
                0x470792a8                _read_in_page_mode
                0x47079458                _read_in_page_mode_first
                0x4707959c                _read_in_page_mode_wait
                0x47079618                _cal_first_valid_bit
                0x47079638                _cal_valid_bits
                0x4707965c                _check_continuous_bits
                0x470796a8                _check_secbitmap_bit
                0x470796f0                _read_secs_in_page_mode
                0x47079d50                _read_eccblks_in_page_mode
                0x47079eb0                _read_secs_in_page_mode_v2
                0x4707a228                NFC_Read
                0x4707a248                NFC_Read_First
                0x4707a24c                NFC_Read_Wait
                0x4707a26c                NFC_ReadSecs
                0x4707a2c0                NFC_ReadSecs_v2
                0x4707a2e0                nfc_set_cmd_register
                0x4707a370                NFC_SetRandomSeed
                0x4707a38c                NFC_RandomEnable
                0x4707a3a4                NFC_RandomDisable
                0x4707a3bc                NFC_GetId
                0x4707a414                NFC_NormalCMD
                0x4707a44c                NFC_GetStatus
                0x4707a494                NFC_ResetChip
                0x4707a508                NFC_SetFeature
                0x4707a5bc                NFC_GetFeature
                0x4707a670                NFC_SelectChip
                0x4707a6b0                NFC_SelectRb
                0x4707a6cc                NFC_DeSelectChip
                0x4707a6d4                NFC_DeSelectRb
                0x4707a6dc                NFC_CheckRbReady
                0x4707a700                NFC_ChangMode
                0x4707a7b8                NFC_GetInterfaceMode
                0x4707a80c                NFC_ChangeInterfaceMode
                0x4707a8c8                NFC_SetEccMode
                0x4707a8e4                NFC_GetEccMode
                0x4707a8f4                NFC_Init
                0x4707a9f4                NFC_Exit
                0x4707aa2c                _vender_get_param
                0x4707aac4                _vender_set_param
                0x4707aea0                _vender_pre_condition
                0x4707af38                _vender_get_param_otp_hynix
                0x4707b1cc                _major_check_byte
                0x4707b320                _get_read_retry_cfg
                0x4707b534                _read_otp_info_hynix
                0x4707b798                _get_rr_value_otp_hynix
                0x4707b848                NFC_ReadRetry
                0x4707be58                NFC_ReadRetryInit
                0x4707c3bc                NFC_GetOTPValue
                0x4707c43c                NFC_GetDefaultParam
                0x4707c618                NFC_SetDefaultParam
                0x4707caa0                NFC_ReadRetry_exit_Toshiba
                0x4707cb80                NFC_ReadRetry_off
                0x4707cbf8                NFC_ReadRetry_Prefix_Sandisk_A19
                0x4707cc1c                NFC_ReadRetry_Enable_Sandisk_A19
                0x4707cc40                NFC_DSP_ON_Sandisk_A19
                0x4707cc64                NFC_Test_Mode_Entry_Sandisk
                0x4707ccec                NFC_Test_Mode_Exit_Sandisk
                0x4707cd10                NFC_Change_LMFLGFIX_NEXT_Sandisk
                0x4707cd60                NFC_ReadRetryExit
                0x4707cd68                NFC_RbIntEnable
                0x4707cd70                NFC_RbIntDisable
                0x4707cd78                NFC_RbIntClearStatus
                0x4707cd80                NFC_RbIntGetStatus
                0x4707cd90                NFC_RbIntOccur
                0x4707cdac                NFC_GetRbSelect
                0x4707cdbc                NFC_GetRbStatus
                0x4707cdf0                NFC_DmaIntEnable
                0x4707cdf8                NFC_DmaIntDisable
                0x4707ce00                NFC_DmaIntClearStatus
                0x4707ce08                NFC_DmaIntGetStatus
                0x4707ce18                NFC_DmaIntOccur
 .text          0x4707ce34     0x1f78 nand_sunxi/sun8iw5/libnand-sun8iw5(nfc_w.o)
                0x4707ce34                _wait_twb
                0x4707ce38                NFC_GetUniqueId
                0x4707ce98                NFC_Write
                0x4707d024                NFC_Write_First
                0x4707d17c                NFC_Write_Wait
                0x4707d1cc                NFC_Write_Seq
                0x4707d36c                NFC_Write_Seq_16K
                0x4707d50c                NFC_Write_0xFF
                0x4707d6f8                NFC_Write_0xFF_8K
                0x4707d8e4                NFC_Write_CFG
                0x4707daac                NFC_Write_1K
                0x4707dc80                NFC_Erase
                0x4707dcb8                NFC_CheckBadBlock_Sandisk
                0x4707dcf0                NFC_CopyBackRead
                0x4707dd28                NFC_CopyBackWrite
                0x4707dd60                _read_in_page_mode_seq
                0x4707df10                _read_in_page_mode_seq_16k
                0x4707e0c0                _read_in_page_mode_cfg
                0x4707e280                _read_in_page_mode_1K
                0x4707e460                _read_in_page_mode_1st_1K_normal_ecc
                0x4707e5d0                _read_in_page_mode_spare
                0x4707e74c                _read_in_page_mode_spare_first
                0x4707e880                _read_in_page_mode_spare_wait
                0x4707e8f4                NFC_Read_Seq
                0x4707e93c                NFC_Read_Seq_16K
                0x4707e984                NFC_Read_CFG
                0x4707e9d4                NFC_Read_1K
                0x4707ea1c                NFC_Read_1st_1K_Normal_Ecc
                0x4707ea64                NFC_Read_Spare
                0x4707eaac                NFC_Read_Spare_First
                0x4707eadc                NFC_Read_Spare_Wait
                0x4707eb00                _read_in_page_mode_sectors
                0x4707eb08                NFC_LSBInit
                0x4707ec20                LSB_GetDefaultParam
                0x4707ec68                LSB_SetDefaultParam
                0x4707ec80                NFC_LSBEnable
                0x4707ecfc                NFC_LSBDisable
                0x4707ed38                NFC_LSBExit
 .text          0x4707edac     0x2198 nand_sunxi/sun8iw5/libnand-sun8iw5(nand_info_init_v2.o)
                0x4707edac                read_partition_v3
                0x4707ee10                print_boot_info
                0x4707eee4                get_no_use_block_v3
                0x4707ef9c                write_mbr_v2
                0x4707f080                read_mbr_v2
                0x4707f16c                check_mbr_v3
                0x4707f270                check_mbr_v2
                0x4707f358                write_partition_v2
                0x4707f428                read_partition_v2
                0x4707f538                check_partition_mbr_v2
                0x4707f57c                read_mbr_partition_v3
                0x4707f5f8                write_factory_block_table_v2
                0x4707f730                print_factory_block_table_v2
                0x4707f774                read_factory_block_v3
                0x4707f870                write_new_block_table_v2_old
                0x4707f960                write_new_block_table_v2_new
                0x4707fa48                write_new_block_table_v2
                0x4707fb3c                write_new_block_table_v2_new_first_build
                0x4707fc24                write_no_use_block_v2
                0x4707fcf4                read_new_bad_block_table_v2_old
                0x4707fe3c                read_new_bad_block_table_v2_new
                0x4707ff44                read_new_bad_block_table_v2
                0x47080040                print_nand_info_v2
                0x470801f8                get_partition_v2
                0x47080304                get_partition_v3
                0x470803ec                new_print_all_partition
                0x47080484                build_all_phy_partition_v2
                0x47080508                nand_info_init_v2
                0x470809b4                nand_info_init_v3
                0x47080d30                nand_info_init
                0x47080e9c                print_mbr_data
 .text          0x47080f44      0x8d0 nand_sunxi/sun8iw5/libnand-sun8iw5(build_phy_partition_v2.o)
                0x47080f44                get_max_free_block_num
                0x47080fcc                launch_build_phy_partition
                0x47081274                print_partition
                0x47081344                change_partition
                0x470813cc                mp_build_phy_partition
                0x47081800                build_phy_partition_v2
 .text          0x47081814      0x304 nand_sunxi/sun8iw5/libnand-sun8iw5(build_nand_partition.o)
                0x47081814                change_block_addr
                0x4708185c                nand_mark_bad_blk
                0x470818c4                nand_is_blk_good
                0x47081918                nand_write_page
                0x47081980                nand_read_page
                0x470819d0                nand_erase_superblk
                0x470819fc                build_nand_partition
                0x47081af8                free_nand_partition
 .text          0x47081b18      0x9e0 nand_sunxi/sun8iw5/libnand-sun8iw5(build_phy_partition.o)
                0x47081b18                BlockErase
                0x47081b44                bitmap_change
                0x47081b84                PageWrite
                0x47081be0                PageRead
                0x47081c3c                WaitAllRb
                0x47081c50                PhysicBlockErase
                0x47081c7c                BlockCheck
                0x47081ca8                is_factory_bad_block
                0x47081d00                is_new_bad_block
                0x47081d58                add_new_bad_block
                0x47081dbc                put_factory_bad_block
                0x47081e50                free_phy_partition
                0x47081e78                print_phy_partition
                0x47081f44                print_all_bad_block
                0x47081fdc                build_phy_partition
                0x47082384                get_next_phy_partition
                0x4708238c                get_disk_from_phy_partition
                0x47082394                get_partitionNO
                0x4708239c                get_phy_partition_num
                0x470823bc                get_phy_partition_from_num
                0x470823dc                erase_phy_partition
                0x47082494                erase_last_phy_partition
 .text          0x470824f8      0xf68 nand_sunxi/sun8iw5/libnand-sun8iw5(nand_info_init.o)
                0x470824f8                test_mbr
                0x47082560                write_mbr
                0x47082614                write_factory_block_table
                0x4708272c                print_factory_block_table
                0x47082770                write_new_block_table
                0x47082860                write_no_use_block
                0x47082908                read_new_bad_block_table
                0x47082a50                print_nand_info
                0x47082b70                calc_crc32
                0x47082c18                build_all_phy_partition
                0x47082ec8                nand_info_init_v1
                0x470832f4                get_head_phy_partition_from_nand_info
                0x470832fc                set_cache_level
                0x47083308                set_capacity_level
                0x47083320                set_read_reclaim_interval
                0x47083328                debug_read_block
                0x470833f8                debug_read_chip
 .text          0x47083460      0x5e4 nand_sunxi/sun8iw5/libnand-sun8iw5(nftl_common.o)
                0x47083460                set_spare_data
                0x47083494                get_spare_data
                0x470834c0                set_oob_logic_page
                0x47083524                set_oob_special_page
                0x4708357c                set_no_use_page
                0x470835b8                set_start_block_flag
                0x4708360c                set_end_block_flag
                0x47083648                get_bad_flag_from_oob
                0x47083664                get_block_used_count_from_oob
                0x47083670                get_logic_page_from_oob
                0x47083688                get_special_data_from_oob
                0x47083694                _nftl_nand_copy_page
                0x47083750                get_erase_count_from_oob
                0x47083768                is_ftl_start_flag_page
                0x47083790                is_ftl_end_flag_page
                0x470837b8                is_panic_info_block
                0x470837e0                is_panic_block_flag_page
                0x47083808                is_ftl_special_data
                0x4708381c                is_ftl_logic_page_data
                0x47083834                is_nouse_page
                0x47083878                is_fill_page
                0x47083898                is_phy_mapping_page
                0x470838b8                is_function_info_page
                0x470838e0                is_power_down_info_page
                0x47083900                get_logic_page_map
                0x4708391c                malloc_logic_page_map
                0x470839f4                free_logic_page_map
                0x47083a24                set_physic_op_par
 .text          0x47083a44     0x42ec nand_sunxi/sun8iw5/libnand-sun8iw5(nftl_build.o)
                0x47083a44                zone_param_init
                0x47083d28                zone_param_exit
                0x47083d64                init_zone_after_first_scan
                0x47083e70                check_bit_nums
                0x47083eb8                is_all_bit_ff
                0x47083ed8                is_all_byte_ff
                0x47083f14                _DumpHexData
                0x47083f90                small_nand_power_off_ecc_error
                0x4708407c                recover_phy_page_mapping
                0x47084208                recover_block_phy_page_mapping
                0x47084304                recover_logic_page_mapping
                0x47084444                do_write_error_in_build_list
                0x47084570                init_nrc
                0x47084608                free_nrc
                0x47084648                mark_free_block
                0x470846d4                erase_block
                0x470847b8                first_scan_all_blocks
                0x47084d40                is_last_phy_block
                0x47084d60                build_zone_list_first
                0x47085068                get_vaild_blocks
                0x470850f0                is_no_use_device
                0x4708522c                is_phy_block_valid
                0x47085248                get_phy_block_addr
                0x4708525c                get_used_page_num
                0x470854fc                cross_talk_rebuild_current_block
                0x4708584c                get_used_page_num_no_crosstalk
                0x47085aac                no_cross_talk_rebuild_current_block
                0x47085e94                init_smart_info
                0x47085f88                get_used_block_count
                0x47085fe0                current_block_ecc_error
                0x470861ac                get_current_used_block
                0x470864ec                second_scan_all_blocks
                0x47086b30                block_last_page_ecc_error
                0x47086dec                print_nftl_zone
                0x470871f8                build_zone_list
                0x47087270                nand_dbg_phy_read
                0x47087370                nand_dbg_phy_read2
                0x47087478                nand_dbg_zone_phy_read
                0x4708759c                nand_dbg_zone_phy_write
                0x4708765c                nand_dbg_phy_write
                0x470876f4                nand_dbg_zone_erase
                0x47087728                nand_dbg_phy_erase
                0x4708772c                nand_dbg_single_phy_erase
                0x47087734                clean_block_list
                0x470877b8                nand_clean_zone_table2
                0x47087928                nand_clean_zone_table
                0x47087958                nand_find_zone_table
                0x470879cc                write_data_to_nand
                0x47087a1c                nand_check_table
                0x47087a7c                write_panic_data
 .text          0x47087d30      0x184 nand_sunxi/sun8iw5/libnand-sun8iw5(nftl_interface.o)
                0x47087d30                nftl_get_zone_cap
                0x47087d38                nftl_set_zone_test
                0x47087d40                nftl_get_zone_priv
                0x47087d48                nftl_get_zone_write_cache_nums
                0x47087d54                print_smart
 .text          0x47087eb4      0x30c nand_sunxi/sun8iw5/libnand-sun8iw5(nftl_init.o)
                0x47087eb4                _nand_sector_read
                0x47087ebc                _nand_sector_write
                0x47087ec4                _nand_flush_sector_write_cache
                0x47087ecc                _shutdown_op
                0x47087ed4                _nand_flush_write_cache
                0x47087edc                _nand_discard
                0x47087ee4                _nand_write
                0x47087eec                _nand_read
                0x47087ef4                nftl_malloc
                0x47087f20                nftl_free
                0x47087f28                add_nftl_blk_list
                0x47087f4c                del_last_nftl_blk
                0x47087f78                nftl_initialize
                0x47088198                nftl_exit
 .text          0x470881c0        0x0 nand_sunxi/sun8iw5/libnand-sun8iw5(nand_id.o)
 .text          0x470881c0      0x778 nand_sunxi/sun8iw5/libnand-sun8iw5(nftl_list.o)
                0x470881c0                add_free_list
                0x47088208                del_free_list
                0x4708823c                del_free_list_by_block
                0x47088284                is_block_in_free_list
                0x470882ac                print_free_list
                0x4708830c                add_block_invalid_list
                0x47088354                del_block_invalid_list
                0x47088380                del_block_invalid_list_by_block
                0x470883c8                is_block_in_invalid_list
                0x470883f0                print_block_invalid_list
                0x47088454                add_block_count_list
                0x4708849c                del_block_count_list
                0x470884b8                del_block_count_by_block
                0x47088500                print_block_count_list
                0x4708854c                put_phy_block_to_free_list
                0x4708858c                out_phy_block_from_free_list
                0x470885c0                get_max_erase_time_from_free_list
                0x47088604                get_block_max_erase_time_from_free_list
                0x4708863c                get_block_max_erase_time_from_invalid_list
                0x47088674                get_block_min_erase_time_from_invalid_list
                0x470886c0                get_block_max_count_from_invalid_list
                0x470886f0                get_block_min_count_from_invalid_list
                0x47088720                out_phy_block_from_free_list_by_block
                0x47088754                out_phy_block_from_free_list_by_erase_time
                0x470887a8                put_phy_block_to_invalid_page_list
                0x470887d8                out_phy_block_from_invalid_page_list
                0x470887f4                out_phy_block_from_invalid_page_list_by_block
                0x47088810                phy_block_from_invalid_page_incr
                0x470888f0                adjust_invaild_list
 .text          0x47088938      0xf60 nand_sunxi/sun8iw5/libnand-sun8iw5(nftl_logic.o)
                0x47088938                _nftl_nand_read_logic_page
                0x47088a18                do_write_error
                0x47088c20                write_phy_data_to_current_block
                0x47088dd0                write_logic_data_to_current_block
                0x47089004                write_data_to_page
                0x47089074                _nftl_discard_logic_page
                0x47089088                get_new_current_block
                0x4708914c                new_block_init_for_write
                0x47089200                do_before_write
                0x47089304                check_invalid_page_right
                0x470893b4                write_phy_page_map_to_current_block
                0x47089470                nftl_ops_init
                0x47089504                current_block_at_last_page
                0x47089524                do_after_write
                0x470895ec                nand_write_data_page
                0x470896a4                nand_write_logic_page_no_gc
                0x470896b8                _nftl_nand_write_logic_page
                0x470896f8                current_block_at_first_page
                0x47089708                fill_no_use_data_to_page
                0x47089824                fill_no_use_data_to_current_block
                0x47089860                fill_no_use_page_to_current_block
 .text          0x47089898      0xc50 nand_sunxi/sun8iw5/libnand-sun8iw5(nftl_gc.o)
                0x47089898                get_empty_gc_node
                0x470898d0                search_gc_node
                0x470898f4                add_to_gc_list_tail
                0x4708992c                del_from_gc_list
                0x47089968                add_prio_gc
                0x470899b4                check_static_wear_leveling
                0x47089aec                prio_gc_one
                0x47089b28                get_total_invalid_page
                0x47089b4c                is_current_blcok
                0x47089b90                garbage_collect_first
                0x47089f74                gc_one
                0x47089fe4                gc_win_block
                0x4708a048                gc_all
                0x4708a07c                garbage_collect
                0x4708a1c4                done_static_wear_leveling
                0x4708a2dc                do_static_wear_leveling
                0x4708a330                do_prio_gc
                0x4708a4bc                prio_gc_all
 .text          0x4708a4e8     0x107c nand_sunxi/sun8iw5/libnand-sun8iw5(nftl_cache.o)
                0x4708a4e8                nftl_cache_init
                0x4708a5f4                nftl_cache_exit
                0x4708a638                nftl_cache_clean
                0x4708a6d4                search_from_cache_read_list
                0x4708a6f8                search_from_cache_write_list
                0x4708a71c                get_empty_cahce_node
                0x4708a760                add_to_cache_read_list_tail
                0x4708a79c                add_to_cache_write_list_tail
                0x4708a7dc                del_from_cache_read_list
                0x4708a820                nand_cache_read
                0x4708aa9c                del_from_cache_write_list
                0x4708aae0                nand_op
                0x4708abec                __nand_write
                0x4708ac4c                __nand_read
                0x4708acac                flush_write_cache_to_nand
                0x4708ad7c                nand_cache_write
                0x4708b0dc                __nand_flush_write_cache
                0x4708b168                nand_discard
                0x4708b2ac                __nand_discard
                0x4708b2e8                __shutdown_op
                0x4708b2f0                print_logic_page_map
                0x4708b368                get_nftl_need_read_claim
                0x4708b3f8                clean_read_reclaim_complete_flag
                0x4708b444                set_nftl_read_claim_complete
                0x4708b47c                get_cold_logic_page
                0x4708b4e0                read_reclaim
 .text          0x4708b564      0x33c nand_sunxi/sun8iw5/libnand-sun8iw5(nftl_start.o)
                0x4708b564                nftl_start
                0x4708b86c                nftl_zone_release
 .text          0x4708b8a0      0x1ec nand_sunxi/sun8iw5/libnand-sun8iw5(nftl_hw_interface.o)
                0x4708b8a0                _nftl_nand_erase_superblk
                0x4708b8ec                _nftl_nand_read_page
                0x4708b970                _nftl_nand_write_page
                0x4708b9f4                _nftl_nand_is_blk_good
                0x4708ba40                _nftl_nand_mark_bad_blk
 .text          0x4708ba8c       0x20 /home/taga/NuttX/brandy-dev-moon/u-boot-2011.09/arch/arm/lib/eabi_compat.o
                0x4708ba8c                raise
                0x4708baa8                __aeabi_unwind_cpp_pr0
 .text          0x4708baac       0x18 /home/taga/NuttX/brandy-dev-moon/gcc-linaro/bin/../lib/gcc/arm-linux-gnueabi/4.6.3/libgcc.a(_lshrdi3.o)
                0x4708baac                __aeabi_llsr
                0x4708baac                __lshrdi3
 .text          0x4708bac4       0x1c /home/taga/NuttX/brandy-dev-moon/gcc-linaro/bin/../lib/gcc/arm-linux-gnueabi/4.6.3/libgcc.a(_ashrdi3.o)
                0x4708bac4                __aeabi_lasr
                0x4708bac4                __ashrdi3
 .text          0x4708bae0       0x18 /home/taga/NuttX/brandy-dev-moon/gcc-linaro/bin/../lib/gcc/arm-linux-gnueabi/4.6.3/libgcc.a(_ashldi3.o)
                0x4708bae0                __aeabi_llsl
                0x4708bae0                __ashldi3
 .text          0x4708baf8      0x370 /home/taga/NuttX/brandy-dev-moon/gcc-linaro/bin/../lib/gcc/arm-linux-gnueabi/4.6.3/libgcc.a(_arm_addsubdf3.o)
                0x4708baf8                __aeabi_drsub
                0x4708bb00                __aeabi_dsub
                0x4708bb00                __subdf3
                0x4708bb04                __adddf3
                0x4708bb04                __aeabi_dadd
                0x4708bd7c                __aeabi_ui2d
                0x4708bd7c                __floatunsidf
                0x4708bd9c                __aeabi_i2d
                0x4708bd9c                __floatsidf
                0x4708bdc0                __extendsfdf2
                0x4708bdc0                __aeabi_f2d
                0x4708bdfc                __aeabi_ul2d
                0x4708bdfc                __floatundidf
                0x4708be0c                __floatdidf
                0x4708be0c                __aeabi_l2d
 .text          0x4708be68      0x424 /home/taga/NuttX/brandy-dev-moon/gcc-linaro/bin/../lib/gcc/arm-linux-gnueabi/4.6.3/libgcc.a(_arm_muldivdf3.o)
                0x4708be68                __aeabi_dmul
                0x4708be68                __muldf3
                0x4708c0bc                __aeabi_ddiv
                0x4708c0bc                __divdf3
 .text          0x4708c28c       0xa0 /home/taga/NuttX/brandy-dev-moon/gcc-linaro/bin/../lib/gcc/arm-linux-gnueabi/4.6.3/libgcc.a(_arm_truncdfsf2.o)
                0x4708c28c                __aeabi_d2f
                0x4708c28c                __truncdfsf2
 .text          0x4708c32c      0x21c /home/taga/NuttX/brandy-dev-moon/gcc-linaro/bin/../lib/gcc/arm-linux-gnueabi/4.6.3/libgcc.a(_arm_addsubsf3.o)
                0x4708c32c                __aeabi_frsub
                0x4708c334                __aeabi_fsub
                0x4708c334                __subsf3
                0x4708c338                __aeabi_fadd
                0x4708c338                __addsf3
                0x4708c498                __aeabi_ui2f
                0x4708c498                __floatunsisf
                0x4708c4a0                __floatsisf
                0x4708c4a0                __aeabi_i2f
                0x4708c4bc                __floatundisf
                0x4708c4bc                __aeabi_ul2f
                0x4708c4cc                __floatdisf
                0x4708c4cc                __aeabi_l2f
 .text          0x4708c548      0x2a0 /home/taga/NuttX/brandy-dev-moon/gcc-linaro/bin/../lib/gcc/arm-linux-gnueabi/4.6.3/libgcc.a(_arm_muldivsf3.o)
                0x4708c548                __mulsf3
                0x4708c548                __aeabi_fmul
                0x4708c6b0                __aeabi_fdiv
                0x4708c6b0                __divsf3
 .text          0x4708c7e8       0x4c /home/taga/NuttX/brandy-dev-moon/gcc-linaro/bin/../lib/gcc/arm-linux-gnueabi/4.6.3/libgcc.a(_arm_fixsfsi.o)
                0x4708c7e8                __fixsfsi
                0x4708c7e8                __aeabi_f2iz
 .text          0x4708c834       0x2c /home/taga/NuttX/brandy-dev-moon/gcc-linaro/bin/../lib/gcc/arm-linux-gnueabi/4.6.3/libgcc.a(_aeabi_uldivmod.o)
                0x4708c834                __aeabi_uldivmod
 .text          0x4708c860        0xc /home/taga/NuttX/brandy-dev-moon/gcc-linaro/bin/../lib/gcc/arm-linux-gnueabi/4.6.3/libgcc.a(_dvmd_lnx.o)
                0x4708c860                __aeabi_ldiv0
                0x4708c860                __aeabi_idiv0
 .text          0x4708c86c       0x5c /home/taga/NuttX/brandy-dev-moon/gcc-linaro/bin/../lib/gcc/arm-linux-gnueabi/4.6.3/libgcc.a(bpabi.o)
                0x4708c86c                __gnu_ldivmod_helper
                0x4708c89c                __gnu_uldivmod_helper
 .text          0x4708c8c8      0x360 /home/taga/NuttX/brandy-dev-moon/gcc-linaro/bin/../lib/gcc/arm-linux-gnueabi/4.6.3/libgcc.a(_divdi3.o)
                0x4708c8c8                __divdi3
 .text          0x4708cc28      0x31c /home/taga/NuttX/brandy-dev-moon/gcc-linaro/bin/../lib/gcc/arm-linux-gnueabi/4.6.3/libgcc.a(_udivdi3.o)
                0x4708cc28                __udivdi3
 *fill*         0x4708cf44        0x4 00
 .text          0x4708cf48      0x278 /home/taga/NuttX/brandy-dev-moon/gcc-linaro/bin/../lib/gcc/arm-linux-gnueabi/4.6.3/libgcc.a(_udivsi3.o)
                0x4708cf48                __udivsi3
                0x4708cf48                __aeabi_uidiv
                0x4708d1a4                __aeabi_uidivmod

.glue_7         0x4708d1c0        0x0
 .glue_7        0x00000000        0x0 linker stubs

.glue_7t        0x4708d1c0        0x0
 .glue_7t       0x00000000        0x0 linker stubs

.vfp11_veneer   0x4708d1c0        0x0
 .vfp11_veneer  0x00000000        0x0 linker stubs

.v4_bx          0x4708d1c0        0x0
 .v4_bx         0x00000000        0x0 linker stubs

.iplt           0x4708d1c0        0x0
 .iplt          0x00000000        0x0 arch/arm/cpu/armv7/sun8iw5/spare_head.o
                0x4708d1c0                . = ALIGN (0x10)

.rodata         0x4708d1c0    0x21f39
 *(.rodata*)
 .rodata        0x4708d1c0       0x16 arch/arm/cpu/armv7/libarmv7.o
 .rodata.str1.1
                0x4708d1d6       0x65 arch/arm/cpu/armv7/libarmv7.o
 .rodata        0x4708d23b        0xc arch/arm/cpu/armv7/sun8iw5/libsun8iw5.o
 .rodata.str1.1
                0x4708d247      0x848 arch/arm/cpu/armv7/sun8iw5/libsun8iw5.o
                                0x856 (size before relaxing)
 *fill*         0x4708da8f        0x1 00
 .rodata        0x4708da90       0x80 arch/arm/lib/libarm.o
 .rodata.str1.1
                0x4708db10      0x59c arch/arm/lib/libarm.o
                                0x5d6 (size before relaxing)
 .rodata        0x4708e0ac      0x8c4 common/libcommon.o
                0x4708e140                version_string
                0x4708e198                default_environment
                0x4708e66d                sunxi_sprite_environment
 .rodata.str1.1
                0x4708e970     0x42b3 common/libcommon.o
                               0x4783 (size before relaxing)
 *fill*         0x47092c23        0x1 00
 .rodata        0x47092c24       0x20 disk/libdisk.o
 .rodata.str1.1
                0x47092c44      0x2ba disk/libdisk.o
                                0x2ec (size before relaxing)
 .rodata.str1.1
                0x47092efe       0xb0 drivers/dma/libdma.o
 *fill*         0x47092fae        0x2 00
 .rodata        0x47092fb0     0x29a1 drivers/mmc/libmmc.o
 .rodata.str1.1
                0x47095951     0x2748 drivers/mmc/libmmc.o
                               0x2775 (size before relaxing)
 .rodata.str1.1
                0x47098099      0x95e drivers/power/libpower.o
                                0x97a (size before relaxing)
 *fill*         0x470989f7        0x1 00
 .rodata        0x470989f8       0x58 drivers/pwm/libsunxi_pwm.o
 .rodata.str1.1
                0x47098a50       0x25 drivers/pwm/libsunxi_pwm.o
                                 0x2e (size before relaxing)
 *fill*         0x47098a75        0x3 00
 .rodata        0x47098a78       0x48 drivers/rsb/librsb.o
 .rodata.str1.1
                0x47098ac0      0x155 drivers/rsb/librsb.o
                                0x156 (size before relaxing)
 *fill*         0x47098c15        0x3 00
 .rodata        0x47098c18       0x10 drivers/serial/libserial.o
 .rodata.str1.1
                0x47098c28      0x184 drivers/spi/libspi.o
                                0x1a1 (size before relaxing)
 .rodata.str1.1
                0x47098dac      0x6e1 drivers/spinor/libspinor.o
                                0x704 (size before relaxing)
 .rodata        0x4709948d       0x33 drivers/storage_type/libstorage_type.o
 .rodata.str1.1
                0x470994c0      0x222 drivers/storage_type/libstorage_type.o
                                0x22c (size before relaxing)
 *fill*         0x470996e2        0x2 00
 .rodata        0x470996e4      0x13c drivers/usb/gadget/libusb_gadget.o
 .rodata.str1.1
                0x47099820      0x459 drivers/usb/gadget/libusb_gadget.o
                                0x483 (size before relaxing)
 *fill*         0x47099c79        0x3 00
 .rodata        0x47099c7c      0x1bc drivers/usb/sunxi_usb/libusb_sunxi_usb.o
 .rodata.str1.1
                0x47099e38      0xc13 drivers/usb/sunxi_usb/libusb_sunxi_usb.o
 *fill*         0x4709aa4b        0x1 00
 .rodata        0x4709aa4c      0x63c drivers/video_sunxi/libvideo_sunxi.o
 .rodata.str1.1
                0x4709b088      0xa2a drivers/video_sunxi/libvideo_sunxi.o
                                0xb4d (size before relaxing)
 .rodata        0x4709bab2       0x24 fs/aw_fs/libawfat.o
 .rodata.str1.1
                0x4709bad6      0x18a fs/aw_fs/libawfat.o
                                0x192 (size before relaxing)
 .rodata        0x4709bc60       0x18 fs/fat/libfat.o
 .rodata.str1.1
                0x4709bc78      0x2b9 fs/fat/libfat.o
                                0x2f9 (size before relaxing)
 *fill*         0x4709bf31        0x3 00
 .rodata        0x4709bf34      0x827 lib/libgeneric.o
                0x4709bf34                crc7_syndrome_table
                0x4709c63a                _ctype
                0x4709c74a                hex_asc
 .rodata.str1.1
                0x4709c75b      0x15a lib/libgeneric.o
                                0x170 (size before relaxing)
 *fill*         0x4709c8b5        0x3 00
 .rodata        0x4709c8b8      0x9cc lib/zlib/libz.o
                0x4709d25c                z_errmsg
 .rodata.str1.1
                0x4709d284      0x21c lib/zlib/libz.o
                                0x21d (size before relaxing)
 .rodata.str1.1
                0x4709d4a0      0x121 memtest/libsunxi_memtest.o
                                0x134 (size before relaxing)
 .rodata.str1.1
                0x4709d5c1       0xc3 nand_sunxi/sun8iw5/nand_interface/libnand_interface.o
 .rodata        0x4709d684       0x10 nand_sunxi/sun8iw5/osal/libnand_osal.o
 .rodata.str1.1
                0x4709d694     0x1128 nand_sunxi/sun8iw5/osal/libnand_osal.o
                               0x1171 (size before relaxing)
 .rodata        0x4709e7bc       0x22 net/libnet.o
 .rodata.str1.1
                0x4709e7de      0x6fb net/libnet.o
                                0x88b (size before relaxing)
 .rodata.str1.1
                0x4709eed9     0x1f07 sprite/libsprite.o
                               0x2431 (size before relaxing)
 .rodata        0x470a0de0       0x78 usb_sunxi/libsunxi_usb.o
                0x470a0de0                pburn_RequestSense
                0x470a0df4                pburn_InquiryData
                0x470a0e1c                RequestSense
                0x470a0e30                InquiryData
 .rodata.str1.1
                0x470a0e58     0x1e2b usb_sunxi/libsunxi_usb.o
                               0x288a (size before relaxing)
 .rodata.str1.1
                0x470a2c83      0x141 board/sunxi/sun8iw5/libsun8iw5.o
                                0x160 (size before relaxing)
 .rodata        0x470a2dc4       0x7f board/sunxi/libsunxi.o
 .rodata.str1.1
                0x470a2e43     0x1591 board/sunxi/libsunxi.o
                               0x17f3 (size before relaxing)
 .rodata        0x470a43d4       0x2a nand_sunxi/sun8iw5/libnand-sun8iw5(nftl_uboot_interface.o)
 .rodata.str1.1
                0x470a43fe      0x2e0 nand_sunxi/sun8iw5/libnand-sun8iw5(nftl_uboot_interface.o)
                                0x2e2 (size before relaxing)
 .rodata        0x470a46de       0xb2 nand_sunxi/sun8iw5/libnand-sun8iw5(nand_format.o)
 .rodata.str1.1
                0x470a4790      0x5d2 nand_sunxi/sun8iw5/libnand-sun8iw5(nand_format.o)
                                0x5d8 (size before relaxing)
 .rodata        0x470a4d62       0x12 nand_sunxi/sun8iw5/libnand-sun8iw5(nand_phy.o)
 .rodata.str1.1
                0x470a4d74      0xab4 nand_sunxi/sun8iw5/libnand-sun8iw5(nand_phy.o)
                                0xac2 (size before relaxing)
 .rodata        0x470a5828        0xb nand_sunxi/sun8iw5/libnand-sun8iw5(nand_physic_interface.o)
 .rodata.str1.1
                0x470a5833      0x7a9 nand_sunxi/sun8iw5/libnand-sun8iw5(nand_physic_interface.o)
                                0xd00 (size before relaxing)
 .rodata        0x470a5fdc       0x44 nand_sunxi/sun8iw5/libnand-sun8iw5(nand_scan.o)
 .rodata.str1.1
                0x470a6020      0xeec nand_sunxi/sun8iw5/libnand-sun8iw5(nand_scan.o)
                                0xef3 (size before relaxing)
 .rodata        0x470a6f0c      0x10a nand_sunxi/sun8iw5/libnand-sun8iw5(nand_simple_r.o)
                0x470a6f16                random_seed
 .rodata.str1.1
                0x470a7016     0x1815 nand_sunxi/sun8iw5/libnand-sun8iw5(nand_simple_r.o)
                               0x1913 (size before relaxing)
 .rodata.str1.1
                0x470a882b        0xc nand_sunxi/sun8iw5/libnand-sun8iw5(nand_simple_w.o)
 .rodata.str1.1
                0x470a8837     0x1753 nand_sunxi/sun8iw5/libnand-sun8iw5(nfc_reg.o)
 *fill*         0x470a9f8a        0x2 00
 .rodata        0x470a9f8c      0x3b8 nand_sunxi/sun8iw5/libnand-sun8iw5(nfc_r.o)
                0x470a9faa                param0x30low
                0x470a9fea                param0x30high
                0x470aa03a                param0x31
                0x470aa070                param0x32
                0x470aa170                para0
                0x470aa1a0                para1
                0x470aa1d0                para0x10
                0x470aa1da                para0x11
                0x470aa220                para0x12
                0x470aa284                para0x20
                0x470aa2fc                param0x40
                0x470aa310                param0x41
                0x470aa328                param0x50
 .rodata.str1.1
                0x470aa344      0x985 nand_sunxi/sun8iw5/libnand-sun8iw5(nfc_r.o)
                                0x98d (size before relaxing)
 .rodata.str1.1
                0x470aacc9      0x14d nand_sunxi/sun8iw5/libnand-sun8iw5(nfc_w.o)
                                0x17f (size before relaxing)
 .rodata.str1.1
                0x470aae16      0xf92 nand_sunxi/sun8iw5/libnand-sun8iw5(nand_info_init_v2.o)
 .rodata.str1.1
                0x470abda8      0x233 nand_sunxi/sun8iw5/libnand-sun8iw5(build_phy_partition_v2.o)
 .rodata.str1.1
                0x470abfdb       0x18 nand_sunxi/sun8iw5/libnand-sun8iw5(build_nand_partition.o)
 .rodata.str1.1
                0x470abff3      0x34c nand_sunxi/sun8iw5/libnand-sun8iw5(build_phy_partition.o)
                                0x3bb (size before relaxing)
 .rodata.str1.1
                0x470ac33f      0x261 nand_sunxi/sun8iw5/libnand-sun8iw5(nand_info_init.o)
                                0x899 (size before relaxing)
 .rodata.str1.1
                0x470ac5a0       0x35 nand_sunxi/sun8iw5/libnand-sun8iw5(nftl_common.o)
 .rodata        0x470ac5d5       0x1f nand_sunxi/sun8iw5/libnand-sun8iw5(nftl_build.o)
 .rodata.str1.1
                0x470ac5f4     0x1a71 nand_sunxi/sun8iw5/libnand-sun8iw5(nftl_build.o)
                               0x1ab8 (size before relaxing)
 .rodata.str1.1
                0x470ae065      0x32b nand_sunxi/sun8iw5/libnand-sun8iw5(nftl_interface.o)
 .rodata.str1.1
                0x470ae390       0x39 nand_sunxi/sun8iw5/libnand-sun8iw5(nftl_init.o)
                                 0x56 (size before relaxing)
 .rodata.str1.1
                0x470ae3c9      0x16e nand_sunxi/sun8iw5/libnand-sun8iw5(nftl_list.o)
 .rodata.str1.1
                0x470ae537      0x45d nand_sunxi/sun8iw5/libnand-sun8iw5(nftl_logic.o)
 .rodata.str1.1
                0x470ae994      0x4e4 nand_sunxi/sun8iw5/libnand-sun8iw5(nftl_gc.o)
 .rodata.str1.1
                0x470aee78      0x1d0 nand_sunxi/sun8iw5/libnand-sun8iw5(nftl_cache.o)
                                0x1ed (size before relaxing)
 .rodata.str1.1
                0x470af048       0x96 nand_sunxi/sun8iw5/libnand-sun8iw5(nftl_start.o)
                                 0xb3 (size before relaxing)
 .rodata.str1.1
                0x470af0de       0x1b /home/taga/NuttX/brandy-dev-moon/u-boot-2011.09/arch/arm/lib/eabi_compat.o

.hash           0x470af0fc       0x4c
 .hash          0x470af0fc       0x4c arch/arm/cpu/armv7/sun8iw5/spare_head.o

.ARM.extab      0x470af148        0x0
 .ARM.extab     0x470af148        0x0 /home/taga/NuttX/brandy-dev-moon/gcc-linaro/bin/../lib/gcc/arm-linux-gnueabi/4.6.3/libgcc.a(bpabi.o)
 .ARM.extab     0x470af148        0x0 /home/taga/NuttX/brandy-dev-moon/gcc-linaro/bin/../lib/gcc/arm-linux-gnueabi/4.6.3/libgcc.a(_divdi3.o)
 .ARM.extab     0x470af148        0x0 /home/taga/NuttX/brandy-dev-moon/gcc-linaro/bin/../lib/gcc/arm-linux-gnueabi/4.6.3/libgcc.a(_udivdi3.o)

.ARM.exidx      0x470af148       0x28
 .ARM.exidx     0x470af148       0x10 /home/taga/NuttX/brandy-dev-moon/gcc-linaro/bin/../lib/gcc/arm-linux-gnueabi/4.6.3/libgcc.a(bpabi.o)
 .ARM.exidx     0x470af158        0x8 /home/taga/NuttX/brandy-dev-moon/gcc-linaro/bin/../lib/gcc/arm-linux-gnueabi/4.6.3/libgcc.a(_divdi3.o)
 .ARM.exidx     0x470af160       0x10 /home/taga/NuttX/brandy-dev-moon/gcc-linaro/bin/../lib/gcc/arm-linux-gnueabi/4.6.3/libgcc.a(_udivdi3.o)
                                  0x8 (size before relaxing)
                0x470af170                . = ALIGN (0x10)

.data           0x470af170     0xc63c
 *(.data)
 .data          0x470af170        0x0 arch/arm/cpu/armv7/start.o
 .data          0x470af170        0x0 arch/arm/cpu/armv7/libarmv7.o
 .data          0x470af170     0x1a70 arch/arm/cpu/armv7/sun8iw5/libsun8iw5.o
                0x470b0bc4                timer_callback
 .data          0x470b0be0       0x48 arch/arm/lib/libarm.o
                0x470b0be0                init_sequence
 .data          0x470b0c28      0x708 common/libcommon.o
                0x470b0dd4                load_addr
                0x470b0dd8                tests
                0x470b0e58                seed2
                0x470b0e5c                seed1
                0x470b0e60                IGNORE_ENV_VARIABLE
                0x470b1294                env_size
                0x470b1298                env_name_spec
                0x470b1324                stdio_names
 .data          0x470b1330        0x0 disk/libdisk.o
 .data          0x470b1330        0x0 drivers/dma/libdma.o
 .data          0x470b1330        0x8 drivers/mmc/libmmc.o
                0x470b1330                mmc_devices
 .data          0x470b1338        0x0 drivers/pcmcia/libpcmcia.o
 .data          0x470b1338       0xec drivers/power/libpower.o
                0x470b1338                sunxi_axp_dev
                0x470b135c                sunxi_axp_22
                0x470b13c0                sunxi_axp_null
 .data          0x470b1424       0x10 drivers/pwm/libsunxi_pwm.o
                0x470b1424                pwm_active_sta
 .data          0x470b1434       0xe8 drivers/rsb/librsb.o
                0x470b1510                sunxi_rsb_config_pt
                0x470b1514                sunxi_rsb_read_pt
                0x470b1518                sunxi_rsb_write_pt
 .data          0x470b151c        0x0 drivers/rtc/librtc.o
 .data          0x470b151c        0x4 drivers/serial/libserial.o
                0x470b151c                sunxi_uart_console
 .data          0x470b1520        0x0 drivers/smc/libsmc.o
 .data          0x470b1520        0x0 drivers/spi/libspi.o
 .data          0x470b1520        0x4 drivers/spinor/libspinor.o
 .data          0x470b1524       0x4c drivers/storage_type/libstorage_type.o
                0x470b1524                sunxi_sprite_datafinish_pt
                0x470b1528                sunxi_flash_read_pt
                0x470b152c                sunxi_flash_write_pt
                0x470b1530                sunxi_flash_size_pt
                0x470b1534                sunxi_flash_exit_pt
                0x470b1538                sunxi_flash_flush_pt
                0x470b153c                sunxi_flash_phyread_pt
                0x470b1540                sunxi_flash_phywrite_pt
                0x470b1544                sunxi_sprite_init_pt
                0x470b1548                sunxi_sprite_read_pt
                0x470b154c                sunxi_sprite_write_pt
                0x470b1550                sunxi_sprite_erase_pt
                0x470b1554                sunxi_sprite_size_pt
                0x470b1558                sunxi_sprite_exit_pt
                0x470b155c                sunxi_sprite_flush_pt
                0x470b1560                sunxi_sprite_phyread_pt
                0x470b1564                sunxi_sprite_phywrite_pt
                0x470b1568                sunxi_sprite_force_erase_pt
                0x470b156c                sunxi_flash_init_pt
 .data          0x470b1570      0x1c4 drivers/usb/gadget/libusb_gadget.o
 .data          0x470b1734      0x510 drivers/usb/sunxi_usb/libusb_sunxi_usb.o
 .data          0x470b1c44     0x6a24 drivers/video_sunxi/libvideo_sunxi.o
                0x470b1c44                image_enhance_tab
                0x470b2044                fir_tab
                0x470b3c44                csc_tab
                0x470b3f44                disp_clk_pll_tbl
                0x470b3fe0                disp_clk_mod_tbl
                0x470b41c0                tv_timing_tbl
                0x470b4580                dsi_lane_den
                0x470b4590                dsi_pixel_bits
                0x470b45a0                tcon_div
                0x470b45a4                spatial_coeff
                0x470b45ad                intensity_coeff
                0x470b46ad                hist_thres_pwrsv
                0x470b46b8                PWRSAVE_PROC_THRES
                0x470b46bc                drc_filter
                0x470b46d4                hist_thres_drc
                0x470b46dc                scal_input_format_array
                0x470b4a24                scal_output_format_array
                0x470b4b14                be_input_format_array
                0x470b4ca4                mod_init_data
                0x470b4d30                TABLE_CB
                0x470b5230                TABLE_CR
                0x470b5960                panel_array
                0x470b5980                default_panel
                0x470b59b0                tft720x1280_panel
                0x470b59e0                lp907qx_panel
                0x470b5a10                starry768x1024_panel
                0x470b85d8                sl698ph_720p_panel
                0x470b8608                lp079x01_panel
                0x470b8638                B116XAN03_panel
 .data          0x470b8668        0x0 fs/aw_fs/libawfat.o
 .data          0x470b8668      0x208 fs/fat/libfat.o
                0x470b866c                file_cwd
 .data          0x470b8870        0x0 lib/libgeneric.o
 .data          0x470b8870        0x0 lib/zlib/libz.o
 .data          0x470b8870        0x5 memtest/libsunxi_memtest.o
                0x470b8870                mem_progress
 .data          0x470b8875        0x0 nand_sunxi/sun8iw5/nand_interface/libnand_interface.o
 .data          0x470b8875        0x0 nand_sunxi/sun8iw5/osal/libnand_osal.o
 *fill*         0x470b8875        0x3 00
 .data          0x470b8878       0x28 net/libnet.o
                0x470b8878                NetOurVLAN
                0x470b887a                NetOurNativeVLAN
                0x470b887c                NetBcastAddr
                0x470b8898                TftpRRQTimeoutCountMax
                0x470b889c                TftpRRQTimeoutMSecs
 .data          0x470b88a0       0xa8 sprite/libsprite.o
                0x470b88a0                qt0
                0x470b88c0                qt1
                0x470b88e0                ashx
                0x470b88f0                ror4
                0x470b8900                qt3
                0x470b8920                qt2
                0x470b8940                tab_5b
                0x470b8944                tab_ef
 .data          0x470b8948      0x1c0 usb_sunxi/libsunxi_usb.o
                0x470b8948                setup_req_4
                0x470b8968                sunxi_usb_pburn_dev
                0x470b8978                sunxi_usb_pburn_iProduct
                0x470b8998                sunxi_usb_pburn_iManufacturer
                0x470b89b8                sunxi_usb_pburn_iSerialNum0
                0x470b89d8                sunxi_usb_pbur_normal_LangID
                0x470b89e0                sunxi_usb_fastboot_dev
                0x470b89f8                setup_req_3
                0x470b8a18                sunxi_fastboot_normal_LangID
                0x470b8a20                sunxi_usb_mass_dev
                0x470b8a30                setup_req_1
                0x470b8a50                sunxi_usb_mass_iProduct
                0x470b8a70                sunxi_usb_mass_iManufacturer
                0x470b8a90                sunxi_usb_mass_iSerialNum0
                0x470b8ab0                normal_LangID
                0x470b8abc                setup_req_2
                0x470b8adc                buf_queue_page_size
                0x470b8ae0                buf_queue_max_len
                0x470b8ae8                setup_req_5
 .data          0x470b8b08        0x0 board/sunxi/sun8iw5/libsun8iw5.o
 .data          0x470b8b08        0x4 board/sunxi/libsunxi.o
                0x470b8b08                loglel_change_flag
 .data          0x470b8b0c        0x0 nand_sunxi/sun8iw5/libnand-sun8iw5(nftl_uboot_interface.o)
 .data          0x470b8b0c        0x0 nand_sunxi/sun8iw5/libnand-sun8iw5(nand_format.o)
 .data          0x470b8b0c        0x0 nand_sunxi/sun8iw5/libnand-sun8iw5(nand_phy.o)
 .data          0x470b8b0c        0x0 nand_sunxi/sun8iw5/libnand-sun8iw5(nand_physic_interface.o)
 .data          0x470b8b0c        0x8 nand_sunxi/sun8iw5/libnand-sun8iw5(nand_scan.o)
                0x470b8b0c                Flag_blank_block
                0x470b8b10                NandIDNumber
 .data          0x470b8b14        0x0 nand_sunxi/sun8iw5/libnand-sun8iw5(nand_simple_r.o)
 .data          0x470b8b14        0x0 nand_sunxi/sun8iw5/libnand-sun8iw5(nand_simple_w.o)
 .data          0x470b8b14        0x0 nand_sunxi/sun8iw5/libnand-sun8iw5(nfc_reg.o)
 .data          0x470b8b14        0x0 nand_sunxi/sun8iw5/libnand-sun8iw5(nfc_r.o)
 .data          0x470b8b14        0x0 nand_sunxi/sun8iw5/libnand-sun8iw5(nfc_w.o)
 .data          0x470b8b14        0x0 nand_sunxi/sun8iw5/libnand-sun8iw5(nand_info_init_v2.o)
 .data          0x470b8b14        0x0 nand_sunxi/sun8iw5/libnand-sun8iw5(build_phy_partition_v2.o)
 .data          0x470b8b14        0x0 nand_sunxi/sun8iw5/libnand-sun8iw5(build_nand_partition.o)
 .data          0x470b8b14        0x0 nand_sunxi/sun8iw5/libnand-sun8iw5(build_phy_partition.o)
 .data          0x470b8b14        0x0 nand_sunxi/sun8iw5/libnand-sun8iw5(nand_info_init.o)
 .data          0x470b8b14        0x0 nand_sunxi/sun8iw5/libnand-sun8iw5(nftl_common.o)
 .data          0x470b8b14        0x0 nand_sunxi/sun8iw5/libnand-sun8iw5(nftl_build.o)
 .data          0x470b8b14        0x0 nand_sunxi/sun8iw5/libnand-sun8iw5(nftl_interface.o)
 .data          0x470b8b14        0x0 nand_sunxi/sun8iw5/libnand-sun8iw5(nftl_init.o)
 .data          0x470b8b14     0x2c98 nand_sunxi/sun8iw5/libnand-sun8iw5(nand_id.o)
                0x470b8b14                DefaultNandTbl
                0x470b8b48                ZettaNandTbl
                0x470b8bb0                EsmtNandTbl
                0x470b8d50                FidelixNandTbl
                0x470b8e20                WinbondNandTbl
                0x470b8ebc                MacronixNandTbl
                0x470b9028                SpectekNandTbl
                0x470b9090                SandiskNandTbl
                0x470b9264                PowerNandTbl
                0x470b92cc                SpansionNandTbl
                0x470b9404                StNandTbl
                0x470b960c                IntelNandTbl
                0x470b9814                MicronNandTbl
                0x470b9f30                ToshibaNandTbl
                0x470ba618                HynixNandTbl
                0x470baea0                SamsungNandTbl
 .data          0x470bb7ac        0x0 nand_sunxi/sun8iw5/libnand-sun8iw5(nftl_list.o)
 .data          0x470bb7ac        0x0 nand_sunxi/sun8iw5/libnand-sun8iw5(nftl_logic.o)
 .data          0x470bb7ac        0x0 nand_sunxi/sun8iw5/libnand-sun8iw5(nftl_gc.o)
 .data          0x470bb7ac        0x0 nand_sunxi/sun8iw5/libnand-sun8iw5(nftl_cache.o)
 .data          0x470bb7ac        0x0 nand_sunxi/sun8iw5/libnand-sun8iw5(nftl_start.o)
 .data          0x470bb7ac        0x0 nand_sunxi/sun8iw5/libnand-sun8iw5(nftl_hw_interface.o)
 .data          0x470bb7ac        0x0 /home/taga/NuttX/brandy-dev-moon/u-boot-2011.09/arch/arm/lib/eabi_compat.o
 .data          0x470bb7ac        0x0 /home/taga/NuttX/brandy-dev-moon/gcc-linaro/bin/../lib/gcc/arm-linux-gnueabi/4.6.3/libgcc.a(_lshrdi3.o)
 .data          0x470bb7ac        0x0 /home/taga/NuttX/brandy-dev-moon/gcc-linaro/bin/../lib/gcc/arm-linux-gnueabi/4.6.3/libgcc.a(_ashrdi3.o)
 .data          0x470bb7ac        0x0 /home/taga/NuttX/brandy-dev-moon/gcc-linaro/bin/../lib/gcc/arm-linux-gnueabi/4.6.3/libgcc.a(_ashldi3.o)
 .data          0x470bb7ac        0x0 /home/taga/NuttX/brandy-dev-moon/gcc-linaro/bin/../lib/gcc/arm-linux-gnueabi/4.6.3/libgcc.a(_arm_addsubdf3.o)
 .data          0x470bb7ac        0x0 /home/taga/NuttX/brandy-dev-moon/gcc-linaro/bin/../lib/gcc/arm-linux-gnueabi/4.6.3/libgcc.a(_arm_muldivdf3.o)
 .data          0x470bb7ac        0x0 /home/taga/NuttX/brandy-dev-moon/gcc-linaro/bin/../lib/gcc/arm-linux-gnueabi/4.6.3/libgcc.a(_arm_truncdfsf2.o)
 .data          0x470bb7ac        0x0 /home/taga/NuttX/brandy-dev-moon/gcc-linaro/bin/../lib/gcc/arm-linux-gnueabi/4.6.3/libgcc.a(_arm_addsubsf3.o)
 .data          0x470bb7ac        0x0 /home/taga/NuttX/brandy-dev-moon/gcc-linaro/bin/../lib/gcc/arm-linux-gnueabi/4.6.3/libgcc.a(_arm_muldivsf3.o)
 .data          0x470bb7ac        0x0 /home/taga/NuttX/brandy-dev-moon/gcc-linaro/bin/../lib/gcc/arm-linux-gnueabi/4.6.3/libgcc.a(_arm_fixsfsi.o)
 .data          0x470bb7ac        0x0 /home/taga/NuttX/brandy-dev-moon/gcc-linaro/bin/../lib/gcc/arm-linux-gnueabi/4.6.3/libgcc.a(_aeabi_uldivmod.o)
 .data          0x470bb7ac        0x0 /home/taga/NuttX/brandy-dev-moon/gcc-linaro/bin/../lib/gcc/arm-linux-gnueabi/4.6.3/libgcc.a(_dvmd_lnx.o)
 .data          0x470bb7ac        0x0 /home/taga/NuttX/brandy-dev-moon/gcc-linaro/bin/../lib/gcc/arm-linux-gnueabi/4.6.3/libgcc.a(bpabi.o)
 .data          0x470bb7ac        0x0 /home/taga/NuttX/brandy-dev-moon/gcc-linaro/bin/../lib/gcc/arm-linux-gnueabi/4.6.3/libgcc.a(_divdi3.o)
 .data          0x470bb7ac        0x0 /home/taga/NuttX/brandy-dev-moon/gcc-linaro/bin/../lib/gcc/arm-linux-gnueabi/4.6.3/libgcc.a(_udivdi3.o)
 .data          0x470bb7ac        0x0 /home/taga/NuttX/brandy-dev-moon/gcc-linaro/bin/../lib/gcc/arm-linux-gnueabi/4.6.3/libgcc.a(_udivsi3.o)

.got            0x470bb7ac        0x0
 .got           0x00000000        0x0 arch/arm/cpu/armv7/sun8iw5/spare_head.o

.got.plt        0x470bb7ac        0xc
 .got.plt       0x470bb7ac        0xc arch/arm/cpu/armv7/sun8iw5/spare_head.o
                0x470bb7ac                _GLOBAL_OFFSET_TABLE_

.igot.plt       0x470bb7b8        0x0
 .igot.plt      0x00000000        0x0 arch/arm/cpu/armv7/sun8iw5/spare_head.o
                0x470bb7b8                . = ALIGN (0x4)
                0x470bb7b8                . = .
                0x470bb7b8                __u_boot_cmd_start = .

.u_boot_cmd     0x470bb7b8      0x78c
 *(.u_boot_cmd)
 .u_boot_cmd    0x470bb7b8       0x1c arch/arm/cpu/armv7/sun8iw5/libsun8iw5.o
                0x470bb7b8                __u_boot_cmd_key_test
 .u_boot_cmd    0x470bb7d4      0x754 common/libcommon.o
                0x470bb7d4                __u_boot_cmd_reset
                0x470bb7f0                __u_boot_cmd_go
                0x470bb80c                __u_boot_cmd_boota
                0x470bb828                __u_boot_cmd_bootd
                0x470bb844                __u_boot_cmd_boot
                0x470bb860                __u_boot_cmd_bootm
                0x470bb87c                __u_boot_cmd_pst
                0x470bb898                __u_boot_cmd_uburn
                0x470bb8b4                __u_boot_cmd_exit
                0x470bb8d0                __u_boot_cmd_fatinfo
                0x470bb8ec                __u_boot_cmd_fatls
                0x470bb908                __u_boot_cmd_fatdown
                0x470bb924                __u_boot_cmd_fatload
                0x470bb940                __u_boot_cmd_efex
                0x470bb95c                __u_boot_cmd_question_mark
                0x470bb978                __u_boot_cmd_help
                0x470bb994                __u_boot_cmd_power_probe
                0x470bb9b0                __u_boot_cmd_sys_config
                0x470bb9cc                __u_boot_cmd_delay_test
                0x470bb9e8                __u_boot_cmd_memcpy_test
                0x470bba04                __u_boot_cmd_efex_test
                0x470bba20                __u_boot_cmd_mass_test
                0x470bba3c                __u_boot_cmd_fastboot_test
                0x470bba58                __u_boot_cmd_sprite_test
                0x470bba74                __u_boot_cmd_timer_test1
                0x470bba90                __u_boot_cmd_timer_test
                0x470bbaac                __u_boot_cmd_mtest
                0x470bbac8                __u_boot_cmd_loop
                0x470bbae4                __u_boot_cmd_base
                0x470bbb00                __u_boot_cmd_crc32
                0x470bbb1c                __u_boot_cmd_cmp
                0x470bbb38                __u_boot_cmd_cp
                0x470bbb54                __u_boot_cmd_mw
                0x470bbb70                __u_boot_cmd_nm
                0x470bbb8c                __u_boot_cmd_mm
                0x470bbba8                __u_boot_cmd_md
                0x470bbbc4                __u_boot_cmd_mmc
                0x470bbbe0                __u_boot_cmd_mmcinfo
                0x470bbbfc                __u_boot_cmd_savecfg
                0x470bbc18                __u_boot_cmd_setcfg
                0x470bbc34                __u_boot_cmd_ping
                0x470bbc50                __u_boot_cmd_nfs
                0x470bbc6c                __u_boot_cmd_tftpboot
                0x470bbc88                __u_boot_cmd_bootp
                0x470bbca4                __u_boot_cmd_run
                0x470bbcc0                __u_boot_cmd_setenv
                0x470bbcdc                __u_boot_cmd_printenv
                0x470bbcf8                __u_boot_cmd_env
                0x470bbd14                __u_boot_cmd_saveenv
                0x470bbd30                __u_boot_cmd_sprite_recovery
                0x470bbd4c                __u_boot_cmd_recovery
                0x470bbd68                __u_boot_cmd_shutdown
                0x470bbd84                __u_boot_cmd_standby
                0x470bbda0                __u_boot_cmd_logo
                0x470bbdbc                __u_boot_cmd_sunxi_bmp_show
                0x470bbdd8                __u_boot_cmd_sunxi_bmp_info
                0x470bbdf4                __u_boot_cmd_sunxi_flash
                0x470bbe10                __u_boot_cmd_memtester
                0x470bbe2c                __u_boot_cmd_sunxi_boot_signature
                0x470bbe48                __u_boot_cmd_erase_userdata
                0x470bbe64                __u_boot_cmd_check_userdata
                0x470bbe80                __u_boot_cmd_save_userdata
                0x470bbe9c                __u_boot_cmd_true
                0x470bbeb8                __u_boot_cmd_false
                0x470bbed4                __u_boot_cmd_test
                0x470bbef0                __u_boot_cmd_version
                0x470bbf0c                __u_boot_cmd_showvar
 .u_boot_cmd    0x470bbf28       0x1c board/sunxi/libsunxi.o
                0x470bbf28                __u_boot_cmd_screen_char
                0x470bbf44                __u_boot_cmd_end = .
                0x470bbf44                . = ALIGN (0x4)
                0x470bbf44                __image_copy_end = .

.rel.dyn        0x470bbf44    0x11878
                0x470bbf44                __rel_dyn_start = .
 *(.rel*)
 .rel.got       0x00000000        0x0 arch/arm/cpu/armv7/sun8iw5/spare_head.o
 .rel.plt       0x00000000        0x0 arch/arm/cpu/armv7/sun8iw5/spare_head.o
 .rel.iplt      0x00000000        0x0 arch/arm/cpu/armv7/sun8iw5/spare_head.o
 .rel.text      0x470bbf44     0xe920 arch/arm/cpu/armv7/sun8iw5/spare_head.o
 .rel.data      0x470ca864     0x20e8 arch/arm/cpu/armv7/sun8iw5/spare_head.o
 .rel.u_boot_cmd
                0x470cc94c      0x8a8 arch/arm/cpu/armv7/sun8iw5/spare_head.o
 .rel.rodata    0x470cd1f4      0x5c8 arch/arm/cpu/armv7/sun8iw5/spare_head.o
                0x470cd7bc                __rel_dyn_end = .

.dynsym         0x470cd7bc       0xe0
                0x470cd7bc                __dynsym_start = .
 *(.dynsym)
 .dynsym        0x470cd7bc       0xe0 arch/arm/cpu/armv7/sun8iw5/spare_head.o
                0x470cd89c                _end = .

.bss            0x470bbf44   0x4420c0
                0x470bbf44                __bss_start = .
 *(.bss)
 .bss           0x470bbf44        0x0 arch/arm/cpu/armv7/sun8iw5/spare_head.o
 .bss           0x470bbf44        0x0 arch/arm/cpu/armv7/sun8iw5/../uboot_hash.o
 .bss           0x470bbf44        0x0 arch/arm/cpu/armv7/start.o
 .bss           0x470bbf44        0x0 arch/arm/cpu/armv7/libarmv7.o
 .bss           0x470bbf44      0x584 arch/arm/cpu/armv7/sun8iw5/libsun8iw5.o
                0x470bbf44                sunxi_int_handlers
 .bss           0x470bc4c8        0xc arch/arm/lib/libarm.o
                0x470bc4c8                gd_bk_addr
                0x470bc4cc                monitor_flash_len
 .bss           0x470bc4d4     0x38a4 common/libcommon.o
                0x470bc800                sunxi_usb_burn_from_boot_overtime
                0x470bc804                sunxi_usb_burn_from_boot_init
                0x470bc808                sunxi_usb_probe_update_action
                0x470bc80c                sunxi_usb_burn_from_boot_handshake
                0x470bc810                sunxi_usb_burn_from_boot_setup
                0x470bc81c                timer1_t
                0x470bc82c                timer0_t
                0x470bc850                pblc_keys
                0x470bc858                prvt_keys
                0x470bc860                key
                0x470bc864                cryptTable
                0x470bdc64                USER_DATA_NUM
                0x470bdc68                USER_DATA_NAME
                0x470be0b0                mem_malloc_brk
                0x470be0b4                mem_malloc_start
                0x470be0b8                mem_malloc_end
                0x470be0f4                env_htab
                0x470be100                env_ptr
                0x470be250                last_return_code
                0x470be358                nesting_level
                0x470be368                hist_num
                0x470be36c                hist_lines
                0x470bf780                hist_list
                0x470bf7d0                console_buffer
                0x470bf910                stdio_devices
 .bss           0x470bfd78        0x0 disk/libdisk.o
 .bss           0x470bfd78      0x1c4 drivers/dma/libdma.o
 *fill*         0x470bff3c        0x4 00
 .bss           0x470bff40      0xf88 drivers/mmc/libmmc.o
                0x470bff40                mmc_host
                0x470c05a0                mmc_dev
                0x470c0cc0                reg_bakup
 .bss           0x470c0ec8        0x0 drivers/pcmcia/libpcmcia.o
 .bss           0x470c0ec8        0x8 drivers/power/libpower.o
 .bss           0x470c0ed0       0xf0 drivers/pwm/libsunxi_pwm.o
                0x470c0ed0                pwm_pin_count
                0x470c0ee0                pwm_gpio_info
 .bss           0x470c0fc0        0x0 drivers/rsb/librsb.o
 .bss           0x470c0fc0        0x0 drivers/rtc/librtc.o
 .bss           0x470c0fc0        0x0 drivers/serial/libserial.o
 .bss           0x470c0fc0        0x0 drivers/smc/libsmc.o
 .bss           0x470c0fc0       0x14 drivers/spi/libspi.o
 .bss           0x470c0fd4       0x3c drivers/spinor/libspinor.o
                0x470c0fe0                total_write_bytes
                0x470c0fe4                pri_info
                0x470c100c                protect_num
 .bss           0x470c1010       0xb0 drivers/storage_type/libstorage_type.o
 .bss           0x470c10c0      0x2cc drivers/usb/gadget/libusb_gadget.o
                0x470c10c0                packet_sent
                0x470c1170                packet_received
 .bss           0x470c138c       0xe8 drivers/usb/sunxi_usb/libusb_sunxi_usb.o
                0x470c13b8                the_controller
                0x470c13d4                dma_chnl
 .bss           0x470c1474      0x4dc drivers/video_sunxi/libvideo_sunxi.o
                0x470c14b8                image_reg_base
                0x470c14e8                pll_enable_count
                0x470c14f4                mod_enable_count
                0x470c1524                tve_reg_base0
                0x470c1528                tve_reg_base1
                0x470c1634                pwrsv_lgc_tab
                0x470c163c                al_notifier_list
                0x470c1664                enable_flag
                0x470c1668                Display_width
                0x470c1670                Display_height
                0x470c1678                Top
                0x470c1680                Bot
                0x470c1688                Left
                0x470c1690                Right
                0x470c16b8                disp_notifier_list
                0x470c16d4                gdisp
                0x470c18f8                g_lcd_drv
 .bss           0x470c1950   0x4002b8 fs/aw_fs/libawfat.o
                0x474c1bd8                PART_NAME
 .bss           0x474c1c08    0x30014 fs/fat/libfat.o
                0x474c1c08                cur_dev
                0x474c1c0c                part_offset
                0x474c1c10                get_vfatname_block
                0x474d1c10                do_fat_read_block
                0x474e1c10                get_dentfromdir_block
 .bss           0x474f1c1c        0x8 lib/libgeneric.o
                0x474f1c1c                errno
                0x474f1c20                ___strtok
 .bss           0x474f1c24        0x0 lib/zlib/libz.o
 .bss           0x474f1c24        0x4 memtest/libsunxi_memtest.o
                0x474f1c24                use_phys
 .bss           0x474f1c28       0xac nand_sunxi/sun8iw5/nand_interface/libnand_interface.o
 .bss           0x474f1cd4     0x12b4 nand_sunxi/sun8iw5/osal/libnand_osal.o
                0x474f20dc                dma_chan
                0x474f20e0                Uboot_Start_Block
                0x474f20e4                Uboot_Next_Block
                0x474f20e8                Logic_Start_Block
                0x474f20f0                nand_mbr
                0x474f2e78                mbr_burned_flag
                0x474f2e80                Nand_erase_flag
 .bss           0x474f2f88     0x2f60 net/libnet.o
                0x474f2f88                BootpID
                0x474f2f8c                BootpTry
                0x474f2fa4                NetState
                0x474f2fa8                NetPingIP
                0x474f2fc4                NetRestartWrap
                0x474f2fcc                NetOurEther
                0x474f2fd4                NetRxPacket
                0x474f2fd8                NetRxPacketLen
                0x474f2fdc                NetOurIP
                0x474f2fe0                NetArpWaitPacketIP
                0x474f2fe4                NetArpWaitPacketMAC
                0x474f2fe8                NetArpWaitReplyIP
                0x474f2fec                NetArpWaitTxPacket
                0x474f2ff0                NetArpWaitTxPacketSize
                0x474f2ff4                NetTxPacket
                0x474f2ff8                NetOurSubnetMask
                0x474f2ffc                NetOurGatewayIP
                0x474f3000                NetArpWaitTimerStart
                0x474f3004                NetArpWaitTry
                0x474f300e                NetEtherNullAddr
                0x474f3014                NetIPID
                0x474f301a                PktBuf
                0x474f4e3c                NetRxPackets
                0x474f4e4c                NetArpWaitPacketBuf
                0x474f5470                NetServerIP
                0x474f5474                NetBootFileXferSize
                0x474f5478                BootFile
                0x474f54f8                NetServerEther
                0x474f54fe                NetBootFileSize
                0x474f5500                NetOurRootPath
                0x474f5540                NetOurHostName
                0x474f5560                NetOurNISDomain
                0x474f5580                NetOurDNSIP
 .bss           0x474f5ee8     0x25a0 sprite/libsprite.o
                0x474f5ef4                handle
                0x474f5ef8                twi_org
                0x474f81ec                img_file_start
                0x474f81f0                part_info
                0x474f8478                TIMER0
 .bss           0x474f8488      0x478 usb_sunxi/libsunxi_usb.o
                0x474f84ac                sunxi_udc_source
                0x474f84ec                sunxi_udev_active
                0x474f8738                burn_part_bytes
                0x474f8798                fastboot_data_flag
                0x474f8828                efex_suspend_flag
                0x474f8874                buf_queue_init_flag
                0x474f8878                buf_queue_base_buf
                0x474f887c                buf_queue_tail
                0x474f8880                buf_queue_head
                0x474f8884                buf_queue_current_len
                0x474f8888                buf_queue_element
                0x474f88d4                logo_buf
                0x474f88d8                logo_info
                0x474f88e8                efex_test
 .bss           0x474f8900        0x0 board/sunxi/sun8iw5/libsun8iw5.o
 .bss           0x474f8900     0x4164 board/sunxi/libsunxi.o
                0x474f8910                timer_for_usb
                0x474f8920                sprite_source
                0x474f8944                progress
                0x474f897c                bat_bmp_store
                0x474f8a34                ui_char_info
                0x474f8a58                font
                0x474f8a5c                face
 .bss           0x474fca64       0xcc nand_sunxi/sun8iw5/libnand-sun8iw5(nftl_uboot_interface.o)
                0x474fca64                nftl_blk_head
                0x474fcaac                _panic_info
                0x474fcb2c                g_panic_count
 .bss           0x474fcb30       0x1c nand_sunxi/sun8iw5/libnand-sun8iw5(nand_format.o)
                0x474fcb30                LogicArchiPar
                0x474fcb44                DieCntOfNand
                0x474fcb48                SuperBlkCntOfDie
 .bss           0x474fcb4c       0x14 nand_sunxi/sun8iw5/libnand-sun8iw5(nand_phy.o)
                0x474fcb4c                Nand_Sorting_Badblk_Info
                0x474fcb5c                Support_nand_sorting
 .bss           0x474fcb60      0xe98 nand_sunxi/sun8iw5/libnand-sun8iw5(nand_physic_interface.o)
                0x474fcb60                aw_nand_info
                0x474fd508                MaxBlkEraseTimes
                0x474fd50c                nand_reg_back
                0x474fd94c                uboot_info
 .bss           0x474fd9f8       0x14 nand_sunxi/sun8iw5/libnand-sun8iw5(nand_scan.o)
                0x474fd9f8                NandSupportTwoPlaneOp
                0x474fd9fc                CurrentDriverTwoPlaneOPCfg
                0x474fda00                Two_Row_Addr_Flag
                0x474fda04                NandGetPhyInfoFlag
                0x474fda08                Flag_check_nand
 .bss           0x474fda0c       0xec nand_sunxi/sun8iw5/libnand-sun8iw5(nand_simple_r.o)
                0x474fda0c                NandStorageInfo
                0x474fda6c                RetryCount
                0x474fda8c                phyinfo_buf
                0x474fda90                PageCachePool
                0x474fdab0                ndfc_dma_desc_addr
                0x474fdab4                ndfc_dma_desc_cpu_addr
                0x474fdab8                ndfc_dma_desc
                0x474fdabc                ndfc_dma_desc_cpu
                0x474fdac0                ddr_scan_blk_no
                0x474fdad0                NandDdrInfo
 .bss           0x474fdaf8        0x0 nand_sunxi/sun8iw5/libnand-sun8iw5(nand_simple_w.o)
 .bss           0x474fdaf8        0x8 nand_sunxi/sun8iw5/libnand-sun8iw5(nfc_reg.o)
                0x474fdaf8                NdfcVersion
                0x474fdafc                NdfcDmaMode
 .bss           0x474fdb00      0x4c4 nand_sunxi/sun8iw5/libnand-sun8iw5(nfc_r.o)
                0x474fdb00                ddr_param
                0x474fdb20                NandIndex
                0x474fdb24                nand_dma_addr
                0x474fdb4c                pagesize
                0x474fdb50                NandIOBase
                0x474fdb58                read_retry_mode
                0x474fdb5c                toshiba15nm_rr_start_flag
                0x474fdb60                hynix16nm_read_retry_otp_value
                0x474fdbe0                Retry_value_ok_flag
                0x474fdbe4                read_retry_cycle
                0x474fdbe5                read_retry_reg_num
                0x474fdbe6                read_retry_val
                0x474fde66                read_retry_default_val
                0x474fdea6                read_retry_reg_adr
                0x474fdeb6                hynix_read_retry_otp_value
                0x474fdfb8                irq_value
                0x474fdfbc                nand_board_version
                0x474fdfc0                nand_reg_address
 .bss           0x474fdfc4       0x19 nand_sunxi/sun8iw5/libnand-sun8iw5(nfc_w.o)
                0x474fdfc4                lsb_mode_reg_num
                0x474fdfc5                lsb_mode_reg_adr
                0x474fdfcd                lsb_mode_val
                0x474fdfd5                lsb_mode_default_val
 .bss           0x474fdfdd        0x0 nand_sunxi/sun8iw5/libnand-sun8iw5(nand_info_init_v2.o)
 .bss           0x474fdfdd        0x0 nand_sunxi/sun8iw5/libnand-sun8iw5(build_phy_partition_v2.o)
 .bss           0x474fdfdd        0x0 nand_sunxi/sun8iw5/libnand-sun8iw5(build_nand_partition.o)
 .bss           0x474fdfdd        0x0 nand_sunxi/sun8iw5/libnand-sun8iw5(build_phy_partition.o)
 .bss           0x474fdfdd        0x0 nand_sunxi/sun8iw5/libnand-sun8iw5(nand_info_init.o)
 .bss           0x474fdfdd        0x0 nand_sunxi/sun8iw5/libnand-sun8iw5(nftl_common.o)
 .bss           0x474fdfdd        0x0 nand_sunxi/sun8iw5/libnand-sun8iw5(nftl_build.o)
 .bss           0x474fdfdd        0x0 nand_sunxi/sun8iw5/libnand-sun8iw5(nftl_interface.o)
 .bss           0x474fdfdd        0x0 nand_sunxi/sun8iw5/libnand-sun8iw5(nftl_init.o)
 *fill*         0x474fdfdd        0x3 00
 .bss           0x474fdfe0       0x20 nand_sunxi/sun8iw5/libnand-sun8iw5(nand_id.o)
 .bss           0x474fe000        0x0 nand_sunxi/sun8iw5/libnand-sun8iw5(nftl_list.o)
 .bss           0x474fe000        0x0 nand_sunxi/sun8iw5/libnand-sun8iw5(nftl_logic.o)
 .bss           0x474fe000        0x0 nand_sunxi/sun8iw5/libnand-sun8iw5(nftl_gc.o)
 .bss           0x474fe000        0x4 nand_sunxi/sun8iw5/libnand-sun8iw5(nftl_cache.o)
 .bss           0x474fe004        0x0 nand_sunxi/sun8iw5/libnand-sun8iw5(nftl_start.o)
 .bss           0x474fe004        0x0 nand_sunxi/sun8iw5/libnand-sun8iw5(nftl_hw_interface.o)
 .bss           0x474fe004        0x0 /home/taga/NuttX/brandy-dev-moon/u-boot-2011.09/arch/arm/lib/eabi_compat.o
 .bss           0x474fe004        0x0 /home/taga/NuttX/brandy-dev-moon/gcc-linaro/bin/../lib/gcc/arm-linux-gnueabi/4.6.3/libgcc.a(_lshrdi3.o)
 .bss           0x474fe004        0x0 /home/taga/NuttX/brandy-dev-moon/gcc-linaro/bin/../lib/gcc/arm-linux-gnueabi/4.6.3/libgcc.a(_ashrdi3.o)
 .bss           0x474fe004        0x0 /home/taga/NuttX/brandy-dev-moon/gcc-linaro/bin/../lib/gcc/arm-linux-gnueabi/4.6.3/libgcc.a(_ashldi3.o)
 .bss           0x474fe004        0x0 /home/taga/NuttX/brandy-dev-moon/gcc-linaro/bin/../lib/gcc/arm-linux-gnueabi/4.6.3/libgcc.a(_arm_addsubdf3.o)
 .bss           0x474fe004        0x0 /home/taga/NuttX/brandy-dev-moon/gcc-linaro/bin/../lib/gcc/arm-linux-gnueabi/4.6.3/libgcc.a(_arm_muldivdf3.o)
 .bss           0x474fe004        0x0 /home/taga/NuttX/brandy-dev-moon/gcc-linaro/bin/../lib/gcc/arm-linux-gnueabi/4.6.3/libgcc.a(_arm_truncdfsf2.o)
 .bss           0x474fe004        0x0 /home/taga/NuttX/brandy-dev-moon/gcc-linaro/bin/../lib/gcc/arm-linux-gnueabi/4.6.3/libgcc.a(_arm_addsubsf3.o)
 .bss           0x474fe004        0x0 /home/taga/NuttX/brandy-dev-moon/gcc-linaro/bin/../lib/gcc/arm-linux-gnueabi/4.6.3/libgcc.a(_arm_muldivsf3.o)
 .bss           0x474fe004        0x0 /home/taga/NuttX/brandy-dev-moon/gcc-linaro/bin/../lib/gcc/arm-linux-gnueabi/4.6.3/libgcc.a(_arm_fixsfsi.o)
 .bss           0x474fe004        0x0 /home/taga/NuttX/brandy-dev-moon/gcc-linaro/bin/../lib/gcc/arm-linux-gnueabi/4.6.3/libgcc.a(_aeabi_uldivmod.o)
 .bss           0x474fe004        0x0 /home/taga/NuttX/brandy-dev-moon/gcc-linaro/bin/../lib/gcc/arm-linux-gnueabi/4.6.3/libgcc.a(_dvmd_lnx.o)
 .bss           0x474fe004        0x0 /home/taga/NuttX/brandy-dev-moon/gcc-linaro/bin/../lib/gcc/arm-linux-gnueabi/4.6.3/libgcc.a(bpabi.o)
 .bss           0x474fe004        0x0 /home/taga/NuttX/brandy-dev-moon/gcc-linaro/bin/../lib/gcc/arm-linux-gnueabi/4.6.3/libgcc.a(_divdi3.o)
 .bss           0x474fe004        0x0 /home/taga/NuttX/brandy-dev-moon/gcc-linaro/bin/../lib/gcc/arm-linux-gnueabi/4.6.3/libgcc.a(_udivdi3.o)
 .bss           0x474fe004        0x0 /home/taga/NuttX/brandy-dev-moon/gcc-linaro/bin/../lib/gcc/arm-linux-gnueabi/4.6.3/libgcc.a(_udivsi3.o)
                0x474fe004                . = ALIGN (0x4)
                0x474fe004                __bss_end__ = .

.dynbss         0x470cd89c        0x0 load address 0x474fe004
 .dynbss        0x00000000        0x0 arch/arm/cpu/armv7/sun8iw5/spare_head.o

/DISCARD/
 *(.dynstr*)
 *(.dynamic*)
 *(.plt*)
 *(.interp*)
 *(.gnu*)
LOAD arch/arm/cpu/armv7/start.o
START GROUP
LOAD api/libapi.o
LOAD arch/arm/cpu/armv7/libarmv7.o
LOAD arch/arm/cpu/armv7/sun8iw5/libsun8iw5.o
LOAD arch/arm/lib/libarm.o
LOAD common/libcommon.o
LOAD disk/libdisk.o
LOAD drivers/audio/libaudio.o
LOAD drivers/bios_emulator/libatibiosemu.o
LOAD drivers/block/libblock.o
LOAD drivers/dma/libdma.o
LOAD drivers/efuse/libsunxi_efuse.o
LOAD drivers/fpga/libfpga.o
LOAD drivers/gpio/libgpio.o
LOAD drivers/hwmon/libhwmon.o
LOAD drivers/i2c/libi2c.o
LOAD drivers/input/libinput.o
LOAD drivers/misc/libmisc.o
LOAD drivers/mmc/libmmc.o
LOAD drivers/mtd/nand/libnand.o
LOAD drivers/mtd/onenand/libonenand.o
LOAD drivers/mtd/spi/libspi_flash.o
LOAD drivers/mtd/ubi/libubi.o
LOAD drivers/net/libnet.o
LOAD drivers/net/phy/libphy.o
LOAD drivers/p2wi/libp2wi.o
LOAD drivers/pci/libpci.o
LOAD drivers/pcmcia/libpcmcia.o
LOAD drivers/power/libpower.o
LOAD drivers/pwm/libsunxi_pwm.o
LOAD drivers/rsb/librsb.o
LOAD drivers/rtc/librtc.o
LOAD drivers/serial/libserial.o
LOAD drivers/smc/libsmc.o
LOAD drivers/spi/libspi.o
LOAD drivers/spinor/libspinor.o
LOAD drivers/storage_type/libstorage_type.o
LOAD drivers/twserial/libtws.o
LOAD drivers/usb/eth/libusb_eth.o
LOAD drivers/usb/gadget/libusb_gadget.o
LOAD drivers/usb/host/libusb_host.o
LOAD drivers/usb/musb/libusb_musb.o
LOAD drivers/usb/phy/libusb_phy.o
LOAD drivers/usb/sunxi_usb/libusb_sunxi_usb.o
LOAD drivers/video_sunxi/libvideo_sunxi.o
LOAD drivers/watchdog/libwatchdog.o
LOAD fs/aw_fs/libawfat.o
LOAD fs/cramfs/libcramfs.o
LOAD fs/ext2/libext2fs.o
LOAD fs/fat/libfat.o
LOAD fs/fdos/libfdos.o
LOAD fs/jffs2/libjffs2.o
LOAD fs/reiserfs/libreiserfs.o
LOAD fs/ubifs/libubifs.o
LOAD fs/yaffs2/libyaffs2.o
LOAD lib/libfdt/libfdt.o
LOAD lib/libgeneric.o
LOAD lib/lzma/liblzma.o
LOAD lib/lzo/liblzo.o
LOAD lib/zlib/libz.o
LOAD memtest/libsunxi_memtest.o
LOAD nand_sunxi/sun8iw5/libnand-sun8iw5
LOAD nand_sunxi/sun8iw5/nand_interface/libnand_interface.o
LOAD nand_sunxi/sun8iw5/osal/libnand_osal.o
LOAD net/libnet.o
LOAD post/libpost.o
LOAD sprite/libsprite.o
LOAD usb_sunxi/libsunxi_usb.o
LOAD board/sunxi/sun8iw5/libsun8iw5.o
LOAD board/sunxi/libsunxi.o
END GROUP
LOAD /home/taga/NuttX/brandy-dev-moon/u-boot-2011.09/arch/arm/lib/eabi_compat.o
LOAD ./openssl/libssl.a
LOAD ./openssl/libcrypto.a
LOAD /home/taga/NuttX/brandy-dev-moon/gcc-linaro/bin/../lib/gcc/arm-linux-gnueabi/4.6.3/libgcc.a
OUTPUT(u-boot elf32-littlearm)

.debug_info     0x00000000    0xc57f5
 .debug_info    0x00000000      0x359 arch/arm/cpu/armv7/sun8iw5/spare_head.o
 .debug_info    0x00000359       0x95 arch/arm/cpu/armv7/sun8iw5/../uboot_hash.o
 .debug_info    0x000003ee       0x71 arch/arm/cpu/armv7/start.o
 .debug_info    0x0000045f      0xaf9 arch/arm/cpu/armv7/libarmv7.o
 .debug_info    0x00000f58     0x85cd arch/arm/cpu/armv7/sun8iw5/libsun8iw5.o
 .debug_info    0x00009525     0x2ebd arch/arm/lib/libarm.o
 .debug_info    0x0000c3e2    0x169b3 common/libcommon.o
 .debug_info    0x00022d95     0x1343 disk/libdisk.o
 .debug_info    0x000240d8      0x932 drivers/dma/libdma.o
 .debug_info    0x00024a0a     0x74dd drivers/mmc/libmmc.o
 .debug_info    0x0002bee7       0xe6 drivers/pcmcia/libpcmcia.o
 .debug_info    0x0002bfcd     0x316c drivers/power/libpower.o
 .debug_info    0x0002f139      0x60b drivers/pwm/libsunxi_pwm.o
 .debug_info    0x0002f744     0x1582 drivers/rsb/librsb.o
 .debug_info    0x00030cc6       0x73 drivers/rtc/librtc.o
 .debug_info    0x00030d39     0x125c drivers/serial/libserial.o
 .debug_info    0x00031f95      0x490 drivers/smc/libsmc.o
 .debug_info    0x00032425      0xb4d drivers/spi/libspi.o
 .debug_info    0x00032f72     0x1170 drivers/spinor/libspinor.o
 .debug_info    0x000340e2     0x1ff6 drivers/storage_type/libstorage_type.o
 .debug_info    0x000360d8     0x549e drivers/usb/gadget/libusb_gadget.o
 .debug_info    0x0003b576     0x41b2 drivers/usb/sunxi_usb/libusb_sunxi_usb.o
 .debug_info    0x0003f728    0x2d9f2 drivers/video_sunxi/libvideo_sunxi.o
 .debug_info    0x0006d11a     0x2959 fs/aw_fs/libawfat.o
 .debug_info    0x0006fa73     0x2fed fs/fat/libfat.o
 .debug_info    0x00072a60     0x39db lib/libgeneric.o
 .debug_info    0x0007643b     0x1040 lib/zlib/libz.o
 .debug_info    0x0007747b      0x9aa memtest/libsunxi_memtest.o
 .debug_info    0x00077e25      0xba9 nand_sunxi/sun8iw5/nand_interface/libnand_interface.o
 .debug_info    0x000789ce     0x2845 nand_sunxi/sun8iw5/osal/libnand_osal.o
 .debug_info    0x0007b213     0x419d net/libnet.o
 .debug_info    0x0007f3b0     0x6c58 sprite/libsprite.o
 .debug_info    0x00086008     0x9b07 usb_sunxi/libsunxi_usb.o
 .debug_info    0x0008fb0f      0x9a5 board/sunxi/sun8iw5/libsun8iw5.o
 .debug_info    0x000904b4     0xb049 board/sunxi/libsunxi.o
 .debug_info    0x0009b4fd     0x2149 nand_sunxi/sun8iw5/libnand-sun8iw5(nftl_uboot_interface.o)
 .debug_info    0x0009d646     0x1397 nand_sunxi/sun8iw5/libnand-sun8iw5(nand_format.o)
 .debug_info    0x0009e9dd     0x2104 nand_sunxi/sun8iw5/libnand-sun8iw5(nand_phy.o)
 .debug_info    0x000a0ae1     0x18f5 nand_sunxi/sun8iw5/libnand-sun8iw5(nand_physic_interface.o)
 .debug_info    0x000a23d6     0x1b1e nand_sunxi/sun8iw5/libnand-sun8iw5(nand_scan.o)
 .debug_info    0x000a3ef4     0x3a35 nand_sunxi/sun8iw5/libnand-sun8iw5(nand_simple_r.o)
 .debug_info    0x000a7929     0x1182 nand_sunxi/sun8iw5/libnand-sun8iw5(nand_simple_w.o)
 .debug_info    0x000a8aab      0xe3c nand_sunxi/sun8iw5/libnand-sun8iw5(nfc_reg.o)
 .debug_info    0x000a98e7     0x2a1f nand_sunxi/sun8iw5/libnand-sun8iw5(nfc_r.o)
 .debug_info    0x000ac306     0x1d7c nand_sunxi/sun8iw5/libnand-sun8iw5(nfc_w.o)
 .debug_info    0x000ae082     0x1d00 nand_sunxi/sun8iw5/libnand-sun8iw5(nand_info_init_v2.o)
 .debug_info    0x000afd82      0xcab nand_sunxi/sun8iw5/libnand-sun8iw5(build_phy_partition_v2.o)
 .debug_info    0x000b0a2d      0xdec nand_sunxi/sun8iw5/libnand-sun8iw5(build_nand_partition.o)
 .debug_info    0x000b1819     0x1220 nand_sunxi/sun8iw5/libnand-sun8iw5(build_phy_partition.o)
 .debug_info    0x000b2a39     0x114b nand_sunxi/sun8iw5/libnand-sun8iw5(nand_info_init.o)
 .debug_info    0x000b3b84     0x175e nand_sunxi/sun8iw5/libnand-sun8iw5(nftl_common.o)
 .debug_info    0x000b52e2     0x37c4 nand_sunxi/sun8iw5/libnand-sun8iw5(nftl_build.o)
 .debug_info    0x000b8aa6      0xf74 nand_sunxi/sun8iw5/libnand-sun8iw5(nftl_interface.o)
 .debug_info    0x000b9a1a     0x1eea nand_sunxi/sun8iw5/libnand-sun8iw5(nftl_init.o)
 .debug_info    0x000bb904      0x5eb nand_sunxi/sun8iw5/libnand-sun8iw5(nand_id.o)
 .debug_info    0x000bbeef     0x1739 nand_sunxi/sun8iw5/libnand-sun8iw5(nftl_list.o)
 .debug_info    0x000bd628     0x17eb nand_sunxi/sun8iw5/libnand-sun8iw5(nftl_logic.o)
 .debug_info    0x000bee13     0x1595 nand_sunxi/sun8iw5/libnand-sun8iw5(nftl_gc.o)
 .debug_info    0x000c03a8     0x26c2 nand_sunxi/sun8iw5/libnand-sun8iw5(nftl_cache.o)
 .debug_info    0x000c2a6a     0x1042 nand_sunxi/sun8iw5/libnand-sun8iw5(nftl_start.o)
 .debug_info    0x000c3aac     0x1c95 nand_sunxi/sun8iw5/libnand-sun8iw5(nftl_hw_interface.o)
 .debug_info    0x000c5741       0xb4 /home/taga/NuttX/brandy-dev-moon/u-boot-2011.09/arch/arm/lib/eabi_compat.o

.debug_abbrev   0x00000000    0x1d840
 .debug_abbrev  0x00000000       0x98 arch/arm/cpu/armv7/sun8iw5/spare_head.o
 .debug_abbrev  0x00000098       0x4d arch/arm/cpu/armv7/sun8iw5/../uboot_hash.o
 .debug_abbrev  0x000000e5       0x14 arch/arm/cpu/armv7/start.o
 .debug_abbrev  0x000000f9      0x3b9 arch/arm/cpu/armv7/libarmv7.o
 .debug_abbrev  0x000004b2     0x15ef arch/arm/cpu/armv7/sun8iw5/libsun8iw5.o
 .debug_abbrev  0x00001aa1      0xa08 arch/arm/lib/libarm.o
 .debug_abbrev  0x000024a9     0x4dbc common/libcommon.o
 .debug_abbrev  0x00007265      0x455 disk/libdisk.o
 .debug_abbrev  0x000076ba      0x26b drivers/dma/libdma.o
 .debug_abbrev  0x00007925      0xa3a drivers/mmc/libmmc.o
 .debug_abbrev  0x0000835f       0x54 drivers/pcmcia/libpcmcia.o
 .debug_abbrev  0x000083b3      0x7b7 drivers/power/libpower.o
 .debug_abbrev  0x00008b6a      0x296 drivers/pwm/libsunxi_pwm.o
 .debug_abbrev  0x00008e00      0x309 drivers/rsb/librsb.o
 .debug_abbrev  0x00009109       0x2a drivers/rtc/librtc.o
 .debug_abbrev  0x00009133      0x355 drivers/serial/libserial.o
 .debug_abbrev  0x00009488       0xd6 drivers/smc/libsmc.o
 .debug_abbrev  0x0000955e      0x302 drivers/spi/libspi.o
 .debug_abbrev  0x00009860      0x345 drivers/spinor/libspinor.o
 .debug_abbrev  0x00009ba5      0x363 drivers/storage_type/libstorage_type.o
 .debug_abbrev  0x00009f08      0xcc2 drivers/usb/gadget/libusb_gadget.o
 .debug_abbrev  0x0000abca      0x8cb drivers/usb/sunxi_usb/libusb_sunxi_usb.o
 .debug_abbrev  0x0000b495     0x516c drivers/video_sunxi/libvideo_sunxi.o
 .debug_abbrev  0x00010601      0x443 fs/aw_fs/libawfat.o
 .debug_abbrev  0x00010a44      0x827 fs/fat/libfat.o
 .debug_abbrev  0x0001126b     0x144e lib/libgeneric.o
 .debug_abbrev  0x000126b9      0x335 lib/zlib/libz.o
 .debug_abbrev  0x000129ee       0xf4 memtest/libsunxi_memtest.o
 .debug_abbrev  0x00012ae2      0x273 nand_sunxi/sun8iw5/nand_interface/libnand_interface.o
 .debug_abbrev  0x00012d55      0x6fe nand_sunxi/sun8iw5/osal/libnand_osal.o
 .debug_abbrev  0x00013453     0x10ab net/libnet.o
 .debug_abbrev  0x000144fe     0x15e3 sprite/libsprite.o
 .debug_abbrev  0x00015ae1     0x193d usb_sunxi/libsunxi_usb.o
 .debug_abbrev  0x0001741e      0x24a board/sunxi/sun8iw5/libsun8iw5.o
 .debug_abbrev  0x00017668     0x1e2f board/sunxi/libsunxi.o
 .debug_abbrev  0x00019497      0x38b nand_sunxi/sun8iw5/libnand-sun8iw5(nftl_uboot_interface.o)
 .debug_abbrev  0x00019822      0x277 nand_sunxi/sun8iw5/libnand-sun8iw5(nand_format.o)
 .debug_abbrev  0x00019a99      0x2f5 nand_sunxi/sun8iw5/libnand-sun8iw5(nand_phy.o)
 .debug_abbrev  0x00019d8e      0x338 nand_sunxi/sun8iw5/libnand-sun8iw5(nand_physic_interface.o)
 .debug_abbrev  0x0001a0c6      0x364 nand_sunxi/sun8iw5/libnand-sun8iw5(nand_scan.o)
 .debug_abbrev  0x0001a42a      0x468 nand_sunxi/sun8iw5/libnand-sun8iw5(nand_simple_r.o)
 .debug_abbrev  0x0001a892      0x1c6 nand_sunxi/sun8iw5/libnand-sun8iw5(nand_simple_w.o)
 .debug_abbrev  0x0001aa58      0x10d nand_sunxi/sun8iw5/libnand-sun8iw5(nfc_reg.o)
 .debug_abbrev  0x0001ab65      0x329 nand_sunxi/sun8iw5/libnand-sun8iw5(nfc_r.o)
 .debug_abbrev  0x0001ae8e      0x1fd nand_sunxi/sun8iw5/libnand-sun8iw5(nfc_w.o)
 .debug_abbrev  0x0001b08b      0x2e6 nand_sunxi/sun8iw5/libnand-sun8iw5(nand_info_init_v2.o)
 .debug_abbrev  0x0001b371      0x1b9 nand_sunxi/sun8iw5/libnand-sun8iw5(build_phy_partition_v2.o)
 .debug_abbrev  0x0001b52a      0x190 nand_sunxi/sun8iw5/libnand-sun8iw5(build_nand_partition.o)
 .debug_abbrev  0x0001b6ba      0x2b3 nand_sunxi/sun8iw5/libnand-sun8iw5(build_phy_partition.o)
 .debug_abbrev  0x0001b96d      0x249 nand_sunxi/sun8iw5/libnand-sun8iw5(nand_info_init.o)
 .debug_abbrev  0x0001bbb6      0x303 nand_sunxi/sun8iw5/libnand-sun8iw5(nftl_common.o)
 .debug_abbrev  0x0001beb9      0x3b9 nand_sunxi/sun8iw5/libnand-sun8iw5(nftl_build.o)
 .debug_abbrev  0x0001c272      0x198 nand_sunxi/sun8iw5/libnand-sun8iw5(nftl_interface.o)
 .debug_abbrev  0x0001c40a      0x2a6 nand_sunxi/sun8iw5/libnand-sun8iw5(nftl_init.o)
 .debug_abbrev  0x0001c6b0       0xae nand_sunxi/sun8iw5/libnand-sun8iw5(nand_id.o)
 .debug_abbrev  0x0001c75e      0x262 nand_sunxi/sun8iw5/libnand-sun8iw5(nftl_list.o)
 .debug_abbrev  0x0001c9c0      0x3c5 nand_sunxi/sun8iw5/libnand-sun8iw5(nftl_logic.o)
 .debug_abbrev  0x0001cd85      0x323 nand_sunxi/sun8iw5/libnand-sun8iw5(nftl_gc.o)
 .debug_abbrev  0x0001d0a8      0x35c nand_sunxi/sun8iw5/libnand-sun8iw5(nftl_cache.o)
 .debug_abbrev  0x0001d404      0x20b nand_sunxi/sun8iw5/libnand-sun8iw5(nftl_start.o)
 .debug_abbrev  0x0001d60f      0x1ca nand_sunxi/sun8iw5/libnand-sun8iw5(nftl_hw_interface.o)
 .debug_abbrev  0x0001d7d9       0x67 /home/taga/NuttX/brandy-dev-moon/u-boot-2011.09/arch/arm/lib/eabi_compat.o

.debug_line     0x00000000    0x2a54a
 .debug_line    0x00000000       0xd1 arch/arm/cpu/armv7/sun8iw5/spare_head.o
 .debug_line    0x000000d1       0x2d arch/arm/cpu/armv7/sun8iw5/../uboot_hash.o
 .debug_line    0x000000fe       0xf5 arch/arm/cpu/armv7/start.o
 .debug_line    0x000001f3      0x27a arch/arm/cpu/armv7/libarmv7.o
 .debug_line    0x0000046d     0x1894 arch/arm/cpu/armv7/sun8iw5/libsun8iw5.o
 .debug_line    0x00001d01      0x9dd arch/arm/lib/libarm.o
 .debug_line    0x000026de     0x5430 common/libcommon.o
 .debug_line    0x00007b0e      0x3c6 disk/libdisk.o
 .debug_line    0x00007ed4      0x2be drivers/dma/libdma.o
 .debug_line    0x00008192     0x1472 drivers/mmc/libmmc.o
 .debug_line    0x00009604       0x3a drivers/pcmcia/libpcmcia.o
 .debug_line    0x0000963e      0xa73 drivers/power/libpower.o
 .debug_line    0x0000a0b1      0x1bf drivers/pwm/libsunxi_pwm.o
 .debug_line    0x0000a270      0x293 drivers/rsb/librsb.o
 .debug_line    0x0000a503       0x1d drivers/rtc/librtc.o
 .debug_line    0x0000a520      0x300 drivers/serial/libserial.o
 .debug_line    0x0000a820      0x137 drivers/smc/libsmc.o
 .debug_line    0x0000a957      0x2d5 drivers/spi/libspi.o
 .debug_line    0x0000ac2c      0x3e7 drivers/spinor/libspinor.o
 .debug_line    0x0000b013      0x392 drivers/storage_type/libstorage_type.o
 .debug_line    0x0000b3a5     0x111c drivers/usb/gadget/libusb_gadget.o
 .debug_line    0x0000c4c1      0xcc1 drivers/usb/sunxi_usb/libusb_sunxi_usb.o
 .debug_line    0x0000d182     0x730f drivers/video_sunxi/libvideo_sunxi.o
 .debug_line    0x00014491      0xb9e fs/aw_fs/libawfat.o
 .debug_line    0x0001502f      0xbec fs/fat/libfat.o
 .debug_line    0x00015c1b     0x1a9b lib/libgeneric.o
 .debug_line    0x000176b6      0xb1a lib/zlib/libz.o
 .debug_line    0x000181d0      0x3cc memtest/libsunxi_memtest.o
 .debug_line    0x0001859c      0x307 nand_sunxi/sun8iw5/nand_interface/libnand_interface.o
 .debug_line    0x000188a3      0xc13 nand_sunxi/sun8iw5/osal/libnand_osal.o
 .debug_line    0x000194b6     0x1223 net/libnet.o
 .debug_line    0x0001a6d9     0x1e06 sprite/libsprite.o
 .debug_line    0x0001c4df     0x205d usb_sunxi/libsunxi_usb.o
 .debug_line    0x0001e53c      0x1f8 board/sunxi/sun8iw5/libsun8iw5.o
 .debug_line    0x0001e734     0x28b8 board/sunxi/libsunxi.o
 .debug_line    0x00020fec      0x3c8 nand_sunxi/sun8iw5/libnand-sun8iw5(nftl_uboot_interface.o)
 .debug_line    0x000213b4      0x432 nand_sunxi/sun8iw5/libnand-sun8iw5(nand_format.o)
 .debug_line    0x000217e6     0x12c8 nand_sunxi/sun8iw5/libnand-sun8iw5(nand_phy.o)
 .debug_line    0x00022aae      0x60e nand_sunxi/sun8iw5/libnand-sun8iw5(nand_physic_interface.o)
 .debug_line    0x000230bc      0x600 nand_sunxi/sun8iw5/libnand-sun8iw5(nand_scan.o)
 .debug_line    0x000236bc     0x1115 nand_sunxi/sun8iw5/libnand-sun8iw5(nand_simple_r.o)
 .debug_line    0x000247d1      0x406 nand_sunxi/sun8iw5/libnand-sun8iw5(nand_simple_w.o)
 .debug_line    0x00024bd7      0x38d nand_sunxi/sun8iw5/libnand-sun8iw5(nfc_reg.o)
 .debug_line    0x00024f64     0x10de nand_sunxi/sun8iw5/libnand-sun8iw5(nfc_r.o)
 .debug_line    0x00026042      0x881 nand_sunxi/sun8iw5/libnand-sun8iw5(nfc_w.o)
 .debug_line    0x000268c3      0x7be nand_sunxi/sun8iw5/libnand-sun8iw5(nand_info_init_v2.o)
 .debug_line    0x00027081      0x329 nand_sunxi/sun8iw5/libnand-sun8iw5(build_phy_partition_v2.o)
 .debug_line    0x000273aa      0x16f nand_sunxi/sun8iw5/libnand-sun8iw5(build_nand_partition.o)
 .debug_line    0x00027519      0x34c nand_sunxi/sun8iw5/libnand-sun8iw5(build_phy_partition.o)
 .debug_line    0x00027865      0x3e6 nand_sunxi/sun8iw5/libnand-sun8iw5(nand_info_init.o)
 .debug_line    0x00027c4b      0x2cb nand_sunxi/sun8iw5/libnand-sun8iw5(nftl_common.o)
 .debug_line    0x00027f16      0xd81 nand_sunxi/sun8iw5/libnand-sun8iw5(nftl_build.o)
 .debug_line    0x00028c97      0x15e nand_sunxi/sun8iw5/libnand-sun8iw5(nftl_interface.o)
 .debug_line    0x00028df5      0x291 nand_sunxi/sun8iw5/libnand-sun8iw5(nftl_init.o)
 .debug_line    0x00029086       0x8b nand_sunxi/sun8iw5/libnand-sun8iw5(nand_id.o)
 .debug_line    0x00029111      0x369 nand_sunxi/sun8iw5/libnand-sun8iw5(nftl_list.o)
 .debug_line    0x0002947a      0x3a5 nand_sunxi/sun8iw5/libnand-sun8iw5(nftl_logic.o)
 .debug_line    0x0002981f      0x35a nand_sunxi/sun8iw5/libnand-sun8iw5(nftl_gc.o)
 .debug_line    0x00029b79      0x54b nand_sunxi/sun8iw5/libnand-sun8iw5(nftl_cache.o)
 .debug_line    0x0002a0c4      0x209 nand_sunxi/sun8iw5/libnand-sun8iw5(nftl_start.o)
 .debug_line    0x0002a2cd      0x23c nand_sunxi/sun8iw5/libnand-sun8iw5(nftl_hw_interface.o)
 .debug_line    0x0002a509       0x41 /home/taga/NuttX/brandy-dev-moon/u-boot-2011.09/arch/arm/lib/eabi_compat.o

.debug_str      0x00000000    0x27da5
 .debug_str     0x00000000      0x231 arch/arm/cpu/armv7/sun8iw5/spare_head.o
                                0x2de (size before relaxing)
 .debug_str     0x00000231       0x50 arch/arm/cpu/armv7/sun8iw5/../uboot_hash.o
                                0x10c (size before relaxing)
 .debug_str     0x00000281      0x331 arch/arm/cpu/armv7/libarmv7.o
                                0x69f (size before relaxing)
 .debug_str     0x000005b2     0x26db arch/arm/cpu/armv7/sun8iw5/libsun8iw5.o
                               0x3ba1 (size before relaxing)
 .debug_str     0x00002c8d      0x875 arch/arm/lib/libarm.o
                               0x1d4d (size before relaxing)
 .debug_str     0x00003502     0x3b46 common/libcommon.o
                               0xb940 (size before relaxing)
 .debug_str     0x00007048      0x24c disk/libdisk.o
                                0xa58 (size before relaxing)
 .debug_str     0x00007294      0x2e9 drivers/dma/libdma.o
                                0x4fd (size before relaxing)
 .debug_str     0x0000757d      0xedf drivers/mmc/libmmc.o
                               0x24e1 (size before relaxing)
 .debug_str     0x0000845c       0x5c drivers/pcmcia/libpcmcia.o
                                0x1f1 (size before relaxing)
 .debug_str     0x000084b8      0xdd2 drivers/power/libpower.o
                               0x1be4 (size before relaxing)
 .debug_str     0x0000928a      0x1ad drivers/pwm/libsunxi_pwm.o
                                0x2c3 (size before relaxing)
 .debug_str     0x00009437      0x244 drivers/rsb/librsb.o
                                0x5cb (size before relaxing)
 .debug_str     0x0000967b       0x43 drivers/rtc/librtc.o
                                 0xee (size before relaxing)
 .debug_str     0x000096be      0x23e drivers/serial/libserial.o
                                0xa24 (size before relaxing)
 .debug_str     0x000098fc       0x48 drivers/smc/libsmc.o
                                0x383 (size before relaxing)
 .debug_str     0x00009944      0x227 drivers/spi/libspi.o
                                0x3ea (size before relaxing)
 .debug_str     0x00009b6b      0x3fc drivers/spinor/libspinor.o
                                0x87d (size before relaxing)
 .debug_str     0x00009f67      0x8c2 drivers/storage_type/libstorage_type.o
                               0x105e (size before relaxing)
 .debug_str     0x0000a829     0x13a2 drivers/usb/gadget/libusb_gadget.o
                               0x22b0 (size before relaxing)
 .debug_str     0x0000bbcb      0xb82 drivers/usb/sunxi_usb/libusb_sunxi_usb.o
                               0x1b98 (size before relaxing)
 .debug_str     0x0000c74d     0xd79a drivers/video_sunxi/libvideo_sunxi.o
                              0x214bb (size before relaxing)
 .debug_str     0x00019ee7      0x5d4 fs/aw_fs/libawfat.o
                                0x8f6 (size before relaxing)
 .debug_str     0x0001a4bb      0x6cb fs/fat/libfat.o
                               0x11e7 (size before relaxing)
 .debug_str     0x0001ab86      0x654 lib/libgeneric.o
                               0x1868 (size before relaxing)
 .debug_str     0x0001b1da      0x2cf lib/zlib/libz.o
                                0x592 (size before relaxing)
 .debug_str     0x0001b4a9      0x1cf memtest/libsunxi_memtest.o
                                0x2a1 (size before relaxing)
 .debug_str     0x0001b678      0x22a nand_sunxi/sun8iw5/nand_interface/libnand_interface.o
                                0x6e4 (size before relaxing)
 .debug_str     0x0001b8a2      0xcf0 nand_sunxi/sun8iw5/osal/libnand_osal.o
                               0x1381 (size before relaxing)
 .debug_str     0x0001c592      0xd1b net/libnet.o
                               0x1af3 (size before relaxing)
 .debug_str     0x0001d2ad     0x1196 sprite/libsprite.o
                               0x3e14 (size before relaxing)
 .debug_str     0x0001e443     0x199c usb_sunxi/libsunxi_usb.o
                               0x53c0 (size before relaxing)
 .debug_str     0x0001fddf      0x113 board/sunxi/sun8iw5/libsun8iw5.o
                                0x650 (size before relaxing)
 .debug_str     0x0001fef2     0x1c1f board/sunxi/libsunxi.o
                               0x74fc (size before relaxing)
 .debug_str     0x00021b11      0xf34 nand_sunxi/sun8iw5/libnand-sun8iw5(nftl_uboot_interface.o)
                               0x1764 (size before relaxing)
 .debug_str     0x00022a45      0x363 nand_sunxi/sun8iw5/libnand-sun8iw5(nand_format.o)
                                0xb3b (size before relaxing)
 .debug_str     0x00022da8      0x649 nand_sunxi/sun8iw5/libnand-sun8iw5(nand_phy.o)
                                0xbf9 (size before relaxing)
 .debug_str     0x000233f1      0x4ba nand_sunxi/sun8iw5/libnand-sun8iw5(nand_physic_interface.o)
                                0xe77 (size before relaxing)
 .debug_str     0x000238ab      0x54b nand_sunxi/sun8iw5/libnand-sun8iw5(nand_scan.o)
                               0x1049 (size before relaxing)
 .debug_str     0x00023df6      0x820 nand_sunxi/sun8iw5/libnand-sun8iw5(nand_simple_r.o)
                               0x1540 (size before relaxing)
 .debug_str     0x00024616      0x212 nand_sunxi/sun8iw5/libnand-sun8iw5(nand_simple_w.o)
                                0x677 (size before relaxing)
 .debug_str     0x00024828      0x8c6 nand_sunxi/sun8iw5/libnand-sun8iw5(nfc_reg.o)
                                0x9f9 (size before relaxing)
 .debug_str     0x000250ee      0xb0d nand_sunxi/sun8iw5/libnand-sun8iw5(nfc_r.o)
                               0x1023 (size before relaxing)
 .debug_str     0x00025bfb      0x394 nand_sunxi/sun8iw5/libnand-sun8iw5(nfc_w.o)
                                0x873 (size before relaxing)
 .debug_str     0x00025f8f      0x30d nand_sunxi/sun8iw5/libnand-sun8iw5(nand_info_init_v2.o)
                                0xb91 (size before relaxing)
 .debug_str     0x0002629c       0xd2 nand_sunxi/sun8iw5/libnand-sun8iw5(build_phy_partition_v2.o)
                                0x89a (size before relaxing)
 .debug_str     0x0002636e       0x5a nand_sunxi/sun8iw5/libnand-sun8iw5(build_nand_partition.o)
                                0x9ea (size before relaxing)
 .debug_str     0x000263c8      0x171 nand_sunxi/sun8iw5/libnand-sun8iw5(build_phy_partition.o)
                                0xa9b (size before relaxing)
 .debug_str     0x00026539      0x198 nand_sunxi/sun8iw5/libnand-sun8iw5(nand_info_init.o)
                                0xa2b (size before relaxing)
 .debug_str     0x000266d1      0x28a nand_sunxi/sun8iw5/libnand-sun8iw5(nftl_common.o)
                               0x103b (size before relaxing)
 .debug_str     0x0002695b      0x663 nand_sunxi/sun8iw5/libnand-sun8iw5(nftl_build.o)
                               0x1de3 (size before relaxing)
 .debug_str     0x00026fbe       0x7d nand_sunxi/sun8iw5/libnand-sun8iw5(nftl_interface.o)
                                0xd0b (size before relaxing)
 .debug_str     0x0002703b       0xb7 nand_sunxi/sun8iw5/libnand-sun8iw5(nftl_init.o)
                               0x1686 (size before relaxing)
 .debug_str     0x000270f2      0x144 nand_sunxi/sun8iw5/libnand-sun8iw5(nand_id.o)
                                0x543 (size before relaxing)
 .debug_str     0x00027236      0x390 nand_sunxi/sun8iw5/libnand-sun8iw5(nftl_list.o)
                               0x10f8 (size before relaxing)
 .debug_str     0x000275c6      0x254 nand_sunxi/sun8iw5/libnand-sun8iw5(nftl_logic.o)
                               0x1004 (size before relaxing)
 .debug_str     0x0002781a      0x185 nand_sunxi/sun8iw5/libnand-sun8iw5(nftl_gc.o)
                                0xf50 (size before relaxing)
 .debug_str     0x0002799f      0x269 nand_sunxi/sun8iw5/libnand-sun8iw5(nftl_cache.o)
                               0x1870 (size before relaxing)
 .debug_str     0x00027c08       0xd0 nand_sunxi/sun8iw5/libnand-sun8iw5(nftl_start.o)
                                0xe4c (size before relaxing)
 .debug_str     0x00027cd8       0x9b nand_sunxi/sun8iw5/libnand-sun8iw5(nftl_hw_interface.o)
                               0x1572 (size before relaxing)
 .debug_str     0x00027d73       0x32 /home/taga/NuttX/brandy-dev-moon/u-boot-2011.09/arch/arm/lib/eabi_compat.o
                                0x11a (size before relaxing)

.comment        0x00000000       0x64
 .comment       0x00000000       0x64 arch/arm/cpu/armv7/sun8iw5/spare_head.o
                                 0x65 (size before relaxing)
 .comment       0x00000000       0x65 arch/arm/cpu/armv7/sun8iw5/../uboot_hash.o
 .comment       0x00000000      0x12f arch/arm/cpu/armv7/libarmv7.o
 .comment       0x00000000      0x4bc arch/arm/cpu/armv7/sun8iw5/libsun8iw5.o
 .comment       0x00000000      0x25e arch/arm/lib/libarm.o
 .comment       0x00000000     0x1092 common/libcommon.o
 .comment       0x00000000       0xca disk/libdisk.o
 .comment       0x00000000       0x65 drivers/dma/libdma.o
 .comment       0x00000000       0xca drivers/mmc/libmmc.o
 .comment       0x00000000       0xca drivers/pcmcia/libpcmcia.o
 .comment       0x00000000      0x1f9 drivers/power/libpower.o
 .comment       0x00000000       0x65 drivers/pwm/libsunxi_pwm.o
 .comment       0x00000000       0x65 drivers/rsb/librsb.o
 .comment       0x00000000       0x65 drivers/rtc/librtc.o
 .comment       0x00000000       0xca drivers/serial/libserial.o
 .comment       0x00000000       0x65 drivers/smc/libsmc.o
 .comment       0x00000000       0x65 drivers/spi/libspi.o
 .comment       0x00000000       0x65 drivers/spinor/libspinor.o
 .comment       0x00000000       0x65 drivers/storage_type/libstorage_type.o
 .comment       0x00000000      0x1f9 drivers/usb/gadget/libusb_gadget.o
 .comment       0x00000000      0x12f drivers/usb/sunxi_usb/libusb_sunxi_usb.o
 .comment       0x00000000     0x10f7 drivers/video_sunxi/libvideo_sunxi.o
 .comment       0x00000000       0xca fs/aw_fs/libawfat.o
 .comment       0x00000000      0x12f fs/fat/libfat.o
 .comment       0x00000000      0x6b5 lib/libgeneric.o
 .comment       0x00000000       0x65 lib/zlib/libz.o
 .comment       0x00000000       0x65 memtest/libsunxi_memtest.o
 .comment       0x00000000       0xca nand_sunxi/sun8iw5/nand_interface/libnand_interface.o
 .comment       0x00000000       0xca nand_sunxi/sun8iw5/osal/libnand_osal.o
 .comment       0x00000000      0x1f9 net/libnet.o
 .comment       0x00000000      0x5eb sprite/libsprite.o
 .comment       0x00000000      0x3f2 usb_sunxi/libsunxi_usb.o
 .comment       0x00000000       0x65 board/sunxi/sun8iw5/libsun8iw5.o
 .comment       0x00000000      0x6b5 board/sunxi/libsunxi.o
 .comment       0x00000000       0x65 nand_sunxi/sun8iw5/libnand-sun8iw5(nftl_uboot_interface.o)
 .comment       0x00000000       0x65 nand_sunxi/sun8iw5/libnand-sun8iw5(nand_format.o)
 .comment       0x00000000       0x65 nand_sunxi/sun8iw5/libnand-sun8iw5(nand_phy.o)
 .comment       0x00000000       0x65 nand_sunxi/sun8iw5/libnand-sun8iw5(nand_physic_interface.o)
 .comment       0x00000000       0x65 nand_sunxi/sun8iw5/libnand-sun8iw5(nand_scan.o)
 .comment       0x00000000       0x65 nand_sunxi/sun8iw5/libnand-sun8iw5(nand_simple_r.o)
 .comment       0x00000000       0x65 nand_sunxi/sun8iw5/libnand-sun8iw5(nand_simple_w.o)
 .comment       0x00000000       0x65 nand_sunxi/sun8iw5/libnand-sun8iw5(nfc_reg.o)
 .comment       0x00000000       0x65 nand_sunxi/sun8iw5/libnand-sun8iw5(nfc_r.o)
 .comment       0x00000000       0x65 nand_sunxi/sun8iw5/libnand-sun8iw5(nfc_w.o)
 .comment       0x00000000       0x65 nand_sunxi/sun8iw5/libnand-sun8iw5(nand_info_init_v2.o)
 .comment       0x00000000       0x65 nand_sunxi/sun8iw5/libnand-sun8iw5(build_phy_partition_v2.o)
 .comment       0x00000000       0x65 nand_sunxi/sun8iw5/libnand-sun8iw5(build_nand_partition.o)
 .comment       0x00000000       0x65 nand_sunxi/sun8iw5/libnand-sun8iw5(build_phy_partition.o)
 .comment       0x00000000       0x65 nand_sunxi/sun8iw5/libnand-sun8iw5(nand_info_init.o)
 .comment       0x00000000       0x65 nand_sunxi/sun8iw5/libnand-sun8iw5(nftl_common.o)
 .comment       0x00000000       0x65 nand_sunxi/sun8iw5/libnand-sun8iw5(nftl_build.o)
 .comment       0x00000000       0x65 nand_sunxi/sun8iw5/libnand-sun8iw5(nftl_interface.o)
 .comment       0x00000000       0x65 nand_sunxi/sun8iw5/libnand-sun8iw5(nftl_init.o)
 .comment       0x00000000       0x65 nand_sunxi/sun8iw5/libnand-sun8iw5(nand_id.o)
 .comment       0x00000000       0x65 nand_sunxi/sun8iw5/libnand-sun8iw5(nftl_list.o)
 .comment       0x00000000       0x65 nand_sunxi/sun8iw5/libnand-sun8iw5(nftl_logic.o)
 .comment       0x00000000       0x65 nand_sunxi/sun8iw5/libnand-sun8iw5(nftl_gc.o)
 .comment       0x00000000       0x65 nand_sunxi/sun8iw5/libnand-sun8iw5(nftl_cache.o)
 .comment       0x00000000       0x65 nand_sunxi/sun8iw5/libnand-sun8iw5(nftl_start.o)
 .comment       0x00000000       0x65 nand_sunxi/sun8iw5/libnand-sun8iw5(nftl_hw_interface.o)
 .comment       0x00000000       0x65 /home/taga/NuttX/brandy-dev-moon/u-boot-2011.09/arch/arm/lib/eabi_compat.o

.note.GNU-stack
                0x00000000        0x0
 .note.GNU-stack
                0x00000000        0x0 arch/arm/cpu/armv7/sun8iw5/spare_head.o
 .note.GNU-stack
                0x00000000        0x0 arch/arm/cpu/armv7/sun8iw5/../uboot_hash.o
 .note.GNU-stack
                0x00000000        0x0 arch/arm/cpu/armv7/libarmv7.o
 .note.GNU-stack
                0x00000000        0x0 arch/arm/cpu/armv7/sun8iw5/libsun8iw5.o
 .note.GNU-stack
                0x00000000        0x0 arch/arm/lib/libarm.o
 .note.GNU-stack
                0x00000000        0x0 common/libcommon.o
 .note.GNU-stack
                0x00000000        0x0 disk/libdisk.o
 .note.GNU-stack
                0x00000000        0x0 drivers/dma/libdma.o
 .note.GNU-stack
                0x00000000        0x0 drivers/mmc/libmmc.o
 .note.GNU-stack
                0x00000000        0x0 drivers/pcmcia/libpcmcia.o
 .note.GNU-stack
                0x00000000        0x0 drivers/power/libpower.o
 .note.GNU-stack
                0x00000000        0x0 drivers/pwm/libsunxi_pwm.o
 .note.GNU-stack
                0x00000000        0x0 drivers/rsb/librsb.o
 .note.GNU-stack
                0x00000000        0x0 drivers/rtc/librtc.o
 .note.GNU-stack
                0x00000000        0x0 drivers/serial/libserial.o
 .note.GNU-stack
                0x00000000        0x0 drivers/smc/libsmc.o
 .note.GNU-stack
                0x00000000        0x0 drivers/spi/libspi.o
 .note.GNU-stack
                0x00000000        0x0 drivers/spinor/libspinor.o
 .note.GNU-stack
                0x00000000        0x0 drivers/storage_type/libstorage_type.o
 .note.GNU-stack
                0x00000000        0x0 drivers/usb/gadget/libusb_gadget.o
 .note.GNU-stack
                0x00000000        0x0 drivers/usb/sunxi_usb/libusb_sunxi_usb.o
 .note.GNU-stack
                0x00000000        0x0 drivers/video_sunxi/libvideo_sunxi.o
 .note.GNU-stack
                0x00000000        0x0 fs/aw_fs/libawfat.o
 .note.GNU-stack
                0x00000000        0x0 fs/fat/libfat.o
 .note.GNU-stack
                0x00000000        0x0 lib/libgeneric.o
 .note.GNU-stack
                0x00000000        0x0 lib/zlib/libz.o
 .note.GNU-stack
                0x00000000        0x0 memtest/libsunxi_memtest.o
 .note.GNU-stack
                0x00000000        0x0 nand_sunxi/sun8iw5/nand_interface/libnand_interface.o
 .note.GNU-stack
                0x00000000        0x0 nand_sunxi/sun8iw5/osal/libnand_osal.o
 .note.GNU-stack
                0x00000000        0x0 net/libnet.o
 .note.GNU-stack
                0x00000000        0x0 sprite/libsprite.o
 .note.GNU-stack
                0x00000000        0x0 usb_sunxi/libsunxi_usb.o
 .note.GNU-stack
                0x00000000        0x0 board/sunxi/sun8iw5/libsun8iw5.o
 .note.GNU-stack
                0x00000000        0x0 board/sunxi/libsunxi.o
 .note.GNU-stack
                0x00000000        0x0 nand_sunxi/sun8iw5/libnand-sun8iw5(nftl_uboot_interface.o)
 .note.GNU-stack
                0x00000000        0x0 nand_sunxi/sun8iw5/libnand-sun8iw5(nand_format.o)
 .note.GNU-stack
                0x00000000        0x0 nand_sunxi/sun8iw5/libnand-sun8iw5(nand_phy.o)
 .note.GNU-stack
                0x00000000        0x0 nand_sunxi/sun8iw5/libnand-sun8iw5(nand_physic_interface.o)
 .note.GNU-stack
                0x00000000        0x0 nand_sunxi/sun8iw5/libnand-sun8iw5(nand_scan.o)
 .note.GNU-stack
                0x00000000        0x0 nand_sunxi/sun8iw5/libnand-sun8iw5(nand_simple_r.o)
 .note.GNU-stack
                0x00000000        0x0 nand_sunxi/sun8iw5/libnand-sun8iw5(nand_simple_w.o)
 .note.GNU-stack
                0x00000000        0x0 nand_sunxi/sun8iw5/libnand-sun8iw5(nfc_reg.o)
 .note.GNU-stack
                0x00000000        0x0 nand_sunxi/sun8iw5/libnand-sun8iw5(nfc_r.o)
 .note.GNU-stack
                0x00000000        0x0 nand_sunxi/sun8iw5/libnand-sun8iw5(nfc_w.o)
 .note.GNU-stack
                0x00000000        0x0 nand_sunxi/sun8iw5/libnand-sun8iw5(nand_info_init_v2.o)
 .note.GNU-stack
                0x00000000        0x0 nand_sunxi/sun8iw5/libnand-sun8iw5(build_phy_partition_v2.o)
 .note.GNU-stack
                0x00000000        0x0 nand_sunxi/sun8iw5/libnand-sun8iw5(build_nand_partition.o)
 .note.GNU-stack
                0x00000000        0x0 nand_sunxi/sun8iw5/libnand-sun8iw5(build_phy_partition.o)
 .note.GNU-stack
                0x00000000        0x0 nand_sunxi/sun8iw5/libnand-sun8iw5(nand_info_init.o)
 .note.GNU-stack
                0x00000000        0x0 nand_sunxi/sun8iw5/libnand-sun8iw5(nftl_common.o)
 .note.GNU-stack
                0x00000000        0x0 nand_sunxi/sun8iw5/libnand-sun8iw5(nftl_build.o)
 .note.GNU-stack
                0x00000000        0x0 nand_sunxi/sun8iw5/libnand-sun8iw5(nftl_interface.o)
 .note.GNU-stack
                0x00000000        0x0 nand_sunxi/sun8iw5/libnand-sun8iw5(nftl_init.o)
 .note.GNU-stack
                0x00000000        0x0 nand_sunxi/sun8iw5/libnand-sun8iw5(nand_id.o)
 .note.GNU-stack
                0x00000000        0x0 nand_sunxi/sun8iw5/libnand-sun8iw5(nftl_list.o)
 .note.GNU-stack
                0x00000000        0x0 nand_sunxi/sun8iw5/libnand-sun8iw5(nftl_logic.o)
 .note.GNU-stack
                0x00000000        0x0 nand_sunxi/sun8iw5/libnand-sun8iw5(nftl_gc.o)
 .note.GNU-stack
                0x00000000        0x0 nand_sunxi/sun8iw5/libnand-sun8iw5(nftl_cache.o)
 .note.GNU-stack
                0x00000000        0x0 nand_sunxi/sun8iw5/libnand-sun8iw5(nftl_start.o)
 .note.GNU-stack
                0x00000000        0x0 nand_sunxi/sun8iw5/libnand-sun8iw5(nftl_hw_interface.o)
 .note.GNU-stack
                0x00000000        0x0 /home/taga/NuttX/brandy-dev-moon/u-boot-2011.09/arch/arm/lib/eabi_compat.o
 .note.GNU-stack
                0x00000000        0x0 /home/taga/NuttX/brandy-dev-moon/gcc-linaro/bin/../lib/gcc/arm-linux-gnueabi/4.6.3/libgcc.a(_lshrdi3.o)
 .note.GNU-stack
                0x00000000        0x0 /home/taga/NuttX/brandy-dev-moon/gcc-linaro/bin/../lib/gcc/arm-linux-gnueabi/4.6.3/libgcc.a(_ashrdi3.o)
 .note.GNU-stack
                0x00000000        0x0 /home/taga/NuttX/brandy-dev-moon/gcc-linaro/bin/../lib/gcc/arm-linux-gnueabi/4.6.3/libgcc.a(_ashldi3.o)
 .note.GNU-stack
                0x00000000        0x0 /home/taga/NuttX/brandy-dev-moon/gcc-linaro/bin/../lib/gcc/arm-linux-gnueabi/4.6.3/libgcc.a(_arm_addsubdf3.o)
 .note.GNU-stack
                0x00000000        0x0 /home/taga/NuttX/brandy-dev-moon/gcc-linaro/bin/../lib/gcc/arm-linux-gnueabi/4.6.3/libgcc.a(_arm_muldivdf3.o)
 .note.GNU-stack
                0x00000000        0x0 /home/taga/NuttX/brandy-dev-moon/gcc-linaro/bin/../lib/gcc/arm-linux-gnueabi/4.6.3/libgcc.a(_arm_truncdfsf2.o)
 .note.GNU-stack
                0x00000000        0x0 /home/taga/NuttX/brandy-dev-moon/gcc-linaro/bin/../lib/gcc/arm-linux-gnueabi/4.6.3/libgcc.a(_arm_addsubsf3.o)
 .note.GNU-stack
                0x00000000        0x0 /home/taga/NuttX/brandy-dev-moon/gcc-linaro/bin/../lib/gcc/arm-linux-gnueabi/4.6.3/libgcc.a(_arm_muldivsf3.o)
 .note.GNU-stack
                0x00000000        0x0 /home/taga/NuttX/brandy-dev-moon/gcc-linaro/bin/../lib/gcc/arm-linux-gnueabi/4.6.3/libgcc.a(_arm_fixsfsi.o)
 .note.GNU-stack
                0x00000000        0x0 /home/taga/NuttX/brandy-dev-moon/gcc-linaro/bin/../lib/gcc/arm-linux-gnueabi/4.6.3/libgcc.a(_aeabi_uldivmod.o)
 .note.GNU-stack
                0x00000000        0x0 /home/taga/NuttX/brandy-dev-moon/gcc-linaro/bin/../lib/gcc/arm-linux-gnueabi/4.6.3/libgcc.a(_dvmd_lnx.o)
 .note.GNU-stack
                0x00000000        0x0 /home/taga/NuttX/brandy-dev-moon/gcc-linaro/bin/../lib/gcc/arm-linux-gnueabi/4.6.3/libgcc.a(bpabi.o)
 .note.GNU-stack
                0x00000000        0x0 /home/taga/NuttX/brandy-dev-moon/gcc-linaro/bin/../lib/gcc/arm-linux-gnueabi/4.6.3/libgcc.a(_divdi3.o)
 .note.GNU-stack
                0x00000000        0x0 /home/taga/NuttX/brandy-dev-moon/gcc-linaro/bin/../lib/gcc/arm-linux-gnueabi/4.6.3/libgcc.a(_udivdi3.o)
 .note.GNU-stack
                0x00000000        0x0 /home/taga/NuttX/brandy-dev-moon/gcc-linaro/bin/../lib/gcc/arm-linux-gnueabi/4.6.3/libgcc.a(_udivsi3.o)

.ARM.attributes
                0x00000000       0x3f
 .ARM.attributes
                0x00000000       0x3b arch/arm/cpu/armv7/sun8iw5/spare_head.o
 .ARM.attributes
                0x0000003b       0x3b arch/arm/cpu/armv7/sun8iw5/../uboot_hash.o
 .ARM.attributes
                0x00000076       0x2d arch/arm/cpu/armv7/start.o
 .ARM.attributes
                0x000000a3       0x3b arch/arm/cpu/armv7/libarmv7.o
 .ARM.attributes
                0x000000de       0x3d arch/arm/cpu/armv7/sun8iw5/libsun8iw5.o
 .ARM.attributes
                0x0000011b       0x3b arch/arm/lib/libarm.o
 .ARM.attributes
                0x00000156       0x3b common/libcommon.o
 .ARM.attributes
                0x00000191       0x3b disk/libdisk.o
 .ARM.attributes
                0x000001cc       0x3b drivers/dma/libdma.o
 .ARM.attributes
                0x00000207       0x3b drivers/mmc/libmmc.o
 .ARM.attributes
                0x00000242       0x3b drivers/pcmcia/libpcmcia.o
 .ARM.attributes
                0x0000027d       0x3b drivers/power/libpower.o
 .ARM.attributes
                0x000002b8       0x3b drivers/pwm/libsunxi_pwm.o
 .ARM.attributes
                0x000002f3       0x3b drivers/rsb/librsb.o
 .ARM.attributes
                0x0000032e       0x3b drivers/rtc/librtc.o
 .ARM.attributes
                0x00000369       0x3b drivers/serial/libserial.o
 .ARM.attributes
                0x000003a4       0x3d drivers/smc/libsmc.o
 .ARM.attributes
                0x000003e1       0x3b drivers/spi/libspi.o
 .ARM.attributes
                0x0000041c       0x3b drivers/spinor/libspinor.o
 .ARM.attributes
                0x00000457       0x3b drivers/storage_type/libstorage_type.o
 .ARM.attributes
                0x00000492       0x3b drivers/usb/gadget/libusb_gadget.o
 .ARM.attributes
                0x000004cd       0x3b drivers/usb/sunxi_usb/libusb_sunxi_usb.o
 .ARM.attributes
                0x00000508       0x3b drivers/video_sunxi/libvideo_sunxi.o
 .ARM.attributes
                0x00000543       0x3b fs/aw_fs/libawfat.o
 .ARM.attributes
                0x0000057e       0x3b fs/fat/libfat.o
 .ARM.attributes
                0x000005b9       0x3b lib/libgeneric.o
 .ARM.attributes
                0x000005f4       0x3b lib/zlib/libz.o
 .ARM.attributes
                0x0000062f       0x3b memtest/libsunxi_memtest.o
 .ARM.attributes
                0x0000066a       0x3b nand_sunxi/sun8iw5/nand_interface/libnand_interface.o
 .ARM.attributes
                0x000006a5       0x3b nand_sunxi/sun8iw5/osal/libnand_osal.o
 .ARM.attributes
                0x000006e0       0x3b net/libnet.o
 .ARM.attributes
                0x0000071b       0x3b sprite/libsprite.o
 .ARM.attributes
                0x00000756       0x3b usb_sunxi/libsunxi_usb.o
 .ARM.attributes
                0x00000791       0x3b board/sunxi/sun8iw5/libsun8iw5.o
 .ARM.attributes
                0x000007cc       0x3b board/sunxi/libsunxi.o
 .ARM.attributes
                0x00000807       0x3b nand_sunxi/sun8iw5/libnand-sun8iw5(nftl_uboot_interface.o)
 .ARM.attributes
                0x00000842       0x3b nand_sunxi/sun8iw5/libnand-sun8iw5(nand_format.o)
 .ARM.attributes
                0x0000087d       0x3b nand_sunxi/sun8iw5/libnand-sun8iw5(nand_phy.o)
 .ARM.attributes
                0x000008b8       0x3b nand_sunxi/sun8iw5/libnand-sun8iw5(nand_physic_interface.o)
 .ARM.attributes
                0x000008f3       0x3b nand_sunxi/sun8iw5/libnand-sun8iw5(nand_scan.o)
 .ARM.attributes
                0x0000092e       0x3b nand_sunxi/sun8iw5/libnand-sun8iw5(nand_simple_r.o)
 .ARM.attributes
                0x00000969       0x3b nand_sunxi/sun8iw5/libnand-sun8iw5(nand_simple_w.o)
 .ARM.attributes
                0x000009a4       0x3b nand_sunxi/sun8iw5/libnand-sun8iw5(nfc_reg.o)
 .ARM.attributes
                0x000009df       0x3b nand_sunxi/sun8iw5/libnand-sun8iw5(nfc_r.o)
 .ARM.attributes
                0x00000a1a       0x3b nand_sunxi/sun8iw5/libnand-sun8iw5(nfc_w.o)
 .ARM.attributes
                0x00000a55       0x3b nand_sunxi/sun8iw5/libnand-sun8iw5(nand_info_init_v2.o)
 .ARM.attributes
                0x00000a90       0x3b nand_sunxi/sun8iw5/libnand-sun8iw5(build_phy_partition_v2.o)
 .ARM.attributes
                0x00000acb       0x3b nand_sunxi/sun8iw5/libnand-sun8iw5(build_nand_partition.o)
 .ARM.attributes
                0x00000b06       0x3b nand_sunxi/sun8iw5/libnand-sun8iw5(build_phy_partition.o)
 .ARM.attributes
                0x00000b41       0x3b nand_sunxi/sun8iw5/libnand-sun8iw5(nand_info_init.o)
 .ARM.attributes
                0x00000b7c       0x3b nand_sunxi/sun8iw5/libnand-sun8iw5(nftl_common.o)
 .ARM.attributes
                0x00000bb7       0x3b nand_sunxi/sun8iw5/libnand-sun8iw5(nftl_build.o)
 .ARM.attributes
                0x00000bf2       0x3b nand_sunxi/sun8iw5/libnand-sun8iw5(nftl_interface.o)
 .ARM.attributes
                0x00000c2d       0x3b nand_sunxi/sun8iw5/libnand-sun8iw5(nftl_init.o)
 .ARM.attributes
                0x00000c68       0x3b nand_sunxi/sun8iw5/libnand-sun8iw5(nand_id.o)
 .ARM.attributes
                0x00000ca3       0x3b nand_sunxi/sun8iw5/libnand-sun8iw5(nftl_list.o)
 .ARM.attributes
                0x00000cde       0x3b nand_sunxi/sun8iw5/libnand-sun8iw5(nftl_logic.o)
 .ARM.attributes
                0x00000d19       0x3b nand_sunxi/sun8iw5/libnand-sun8iw5(nftl_gc.o)
 .ARM.attributes
                0x00000d54       0x3b nand_sunxi/sun8iw5/libnand-sun8iw5(nftl_cache.o)
 .ARM.attributes
                0x00000d8f       0x3b nand_sunxi/sun8iw5/libnand-sun8iw5(nftl_start.o)
 .ARM.attributes
                0x00000dca       0x3b nand_sunxi/sun8iw5/libnand-sun8iw5(nftl_hw_interface.o)
 .ARM.attributes
                0x00000e05       0x3b /home/taga/NuttX/brandy-dev-moon/u-boot-2011.09/arch/arm/lib/eabi_compat.o
 .ARM.attributes
                0x00000e40       0x23 /home/taga/NuttX/brandy-dev-moon/gcc-linaro/bin/../lib/gcc/arm-linux-gnueabi/4.6.3/libgcc.a(_lshrdi3.o)
 .ARM.attributes
                0x00000e63       0x23 /home/taga/NuttX/brandy-dev-moon/gcc-linaro/bin/../lib/gcc/arm-linux-gnueabi/4.6.3/libgcc.a(_ashrdi3.o)
 .ARM.attributes
                0x00000e86       0x23 /home/taga/NuttX/brandy-dev-moon/gcc-linaro/bin/../lib/gcc/arm-linux-gnueabi/4.6.3/libgcc.a(_ashldi3.o)
 .ARM.attributes
                0x00000ea9       0x23 /home/taga/NuttX/brandy-dev-moon/gcc-linaro/bin/../lib/gcc/arm-linux-gnueabi/4.6.3/libgcc.a(_arm_addsubdf3.o)
 .ARM.attributes
                0x00000ecc       0x23 /home/taga/NuttX/brandy-dev-moon/gcc-linaro/bin/../lib/gcc/arm-linux-gnueabi/4.6.3/libgcc.a(_arm_muldivdf3.o)
 .ARM.attributes
                0x00000eef       0x23 /home/taga/NuttX/brandy-dev-moon/gcc-linaro/bin/../lib/gcc/arm-linux-gnueabi/4.6.3/libgcc.a(_arm_truncdfsf2.o)
 .ARM.attributes
                0x00000f12       0x23 /home/taga/NuttX/brandy-dev-moon/gcc-linaro/bin/../lib/gcc/arm-linux-gnueabi/4.6.3/libgcc.a(_arm_addsubsf3.o)
 .ARM.attributes
                0x00000f35       0x23 /home/taga/NuttX/brandy-dev-moon/gcc-linaro/bin/../lib/gcc/arm-linux-gnueabi/4.6.3/libgcc.a(_arm_muldivsf3.o)
 .ARM.attributes
                0x00000f58       0x23 /home/taga/NuttX/brandy-dev-moon/gcc-linaro/bin/../lib/gcc/arm-linux-gnueabi/4.6.3/libgcc.a(_arm_fixsfsi.o)
 .ARM.attributes
                0x00000f7b       0x23 /home/taga/NuttX/brandy-dev-moon/gcc-linaro/bin/../lib/gcc/arm-linux-gnueabi/4.6.3/libgcc.a(_aeabi_uldivmod.o)
 .ARM.attributes
                0x00000f9e       0x23 /home/taga/NuttX/brandy-dev-moon/gcc-linaro/bin/../lib/gcc/arm-linux-gnueabi/4.6.3/libgcc.a(_dvmd_lnx.o)
 .ARM.attributes
                0x00000fc1       0x35 /home/taga/NuttX/brandy-dev-moon/gcc-linaro/bin/../lib/gcc/arm-linux-gnueabi/4.6.3/libgcc.a(bpabi.o)
 .ARM.attributes
                0x00000ff6       0x35 /home/taga/NuttX/brandy-dev-moon/gcc-linaro/bin/../lib/gcc/arm-linux-gnueabi/4.6.3/libgcc.a(_divdi3.o)
 .ARM.attributes
                0x0000102b       0x35 /home/taga/NuttX/brandy-dev-moon/gcc-linaro/bin/../lib/gcc/arm-linux-gnueabi/4.6.3/libgcc.a(_udivdi3.o)
 .ARM.attributes
                0x00001060       0x23 /home/taga/NuttX/brandy-dev-moon/gcc-linaro/bin/../lib/gcc/arm-linux-gnueabi/4.6.3/libgcc.a(_udivsi3.o)

.debug_aranges  0x00000000     0x1cc0
 .debug_aranges
                0x00000000       0x20 arch/arm/cpu/armv7/start.o
 .debug_aranges
                0x00000020       0x60 arch/arm/cpu/armv7/libarmv7.o
 .debug_aranges
                0x00000080      0x1a0 arch/arm/cpu/armv7/sun8iw5/libsun8iw5.o
 .debug_aranges
                0x00000220       0xe0 arch/arm/lib/libarm.o
 .debug_aranges
                0x00000300      0x4e0 common/libcommon.o
 .debug_aranges
                0x000007e0       0x40 disk/libdisk.o
 .debug_aranges
                0x00000820       0x20 drivers/dma/libdma.o
 .debug_aranges
                0x00000840       0x40 drivers/mmc/libmmc.o
 .debug_aranges
                0x00000880       0xa0 drivers/power/libpower.o
 .debug_aranges
                0x00000920       0x20 drivers/pwm/libsunxi_pwm.o
 .debug_aranges
                0x00000940       0x20 drivers/rsb/librsb.o
 .debug_aranges
                0x00000960       0x40 drivers/serial/libserial.o
 .debug_aranges
                0x000009a0       0x40 drivers/smc/libsmc.o
 .debug_aranges
                0x000009e0       0x20 drivers/spi/libspi.o
 .debug_aranges
                0x00000a00       0x20 drivers/spinor/libspinor.o
 .debug_aranges
                0x00000a20       0x20 drivers/storage_type/libstorage_type.o
 .debug_aranges
                0x00000a40       0xa0 drivers/usb/gadget/libusb_gadget.o
 .debug_aranges
                0x00000ae0       0x60 drivers/usb/sunxi_usb/libusb_sunxi_usb.o
 .debug_aranges
                0x00000b40      0x500 drivers/video_sunxi/libvideo_sunxi.o
 .debug_aranges
                0x00001040       0x40 fs/aw_fs/libawfat.o
 .debug_aranges
                0x00001080       0x60 fs/fat/libfat.o
 .debug_aranges
                0x000010e0      0x1e0 lib/libgeneric.o
 .debug_aranges
                0x000012c0       0x20 lib/zlib/libz.o
 .debug_aranges
                0x000012e0       0x20 memtest/libsunxi_memtest.o
 .debug_aranges
                0x00001300       0x40 nand_sunxi/sun8iw5/nand_interface/libnand_interface.o
 .debug_aranges
                0x00001340       0x40 nand_sunxi/sun8iw5/osal/libnand_osal.o
 .debug_aranges
                0x00001380       0xa0 net/libnet.o
 .debug_aranges
                0x00001420      0x1e0 sprite/libsprite.o
 .debug_aranges
                0x00001600      0x140 usb_sunxi/libsunxi_usb.o
 .debug_aranges
                0x00001740       0x20 board/sunxi/sun8iw5/libsun8iw5.o
 .debug_aranges
                0x00001760      0x220 board/sunxi/libsunxi.o
 .debug_aranges
                0x00001980       0x20 nand_sunxi/sun8iw5/libnand-sun8iw5(nftl_uboot_interface.o)
 .debug_aranges
                0x000019a0       0x20 nand_sunxi/sun8iw5/libnand-sun8iw5(nand_format.o)
 .debug_aranges
                0x000019c0       0x20 nand_sunxi/sun8iw5/libnand-sun8iw5(nand_phy.o)
 .debug_aranges
                0x000019e0       0x20 nand_sunxi/sun8iw5/libnand-sun8iw5(nand_physic_interface.o)
 .debug_aranges
                0x00001a00       0x20 nand_sunxi/sun8iw5/libnand-sun8iw5(nand_scan.o)
 .debug_aranges
                0x00001a20       0x20 nand_sunxi/sun8iw5/libnand-sun8iw5(nand_simple_r.o)
 .debug_aranges
                0x00001a40       0x20 nand_sunxi/sun8iw5/libnand-sun8iw5(nand_simple_w.o)
 .debug_aranges
                0x00001a60       0x20 nand_sunxi/sun8iw5/libnand-sun8iw5(nfc_reg.o)
 .debug_aranges
                0x00001a80       0x20 nand_sunxi/sun8iw5/libnand-sun8iw5(nfc_r.o)
 .debug_aranges
                0x00001aa0       0x20 nand_sunxi/sun8iw5/libnand-sun8iw5(nfc_w.o)
 .debug_aranges
                0x00001ac0       0x20 nand_sunxi/sun8iw5/libnand-sun8iw5(nand_info_init_v2.o)
 .debug_aranges
                0x00001ae0       0x20 nand_sunxi/sun8iw5/libnand-sun8iw5(build_phy_partition_v2.o)
 .debug_aranges
                0x00001b00       0x20 nand_sunxi/sun8iw5/libnand-sun8iw5(build_nand_partition.o)
 .debug_aranges
                0x00001b20       0x20 nand_sunxi/sun8iw5/libnand-sun8iw5(build_phy_partition.o)
 .debug_aranges
                0x00001b40       0x20 nand_sunxi/sun8iw5/libnand-sun8iw5(nand_info_init.o)
 .debug_aranges
                0x00001b60       0x20 nand_sunxi/sun8iw5/libnand-sun8iw5(nftl_common.o)
 .debug_aranges
                0x00001b80       0x20 nand_sunxi/sun8iw5/libnand-sun8iw5(nftl_build.o)
 .debug_aranges
                0x00001ba0       0x20 nand_sunxi/sun8iw5/libnand-sun8iw5(nftl_interface.o)
 .debug_aranges
                0x00001bc0       0x20 nand_sunxi/sun8iw5/libnand-sun8iw5(nftl_init.o)
 .debug_aranges
                0x00001be0       0x20 nand_sunxi/sun8iw5/libnand-sun8iw5(nftl_list.o)
 .debug_aranges
                0x00001c00       0x20 nand_sunxi/sun8iw5/libnand-sun8iw5(nftl_logic.o)
 .debug_aranges
                0x00001c20       0x20 nand_sunxi/sun8iw5/libnand-sun8iw5(nftl_gc.o)
 .debug_aranges
                0x00001c40       0x20 nand_sunxi/sun8iw5/libnand-sun8iw5(nftl_cache.o)
 .debug_aranges
                0x00001c60       0x20 nand_sunxi/sun8iw5/libnand-sun8iw5(nftl_start.o)
 .debug_aranges
                0x00001c80       0x20 nand_sunxi/sun8iw5/libnand-sun8iw5(nftl_hw_interface.o)
 .debug_aranges
                0x00001ca0       0x20 /home/taga/NuttX/brandy-dev-moon/u-boot-2011.09/arch/arm/lib/eabi_compat.o

.debug_frame    0x00000000    0x146dc
 .debug_frame   0x00000000      0x218 arch/arm/cpu/armv7/libarmv7.o
 .debug_frame   0x00000218      0xec4 arch/arm/cpu/armv7/sun8iw5/libsun8iw5.o
 .debug_frame   0x000010dc      0x4a0 arch/arm/lib/libarm.o
 .debug_frame   0x0000157c     0x1e74 common/libcommon.o
 .debug_frame   0x000033f0      0x168 disk/libdisk.o
 .debug_frame   0x00003558      0x14c drivers/dma/libdma.o
 .debug_frame   0x000036a4      0x970 drivers/mmc/libmmc.o
 .debug_frame   0x00004014      0x958 drivers/power/libpower.o
 .debug_frame   0x0000496c       0xd4 drivers/pwm/libsunxi_pwm.o
 .debug_frame   0x00004a40      0x110 drivers/rsb/librsb.o
 .debug_frame   0x00004b50      0x180 drivers/serial/libserial.o
 .debug_frame   0x00004cd0       0x20 drivers/smc/libsmc.o
 .debug_frame   0x00004cf0      0x140 drivers/spi/libspi.o
 .debug_frame   0x00004e30      0x2bc drivers/spinor/libspinor.o
 .debug_frame   0x000050ec      0x600 drivers/storage_type/libstorage_type.o
 .debug_frame   0x000056ec      0x560 drivers/usb/gadget/libusb_gadget.o
 .debug_frame   0x00005c4c      0x4bc drivers/usb/sunxi_usb/libusb_sunxi_usb.o
 .debug_frame   0x00006108     0x4854 drivers/video_sunxi/libvideo_sunxi.o
 .debug_frame   0x0000a95c      0x640 fs/aw_fs/libawfat.o
 .debug_frame   0x0000af9c      0x3c0 fs/fat/libfat.o
 .debug_frame   0x0000b35c      0x918 lib/libgeneric.o
 .debug_frame   0x0000bc74      0x118 lib/zlib/libz.o
 .debug_frame   0x0000bd8c      0x258 memtest/libsunxi_memtest.o
 .debug_frame   0x0000bfe4      0x1d0 nand_sunxi/sun8iw5/nand_interface/libnand_interface.o
 .debug_frame   0x0000c1b4      0x8ac nand_sunxi/sun8iw5/osal/libnand_osal.o
 .debug_frame   0x0000ca60      0x844 net/libnet.o
 .debug_frame   0x0000d2a4      0xa20 sprite/libsprite.o
 .debug_frame   0x0000dcc4      0xa18 usb_sunxi/libsunxi_usb.o
 .debug_frame   0x0000e6dc       0xd4 board/sunxi/sun8iw5/libsun8iw5.o
 .debug_frame   0x0000e7b0     0x1160 board/sunxi/libsunxi.o
 .debug_frame   0x0000f910      0x148 nand_sunxi/sun8iw5/libnand-sun8iw5(nftl_uboot_interface.o)
 .debug_frame   0x0000fa58      0x1f8 nand_sunxi/sun8iw5/libnand-sun8iw5(nand_format.o)
 .debug_frame   0x0000fc50      0x518 nand_sunxi/sun8iw5/libnand-sun8iw5(nand_phy.o)
 .debug_frame   0x00010168      0x274 nand_sunxi/sun8iw5/libnand-sun8iw5(nand_physic_interface.o)
 .debug_frame   0x000103dc      0x334 nand_sunxi/sun8iw5/libnand-sun8iw5(nand_scan.o)
 .debug_frame   0x00010710      0x758 nand_sunxi/sun8iw5/libnand-sun8iw5(nand_simple_r.o)
 .debug_frame   0x00010e68      0x330 nand_sunxi/sun8iw5/libnand-sun8iw5(nand_simple_w.o)
 .debug_frame   0x00011198      0x798 nand_sunxi/sun8iw5/libnand-sun8iw5(nfc_reg.o)
 .debug_frame   0x00011930      0x8fc nand_sunxi/sun8iw5/libnand-sun8iw5(nfc_r.o)
 .debug_frame   0x0001222c      0x4b0 nand_sunxi/sun8iw5/libnand-sun8iw5(nfc_w.o)
 .debug_frame   0x000126dc      0x44c nand_sunxi/sun8iw5/libnand-sun8iw5(nand_info_init_v2.o)
 .debug_frame   0x00012b28       0xb8 nand_sunxi/sun8iw5/libnand-sun8iw5(build_phy_partition_v2.o)
 .debug_frame   0x00012be0       0xe0 nand_sunxi/sun8iw5/libnand-sun8iw5(build_nand_partition.o)
 .debug_frame   0x00012cc0      0x248 nand_sunxi/sun8iw5/libnand-sun8iw5(build_phy_partition.o)
 .debug_frame   0x00012f08      0x204 nand_sunxi/sun8iw5/libnand-sun8iw5(nand_info_init.o)
 .debug_frame   0x0001310c      0x274 nand_sunxi/sun8iw5/libnand-sun8iw5(nftl_common.o)
 .debug_frame   0x00013380      0x648 nand_sunxi/sun8iw5/libnand-sun8iw5(nftl_build.o)
 .debug_frame   0x000139c8       0x68 nand_sunxi/sun8iw5/libnand-sun8iw5(nftl_interface.o)
 .debug_frame   0x00013a30      0x110 nand_sunxi/sun8iw5/libnand-sun8iw5(nftl_init.o)
 .debug_frame   0x00013b40      0x254 nand_sunxi/sun8iw5/libnand-sun8iw5(nftl_list.o)
 .debug_frame   0x00013d94      0x264 nand_sunxi/sun8iw5/libnand-sun8iw5(nftl_logic.o)
 .debug_frame   0x00013ff8      0x1cc nand_sunxi/sun8iw5/libnand-sun8iw5(nftl_gc.o)
 .debug_frame   0x000141c4      0x2ec nand_sunxi/sun8iw5/libnand-sun8iw5(nftl_cache.o)
 .debug_frame   0x000144b0       0x50 nand_sunxi/sun8iw5/libnand-sun8iw5(nftl_start.o)
 .debug_frame   0x00014500       0xc0 nand_sunxi/sun8iw5/libnand-sun8iw5(nftl_hw_interface.o)
 .debug_frame   0x000145c0       0x38 /home/taga/NuttX/brandy-dev-moon/u-boot-2011.09/arch/arm/lib/eabi_compat.o
 .debug_frame   0x000145f8       0x54 /home/taga/NuttX/brandy-dev-moon/gcc-linaro/bin/../lib/gcc/arm-linux-gnueabi/4.6.3/libgcc.a(bpabi.o)
 .debug_frame   0x0001464c       0x38 /home/taga/NuttX/brandy-dev-moon/gcc-linaro/bin/../lib/gcc/arm-linux-gnueabi/4.6.3/libgcc.a(_divdi3.o)
 .debug_frame   0x00014684       0x38 /home/taga/NuttX/brandy-dev-moon/gcc-linaro/bin/../lib/gcc/arm-linux-gnueabi/4.6.3/libgcc.a(_udivdi3.o)
 .debug_frame   0x000146bc       0x20 /home/taga/NuttX/brandy-dev-moon/gcc-linaro/bin/../lib/gcc/arm-linux-gnueabi/4.6.3/libgcc.a(_udivsi3.o)

.debug_loc      0x00000000    0x7ae7f
 .debug_loc     0x00000000      0x766 arch/arm/cpu/armv7/libarmv7.o
 .debug_loc     0x00000766     0x4177 arch/arm/cpu/armv7/sun8iw5/libsun8iw5.o
 .debug_loc     0x000048dd      0xb8d arch/arm/lib/libarm.o
 .debug_loc     0x0000546a     0xe27b common/libcommon.o
 .debug_loc     0x000136e5      0x7fd disk/libdisk.o
 .debug_loc     0x00013ee2      0x501 drivers/dma/libdma.o
 .debug_loc     0x000143e3     0x5b02 drivers/mmc/libmmc.o
 .debug_loc     0x00019ee5     0x290d drivers/power/libpower.o
 .debug_loc     0x0001c7f2      0x589 drivers/pwm/libsunxi_pwm.o
 .debug_loc     0x0001cd7b     0x11ae drivers/rsb/librsb.o
 .debug_loc     0x0001df29      0x296 drivers/serial/libserial.o
 .debug_loc     0x0001e1bf      0x88e drivers/spi/libspi.o
 .debug_loc     0x0001ea4d      0xc0f drivers/spinor/libspinor.o
 .debug_loc     0x0001f65c     0x122c drivers/storage_type/libstorage_type.o
 .debug_loc     0x00020888     0x2a03 drivers/usb/gadget/libusb_gadget.o
 .debug_loc     0x0002328b     0x20ec drivers/usb/sunxi_usb/libusb_sunxi_usb.o
 .debug_loc     0x00025377    0x13d1f drivers/video_sunxi/libvideo_sunxi.o
 .debug_loc     0x00039096     0x3cff fs/aw_fs/libawfat.o
 .debug_loc     0x0003cd95     0x3018 fs/fat/libfat.o
 .debug_loc     0x0003fdad     0x4068 lib/libgeneric.o
 .debug_loc     0x00043e15     0x2229 lib/zlib/libz.o
 .debug_loc     0x0004603e     0x1414 memtest/libsunxi_memtest.o
 .debug_loc     0x00047452      0x50d nand_sunxi/sun8iw5/nand_interface/libnand_interface.o
 .debug_loc     0x0004795f     0x29d4 nand_sunxi/sun8iw5/osal/libnand_osal.o
 .debug_loc     0x0004a333     0x2bb0 net/libnet.o
 .debug_loc     0x0004cee3     0x36d6 sprite/libsprite.o
 .debug_loc     0x000505b9     0x4e1d usb_sunxi/libsunxi_usb.o
 .debug_loc     0x000553d6      0x213 board/sunxi/sun8iw5/libsun8iw5.o
 .debug_loc     0x000555e9     0x8aa6 board/sunxi/libsunxi.o
 .debug_loc     0x0005e08f      0x8df nand_sunxi/sun8iw5/libnand-sun8iw5(nftl_uboot_interface.o)
 .debug_loc     0x0005e96e      0xaec nand_sunxi/sun8iw5/libnand-sun8iw5(nand_format.o)
 .debug_loc     0x0005f45a     0x3337 nand_sunxi/sun8iw5/libnand-sun8iw5(nand_phy.o)
 .debug_loc     0x00062791      0xdcc nand_sunxi/sun8iw5/libnand-sun8iw5(nand_physic_interface.o)
 .debug_loc     0x0006355d      0x8b1 nand_sunxi/sun8iw5/libnand-sun8iw5(nand_scan.o)
 .debug_loc     0x00063e0e     0x3a6e nand_sunxi/sun8iw5/libnand-sun8iw5(nand_simple_r.o)
 .debug_loc     0x0006787c     0x1267 nand_sunxi/sun8iw5/libnand-sun8iw5(nand_simple_w.o)
 .debug_loc     0x00068ae3      0xa92 nand_sunxi/sun8iw5/libnand-sun8iw5(nfc_reg.o)
 .debug_loc     0x00069575     0x4719 nand_sunxi/sun8iw5/libnand-sun8iw5(nfc_r.o)
 .debug_loc     0x0006dc8e     0x2e68 nand_sunxi/sun8iw5/libnand-sun8iw5(nfc_w.o)
 .debug_loc     0x00070af6     0x1924 nand_sunxi/sun8iw5/libnand-sun8iw5(nand_info_init_v2.o)
 .debug_loc     0x0007241a      0x5c7 nand_sunxi/sun8iw5/libnand-sun8iw5(build_phy_partition_v2.o)
 .debug_loc     0x000729e1      0x2e2 nand_sunxi/sun8iw5/libnand-sun8iw5(build_nand_partition.o)
 .debug_loc     0x00072cc3      0xb29 nand_sunxi/sun8iw5/libnand-sun8iw5(build_phy_partition.o)
 .debug_loc     0x000737ec      0x97e nand_sunxi/sun8iw5/libnand-sun8iw5(nand_info_init.o)
 .debug_loc     0x0007416a      0xa07 nand_sunxi/sun8iw5/libnand-sun8iw5(nftl_common.o)
 .debug_loc     0x00074b71     0x27a2 nand_sunxi/sun8iw5/libnand-sun8iw5(nftl_build.o)
 .debug_loc     0x00077313       0xc7 nand_sunxi/sun8iw5/libnand-sun8iw5(nftl_interface.o)
 .debug_loc     0x000773da      0x2d1 nand_sunxi/sun8iw5/libnand-sun8iw5(nftl_init.o)
 .debug_loc     0x000776ab      0xa8f nand_sunxi/sun8iw5/libnand-sun8iw5(nftl_list.o)
 .debug_loc     0x0007813a      0xbef nand_sunxi/sun8iw5/libnand-sun8iw5(nftl_logic.o)
 .debug_loc     0x00078d29      0x98e nand_sunxi/sun8iw5/libnand-sun8iw5(nftl_gc.o)
 .debug_loc     0x000796b7     0x125f nand_sunxi/sun8iw5/libnand-sun8iw5(nftl_cache.o)
 .debug_loc     0x0007a916      0x2c2 nand_sunxi/sun8iw5/libnand-sun8iw5(nftl_start.o)
 .debug_loc     0x0007abd8      0x269 nand_sunxi/sun8iw5/libnand-sun8iw5(nftl_hw_interface.o)
 .debug_loc     0x0007ae41       0x3e /home/taga/NuttX/brandy-dev-moon/u-boot-2011.09/arch/arm/lib/eabi_compat.o

.debug_ranges   0x00000000     0x4260
 .debug_ranges  0x00000000       0x90 arch/arm/cpu/armv7/libarmv7.o
 .debug_ranges  0x00000090      0x490 arch/arm/cpu/armv7/sun8iw5/libsun8iw5.o
 .debug_ranges  0x00000520       0x18 arch/arm/lib/libarm.o
 .debug_ranges  0x00000538      0x8d8 common/libcommon.o
 .debug_ranges  0x00000e10      0x748 drivers/mmc/libmmc.o
 .debug_ranges  0x00001558       0x30 drivers/power/libpower.o
 .debug_ranges  0x00001588       0xb0 drivers/pwm/libsunxi_pwm.o
 .debug_ranges  0x00001638      0x1d8 drivers/rsb/librsb.o
 .debug_ranges  0x00001810      0x178 drivers/spi/libspi.o
 .debug_ranges  0x00001988      0x4b0 drivers/usb/gadget/libusb_gadget.o
 .debug_ranges  0x00001e38      0x310 drivers/usb/sunxi_usb/libusb_sunxi_usb.o
 .debug_ranges  0x00002148      0x570 drivers/video_sunxi/libvideo_sunxi.o
 .debug_ranges  0x000026b8      0x1d8 fs/aw_fs/libawfat.o
 .debug_ranges  0x00002890      0x3b8 fs/fat/libfat.o
 .debug_ranges  0x00002c48      0x358 lib/libgeneric.o
 .debug_ranges  0x00002fa0       0x48 lib/zlib/libz.o
 .debug_ranges  0x00002fe8       0x60 nand_sunxi/sun8iw5/osal/libnand_osal.o
 .debug_ranges  0x00003048      0x4a8 net/libnet.o
 .debug_ranges  0x000034f0       0x88 sprite/libsprite.o
 .debug_ranges  0x00003578      0x520 usb_sunxi/libsunxi_usb.o
 .debug_ranges  0x00003a98       0x60 board/sunxi/sun8iw5/libsun8iw5.o
 .debug_ranges  0x00003af8      0x3a0 board/sunxi/libsunxi.o
 .debug_ranges  0x00003e98       0x30 nand_sunxi/sun8iw5/libnand-sun8iw5(nftl_uboot_interface.o)
 .debug_ranges  0x00003ec8       0x18 nand_sunxi/sun8iw5/libnand-sun8iw5(nand_phy.o)
 .debug_ranges  0x00003ee0       0x50 nand_sunxi/sun8iw5/libnand-sun8iw5(nand_physic_interface.o)
 .debug_ranges  0x00003f30       0x60 nand_sunxi/sun8iw5/libnand-sun8iw5(nand_scan.o)
 .debug_ranges  0x00003f90      0x1d8 nand_sunxi/sun8iw5/libnand-sun8iw5(nand_simple_r.o)
 .debug_ranges  0x00004168       0x30 nand_sunxi/sun8iw5/libnand-sun8iw5(build_phy_partition.o)
 .debug_ranges  0x00004198       0x30 nand_sunxi/sun8iw5/libnand-sun8iw5(nftl_common.o)
 .debug_ranges  0x000041c8       0x60 nand_sunxi/sun8iw5/libnand-sun8iw5(nftl_build.o)
 .debug_ranges  0x00004228       0x38 nand_sunxi/sun8iw5/libnand-sun8iw5(nftl_logic.o)
